ARM GAS  /tmp/ccqWxUNc.s 			page 1


   1              		.cpu cortex-m0
   2              		.eabi_attribute 20, 1
   3              		.eabi_attribute 21, 1
   4              		.eabi_attribute 23, 3
   5              		.eabi_attribute 24, 1
   6              		.eabi_attribute 25, 1
   7              		.eabi_attribute 26, 1
   8              		.eabi_attribute 30, 1
   9              		.eabi_attribute 34, 0
  10              		.eabi_attribute 18, 4
  11              		.file	"rtc.c"
  12              		.text
  13              	.Ltext0:
  14              		.cfi_sections	.debug_frame
  15              		.section	.text.MX_RTC_Init,"ax",%progbits
  16              		.align	1
  17              		.global	MX_RTC_Init
  18              		.arch armv6s-m
  19              		.syntax unified
  20              		.code	16
  21              		.thumb_func
  22              		.fpu softvfp
  24              	MX_RTC_Init:
  25              	.LFB40:
  26              		.file 1 "Core/Src/rtc.c"
   1:Core/Src/rtc.c **** /**
   2:Core/Src/rtc.c ****   ******************************************************************************
   3:Core/Src/rtc.c ****   * File Name          : RTC.c
   4:Core/Src/rtc.c ****   * Description        : This file provides code for the configuration
   5:Core/Src/rtc.c ****   *                      of the RTC instances.
   6:Core/Src/rtc.c ****   ******************************************************************************
   7:Core/Src/rtc.c ****   * @attention
   8:Core/Src/rtc.c ****   *
   9:Core/Src/rtc.c ****   * <h2><center>&copy; Copyright (c) 2020 STMicroelectronics.
  10:Core/Src/rtc.c ****   * All rights reserved.</center></h2>
  11:Core/Src/rtc.c ****   *
  12:Core/Src/rtc.c ****   * This software component is licensed by ST under BSD 3-Clause license,
  13:Core/Src/rtc.c ****   * the "License"; You may not use this file except in compliance with the
  14:Core/Src/rtc.c ****   * License. You may obtain a copy of the License at:
  15:Core/Src/rtc.c ****   *                        opensource.org/licenses/BSD-3-Clause
  16:Core/Src/rtc.c ****   *
  17:Core/Src/rtc.c ****   ******************************************************************************
  18:Core/Src/rtc.c ****   */
  19:Core/Src/rtc.c **** 
  20:Core/Src/rtc.c **** /* Includes ------------------------------------------------------------------*/
  21:Core/Src/rtc.c **** #include "rtc.h"
  22:Core/Src/rtc.c **** 
  23:Core/Src/rtc.c **** /* USER CODE BEGIN 0 */
  24:Core/Src/rtc.c **** 
  25:Core/Src/rtc.c **** /* USER CODE END 0 */
  26:Core/Src/rtc.c **** 
  27:Core/Src/rtc.c **** RTC_HandleTypeDef hrtc;
  28:Core/Src/rtc.c **** 
  29:Core/Src/rtc.c **** /* RTC init function */
  30:Core/Src/rtc.c **** void MX_RTC_Init(void)
  31:Core/Src/rtc.c **** {
  27              		.loc 1 31 1 view -0
ARM GAS  /tmp/ccqWxUNc.s 			page 2


  28              		.cfi_startproc
  29              		@ args = 0, pretend = 0, frame = 24
  30              		@ frame_needed = 0, uses_anonymous_args = 0
  31 0000 00B5     		push	{lr}
  32              	.LCFI0:
  33              		.cfi_def_cfa_offset 4
  34              		.cfi_offset 14, -4
  35 0002 87B0     		sub	sp, sp, #28
  36              	.LCFI1:
  37              		.cfi_def_cfa_offset 32
  32:Core/Src/rtc.c ****   RTC_TimeTypeDef sTime = {0};
  38              		.loc 1 32 3 view .LVU1
  39              		.loc 1 32 19 is_stmt 0 view .LVU2
  40 0004 1422     		movs	r2, #20
  41 0006 0021     		movs	r1, #0
  42 0008 01A8     		add	r0, sp, #4
  43 000a FFF7FEFF 		bl	memset
  44              	.LVL0:
  33:Core/Src/rtc.c ****   RTC_DateTypeDef sDate = {0};
  45              		.loc 1 33 3 is_stmt 1 view .LVU3
  46              		.loc 1 33 19 is_stmt 0 view .LVU4
  47 000e 0023     		movs	r3, #0
  48 0010 0093     		str	r3, [sp]
  34:Core/Src/rtc.c **** 
  35:Core/Src/rtc.c ****   /** Initialize RTC Only
  36:Core/Src/rtc.c ****   */
  37:Core/Src/rtc.c ****   hrtc.Instance = RTC;
  49              		.loc 1 37 3 is_stmt 1 view .LVU5
  50              		.loc 1 37 17 is_stmt 0 view .LVU6
  51 0012 1A48     		ldr	r0, .L8
  52 0014 1A4A     		ldr	r2, .L8+4
  53 0016 0260     		str	r2, [r0]
  38:Core/Src/rtc.c ****   hrtc.Init.HourFormat = RTC_HOURFORMAT_24;
  54              		.loc 1 38 3 is_stmt 1 view .LVU7
  55              		.loc 1 38 24 is_stmt 0 view .LVU8
  56 0018 4360     		str	r3, [r0, #4]
  39:Core/Src/rtc.c ****   hrtc.Init.AsynchPrediv = 127;
  57              		.loc 1 39 3 is_stmt 1 view .LVU9
  58              		.loc 1 39 26 is_stmt 0 view .LVU10
  59 001a 7F22     		movs	r2, #127
  60 001c 8260     		str	r2, [r0, #8]
  40:Core/Src/rtc.c ****   hrtc.Init.SynchPrediv = 255;
  61              		.loc 1 40 3 is_stmt 1 view .LVU11
  62              		.loc 1 40 25 is_stmt 0 view .LVU12
  63 001e 8032     		adds	r2, r2, #128
  64 0020 C260     		str	r2, [r0, #12]
  41:Core/Src/rtc.c ****   hrtc.Init.OutPut = RTC_OUTPUT_DISABLE;
  65              		.loc 1 41 3 is_stmt 1 view .LVU13
  66              		.loc 1 41 20 is_stmt 0 view .LVU14
  67 0022 0361     		str	r3, [r0, #16]
  42:Core/Src/rtc.c ****   hrtc.Init.OutPutPolarity = RTC_OUTPUT_POLARITY_HIGH;
  68              		.loc 1 42 3 is_stmt 1 view .LVU15
  69              		.loc 1 42 28 is_stmt 0 view .LVU16
  70 0024 4361     		str	r3, [r0, #20]
  43:Core/Src/rtc.c ****   hrtc.Init.OutPutType = RTC_OUTPUT_TYPE_OPENDRAIN;
  71              		.loc 1 43 3 is_stmt 1 view .LVU17
  72              		.loc 1 43 24 is_stmt 0 view .LVU18
ARM GAS  /tmp/ccqWxUNc.s 			page 3


  73 0026 8361     		str	r3, [r0, #24]
  44:Core/Src/rtc.c ****   if (HAL_RTC_Init(&hrtc) != HAL_OK)
  74              		.loc 1 44 3 is_stmt 1 view .LVU19
  75              		.loc 1 44 7 is_stmt 0 view .LVU20
  76 0028 FFF7FEFF 		bl	HAL_RTC_Init
  77              	.LVL1:
  78              		.loc 1 44 6 view .LVU21
  79 002c 0028     		cmp	r0, #0
  80 002e 1CD1     		bne	.L5
  81              	.L2:
  45:Core/Src/rtc.c ****   {
  46:Core/Src/rtc.c ****     Error_Handler();
  47:Core/Src/rtc.c ****   }
  48:Core/Src/rtc.c **** 
  49:Core/Src/rtc.c ****   /* USER CODE BEGIN Check_RTC_BKUP */
  50:Core/Src/rtc.c **** 
  51:Core/Src/rtc.c ****   /* USER CODE END Check_RTC_BKUP */
  52:Core/Src/rtc.c **** 
  53:Core/Src/rtc.c ****   /** Initialize RTC and set the Time and Date
  54:Core/Src/rtc.c ****   */
  55:Core/Src/rtc.c ****   sTime.Hours = 0x0;
  82              		.loc 1 55 3 is_stmt 1 view .LVU22
  83              		.loc 1 55 15 is_stmt 0 view .LVU23
  84 0030 01A9     		add	r1, sp, #4
  85 0032 0023     		movs	r3, #0
  86 0034 0B70     		strb	r3, [r1]
  56:Core/Src/rtc.c ****   sTime.Minutes = 0x0;
  87              		.loc 1 56 3 is_stmt 1 view .LVU24
  88              		.loc 1 56 17 is_stmt 0 view .LVU25
  89 0036 4B70     		strb	r3, [r1, #1]
  57:Core/Src/rtc.c ****   sTime.Seconds = 0x0;
  90              		.loc 1 57 3 is_stmt 1 view .LVU26
  91              		.loc 1 57 17 is_stmt 0 view .LVU27
  92 0038 8B70     		strb	r3, [r1, #2]
  58:Core/Src/rtc.c ****   sTime.DayLightSaving = RTC_DAYLIGHTSAVING_NONE;
  93              		.loc 1 58 3 is_stmt 1 view .LVU28
  94              		.loc 1 58 24 is_stmt 0 view .LVU29
  95 003a CB60     		str	r3, [r1, #12]
  59:Core/Src/rtc.c ****   sTime.StoreOperation = RTC_STOREOPERATION_RESET;
  96              		.loc 1 59 3 is_stmt 1 view .LVU30
  97              		.loc 1 59 24 is_stmt 0 view .LVU31
  98 003c 0B61     		str	r3, [r1, #16]
  60:Core/Src/rtc.c ****   if (HAL_RTC_SetTime(&hrtc, &sTime, RTC_FORMAT_BCD) != HAL_OK)
  99              		.loc 1 60 3 is_stmt 1 view .LVU32
 100              		.loc 1 60 7 is_stmt 0 view .LVU33
 101 003e 0122     		movs	r2, #1
 102 0040 0E48     		ldr	r0, .L8
 103 0042 FFF7FEFF 		bl	HAL_RTC_SetTime
 104              	.LVL2:
 105              		.loc 1 60 6 view .LVU34
 106 0046 0028     		cmp	r0, #0
 107 0048 12D1     		bne	.L6
 108              	.L3:
  61:Core/Src/rtc.c ****   {
  62:Core/Src/rtc.c ****     Error_Handler();
  63:Core/Src/rtc.c ****   }
  64:Core/Src/rtc.c ****   sDate.WeekDay = RTC_WEEKDAY_MONDAY;
ARM GAS  /tmp/ccqWxUNc.s 			page 4


 109              		.loc 1 64 3 is_stmt 1 view .LVU35
 110              		.loc 1 64 17 is_stmt 0 view .LVU36
 111 004a 0123     		movs	r3, #1
 112 004c 6A46     		mov	r2, sp
 113 004e 1370     		strb	r3, [r2]
  65:Core/Src/rtc.c ****   sDate.Month = RTC_MONTH_JANUARY;
 114              		.loc 1 65 3 is_stmt 1 view .LVU37
 115              		.loc 1 65 15 is_stmt 0 view .LVU38
 116 0050 5370     		strb	r3, [r2, #1]
  66:Core/Src/rtc.c ****   sDate.Date = 0x1;
 117              		.loc 1 66 3 is_stmt 1 view .LVU39
 118              		.loc 1 66 14 is_stmt 0 view .LVU40
 119 0052 9370     		strb	r3, [r2, #2]
  67:Core/Src/rtc.c ****   sDate.Year = 0x0;
 120              		.loc 1 67 3 is_stmt 1 view .LVU41
 121              		.loc 1 67 14 is_stmt 0 view .LVU42
 122 0054 0023     		movs	r3, #0
 123 0056 D370     		strb	r3, [r2, #3]
  68:Core/Src/rtc.c **** 
  69:Core/Src/rtc.c ****   if (HAL_RTC_SetDate(&hrtc, &sDate, RTC_FORMAT_BCD) != HAL_OK)
 124              		.loc 1 69 3 is_stmt 1 view .LVU43
 125              		.loc 1 69 7 is_stmt 0 view .LVU44
 126 0058 0122     		movs	r2, #1
 127 005a 6946     		mov	r1, sp
 128 005c 0748     		ldr	r0, .L8
 129 005e FFF7FEFF 		bl	HAL_RTC_SetDate
 130              	.LVL3:
 131              		.loc 1 69 6 view .LVU45
 132 0062 0028     		cmp	r0, #0
 133 0064 07D1     		bne	.L7
 134              	.L1:
  70:Core/Src/rtc.c ****   {
  71:Core/Src/rtc.c ****     Error_Handler();
  72:Core/Src/rtc.c ****   }
  73:Core/Src/rtc.c **** 
  74:Core/Src/rtc.c **** }
 135              		.loc 1 74 1 view .LVU46
 136 0066 07B0     		add	sp, sp, #28
 137              		@ sp needed
 138 0068 00BD     		pop	{pc}
 139              	.L5:
  46:Core/Src/rtc.c ****   }
 140              		.loc 1 46 5 is_stmt 1 view .LVU47
 141 006a FFF7FEFF 		bl	Error_Handler
 142              	.LVL4:
 143 006e DFE7     		b	.L2
 144              	.L6:
  62:Core/Src/rtc.c ****   }
 145              		.loc 1 62 5 view .LVU48
 146 0070 FFF7FEFF 		bl	Error_Handler
 147              	.LVL5:
 148 0074 E9E7     		b	.L3
 149              	.L7:
  71:Core/Src/rtc.c ****   }
 150              		.loc 1 71 5 view .LVU49
 151 0076 FFF7FEFF 		bl	Error_Handler
 152              	.LVL6:
ARM GAS  /tmp/ccqWxUNc.s 			page 5


 153              		.loc 1 74 1 is_stmt 0 view .LVU50
 154 007a F4E7     		b	.L1
 155              	.L9:
 156              		.align	2
 157              	.L8:
 158 007c 00000000 		.word	hrtc
 159 0080 00280040 		.word	1073752064
 160              		.cfi_endproc
 161              	.LFE40:
 163              		.section	.text.HAL_RTC_MspInit,"ax",%progbits
 164              		.align	1
 165              		.global	HAL_RTC_MspInit
 166              		.syntax unified
 167              		.code	16
 168              		.thumb_func
 169              		.fpu softvfp
 171              	HAL_RTC_MspInit:
 172              	.LVL7:
 173              	.LFB41:
  75:Core/Src/rtc.c **** 
  76:Core/Src/rtc.c **** void HAL_RTC_MspInit(RTC_HandleTypeDef* rtcHandle)
  77:Core/Src/rtc.c **** {
 174              		.loc 1 77 1 is_stmt 1 view -0
 175              		.cfi_startproc
 176              		@ args = 0, pretend = 0, frame = 0
 177              		@ frame_needed = 0, uses_anonymous_args = 0
 178              		@ link register save eliminated.
  78:Core/Src/rtc.c **** 
  79:Core/Src/rtc.c ****   if(rtcHandle->Instance==RTC)
 179              		.loc 1 79 3 view .LVU52
 180              		.loc 1 79 15 is_stmt 0 view .LVU53
 181 0000 0268     		ldr	r2, [r0]
 182              		.loc 1 79 5 view .LVU54
 183 0002 054B     		ldr	r3, .L13
 184 0004 9A42     		cmp	r2, r3
 185 0006 00D0     		beq	.L12
 186              	.L10:
  80:Core/Src/rtc.c ****   {
  81:Core/Src/rtc.c ****   /* USER CODE BEGIN RTC_MspInit 0 */
  82:Core/Src/rtc.c **** 
  83:Core/Src/rtc.c ****   /* USER CODE END RTC_MspInit 0 */
  84:Core/Src/rtc.c ****     /* RTC clock enable */
  85:Core/Src/rtc.c ****     __HAL_RCC_RTC_ENABLE();
  86:Core/Src/rtc.c ****   /* USER CODE BEGIN RTC_MspInit 1 */
  87:Core/Src/rtc.c **** 
  88:Core/Src/rtc.c ****   /* USER CODE END RTC_MspInit 1 */
  89:Core/Src/rtc.c ****   }
  90:Core/Src/rtc.c **** }
 187              		.loc 1 90 1 view .LVU55
 188              		@ sp needed
 189 0008 7047     		bx	lr
 190              	.L12:
  85:Core/Src/rtc.c ****   /* USER CODE BEGIN RTC_MspInit 1 */
 191              		.loc 1 85 5 is_stmt 1 view .LVU56
 192 000a 044A     		ldr	r2, .L13+4
 193 000c 116A     		ldr	r1, [r2, #32]
 194 000e 8023     		movs	r3, #128
ARM GAS  /tmp/ccqWxUNc.s 			page 6


 195 0010 1B02     		lsls	r3, r3, #8
 196 0012 0B43     		orrs	r3, r1
 197 0014 1362     		str	r3, [r2, #32]
 198              		.loc 1 90 1 is_stmt 0 view .LVU57
 199 0016 F7E7     		b	.L10
 200              	.L14:
 201              		.align	2
 202              	.L13:
 203 0018 00280040 		.word	1073752064
 204 001c 00100240 		.word	1073876992
 205              		.cfi_endproc
 206              	.LFE41:
 208              		.section	.text.HAL_RTC_MspDeInit,"ax",%progbits
 209              		.align	1
 210              		.global	HAL_RTC_MspDeInit
 211              		.syntax unified
 212              		.code	16
 213              		.thumb_func
 214              		.fpu softvfp
 216              	HAL_RTC_MspDeInit:
 217              	.LVL8:
 218              	.LFB42:
  91:Core/Src/rtc.c **** 
  92:Core/Src/rtc.c **** void HAL_RTC_MspDeInit(RTC_HandleTypeDef* rtcHandle)
  93:Core/Src/rtc.c **** {
 219              		.loc 1 93 1 is_stmt 1 view -0
 220              		.cfi_startproc
 221              		@ args = 0, pretend = 0, frame = 0
 222              		@ frame_needed = 0, uses_anonymous_args = 0
 223              		@ link register save eliminated.
  94:Core/Src/rtc.c **** 
  95:Core/Src/rtc.c ****   if(rtcHandle->Instance==RTC)
 224              		.loc 1 95 3 view .LVU59
 225              		.loc 1 95 15 is_stmt 0 view .LVU60
 226 0000 0268     		ldr	r2, [r0]
 227              		.loc 1 95 5 view .LVU61
 228 0002 054B     		ldr	r3, .L18
 229 0004 9A42     		cmp	r2, r3
 230 0006 00D0     		beq	.L17
 231              	.L15:
  96:Core/Src/rtc.c ****   {
  97:Core/Src/rtc.c ****   /* USER CODE BEGIN RTC_MspDeInit 0 */
  98:Core/Src/rtc.c **** 
  99:Core/Src/rtc.c ****   /* USER CODE END RTC_MspDeInit 0 */
 100:Core/Src/rtc.c ****     /* Peripheral clock disable */
 101:Core/Src/rtc.c ****     __HAL_RCC_RTC_DISABLE();
 102:Core/Src/rtc.c ****   /* USER CODE BEGIN RTC_MspDeInit 1 */
 103:Core/Src/rtc.c **** 
 104:Core/Src/rtc.c ****   /* USER CODE END RTC_MspDeInit 1 */
 105:Core/Src/rtc.c ****   }
 106:Core/Src/rtc.c **** }
 232              		.loc 1 106 1 view .LVU62
 233              		@ sp needed
 234 0008 7047     		bx	lr
 235              	.L17:
 101:Core/Src/rtc.c ****   /* USER CODE BEGIN RTC_MspDeInit 1 */
 236              		.loc 1 101 5 is_stmt 1 view .LVU63
ARM GAS  /tmp/ccqWxUNc.s 			page 7


 237 000a 044A     		ldr	r2, .L18+4
 238 000c 136A     		ldr	r3, [r2, #32]
 239 000e 0449     		ldr	r1, .L18+8
 240 0010 0B40     		ands	r3, r1
 241 0012 1362     		str	r3, [r2, #32]
 242              		.loc 1 106 1 is_stmt 0 view .LVU64
 243 0014 F8E7     		b	.L15
 244              	.L19:
 245 0016 C046     		.align	2
 246              	.L18:
 247 0018 00280040 		.word	1073752064
 248 001c 00100240 		.word	1073876992
 249 0020 FF7FFFFF 		.word	-32769
 250              		.cfi_endproc
 251              	.LFE42:
 253              		.comm	hrtc,32,4
 254              		.text
 255              	.Letext0:
 256              		.file 2 "/usr/lib/gcc/arm-none-eabi/9.2.1/include/stdint.h"
 257              		.file 3 "Drivers/CMSIS/Device/ST/STM32F0xx/Include/system_stm32f0xx.h"
 258              		.file 4 "Drivers/CMSIS/Device/ST/STM32F0xx/Include/stm32f051x8.h"
 259              		.file 5 "Drivers/STM32F0xx_HAL_Driver/Inc/stm32f0xx_hal_def.h"
 260              		.file 6 "Drivers/STM32F0xx_HAL_Driver/Inc/stm32f0xx_hal_rtc.h"
 261              		.file 7 "Drivers/STM32F0xx_HAL_Driver/Inc/stm32f0xx_hal.h"
 262              		.file 8 "Core/Inc/rtc.h"
 263              		.file 9 "Core/Inc/main.h"
 264              		.file 10 "<built-in>"
ARM GAS  /tmp/ccqWxUNc.s 			page 8

