ARM GAS  /tmp/cccFncD6.s 			page 1


   1              		.cpu cortex-m0plus
   2              		.eabi_attribute 20, 1
   3              		.eabi_attribute 21, 1
   4              		.eabi_attribute 23, 3
   5              		.eabi_attribute 24, 1
   6              		.eabi_attribute 25, 1
   7              		.eabi_attribute 26, 1
   8              		.eabi_attribute 30, 2
   9              		.eabi_attribute 34, 0
  10              		.eabi_attribute 18, 4
  11              		.file	"adc.c"
  12              		.text
  13              	.Ltext0:
  14              		.cfi_sections	.debug_frame
  15              		.section	.text.MX_ADC_Init,"ax",%progbits
  16              		.align	1
  17              		.p2align 2,,3
  18              		.global	MX_ADC_Init
  19              		.arch armv6s-m
  20              		.syntax unified
  21              		.code	16
  22              		.thumb_func
  23              		.fpu softvfp
  25              	MX_ADC_Init:
  26              	.LFB1053:
  27              		.file 1 "Core/Src/adc.c"
   1:Core/Src/adc.c **** /**
   2:Core/Src/adc.c ****   ******************************************************************************
   3:Core/Src/adc.c ****   * @file    adc.c
   4:Core/Src/adc.c ****   * @brief   This file provides code for the configuration
   5:Core/Src/adc.c ****   *          of the ADC instances.
   6:Core/Src/adc.c ****   ******************************************************************************
   7:Core/Src/adc.c ****   * @attention
   8:Core/Src/adc.c ****   *
   9:Core/Src/adc.c ****   * <h2><center>&copy; Copyright (c) 2021 STMicroelectronics.
  10:Core/Src/adc.c ****   * All rights reserved.</center></h2>
  11:Core/Src/adc.c ****   *
  12:Core/Src/adc.c ****   * This software component is licensed by ST under BSD 3-Clause license,
  13:Core/Src/adc.c ****   * the "License"; You may not use this file except in compliance with the
  14:Core/Src/adc.c ****   * License. You may obtain a copy of the License at:
  15:Core/Src/adc.c ****   *                        opensource.org/licenses/BSD-3-Clause
  16:Core/Src/adc.c ****   *
  17:Core/Src/adc.c ****   ******************************************************************************
  18:Core/Src/adc.c ****   */
  19:Core/Src/adc.c **** 
  20:Core/Src/adc.c **** /* Includes ------------------------------------------------------------------*/
  21:Core/Src/adc.c **** #include "adc.h"
  22:Core/Src/adc.c **** 
  23:Core/Src/adc.c **** /* USER CODE BEGIN 0 */
  24:Core/Src/adc.c **** 
  25:Core/Src/adc.c **** /* USER CODE END 0 */
  26:Core/Src/adc.c **** 
  27:Core/Src/adc.c **** /* ADC init function */
  28:Core/Src/adc.c **** void MX_ADC_Init(void)
  29:Core/Src/adc.c **** {
  28              		.loc 1 29 1 view -0
  29              		.cfi_startproc
ARM GAS  /tmp/cccFncD6.s 			page 2


  30              		@ args = 0, pretend = 0, frame = 72
  31              		@ frame_needed = 0, uses_anonymous_args = 0
  30:Core/Src/adc.c ****   LL_ADC_REG_InitTypeDef ADC_REG_InitStruct = {0};
  32              		.loc 1 30 3 view .LVU1
  29:Core/Src/adc.c ****   LL_ADC_REG_InitTypeDef ADC_REG_InitStruct = {0};
  33              		.loc 1 29 1 is_stmt 0 view .LVU2
  34 0000 F0B5     		push	{r4, r5, r6, r7, lr}
  35              	.LCFI0:
  36              		.cfi_def_cfa_offset 20
  37              		.cfi_offset 4, -20
  38              		.cfi_offset 5, -16
  39              		.cfi_offset 6, -12
  40              		.cfi_offset 7, -8
  41              		.cfi_offset 14, -4
  42 0002 93B0     		sub	sp, sp, #76
  43              	.LCFI1:
  44              		.cfi_def_cfa_offset 96
  45              		.loc 1 30 26 view .LVU3
  46 0004 1422     		movs	r2, #20
  47 0006 0021     		movs	r1, #0
  48 0008 07A8     		add	r0, sp, #28
  49 000a FFF7FEFF 		bl	memset
  50              	.LVL0:
  31:Core/Src/adc.c ****   LL_ADC_InitTypeDef ADC_InitStruct = {0};
  51              		.loc 1 31 3 is_stmt 1 view .LVU4
  52              		.loc 1 31 22 is_stmt 0 view .LVU5
  53 000e 1022     		movs	r2, #16
  54 0010 0021     		movs	r1, #0
  55 0012 03A8     		add	r0, sp, #12
  56 0014 FFF7FEFF 		bl	memset
  57              	.LVL1:
  32:Core/Src/adc.c **** 
  33:Core/Src/adc.c ****   LL_GPIO_InitTypeDef GPIO_InitStruct = {0};
  58              		.loc 1 33 3 is_stmt 1 view .LVU6
  59              		.loc 1 33 23 is_stmt 0 view .LVU7
  60 0018 1022     		movs	r2, #16
  61 001a 0021     		movs	r1, #0
  62 001c 0EA8     		add	r0, sp, #56
  63 001e FFF7FEFF 		bl	memset
  64              	.LVL2:
  34:Core/Src/adc.c **** 
  35:Core/Src/adc.c ****   /* Peripheral clock enable */
  36:Core/Src/adc.c ****   LL_APB2_GRP1_EnableClock(LL_APB2_GRP1_PERIPH_ADC1);
  65              		.loc 1 36 3 is_stmt 1 view .LVU8
  66              	.LBB42:
  67              	.LBI42:
  68              		.file 2 "Drivers/STM32L0xx_HAL_Driver/Inc/stm32l0xx_ll_bus.h"
   1:Drivers/STM32L0xx_HAL_Driver/Inc/stm32l0xx_ll_bus.h **** /**
   2:Drivers/STM32L0xx_HAL_Driver/Inc/stm32l0xx_ll_bus.h ****   ******************************************************************************
   3:Drivers/STM32L0xx_HAL_Driver/Inc/stm32l0xx_ll_bus.h ****   * @file    stm32l0xx_ll_bus.h
   4:Drivers/STM32L0xx_HAL_Driver/Inc/stm32l0xx_ll_bus.h ****   * @author  MCD Application Team
   5:Drivers/STM32L0xx_HAL_Driver/Inc/stm32l0xx_ll_bus.h ****   * @brief   Header file of BUS LL module.
   6:Drivers/STM32L0xx_HAL_Driver/Inc/stm32l0xx_ll_bus.h **** 
   7:Drivers/STM32L0xx_HAL_Driver/Inc/stm32l0xx_ll_bus.h ****   @verbatim
   8:Drivers/STM32L0xx_HAL_Driver/Inc/stm32l0xx_ll_bus.h ****                       ##### RCC Limitations #####
   9:Drivers/STM32L0xx_HAL_Driver/Inc/stm32l0xx_ll_bus.h ****   ==============================================================================
  10:Drivers/STM32L0xx_HAL_Driver/Inc/stm32l0xx_ll_bus.h ****     [..]
ARM GAS  /tmp/cccFncD6.s 			page 3


  11:Drivers/STM32L0xx_HAL_Driver/Inc/stm32l0xx_ll_bus.h ****       A delay between an RCC peripheral clock enable and the effective peripheral
  12:Drivers/STM32L0xx_HAL_Driver/Inc/stm32l0xx_ll_bus.h ****       enabling should be taken into account in order to manage the peripheral read/write
  13:Drivers/STM32L0xx_HAL_Driver/Inc/stm32l0xx_ll_bus.h ****       from/to registers.
  14:Drivers/STM32L0xx_HAL_Driver/Inc/stm32l0xx_ll_bus.h ****       (+) This delay depends on the peripheral mapping.
  15:Drivers/STM32L0xx_HAL_Driver/Inc/stm32l0xx_ll_bus.h ****         (++) AHB & APB peripherals, 1 dummy read is necessary
  16:Drivers/STM32L0xx_HAL_Driver/Inc/stm32l0xx_ll_bus.h **** 
  17:Drivers/STM32L0xx_HAL_Driver/Inc/stm32l0xx_ll_bus.h ****     [..]
  18:Drivers/STM32L0xx_HAL_Driver/Inc/stm32l0xx_ll_bus.h ****       Workarounds:
  19:Drivers/STM32L0xx_HAL_Driver/Inc/stm32l0xx_ll_bus.h ****       (#) For AHB & APB peripherals, a dummy read to the peripheral register has been
  20:Drivers/STM32L0xx_HAL_Driver/Inc/stm32l0xx_ll_bus.h ****           inserted in each LL_{BUS}_GRP{x}_EnableClock() function.
  21:Drivers/STM32L0xx_HAL_Driver/Inc/stm32l0xx_ll_bus.h **** 
  22:Drivers/STM32L0xx_HAL_Driver/Inc/stm32l0xx_ll_bus.h ****   @endverbatim
  23:Drivers/STM32L0xx_HAL_Driver/Inc/stm32l0xx_ll_bus.h ****   ******************************************************************************
  24:Drivers/STM32L0xx_HAL_Driver/Inc/stm32l0xx_ll_bus.h ****   * @attention
  25:Drivers/STM32L0xx_HAL_Driver/Inc/stm32l0xx_ll_bus.h ****   *
  26:Drivers/STM32L0xx_HAL_Driver/Inc/stm32l0xx_ll_bus.h ****   * <h2><center>&copy; Copyright(c) 2016 STMicroelectronics.
  27:Drivers/STM32L0xx_HAL_Driver/Inc/stm32l0xx_ll_bus.h ****   * All rights reserved.</center></h2>
  28:Drivers/STM32L0xx_HAL_Driver/Inc/stm32l0xx_ll_bus.h ****   *
  29:Drivers/STM32L0xx_HAL_Driver/Inc/stm32l0xx_ll_bus.h ****   * This software component is licensed by ST under BSD 3-Clause license,
  30:Drivers/STM32L0xx_HAL_Driver/Inc/stm32l0xx_ll_bus.h ****   * the "License"; You may not use this file except in compliance with the
  31:Drivers/STM32L0xx_HAL_Driver/Inc/stm32l0xx_ll_bus.h ****   * License. You may obtain a copy of the License at:
  32:Drivers/STM32L0xx_HAL_Driver/Inc/stm32l0xx_ll_bus.h ****   *                        opensource.org/licenses/BSD-3-Clause
  33:Drivers/STM32L0xx_HAL_Driver/Inc/stm32l0xx_ll_bus.h ****   *
  34:Drivers/STM32L0xx_HAL_Driver/Inc/stm32l0xx_ll_bus.h ****   ******************************************************************************
  35:Drivers/STM32L0xx_HAL_Driver/Inc/stm32l0xx_ll_bus.h ****   */
  36:Drivers/STM32L0xx_HAL_Driver/Inc/stm32l0xx_ll_bus.h **** 
  37:Drivers/STM32L0xx_HAL_Driver/Inc/stm32l0xx_ll_bus.h **** /* Define to prevent recursive inclusion -------------------------------------*/
  38:Drivers/STM32L0xx_HAL_Driver/Inc/stm32l0xx_ll_bus.h **** #ifndef __STM32L0xx_LL_BUS_H
  39:Drivers/STM32L0xx_HAL_Driver/Inc/stm32l0xx_ll_bus.h **** #define __STM32L0xx_LL_BUS_H
  40:Drivers/STM32L0xx_HAL_Driver/Inc/stm32l0xx_ll_bus.h **** 
  41:Drivers/STM32L0xx_HAL_Driver/Inc/stm32l0xx_ll_bus.h **** #ifdef __cplusplus
  42:Drivers/STM32L0xx_HAL_Driver/Inc/stm32l0xx_ll_bus.h **** extern "C" {
  43:Drivers/STM32L0xx_HAL_Driver/Inc/stm32l0xx_ll_bus.h **** #endif
  44:Drivers/STM32L0xx_HAL_Driver/Inc/stm32l0xx_ll_bus.h **** 
  45:Drivers/STM32L0xx_HAL_Driver/Inc/stm32l0xx_ll_bus.h **** /* Includes ------------------------------------------------------------------*/
  46:Drivers/STM32L0xx_HAL_Driver/Inc/stm32l0xx_ll_bus.h **** #include "stm32l0xx.h"
  47:Drivers/STM32L0xx_HAL_Driver/Inc/stm32l0xx_ll_bus.h **** 
  48:Drivers/STM32L0xx_HAL_Driver/Inc/stm32l0xx_ll_bus.h **** /** @addtogroup STM32L0xx_LL_Driver
  49:Drivers/STM32L0xx_HAL_Driver/Inc/stm32l0xx_ll_bus.h ****   * @{
  50:Drivers/STM32L0xx_HAL_Driver/Inc/stm32l0xx_ll_bus.h ****   */
  51:Drivers/STM32L0xx_HAL_Driver/Inc/stm32l0xx_ll_bus.h **** 
  52:Drivers/STM32L0xx_HAL_Driver/Inc/stm32l0xx_ll_bus.h **** #if defined(RCC)
  53:Drivers/STM32L0xx_HAL_Driver/Inc/stm32l0xx_ll_bus.h **** 
  54:Drivers/STM32L0xx_HAL_Driver/Inc/stm32l0xx_ll_bus.h **** /** @defgroup BUS_LL BUS
  55:Drivers/STM32L0xx_HAL_Driver/Inc/stm32l0xx_ll_bus.h ****   * @{
  56:Drivers/STM32L0xx_HAL_Driver/Inc/stm32l0xx_ll_bus.h ****   */
  57:Drivers/STM32L0xx_HAL_Driver/Inc/stm32l0xx_ll_bus.h **** 
  58:Drivers/STM32L0xx_HAL_Driver/Inc/stm32l0xx_ll_bus.h **** /* Private types -------------------------------------------------------------*/
  59:Drivers/STM32L0xx_HAL_Driver/Inc/stm32l0xx_ll_bus.h **** /* Private variables ---------------------------------------------------------*/
  60:Drivers/STM32L0xx_HAL_Driver/Inc/stm32l0xx_ll_bus.h **** 
  61:Drivers/STM32L0xx_HAL_Driver/Inc/stm32l0xx_ll_bus.h **** /* Private constants ---------------------------------------------------------*/
  62:Drivers/STM32L0xx_HAL_Driver/Inc/stm32l0xx_ll_bus.h **** 
  63:Drivers/STM32L0xx_HAL_Driver/Inc/stm32l0xx_ll_bus.h **** /* Private macros ------------------------------------------------------------*/
  64:Drivers/STM32L0xx_HAL_Driver/Inc/stm32l0xx_ll_bus.h **** 
  65:Drivers/STM32L0xx_HAL_Driver/Inc/stm32l0xx_ll_bus.h **** /* Exported types ------------------------------------------------------------*/
  66:Drivers/STM32L0xx_HAL_Driver/Inc/stm32l0xx_ll_bus.h **** /* Exported constants --------------------------------------------------------*/
  67:Drivers/STM32L0xx_HAL_Driver/Inc/stm32l0xx_ll_bus.h **** /** @defgroup BUS_LL_Exported_Constants BUS Exported Constants
ARM GAS  /tmp/cccFncD6.s 			page 4


  68:Drivers/STM32L0xx_HAL_Driver/Inc/stm32l0xx_ll_bus.h ****   * @{
  69:Drivers/STM32L0xx_HAL_Driver/Inc/stm32l0xx_ll_bus.h ****   */
  70:Drivers/STM32L0xx_HAL_Driver/Inc/stm32l0xx_ll_bus.h **** 
  71:Drivers/STM32L0xx_HAL_Driver/Inc/stm32l0xx_ll_bus.h **** /** @defgroup BUS_LL_EC_AHB1_GRP1_PERIPH  AHB1 GRP1 PERIPH
  72:Drivers/STM32L0xx_HAL_Driver/Inc/stm32l0xx_ll_bus.h ****   * @{
  73:Drivers/STM32L0xx_HAL_Driver/Inc/stm32l0xx_ll_bus.h ****   */
  74:Drivers/STM32L0xx_HAL_Driver/Inc/stm32l0xx_ll_bus.h **** #define LL_AHB1_GRP1_PERIPH_ALL            0xFFFFFFFFU
  75:Drivers/STM32L0xx_HAL_Driver/Inc/stm32l0xx_ll_bus.h **** #define LL_AHB1_GRP1_PERIPH_DMA1           RCC_AHBENR_DMA1EN      /*!< DMA1 clock enable */
  76:Drivers/STM32L0xx_HAL_Driver/Inc/stm32l0xx_ll_bus.h **** #define LL_AHB1_GRP1_PERIPH_MIF            RCC_AHBENR_MIFEN       /*!< MIF clock enable */
  77:Drivers/STM32L0xx_HAL_Driver/Inc/stm32l0xx_ll_bus.h **** #define LL_AHB1_GRP1_PERIPH_SRAM           RCC_AHBSMENR_SRAMSMEN  /*!< Sleep Mode SRAM clock enable
  78:Drivers/STM32L0xx_HAL_Driver/Inc/stm32l0xx_ll_bus.h **** #define LL_AHB1_GRP1_PERIPH_CRC            RCC_AHBENR_CRCEN       /*!< CRC clock enable */
  79:Drivers/STM32L0xx_HAL_Driver/Inc/stm32l0xx_ll_bus.h **** #if defined(TSC)
  80:Drivers/STM32L0xx_HAL_Driver/Inc/stm32l0xx_ll_bus.h **** #define LL_AHB1_GRP1_PERIPH_TSC            RCC_AHBENR_TSCEN       /*!< TSC clock enable */
  81:Drivers/STM32L0xx_HAL_Driver/Inc/stm32l0xx_ll_bus.h **** #endif /*TSC*/
  82:Drivers/STM32L0xx_HAL_Driver/Inc/stm32l0xx_ll_bus.h **** #if defined(RNG)
  83:Drivers/STM32L0xx_HAL_Driver/Inc/stm32l0xx_ll_bus.h **** #define LL_AHB1_GRP1_PERIPH_RNG            RCC_AHBENR_RNGEN       /*!< RNG clock enable */
  84:Drivers/STM32L0xx_HAL_Driver/Inc/stm32l0xx_ll_bus.h **** #endif /*RNG*/
  85:Drivers/STM32L0xx_HAL_Driver/Inc/stm32l0xx_ll_bus.h **** #if defined(AES)
  86:Drivers/STM32L0xx_HAL_Driver/Inc/stm32l0xx_ll_bus.h **** #define LL_AHB1_GRP1_PERIPH_CRYP           RCC_AHBENR_CRYPEN      /*!< CRYP clock enable */
  87:Drivers/STM32L0xx_HAL_Driver/Inc/stm32l0xx_ll_bus.h **** #endif /*AES*/
  88:Drivers/STM32L0xx_HAL_Driver/Inc/stm32l0xx_ll_bus.h **** /**
  89:Drivers/STM32L0xx_HAL_Driver/Inc/stm32l0xx_ll_bus.h ****   * @}
  90:Drivers/STM32L0xx_HAL_Driver/Inc/stm32l0xx_ll_bus.h ****   */
  91:Drivers/STM32L0xx_HAL_Driver/Inc/stm32l0xx_ll_bus.h **** 
  92:Drivers/STM32L0xx_HAL_Driver/Inc/stm32l0xx_ll_bus.h **** 
  93:Drivers/STM32L0xx_HAL_Driver/Inc/stm32l0xx_ll_bus.h **** /** @defgroup BUS_LL_EC_APB1_GRP1_PERIPH  APB1 GRP1 PERIPH
  94:Drivers/STM32L0xx_HAL_Driver/Inc/stm32l0xx_ll_bus.h ****   * @{
  95:Drivers/STM32L0xx_HAL_Driver/Inc/stm32l0xx_ll_bus.h ****   */
  96:Drivers/STM32L0xx_HAL_Driver/Inc/stm32l0xx_ll_bus.h **** #define LL_APB1_GRP1_PERIPH_ALL            0xFFFFFFFFU
  97:Drivers/STM32L0xx_HAL_Driver/Inc/stm32l0xx_ll_bus.h **** #define LL_APB1_GRP1_PERIPH_TIM2           RCC_APB1ENR_TIM2EN     /*!< TIM2 clock enable */
  98:Drivers/STM32L0xx_HAL_Driver/Inc/stm32l0xx_ll_bus.h **** #if defined(TIM3)
  99:Drivers/STM32L0xx_HAL_Driver/Inc/stm32l0xx_ll_bus.h **** #define LL_APB1_GRP1_PERIPH_TIM3           RCC_APB1ENR_TIM3EN     /*!< TIM3 clock enable */
 100:Drivers/STM32L0xx_HAL_Driver/Inc/stm32l0xx_ll_bus.h **** #endif
 101:Drivers/STM32L0xx_HAL_Driver/Inc/stm32l0xx_ll_bus.h **** #if defined(TIM6)
 102:Drivers/STM32L0xx_HAL_Driver/Inc/stm32l0xx_ll_bus.h **** #define LL_APB1_GRP1_PERIPH_TIM6           RCC_APB1ENR_TIM6EN     /*!< TIM6 clock enable */
 103:Drivers/STM32L0xx_HAL_Driver/Inc/stm32l0xx_ll_bus.h **** #endif
 104:Drivers/STM32L0xx_HAL_Driver/Inc/stm32l0xx_ll_bus.h **** #if defined(TIM7)
 105:Drivers/STM32L0xx_HAL_Driver/Inc/stm32l0xx_ll_bus.h **** #define LL_APB1_GRP1_PERIPH_TIM7           RCC_APB1ENR_TIM7EN     /*!< TIM7 clock enable */
 106:Drivers/STM32L0xx_HAL_Driver/Inc/stm32l0xx_ll_bus.h **** #endif
 107:Drivers/STM32L0xx_HAL_Driver/Inc/stm32l0xx_ll_bus.h **** #if defined(LCD)
 108:Drivers/STM32L0xx_HAL_Driver/Inc/stm32l0xx_ll_bus.h **** #define LL_APB1_GRP1_PERIPH_LCD            RCC_APB1ENR_LCDEN      /*!< LCD clock enable */
 109:Drivers/STM32L0xx_HAL_Driver/Inc/stm32l0xx_ll_bus.h **** #endif /*LCD*/
 110:Drivers/STM32L0xx_HAL_Driver/Inc/stm32l0xx_ll_bus.h **** #define LL_APB1_GRP1_PERIPH_WWDG           RCC_APB1ENR_WWDGEN     /*!< WWDG clock enable */
 111:Drivers/STM32L0xx_HAL_Driver/Inc/stm32l0xx_ll_bus.h **** #if defined(SPI2)
 112:Drivers/STM32L0xx_HAL_Driver/Inc/stm32l0xx_ll_bus.h **** #define LL_APB1_GRP1_PERIPH_SPI2           RCC_APB1ENR_SPI2EN     /*!< SPI2 clock enable */
 113:Drivers/STM32L0xx_HAL_Driver/Inc/stm32l0xx_ll_bus.h **** #endif
 114:Drivers/STM32L0xx_HAL_Driver/Inc/stm32l0xx_ll_bus.h **** #define LL_APB1_GRP1_PERIPH_USART2         RCC_APB1ENR_USART2EN   /*!< USART2 clock enable */
 115:Drivers/STM32L0xx_HAL_Driver/Inc/stm32l0xx_ll_bus.h **** #define LL_APB1_GRP1_PERIPH_LPUART1        RCC_APB1ENR_LPUART1EN  /*!< LPUART1 clock enable */
 116:Drivers/STM32L0xx_HAL_Driver/Inc/stm32l0xx_ll_bus.h **** #if defined(USART4)
 117:Drivers/STM32L0xx_HAL_Driver/Inc/stm32l0xx_ll_bus.h **** #define LL_APB1_GRP1_PERIPH_USART4         RCC_APB1ENR_USART4EN   /*!< USART4 clock enable */
 118:Drivers/STM32L0xx_HAL_Driver/Inc/stm32l0xx_ll_bus.h **** #endif
 119:Drivers/STM32L0xx_HAL_Driver/Inc/stm32l0xx_ll_bus.h **** #if defined(USART5)
 120:Drivers/STM32L0xx_HAL_Driver/Inc/stm32l0xx_ll_bus.h **** #define LL_APB1_GRP1_PERIPH_USART5         RCC_APB1ENR_USART5EN   /*!< USART5 clock enable */
 121:Drivers/STM32L0xx_HAL_Driver/Inc/stm32l0xx_ll_bus.h **** #endif
 122:Drivers/STM32L0xx_HAL_Driver/Inc/stm32l0xx_ll_bus.h **** #define LL_APB1_GRP1_PERIPH_I2C1           RCC_APB1ENR_I2C1EN     /*!< I2C1 clock enable */
 123:Drivers/STM32L0xx_HAL_Driver/Inc/stm32l0xx_ll_bus.h **** #if defined(I2C2)
 124:Drivers/STM32L0xx_HAL_Driver/Inc/stm32l0xx_ll_bus.h **** #define LL_APB1_GRP1_PERIPH_I2C2           RCC_APB1ENR_I2C2EN     /*!< I2C2 clock enable */
ARM GAS  /tmp/cccFncD6.s 			page 5


 125:Drivers/STM32L0xx_HAL_Driver/Inc/stm32l0xx_ll_bus.h **** #endif
 126:Drivers/STM32L0xx_HAL_Driver/Inc/stm32l0xx_ll_bus.h **** #if defined(USB)
 127:Drivers/STM32L0xx_HAL_Driver/Inc/stm32l0xx_ll_bus.h **** #define LL_APB1_GRP1_PERIPH_USB            RCC_APB1ENR_USBEN      /*!< USB clock enable */
 128:Drivers/STM32L0xx_HAL_Driver/Inc/stm32l0xx_ll_bus.h **** #endif /*USB*/
 129:Drivers/STM32L0xx_HAL_Driver/Inc/stm32l0xx_ll_bus.h **** #if defined(CRS)
 130:Drivers/STM32L0xx_HAL_Driver/Inc/stm32l0xx_ll_bus.h **** #define LL_APB1_GRP1_PERIPH_CRS            RCC_APB1ENR_CRSEN      /*!< CRS clock enable */
 131:Drivers/STM32L0xx_HAL_Driver/Inc/stm32l0xx_ll_bus.h **** #endif /*CRS*/
 132:Drivers/STM32L0xx_HAL_Driver/Inc/stm32l0xx_ll_bus.h **** #define LL_APB1_GRP1_PERIPH_PWR            RCC_APB1ENR_PWREN      /*!< PWR clock enable */
 133:Drivers/STM32L0xx_HAL_Driver/Inc/stm32l0xx_ll_bus.h **** #if defined(DAC)
 134:Drivers/STM32L0xx_HAL_Driver/Inc/stm32l0xx_ll_bus.h **** #define LL_APB1_GRP1_PERIPH_DAC1           RCC_APB1ENR_DACEN      /*!< DAC clock enable */
 135:Drivers/STM32L0xx_HAL_Driver/Inc/stm32l0xx_ll_bus.h **** #endif
 136:Drivers/STM32L0xx_HAL_Driver/Inc/stm32l0xx_ll_bus.h **** #if defined(I2C3)
 137:Drivers/STM32L0xx_HAL_Driver/Inc/stm32l0xx_ll_bus.h **** #define LL_APB1_GRP1_PERIPH_I2C3           RCC_APB1ENR_I2C3EN     /*!< I2C3 clock enable */
 138:Drivers/STM32L0xx_HAL_Driver/Inc/stm32l0xx_ll_bus.h **** #endif
 139:Drivers/STM32L0xx_HAL_Driver/Inc/stm32l0xx_ll_bus.h **** #define LL_APB1_GRP1_PERIPH_LPTIM1         RCC_APB1ENR_LPTIM1EN   /*!< LPTIM1 clock enable */
 140:Drivers/STM32L0xx_HAL_Driver/Inc/stm32l0xx_ll_bus.h **** /**
 141:Drivers/STM32L0xx_HAL_Driver/Inc/stm32l0xx_ll_bus.h ****   * @}
 142:Drivers/STM32L0xx_HAL_Driver/Inc/stm32l0xx_ll_bus.h ****   */
 143:Drivers/STM32L0xx_HAL_Driver/Inc/stm32l0xx_ll_bus.h **** 
 144:Drivers/STM32L0xx_HAL_Driver/Inc/stm32l0xx_ll_bus.h **** 
 145:Drivers/STM32L0xx_HAL_Driver/Inc/stm32l0xx_ll_bus.h **** 
 146:Drivers/STM32L0xx_HAL_Driver/Inc/stm32l0xx_ll_bus.h **** 
 147:Drivers/STM32L0xx_HAL_Driver/Inc/stm32l0xx_ll_bus.h **** /** @defgroup BUS_LL_EC_APB2_GRP1_PERIPH  APB2 GRP1 PERIPH
 148:Drivers/STM32L0xx_HAL_Driver/Inc/stm32l0xx_ll_bus.h ****   * @{
 149:Drivers/STM32L0xx_HAL_Driver/Inc/stm32l0xx_ll_bus.h ****   */
 150:Drivers/STM32L0xx_HAL_Driver/Inc/stm32l0xx_ll_bus.h **** #define LL_APB2_GRP1_PERIPH_ALL            0xFFFFFFFFU
 151:Drivers/STM32L0xx_HAL_Driver/Inc/stm32l0xx_ll_bus.h **** #define LL_APB2_GRP1_PERIPH_SYSCFG         RCC_APB2ENR_SYSCFGEN  /*!< SYSCFG clock enable */
 152:Drivers/STM32L0xx_HAL_Driver/Inc/stm32l0xx_ll_bus.h **** #define LL_APB2_GRP1_PERIPH_TIM21          RCC_APB2ENR_TIM21EN   /*!< TIM21 clock enable */
 153:Drivers/STM32L0xx_HAL_Driver/Inc/stm32l0xx_ll_bus.h **** #if defined(TIM22)
 154:Drivers/STM32L0xx_HAL_Driver/Inc/stm32l0xx_ll_bus.h **** #define LL_APB2_GRP1_PERIPH_TIM22          RCC_APB2ENR_TIM22EN   /*!< TIM22 clock enable */
 155:Drivers/STM32L0xx_HAL_Driver/Inc/stm32l0xx_ll_bus.h **** #endif
 156:Drivers/STM32L0xx_HAL_Driver/Inc/stm32l0xx_ll_bus.h **** #define LL_APB2_GRP1_PERIPH_FW             RCC_APB2ENR_FWEN      /*!< FireWall clock enable */
 157:Drivers/STM32L0xx_HAL_Driver/Inc/stm32l0xx_ll_bus.h **** #define LL_APB2_GRP1_PERIPH_ADC1           RCC_APB2ENR_ADC1EN    /*!< ADC1 clock enable */
 158:Drivers/STM32L0xx_HAL_Driver/Inc/stm32l0xx_ll_bus.h **** #define LL_APB2_GRP1_PERIPH_SPI1           RCC_APB2ENR_SPI1EN    /*!< SPI1 clock enable */
 159:Drivers/STM32L0xx_HAL_Driver/Inc/stm32l0xx_ll_bus.h **** #if defined(USART1)
 160:Drivers/STM32L0xx_HAL_Driver/Inc/stm32l0xx_ll_bus.h **** #define LL_APB2_GRP1_PERIPH_USART1         RCC_APB2ENR_USART1EN  /*!< USART1 clock enable */
 161:Drivers/STM32L0xx_HAL_Driver/Inc/stm32l0xx_ll_bus.h **** #endif
 162:Drivers/STM32L0xx_HAL_Driver/Inc/stm32l0xx_ll_bus.h **** #define LL_APB2_GRP1_PERIPH_DBGMCU         RCC_APB2ENR_DBGMCUEN  /*!< DBGMCU clock enable */
 163:Drivers/STM32L0xx_HAL_Driver/Inc/stm32l0xx_ll_bus.h **** 
 164:Drivers/STM32L0xx_HAL_Driver/Inc/stm32l0xx_ll_bus.h **** /**
 165:Drivers/STM32L0xx_HAL_Driver/Inc/stm32l0xx_ll_bus.h ****   * @}
 166:Drivers/STM32L0xx_HAL_Driver/Inc/stm32l0xx_ll_bus.h ****   */
 167:Drivers/STM32L0xx_HAL_Driver/Inc/stm32l0xx_ll_bus.h **** 
 168:Drivers/STM32L0xx_HAL_Driver/Inc/stm32l0xx_ll_bus.h **** 
 169:Drivers/STM32L0xx_HAL_Driver/Inc/stm32l0xx_ll_bus.h **** 
 170:Drivers/STM32L0xx_HAL_Driver/Inc/stm32l0xx_ll_bus.h **** /** @defgroup BUS_LL_EC_IOP_GRP1_PERIPH  IOP GRP1 PERIPH
 171:Drivers/STM32L0xx_HAL_Driver/Inc/stm32l0xx_ll_bus.h ****   * @{
 172:Drivers/STM32L0xx_HAL_Driver/Inc/stm32l0xx_ll_bus.h ****   */
 173:Drivers/STM32L0xx_HAL_Driver/Inc/stm32l0xx_ll_bus.h **** #define LL_IOP_GRP1_PERIPH_ALL             0xFFFFFFFFU
 174:Drivers/STM32L0xx_HAL_Driver/Inc/stm32l0xx_ll_bus.h **** #define LL_IOP_GRP1_PERIPH_GPIOA           RCC_IOPENR_GPIOAEN    /*!< GPIO port A control */
 175:Drivers/STM32L0xx_HAL_Driver/Inc/stm32l0xx_ll_bus.h **** #define LL_IOP_GRP1_PERIPH_GPIOB           RCC_IOPENR_GPIOBEN    /*!< GPIO port B control */
 176:Drivers/STM32L0xx_HAL_Driver/Inc/stm32l0xx_ll_bus.h **** #define LL_IOP_GRP1_PERIPH_GPIOC           RCC_IOPENR_GPIOCEN    /*!< GPIO port C control */
 177:Drivers/STM32L0xx_HAL_Driver/Inc/stm32l0xx_ll_bus.h **** #if defined(GPIOD)
 178:Drivers/STM32L0xx_HAL_Driver/Inc/stm32l0xx_ll_bus.h **** #define LL_IOP_GRP1_PERIPH_GPIOD           RCC_IOPENR_GPIODEN    /*!< GPIO port D control */
 179:Drivers/STM32L0xx_HAL_Driver/Inc/stm32l0xx_ll_bus.h **** #endif /*GPIOD*/
 180:Drivers/STM32L0xx_HAL_Driver/Inc/stm32l0xx_ll_bus.h **** #if defined(GPIOE)
 181:Drivers/STM32L0xx_HAL_Driver/Inc/stm32l0xx_ll_bus.h **** #define LL_IOP_GRP1_PERIPH_GPIOE           RCC_IOPENR_GPIOEEN    /*!< GPIO port H control */
ARM GAS  /tmp/cccFncD6.s 			page 6


 182:Drivers/STM32L0xx_HAL_Driver/Inc/stm32l0xx_ll_bus.h **** #endif /*GPIOE*/
 183:Drivers/STM32L0xx_HAL_Driver/Inc/stm32l0xx_ll_bus.h **** #if defined(GPIOH)
 184:Drivers/STM32L0xx_HAL_Driver/Inc/stm32l0xx_ll_bus.h **** #define LL_IOP_GRP1_PERIPH_GPIOH           RCC_IOPENR_GPIOHEN    /*!< GPIO port H control */
 185:Drivers/STM32L0xx_HAL_Driver/Inc/stm32l0xx_ll_bus.h **** #endif /*GPIOH*/
 186:Drivers/STM32L0xx_HAL_Driver/Inc/stm32l0xx_ll_bus.h **** /**
 187:Drivers/STM32L0xx_HAL_Driver/Inc/stm32l0xx_ll_bus.h ****   * @}
 188:Drivers/STM32L0xx_HAL_Driver/Inc/stm32l0xx_ll_bus.h ****   */
 189:Drivers/STM32L0xx_HAL_Driver/Inc/stm32l0xx_ll_bus.h **** 
 190:Drivers/STM32L0xx_HAL_Driver/Inc/stm32l0xx_ll_bus.h **** 
 191:Drivers/STM32L0xx_HAL_Driver/Inc/stm32l0xx_ll_bus.h **** /**
 192:Drivers/STM32L0xx_HAL_Driver/Inc/stm32l0xx_ll_bus.h ****   * @}
 193:Drivers/STM32L0xx_HAL_Driver/Inc/stm32l0xx_ll_bus.h ****   */
 194:Drivers/STM32L0xx_HAL_Driver/Inc/stm32l0xx_ll_bus.h **** 
 195:Drivers/STM32L0xx_HAL_Driver/Inc/stm32l0xx_ll_bus.h **** /* Exported macro ------------------------------------------------------------*/
 196:Drivers/STM32L0xx_HAL_Driver/Inc/stm32l0xx_ll_bus.h **** /* Exported functions --------------------------------------------------------*/
 197:Drivers/STM32L0xx_HAL_Driver/Inc/stm32l0xx_ll_bus.h **** /** @defgroup BUS_LL_Exported_Functions BUS Exported Functions
 198:Drivers/STM32L0xx_HAL_Driver/Inc/stm32l0xx_ll_bus.h ****   * @{
 199:Drivers/STM32L0xx_HAL_Driver/Inc/stm32l0xx_ll_bus.h ****   */
 200:Drivers/STM32L0xx_HAL_Driver/Inc/stm32l0xx_ll_bus.h **** 
 201:Drivers/STM32L0xx_HAL_Driver/Inc/stm32l0xx_ll_bus.h **** /** @defgroup BUS_LL_EF_AHB1 AHB1
 202:Drivers/STM32L0xx_HAL_Driver/Inc/stm32l0xx_ll_bus.h ****   * @{
 203:Drivers/STM32L0xx_HAL_Driver/Inc/stm32l0xx_ll_bus.h ****   */
 204:Drivers/STM32L0xx_HAL_Driver/Inc/stm32l0xx_ll_bus.h **** 
 205:Drivers/STM32L0xx_HAL_Driver/Inc/stm32l0xx_ll_bus.h **** /**
 206:Drivers/STM32L0xx_HAL_Driver/Inc/stm32l0xx_ll_bus.h ****   * @brief  Enable AHB1 peripherals clock.
 207:Drivers/STM32L0xx_HAL_Driver/Inc/stm32l0xx_ll_bus.h ****   * @rmtoll AHBENR      DMAEN        LL_AHB1_GRP1_EnableClock\n
 208:Drivers/STM32L0xx_HAL_Driver/Inc/stm32l0xx_ll_bus.h ****   *         AHBENR      MIFEN        LL_AHB1_GRP1_EnableClock\n
 209:Drivers/STM32L0xx_HAL_Driver/Inc/stm32l0xx_ll_bus.h ****   *         AHBENR      CRCEN        LL_AHB1_GRP1_EnableClock\n
 210:Drivers/STM32L0xx_HAL_Driver/Inc/stm32l0xx_ll_bus.h ****   *         AHBENR      TSCEN        LL_AHB1_GRP1_EnableClock\n
 211:Drivers/STM32L0xx_HAL_Driver/Inc/stm32l0xx_ll_bus.h ****   *         AHBENR      RNGEN        LL_AHB1_GRP1_EnableClock\n
 212:Drivers/STM32L0xx_HAL_Driver/Inc/stm32l0xx_ll_bus.h ****   *         AHBENR      CRYPEN       LL_AHB1_GRP1_EnableClock
 213:Drivers/STM32L0xx_HAL_Driver/Inc/stm32l0xx_ll_bus.h ****   * @param  Periphs This parameter can be a combination of the following values:
 214:Drivers/STM32L0xx_HAL_Driver/Inc/stm32l0xx_ll_bus.h ****   *         @arg @ref LL_AHB1_GRP1_PERIPH_DMA1
 215:Drivers/STM32L0xx_HAL_Driver/Inc/stm32l0xx_ll_bus.h ****   *         @arg @ref LL_AHB1_GRP1_PERIPH_MIF
 216:Drivers/STM32L0xx_HAL_Driver/Inc/stm32l0xx_ll_bus.h ****   *         @arg @ref LL_AHB1_GRP1_PERIPH_CRC
 217:Drivers/STM32L0xx_HAL_Driver/Inc/stm32l0xx_ll_bus.h ****   *         @arg @ref LL_AHB1_GRP1_PERIPH_TSC (*)
 218:Drivers/STM32L0xx_HAL_Driver/Inc/stm32l0xx_ll_bus.h ****   *         @arg @ref LL_AHB1_GRP1_PERIPH_RNG (*)
 219:Drivers/STM32L0xx_HAL_Driver/Inc/stm32l0xx_ll_bus.h ****   *         @arg @ref LL_AHB1_GRP1_PERIPH_CRYP (*)
 220:Drivers/STM32L0xx_HAL_Driver/Inc/stm32l0xx_ll_bus.h ****   *
 221:Drivers/STM32L0xx_HAL_Driver/Inc/stm32l0xx_ll_bus.h ****   *         (*) value not defined in all devices.
 222:Drivers/STM32L0xx_HAL_Driver/Inc/stm32l0xx_ll_bus.h ****   * @retval None
 223:Drivers/STM32L0xx_HAL_Driver/Inc/stm32l0xx_ll_bus.h **** */
 224:Drivers/STM32L0xx_HAL_Driver/Inc/stm32l0xx_ll_bus.h **** __STATIC_INLINE void LL_AHB1_GRP1_EnableClock(uint32_t Periphs)
 225:Drivers/STM32L0xx_HAL_Driver/Inc/stm32l0xx_ll_bus.h **** {
 226:Drivers/STM32L0xx_HAL_Driver/Inc/stm32l0xx_ll_bus.h ****   __IO uint32_t tmpreg;
 227:Drivers/STM32L0xx_HAL_Driver/Inc/stm32l0xx_ll_bus.h ****   SET_BIT(RCC->AHBENR, Periphs);
 228:Drivers/STM32L0xx_HAL_Driver/Inc/stm32l0xx_ll_bus.h ****   /* Delay after an RCC peripheral clock enabling */
 229:Drivers/STM32L0xx_HAL_Driver/Inc/stm32l0xx_ll_bus.h ****   tmpreg = READ_BIT(RCC->AHBENR, Periphs);
 230:Drivers/STM32L0xx_HAL_Driver/Inc/stm32l0xx_ll_bus.h ****   (void)tmpreg;
 231:Drivers/STM32L0xx_HAL_Driver/Inc/stm32l0xx_ll_bus.h **** }
 232:Drivers/STM32L0xx_HAL_Driver/Inc/stm32l0xx_ll_bus.h **** 
 233:Drivers/STM32L0xx_HAL_Driver/Inc/stm32l0xx_ll_bus.h **** /**
 234:Drivers/STM32L0xx_HAL_Driver/Inc/stm32l0xx_ll_bus.h ****   * @brief  Check if AHB1 peripheral clock is enabled or not
 235:Drivers/STM32L0xx_HAL_Driver/Inc/stm32l0xx_ll_bus.h ****   * @rmtoll AHBENR      DMAEN        LL_AHB1_GRP1_IsEnabledClock\n
 236:Drivers/STM32L0xx_HAL_Driver/Inc/stm32l0xx_ll_bus.h ****   *         AHBENR      MIFEN        LL_AHB1_GRP1_IsEnabledClock\n
 237:Drivers/STM32L0xx_HAL_Driver/Inc/stm32l0xx_ll_bus.h ****   *         AHBENR      CRCEN        LL_AHB1_GRP1_IsEnabledClock\n
 238:Drivers/STM32L0xx_HAL_Driver/Inc/stm32l0xx_ll_bus.h ****   *         AHBENR      TSCEN        LL_AHB1_GRP1_IsEnabledClock\n
ARM GAS  /tmp/cccFncD6.s 			page 7


 239:Drivers/STM32L0xx_HAL_Driver/Inc/stm32l0xx_ll_bus.h ****   *         AHBENR      RNGEN        LL_AHB1_GRP1_IsEnabledClock\n
 240:Drivers/STM32L0xx_HAL_Driver/Inc/stm32l0xx_ll_bus.h ****   *         AHBENR      CRYPEN       LL_AHB1_GRP1_IsEnabledClock
 241:Drivers/STM32L0xx_HAL_Driver/Inc/stm32l0xx_ll_bus.h ****   * @param  Periphs This parameter can be a combination of the following values:
 242:Drivers/STM32L0xx_HAL_Driver/Inc/stm32l0xx_ll_bus.h ****   *         @arg @ref LL_AHB1_GRP1_PERIPH_DMA1
 243:Drivers/STM32L0xx_HAL_Driver/Inc/stm32l0xx_ll_bus.h ****   *         @arg @ref LL_AHB1_GRP1_PERIPH_MIF
 244:Drivers/STM32L0xx_HAL_Driver/Inc/stm32l0xx_ll_bus.h ****   *         @arg @ref LL_AHB1_GRP1_PERIPH_CRC
 245:Drivers/STM32L0xx_HAL_Driver/Inc/stm32l0xx_ll_bus.h ****   *         @arg @ref LL_AHB1_GRP1_PERIPH_TSC (*)
 246:Drivers/STM32L0xx_HAL_Driver/Inc/stm32l0xx_ll_bus.h ****   *         @arg @ref LL_AHB1_GRP1_PERIPH_RNG (*)
 247:Drivers/STM32L0xx_HAL_Driver/Inc/stm32l0xx_ll_bus.h ****   *         @arg @ref LL_AHB1_GRP1_PERIPH_CRYP (*)
 248:Drivers/STM32L0xx_HAL_Driver/Inc/stm32l0xx_ll_bus.h ****   *
 249:Drivers/STM32L0xx_HAL_Driver/Inc/stm32l0xx_ll_bus.h ****   *         (*) value not defined in all devices.
 250:Drivers/STM32L0xx_HAL_Driver/Inc/stm32l0xx_ll_bus.h ****   * @retval State of Periphs (1 or 0).
 251:Drivers/STM32L0xx_HAL_Driver/Inc/stm32l0xx_ll_bus.h **** */
 252:Drivers/STM32L0xx_HAL_Driver/Inc/stm32l0xx_ll_bus.h **** __STATIC_INLINE uint32_t LL_AHB1_GRP1_IsEnabledClock(uint32_t Periphs)
 253:Drivers/STM32L0xx_HAL_Driver/Inc/stm32l0xx_ll_bus.h **** {
 254:Drivers/STM32L0xx_HAL_Driver/Inc/stm32l0xx_ll_bus.h ****   return ((READ_BIT(RCC->AHBENR, Periphs) == (Periphs)) ? 1UL : 0UL);
 255:Drivers/STM32L0xx_HAL_Driver/Inc/stm32l0xx_ll_bus.h **** }
 256:Drivers/STM32L0xx_HAL_Driver/Inc/stm32l0xx_ll_bus.h **** 
 257:Drivers/STM32L0xx_HAL_Driver/Inc/stm32l0xx_ll_bus.h **** /**
 258:Drivers/STM32L0xx_HAL_Driver/Inc/stm32l0xx_ll_bus.h ****   * @brief  Disable AHB1 peripherals clock.
 259:Drivers/STM32L0xx_HAL_Driver/Inc/stm32l0xx_ll_bus.h ****   * @rmtoll AHBENR      DMAEN        LL_AHB1_GRP1_DisableClock\n
 260:Drivers/STM32L0xx_HAL_Driver/Inc/stm32l0xx_ll_bus.h ****   *         AHBENR      MIFEN        LL_AHB1_GRP1_DisableClock\n
 261:Drivers/STM32L0xx_HAL_Driver/Inc/stm32l0xx_ll_bus.h ****   *         AHBENR      CRCEN        LL_AHB1_GRP1_DisableClock\n
 262:Drivers/STM32L0xx_HAL_Driver/Inc/stm32l0xx_ll_bus.h ****   *         AHBENR      TSCEN        LL_AHB1_GRP1_DisableClock\n
 263:Drivers/STM32L0xx_HAL_Driver/Inc/stm32l0xx_ll_bus.h ****   *         AHBENR      RNGEN        LL_AHB1_GRP1_DisableClock\n
 264:Drivers/STM32L0xx_HAL_Driver/Inc/stm32l0xx_ll_bus.h ****   *         AHBENR      CRYPEN       LL_AHB1_GRP1_DisableClock
 265:Drivers/STM32L0xx_HAL_Driver/Inc/stm32l0xx_ll_bus.h ****   * @param  Periphs This parameter can be a combination of the following values:
 266:Drivers/STM32L0xx_HAL_Driver/Inc/stm32l0xx_ll_bus.h ****   *         @arg @ref LL_AHB1_GRP1_PERIPH_DMA1
 267:Drivers/STM32L0xx_HAL_Driver/Inc/stm32l0xx_ll_bus.h ****   *         @arg @ref LL_AHB1_GRP1_PERIPH_MIF
 268:Drivers/STM32L0xx_HAL_Driver/Inc/stm32l0xx_ll_bus.h ****   *         @arg @ref LL_AHB1_GRP1_PERIPH_CRC
 269:Drivers/STM32L0xx_HAL_Driver/Inc/stm32l0xx_ll_bus.h ****   *         @arg @ref LL_AHB1_GRP1_PERIPH_TSC (*)
 270:Drivers/STM32L0xx_HAL_Driver/Inc/stm32l0xx_ll_bus.h ****   *         @arg @ref LL_AHB1_GRP1_PERIPH_RNG (*)
 271:Drivers/STM32L0xx_HAL_Driver/Inc/stm32l0xx_ll_bus.h ****   *         @arg @ref LL_AHB1_GRP1_PERIPH_CRYP (*)
 272:Drivers/STM32L0xx_HAL_Driver/Inc/stm32l0xx_ll_bus.h ****   *
 273:Drivers/STM32L0xx_HAL_Driver/Inc/stm32l0xx_ll_bus.h ****   *         (*) value not defined in all devices.
 274:Drivers/STM32L0xx_HAL_Driver/Inc/stm32l0xx_ll_bus.h ****   * @retval None
 275:Drivers/STM32L0xx_HAL_Driver/Inc/stm32l0xx_ll_bus.h **** */
 276:Drivers/STM32L0xx_HAL_Driver/Inc/stm32l0xx_ll_bus.h **** __STATIC_INLINE void LL_AHB1_GRP1_DisableClock(uint32_t Periphs)
 277:Drivers/STM32L0xx_HAL_Driver/Inc/stm32l0xx_ll_bus.h **** {
 278:Drivers/STM32L0xx_HAL_Driver/Inc/stm32l0xx_ll_bus.h ****   CLEAR_BIT(RCC->AHBENR, Periphs);
 279:Drivers/STM32L0xx_HAL_Driver/Inc/stm32l0xx_ll_bus.h **** }
 280:Drivers/STM32L0xx_HAL_Driver/Inc/stm32l0xx_ll_bus.h **** 
 281:Drivers/STM32L0xx_HAL_Driver/Inc/stm32l0xx_ll_bus.h **** /**
 282:Drivers/STM32L0xx_HAL_Driver/Inc/stm32l0xx_ll_bus.h ****   * @brief  Force AHB1 peripherals reset.
 283:Drivers/STM32L0xx_HAL_Driver/Inc/stm32l0xx_ll_bus.h ****   * @rmtoll AHBRSTR      DMARST        LL_AHB1_GRP1_ForceReset\n
 284:Drivers/STM32L0xx_HAL_Driver/Inc/stm32l0xx_ll_bus.h ****   *         AHBRSTR      MIFRST        LL_AHB1_GRP1_ForceReset\n
 285:Drivers/STM32L0xx_HAL_Driver/Inc/stm32l0xx_ll_bus.h ****   *         AHBRSTR      CRCRST        LL_AHB1_GRP1_ForceReset\n
 286:Drivers/STM32L0xx_HAL_Driver/Inc/stm32l0xx_ll_bus.h ****   *         AHBRSTR      TSCRST        LL_AHB1_GRP1_ForceReset\n
 287:Drivers/STM32L0xx_HAL_Driver/Inc/stm32l0xx_ll_bus.h ****   *         AHBRSTR      RNGRST        LL_AHB1_GRP1_ForceReset\n
 288:Drivers/STM32L0xx_HAL_Driver/Inc/stm32l0xx_ll_bus.h ****   *         AHBRSTR      CRYPRST       LL_AHB1_GRP1_ForceReset
 289:Drivers/STM32L0xx_HAL_Driver/Inc/stm32l0xx_ll_bus.h ****   * @param  Periphs This parameter can be a combination of the following values:
 290:Drivers/STM32L0xx_HAL_Driver/Inc/stm32l0xx_ll_bus.h ****   *         @arg @ref LL_AHB1_GRP1_PERIPH_ALL
 291:Drivers/STM32L0xx_HAL_Driver/Inc/stm32l0xx_ll_bus.h ****   *         @arg @ref LL_AHB1_GRP1_PERIPH_DMA1
 292:Drivers/STM32L0xx_HAL_Driver/Inc/stm32l0xx_ll_bus.h ****   *         @arg @ref LL_AHB1_GRP1_PERIPH_MIF
 293:Drivers/STM32L0xx_HAL_Driver/Inc/stm32l0xx_ll_bus.h ****   *         @arg @ref LL_AHB1_GRP1_PERIPH_CRC
 294:Drivers/STM32L0xx_HAL_Driver/Inc/stm32l0xx_ll_bus.h ****   *         @arg @ref LL_AHB1_GRP1_PERIPH_TSC (*)
 295:Drivers/STM32L0xx_HAL_Driver/Inc/stm32l0xx_ll_bus.h ****   *         @arg @ref LL_AHB1_GRP1_PERIPH_RNG (*)
ARM GAS  /tmp/cccFncD6.s 			page 8


 296:Drivers/STM32L0xx_HAL_Driver/Inc/stm32l0xx_ll_bus.h ****   *         @arg @ref LL_AHB1_GRP1_PERIPH_CRYP (*)
 297:Drivers/STM32L0xx_HAL_Driver/Inc/stm32l0xx_ll_bus.h ****   *
 298:Drivers/STM32L0xx_HAL_Driver/Inc/stm32l0xx_ll_bus.h ****   *         (*) value not defined in all devices.
 299:Drivers/STM32L0xx_HAL_Driver/Inc/stm32l0xx_ll_bus.h ****   * @retval None
 300:Drivers/STM32L0xx_HAL_Driver/Inc/stm32l0xx_ll_bus.h **** */
 301:Drivers/STM32L0xx_HAL_Driver/Inc/stm32l0xx_ll_bus.h **** __STATIC_INLINE void LL_AHB1_GRP1_ForceReset(uint32_t Periphs)
 302:Drivers/STM32L0xx_HAL_Driver/Inc/stm32l0xx_ll_bus.h **** {
 303:Drivers/STM32L0xx_HAL_Driver/Inc/stm32l0xx_ll_bus.h ****   SET_BIT(RCC->AHBRSTR, Periphs);
 304:Drivers/STM32L0xx_HAL_Driver/Inc/stm32l0xx_ll_bus.h **** }
 305:Drivers/STM32L0xx_HAL_Driver/Inc/stm32l0xx_ll_bus.h **** 
 306:Drivers/STM32L0xx_HAL_Driver/Inc/stm32l0xx_ll_bus.h **** /**
 307:Drivers/STM32L0xx_HAL_Driver/Inc/stm32l0xx_ll_bus.h ****   * @brief  Release AHB1 peripherals reset.
 308:Drivers/STM32L0xx_HAL_Driver/Inc/stm32l0xx_ll_bus.h ****   * @rmtoll AHBRSTR      DMARST        LL_AHB1_GRP1_ReleaseReset\n
 309:Drivers/STM32L0xx_HAL_Driver/Inc/stm32l0xx_ll_bus.h ****   *         AHBRSTR      MIFRST        LL_AHB1_GRP1_ReleaseReset\n
 310:Drivers/STM32L0xx_HAL_Driver/Inc/stm32l0xx_ll_bus.h ****   *         AHBRSTR      CRCRST        LL_AHB1_GRP1_ReleaseReset\n
 311:Drivers/STM32L0xx_HAL_Driver/Inc/stm32l0xx_ll_bus.h ****   *         AHBRSTR      TSCRST        LL_AHB1_GRP1_ReleaseReset\n
 312:Drivers/STM32L0xx_HAL_Driver/Inc/stm32l0xx_ll_bus.h ****   *         AHBRSTR      RNGRST        LL_AHB1_GRP1_ReleaseReset\n
 313:Drivers/STM32L0xx_HAL_Driver/Inc/stm32l0xx_ll_bus.h ****   *         AHBRSTR      CRYPRST       LL_AHB1_GRP1_ReleaseReset
 314:Drivers/STM32L0xx_HAL_Driver/Inc/stm32l0xx_ll_bus.h ****   * @param  Periphs This parameter can be a combination of the following values:
 315:Drivers/STM32L0xx_HAL_Driver/Inc/stm32l0xx_ll_bus.h ****   *         @arg @ref LL_AHB1_GRP1_PERIPH_ALL
 316:Drivers/STM32L0xx_HAL_Driver/Inc/stm32l0xx_ll_bus.h ****   *         @arg @ref LL_AHB1_GRP1_PERIPH_DMA1
 317:Drivers/STM32L0xx_HAL_Driver/Inc/stm32l0xx_ll_bus.h ****   *         @arg @ref LL_AHB1_GRP1_PERIPH_MIF
 318:Drivers/STM32L0xx_HAL_Driver/Inc/stm32l0xx_ll_bus.h ****   *         @arg @ref LL_AHB1_GRP1_PERIPH_CRC
 319:Drivers/STM32L0xx_HAL_Driver/Inc/stm32l0xx_ll_bus.h ****   *         @arg @ref LL_AHB1_GRP1_PERIPH_TSC (*)
 320:Drivers/STM32L0xx_HAL_Driver/Inc/stm32l0xx_ll_bus.h ****   *         @arg @ref LL_AHB1_GRP1_PERIPH_RNG (*)
 321:Drivers/STM32L0xx_HAL_Driver/Inc/stm32l0xx_ll_bus.h ****   *         @arg @ref LL_AHB1_GRP1_PERIPH_CRYP (*)
 322:Drivers/STM32L0xx_HAL_Driver/Inc/stm32l0xx_ll_bus.h ****   *
 323:Drivers/STM32L0xx_HAL_Driver/Inc/stm32l0xx_ll_bus.h ****   *         (*) value not defined in all devices.
 324:Drivers/STM32L0xx_HAL_Driver/Inc/stm32l0xx_ll_bus.h ****   * @retval None
 325:Drivers/STM32L0xx_HAL_Driver/Inc/stm32l0xx_ll_bus.h **** */
 326:Drivers/STM32L0xx_HAL_Driver/Inc/stm32l0xx_ll_bus.h **** __STATIC_INLINE void LL_AHB1_GRP1_ReleaseReset(uint32_t Periphs)
 327:Drivers/STM32L0xx_HAL_Driver/Inc/stm32l0xx_ll_bus.h **** {
 328:Drivers/STM32L0xx_HAL_Driver/Inc/stm32l0xx_ll_bus.h ****   CLEAR_BIT(RCC->AHBRSTR, Periphs);
 329:Drivers/STM32L0xx_HAL_Driver/Inc/stm32l0xx_ll_bus.h **** }
 330:Drivers/STM32L0xx_HAL_Driver/Inc/stm32l0xx_ll_bus.h **** 
 331:Drivers/STM32L0xx_HAL_Driver/Inc/stm32l0xx_ll_bus.h **** /**
 332:Drivers/STM32L0xx_HAL_Driver/Inc/stm32l0xx_ll_bus.h ****   * @brief  Enable AHB1 peripherals clock during Low Power (Sleep) mode.
 333:Drivers/STM32L0xx_HAL_Driver/Inc/stm32l0xx_ll_bus.h ****   * @rmtoll AHBSMENR     DMASMEN       LL_AHB1_GRP1_EnableClockSleep\n
 334:Drivers/STM32L0xx_HAL_Driver/Inc/stm32l0xx_ll_bus.h ****   *         AHBSMENR     MIFSMEN       LL_AHB1_GRP1_EnableClockSleep\n
 335:Drivers/STM32L0xx_HAL_Driver/Inc/stm32l0xx_ll_bus.h ****   *         AHBSMENR     SRAMSMEN      LL_AHB1_GRP1_EnableClockSleep\n
 336:Drivers/STM32L0xx_HAL_Driver/Inc/stm32l0xx_ll_bus.h ****   *         AHBSMENR     CRCSMEN       LL_AHB1_GRP1_EnableClockSleep\n
 337:Drivers/STM32L0xx_HAL_Driver/Inc/stm32l0xx_ll_bus.h ****   *         AHBSMENR     TSCSMEN       LL_AHB1_GRP1_EnableClockSleep\n
 338:Drivers/STM32L0xx_HAL_Driver/Inc/stm32l0xx_ll_bus.h ****   *         AHBSMENR     RNGSMEN       LL_AHB1_GRP1_EnableClockSleep\n
 339:Drivers/STM32L0xx_HAL_Driver/Inc/stm32l0xx_ll_bus.h ****   *         AHBSMENR     CRYPSMEN      LL_AHB1_GRP1_EnableClockSleep
 340:Drivers/STM32L0xx_HAL_Driver/Inc/stm32l0xx_ll_bus.h ****   * @param  Periphs This parameter can be a combination of the following values:
 341:Drivers/STM32L0xx_HAL_Driver/Inc/stm32l0xx_ll_bus.h ****   *         @arg @ref LL_AHB1_GRP1_PERIPH_DMA1
 342:Drivers/STM32L0xx_HAL_Driver/Inc/stm32l0xx_ll_bus.h ****   *         @arg @ref LL_AHB1_GRP1_PERIPH_MIF
 343:Drivers/STM32L0xx_HAL_Driver/Inc/stm32l0xx_ll_bus.h ****   *         @arg @ref LL_AHB1_GRP1_PERIPH_SRAM
 344:Drivers/STM32L0xx_HAL_Driver/Inc/stm32l0xx_ll_bus.h ****   *         @arg @ref LL_AHB1_GRP1_PERIPH_CRC
 345:Drivers/STM32L0xx_HAL_Driver/Inc/stm32l0xx_ll_bus.h ****   *         @arg @ref LL_AHB1_GRP1_PERIPH_TSC (*)
 346:Drivers/STM32L0xx_HAL_Driver/Inc/stm32l0xx_ll_bus.h ****   *         @arg @ref LL_AHB1_GRP1_PERIPH_RNG (*)
 347:Drivers/STM32L0xx_HAL_Driver/Inc/stm32l0xx_ll_bus.h ****   *         @arg @ref LL_AHB1_GRP1_PERIPH_CRYP (*)
 348:Drivers/STM32L0xx_HAL_Driver/Inc/stm32l0xx_ll_bus.h ****   *
 349:Drivers/STM32L0xx_HAL_Driver/Inc/stm32l0xx_ll_bus.h ****   *         (*) value not defined in all devices.
 350:Drivers/STM32L0xx_HAL_Driver/Inc/stm32l0xx_ll_bus.h ****   * @retval None
 351:Drivers/STM32L0xx_HAL_Driver/Inc/stm32l0xx_ll_bus.h **** */
 352:Drivers/STM32L0xx_HAL_Driver/Inc/stm32l0xx_ll_bus.h **** __STATIC_INLINE void LL_AHB1_GRP1_EnableClockSleep(uint32_t Periphs)
ARM GAS  /tmp/cccFncD6.s 			page 9


 353:Drivers/STM32L0xx_HAL_Driver/Inc/stm32l0xx_ll_bus.h **** {
 354:Drivers/STM32L0xx_HAL_Driver/Inc/stm32l0xx_ll_bus.h ****   __IO uint32_t tmpreg;
 355:Drivers/STM32L0xx_HAL_Driver/Inc/stm32l0xx_ll_bus.h ****   SET_BIT(RCC->AHBSMENR, Periphs);
 356:Drivers/STM32L0xx_HAL_Driver/Inc/stm32l0xx_ll_bus.h ****   /* Delay after an RCC peripheral clock enabling */
 357:Drivers/STM32L0xx_HAL_Driver/Inc/stm32l0xx_ll_bus.h ****   tmpreg = READ_BIT(RCC->AHBSMENR, Periphs);
 358:Drivers/STM32L0xx_HAL_Driver/Inc/stm32l0xx_ll_bus.h ****   (void)tmpreg;
 359:Drivers/STM32L0xx_HAL_Driver/Inc/stm32l0xx_ll_bus.h **** }
 360:Drivers/STM32L0xx_HAL_Driver/Inc/stm32l0xx_ll_bus.h **** 
 361:Drivers/STM32L0xx_HAL_Driver/Inc/stm32l0xx_ll_bus.h **** /**
 362:Drivers/STM32L0xx_HAL_Driver/Inc/stm32l0xx_ll_bus.h ****   * @brief  Disable AHB1 peripherals clock during Low Power (Sleep) mode.
 363:Drivers/STM32L0xx_HAL_Driver/Inc/stm32l0xx_ll_bus.h ****   * @rmtoll AHBSMENR     DMASMEN       LL_AHB1_GRP1_DisableClockSleep\n
 364:Drivers/STM32L0xx_HAL_Driver/Inc/stm32l0xx_ll_bus.h ****   *         AHBSMENR     MIFSMEN       LL_AHB1_GRP1_DisableClockSleep\n
 365:Drivers/STM32L0xx_HAL_Driver/Inc/stm32l0xx_ll_bus.h ****   *         AHBSMENR     SRAMSMEN      LL_AHB1_GRP1_DisableClockSleep\n
 366:Drivers/STM32L0xx_HAL_Driver/Inc/stm32l0xx_ll_bus.h ****   *         AHBSMENR     CRCSMEN       LL_AHB1_GRP1_DisableClockSleep\n
 367:Drivers/STM32L0xx_HAL_Driver/Inc/stm32l0xx_ll_bus.h ****   *         AHBSMENR     TSCSMEN       LL_AHB1_GRP1_DisableClockSleep\n
 368:Drivers/STM32L0xx_HAL_Driver/Inc/stm32l0xx_ll_bus.h ****   *         AHBSMENR     RNGSMEN       LL_AHB1_GRP1_DisableClockSleep\n
 369:Drivers/STM32L0xx_HAL_Driver/Inc/stm32l0xx_ll_bus.h ****   *         AHBSMENR     CRYPSMEN      LL_AHB1_GRP1_DisableClockSleep
 370:Drivers/STM32L0xx_HAL_Driver/Inc/stm32l0xx_ll_bus.h ****   * @param  Periphs This parameter can be a combination of the following values:
 371:Drivers/STM32L0xx_HAL_Driver/Inc/stm32l0xx_ll_bus.h ****   *         @arg @ref LL_AHB1_GRP1_PERIPH_DMA1
 372:Drivers/STM32L0xx_HAL_Driver/Inc/stm32l0xx_ll_bus.h ****   *         @arg @ref LL_AHB1_GRP1_PERIPH_MIF
 373:Drivers/STM32L0xx_HAL_Driver/Inc/stm32l0xx_ll_bus.h ****   *         @arg @ref LL_AHB1_GRP1_PERIPH_SRAM
 374:Drivers/STM32L0xx_HAL_Driver/Inc/stm32l0xx_ll_bus.h ****   *         @arg @ref LL_AHB1_GRP1_PERIPH_CRC
 375:Drivers/STM32L0xx_HAL_Driver/Inc/stm32l0xx_ll_bus.h ****   *         @arg @ref LL_AHB1_GRP1_PERIPH_TSC (*)
 376:Drivers/STM32L0xx_HAL_Driver/Inc/stm32l0xx_ll_bus.h ****   *         @arg @ref LL_AHB1_GRP1_PERIPH_RNG (*)
 377:Drivers/STM32L0xx_HAL_Driver/Inc/stm32l0xx_ll_bus.h ****   *         @arg @ref LL_AHB1_GRP1_PERIPH_CRYP (*)
 378:Drivers/STM32L0xx_HAL_Driver/Inc/stm32l0xx_ll_bus.h ****   *
 379:Drivers/STM32L0xx_HAL_Driver/Inc/stm32l0xx_ll_bus.h ****   *         (*) value not defined in all devices.
 380:Drivers/STM32L0xx_HAL_Driver/Inc/stm32l0xx_ll_bus.h ****   * @retval None
 381:Drivers/STM32L0xx_HAL_Driver/Inc/stm32l0xx_ll_bus.h **** */
 382:Drivers/STM32L0xx_HAL_Driver/Inc/stm32l0xx_ll_bus.h **** __STATIC_INLINE void LL_AHB1_GRP1_DisableClockSleep(uint32_t Periphs)
 383:Drivers/STM32L0xx_HAL_Driver/Inc/stm32l0xx_ll_bus.h **** {
 384:Drivers/STM32L0xx_HAL_Driver/Inc/stm32l0xx_ll_bus.h ****   CLEAR_BIT(RCC->AHBSMENR, Periphs);
 385:Drivers/STM32L0xx_HAL_Driver/Inc/stm32l0xx_ll_bus.h **** }
 386:Drivers/STM32L0xx_HAL_Driver/Inc/stm32l0xx_ll_bus.h **** 
 387:Drivers/STM32L0xx_HAL_Driver/Inc/stm32l0xx_ll_bus.h **** /**
 388:Drivers/STM32L0xx_HAL_Driver/Inc/stm32l0xx_ll_bus.h ****   * @}
 389:Drivers/STM32L0xx_HAL_Driver/Inc/stm32l0xx_ll_bus.h ****   */
 390:Drivers/STM32L0xx_HAL_Driver/Inc/stm32l0xx_ll_bus.h **** 
 391:Drivers/STM32L0xx_HAL_Driver/Inc/stm32l0xx_ll_bus.h **** /** @defgroup BUS_LL_EF_APB1 APB1
 392:Drivers/STM32L0xx_HAL_Driver/Inc/stm32l0xx_ll_bus.h ****   * @{
 393:Drivers/STM32L0xx_HAL_Driver/Inc/stm32l0xx_ll_bus.h ****   */
 394:Drivers/STM32L0xx_HAL_Driver/Inc/stm32l0xx_ll_bus.h **** 
 395:Drivers/STM32L0xx_HAL_Driver/Inc/stm32l0xx_ll_bus.h **** /**
 396:Drivers/STM32L0xx_HAL_Driver/Inc/stm32l0xx_ll_bus.h ****   * @brief  Enable APB1 peripherals clock.
 397:Drivers/STM32L0xx_HAL_Driver/Inc/stm32l0xx_ll_bus.h ****   * @rmtoll APB1ENR     TIM2EN        LL_APB1_GRP1_EnableClock\n
 398:Drivers/STM32L0xx_HAL_Driver/Inc/stm32l0xx_ll_bus.h ****   *         APB1ENR     TIM3EN        LL_APB1_GRP1_EnableClock\n
 399:Drivers/STM32L0xx_HAL_Driver/Inc/stm32l0xx_ll_bus.h ****   *         APB1ENR     TIM6EN        LL_APB1_GRP1_EnableClock\n
 400:Drivers/STM32L0xx_HAL_Driver/Inc/stm32l0xx_ll_bus.h ****   *         APB1ENR     TIM7EN        LL_APB1_GRP1_EnableClock\n
 401:Drivers/STM32L0xx_HAL_Driver/Inc/stm32l0xx_ll_bus.h ****   *         APB1ENR     LCDEN         LL_APB1_GRP1_EnableClock\n
 402:Drivers/STM32L0xx_HAL_Driver/Inc/stm32l0xx_ll_bus.h ****   *         APB1ENR     WWDGEN        LL_APB1_GRP1_EnableClock\n
 403:Drivers/STM32L0xx_HAL_Driver/Inc/stm32l0xx_ll_bus.h ****   *         APB1ENR     SPI2EN        LL_APB1_GRP1_EnableClock\n
 404:Drivers/STM32L0xx_HAL_Driver/Inc/stm32l0xx_ll_bus.h ****   *         APB1ENR     USART2EN      LL_APB1_GRP1_EnableClock\n
 405:Drivers/STM32L0xx_HAL_Driver/Inc/stm32l0xx_ll_bus.h ****   *         APB1ENR     LPUART1EN     LL_APB1_GRP1_EnableClock\n
 406:Drivers/STM32L0xx_HAL_Driver/Inc/stm32l0xx_ll_bus.h ****   *         APB1ENR     USART4EN      LL_APB1_GRP1_EnableClock\n
 407:Drivers/STM32L0xx_HAL_Driver/Inc/stm32l0xx_ll_bus.h ****   *         APB1ENR     USART5EN      LL_APB1_GRP1_EnableClock\n
 408:Drivers/STM32L0xx_HAL_Driver/Inc/stm32l0xx_ll_bus.h ****   *         APB1ENR     I2C1EN        LL_APB1_GRP1_EnableClock\n
 409:Drivers/STM32L0xx_HAL_Driver/Inc/stm32l0xx_ll_bus.h ****   *         APB1ENR     I2C2EN        LL_APB1_GRP1_EnableClock\n
ARM GAS  /tmp/cccFncD6.s 			page 10


 410:Drivers/STM32L0xx_HAL_Driver/Inc/stm32l0xx_ll_bus.h ****   *         APB1ENR     USBEN         LL_APB1_GRP1_EnableClock\n
 411:Drivers/STM32L0xx_HAL_Driver/Inc/stm32l0xx_ll_bus.h ****   *         APB1ENR     CRSEN         LL_APB1_GRP1_EnableClock\n
 412:Drivers/STM32L0xx_HAL_Driver/Inc/stm32l0xx_ll_bus.h ****   *         APB1ENR     PWREN         LL_APB1_GRP1_EnableClock\n
 413:Drivers/STM32L0xx_HAL_Driver/Inc/stm32l0xx_ll_bus.h ****   *         APB1ENR     DACEN         LL_APB1_GRP1_EnableClock\n
 414:Drivers/STM32L0xx_HAL_Driver/Inc/stm32l0xx_ll_bus.h ****   *         APB1ENR     I2C3EN        LL_APB1_GRP1_EnableClock\n
 415:Drivers/STM32L0xx_HAL_Driver/Inc/stm32l0xx_ll_bus.h ****   *         APB1ENR     LPTIM1EN      LL_APB1_GRP1_EnableClock
 416:Drivers/STM32L0xx_HAL_Driver/Inc/stm32l0xx_ll_bus.h ****   * @param  Periphs This parameter can be a combination of the following values:
 417:Drivers/STM32L0xx_HAL_Driver/Inc/stm32l0xx_ll_bus.h ****   *         @arg @ref LL_APB1_GRP1_PERIPH_TIM2
 418:Drivers/STM32L0xx_HAL_Driver/Inc/stm32l0xx_ll_bus.h ****   *         @arg @ref LL_APB1_GRP1_PERIPH_TIM3 (*)
 419:Drivers/STM32L0xx_HAL_Driver/Inc/stm32l0xx_ll_bus.h ****   *         @arg @ref LL_APB1_GRP1_PERIPH_TIM6 (*)
 420:Drivers/STM32L0xx_HAL_Driver/Inc/stm32l0xx_ll_bus.h ****   *         @arg @ref LL_APB1_GRP1_PERIPH_TIM7 (*)
 421:Drivers/STM32L0xx_HAL_Driver/Inc/stm32l0xx_ll_bus.h ****   *         @arg @ref LL_APB1_GRP1_PERIPH_LCD (*)
 422:Drivers/STM32L0xx_HAL_Driver/Inc/stm32l0xx_ll_bus.h ****   *         @arg @ref LL_APB1_GRP1_PERIPH_WWDG
 423:Drivers/STM32L0xx_HAL_Driver/Inc/stm32l0xx_ll_bus.h ****   *         @arg @ref LL_APB1_GRP1_PERIPH_SPI2 (*)
 424:Drivers/STM32L0xx_HAL_Driver/Inc/stm32l0xx_ll_bus.h ****   *         @arg @ref LL_APB1_GRP1_PERIPH_USART2
 425:Drivers/STM32L0xx_HAL_Driver/Inc/stm32l0xx_ll_bus.h ****   *         @arg @ref LL_APB1_GRP1_PERIPH_LPUART1
 426:Drivers/STM32L0xx_HAL_Driver/Inc/stm32l0xx_ll_bus.h ****   *         @arg @ref LL_APB1_GRP1_PERIPH_USART4 (*)
 427:Drivers/STM32L0xx_HAL_Driver/Inc/stm32l0xx_ll_bus.h ****   *         @arg @ref LL_APB1_GRP1_PERIPH_USART5 (*)
 428:Drivers/STM32L0xx_HAL_Driver/Inc/stm32l0xx_ll_bus.h ****   *         @arg @ref LL_APB1_GRP1_PERIPH_I2C1
 429:Drivers/STM32L0xx_HAL_Driver/Inc/stm32l0xx_ll_bus.h ****   *         @arg @ref LL_APB1_GRP1_PERIPH_I2C2 (*)
 430:Drivers/STM32L0xx_HAL_Driver/Inc/stm32l0xx_ll_bus.h ****   *         @arg @ref LL_APB1_GRP1_PERIPH_USB (*)
 431:Drivers/STM32L0xx_HAL_Driver/Inc/stm32l0xx_ll_bus.h ****   *         @arg @ref LL_APB1_GRP1_PERIPH_CRS (*)
 432:Drivers/STM32L0xx_HAL_Driver/Inc/stm32l0xx_ll_bus.h ****   *         @arg @ref LL_APB1_GRP1_PERIPH_PWR
 433:Drivers/STM32L0xx_HAL_Driver/Inc/stm32l0xx_ll_bus.h ****   *         @arg @ref LL_APB1_GRP1_PERIPH_DAC1 (*)
 434:Drivers/STM32L0xx_HAL_Driver/Inc/stm32l0xx_ll_bus.h ****   *         @arg @ref LL_APB1_GRP1_PERIPH_I2C3 (*)
 435:Drivers/STM32L0xx_HAL_Driver/Inc/stm32l0xx_ll_bus.h ****   *         @arg @ref LL_APB1_GRP1_PERIPH_LPTIM1
 436:Drivers/STM32L0xx_HAL_Driver/Inc/stm32l0xx_ll_bus.h ****   *
 437:Drivers/STM32L0xx_HAL_Driver/Inc/stm32l0xx_ll_bus.h ****   *         (*) value not defined in all devices.
 438:Drivers/STM32L0xx_HAL_Driver/Inc/stm32l0xx_ll_bus.h ****   * @retval None
 439:Drivers/STM32L0xx_HAL_Driver/Inc/stm32l0xx_ll_bus.h **** */
 440:Drivers/STM32L0xx_HAL_Driver/Inc/stm32l0xx_ll_bus.h **** __STATIC_INLINE void LL_APB1_GRP1_EnableClock(uint32_t Periphs)
 441:Drivers/STM32L0xx_HAL_Driver/Inc/stm32l0xx_ll_bus.h **** {
 442:Drivers/STM32L0xx_HAL_Driver/Inc/stm32l0xx_ll_bus.h ****   __IO uint32_t tmpreg;
 443:Drivers/STM32L0xx_HAL_Driver/Inc/stm32l0xx_ll_bus.h ****   SET_BIT(RCC->APB1ENR, Periphs);
 444:Drivers/STM32L0xx_HAL_Driver/Inc/stm32l0xx_ll_bus.h ****   /* Delay after an RCC peripheral clock enabling */
 445:Drivers/STM32L0xx_HAL_Driver/Inc/stm32l0xx_ll_bus.h ****   tmpreg = READ_BIT(RCC->APB1ENR, Periphs);
 446:Drivers/STM32L0xx_HAL_Driver/Inc/stm32l0xx_ll_bus.h ****   (void)tmpreg;
 447:Drivers/STM32L0xx_HAL_Driver/Inc/stm32l0xx_ll_bus.h **** }
 448:Drivers/STM32L0xx_HAL_Driver/Inc/stm32l0xx_ll_bus.h **** 
 449:Drivers/STM32L0xx_HAL_Driver/Inc/stm32l0xx_ll_bus.h **** /**
 450:Drivers/STM32L0xx_HAL_Driver/Inc/stm32l0xx_ll_bus.h ****   * @brief  Check if APB1 peripheral clock is enabled or not
 451:Drivers/STM32L0xx_HAL_Driver/Inc/stm32l0xx_ll_bus.h ****   * @rmtoll APB1ENR     TIM2EN        LL_APB1_GRP1_IsEnabledClock\n
 452:Drivers/STM32L0xx_HAL_Driver/Inc/stm32l0xx_ll_bus.h ****   *         APB1ENR     TIM3EN        LL_APB1_GRP1_IsEnabledClock\n
 453:Drivers/STM32L0xx_HAL_Driver/Inc/stm32l0xx_ll_bus.h ****   *         APB1ENR     TIM6EN        LL_APB1_GRP1_IsEnabledClock\n
 454:Drivers/STM32L0xx_HAL_Driver/Inc/stm32l0xx_ll_bus.h ****   *         APB1ENR     TIM7EN        LL_APB1_GRP1_IsEnabledClock\n
 455:Drivers/STM32L0xx_HAL_Driver/Inc/stm32l0xx_ll_bus.h ****   *         APB1ENR     LCDEN         LL_APB1_GRP1_IsEnabledClock\n
 456:Drivers/STM32L0xx_HAL_Driver/Inc/stm32l0xx_ll_bus.h ****   *         APB1ENR     WWDGEN        LL_APB1_GRP1_IsEnabledClock\n
 457:Drivers/STM32L0xx_HAL_Driver/Inc/stm32l0xx_ll_bus.h ****   *         APB1ENR     SPI2EN        LL_APB1_GRP1_IsEnabledClock\n
 458:Drivers/STM32L0xx_HAL_Driver/Inc/stm32l0xx_ll_bus.h ****   *         APB1ENR     USART2EN      LL_APB1_GRP1_IsEnabledClock\n
 459:Drivers/STM32L0xx_HAL_Driver/Inc/stm32l0xx_ll_bus.h ****   *         APB1ENR     LPUART1EN     LL_APB1_GRP1_IsEnabledClock\n
 460:Drivers/STM32L0xx_HAL_Driver/Inc/stm32l0xx_ll_bus.h ****   *         APB1ENR     USART4EN      LL_APB1_GRP1_IsEnabledClock\n
 461:Drivers/STM32L0xx_HAL_Driver/Inc/stm32l0xx_ll_bus.h ****   *         APB1ENR     USART5EN      LL_APB1_GRP1_IsEnabledClock\n
 462:Drivers/STM32L0xx_HAL_Driver/Inc/stm32l0xx_ll_bus.h ****   *         APB1ENR     I2C1EN        LL_APB1_GRP1_IsEnabledClock\n
 463:Drivers/STM32L0xx_HAL_Driver/Inc/stm32l0xx_ll_bus.h ****   *         APB1ENR     I2C2EN        LL_APB1_GRP1_IsEnabledClock\n
 464:Drivers/STM32L0xx_HAL_Driver/Inc/stm32l0xx_ll_bus.h ****   *         APB1ENR     USBEN         LL_APB1_GRP1_IsEnabledClock\n
 465:Drivers/STM32L0xx_HAL_Driver/Inc/stm32l0xx_ll_bus.h ****   *         APB1ENR     CRSEN         LL_APB1_GRP1_IsEnabledClock\n
 466:Drivers/STM32L0xx_HAL_Driver/Inc/stm32l0xx_ll_bus.h ****   *         APB1ENR     PWREN         LL_APB1_GRP1_IsEnabledClock\n
ARM GAS  /tmp/cccFncD6.s 			page 11


 467:Drivers/STM32L0xx_HAL_Driver/Inc/stm32l0xx_ll_bus.h ****   *         APB1ENR     DACEN         LL_APB1_GRP1_IsEnabledClock\n
 468:Drivers/STM32L0xx_HAL_Driver/Inc/stm32l0xx_ll_bus.h ****   *         APB1ENR     I2C3EN        LL_APB1_GRP1_IsEnabledClock\n
 469:Drivers/STM32L0xx_HAL_Driver/Inc/stm32l0xx_ll_bus.h ****   *         APB1ENR     LPTIM1EN      LL_APB1_GRP1_IsEnabledClock
 470:Drivers/STM32L0xx_HAL_Driver/Inc/stm32l0xx_ll_bus.h ****   * @param  Periphs This parameter can be a combination of the following values:
 471:Drivers/STM32L0xx_HAL_Driver/Inc/stm32l0xx_ll_bus.h ****   *         @arg @ref LL_APB1_GRP1_PERIPH_TIM2
 472:Drivers/STM32L0xx_HAL_Driver/Inc/stm32l0xx_ll_bus.h ****   *         @arg @ref LL_APB1_GRP1_PERIPH_TIM3 (*)
 473:Drivers/STM32L0xx_HAL_Driver/Inc/stm32l0xx_ll_bus.h ****   *         @arg @ref LL_APB1_GRP1_PERIPH_TIM6 (*)
 474:Drivers/STM32L0xx_HAL_Driver/Inc/stm32l0xx_ll_bus.h ****   *         @arg @ref LL_APB1_GRP1_PERIPH_TIM7 (*)
 475:Drivers/STM32L0xx_HAL_Driver/Inc/stm32l0xx_ll_bus.h ****   *         @arg @ref LL_APB1_GRP1_PERIPH_LCD (*)
 476:Drivers/STM32L0xx_HAL_Driver/Inc/stm32l0xx_ll_bus.h ****   *         @arg @ref LL_APB1_GRP1_PERIPH_WWDG
 477:Drivers/STM32L0xx_HAL_Driver/Inc/stm32l0xx_ll_bus.h ****   *         @arg @ref LL_APB1_GRP1_PERIPH_SPI2 (*)
 478:Drivers/STM32L0xx_HAL_Driver/Inc/stm32l0xx_ll_bus.h ****   *         @arg @ref LL_APB1_GRP1_PERIPH_USART2
 479:Drivers/STM32L0xx_HAL_Driver/Inc/stm32l0xx_ll_bus.h ****   *         @arg @ref LL_APB1_GRP1_PERIPH_LPUART1
 480:Drivers/STM32L0xx_HAL_Driver/Inc/stm32l0xx_ll_bus.h ****   *         @arg @ref LL_APB1_GRP1_PERIPH_USART4 (*)
 481:Drivers/STM32L0xx_HAL_Driver/Inc/stm32l0xx_ll_bus.h ****   *         @arg @ref LL_APB1_GRP1_PERIPH_USART5 (*)
 482:Drivers/STM32L0xx_HAL_Driver/Inc/stm32l0xx_ll_bus.h ****   *         @arg @ref LL_APB1_GRP1_PERIPH_I2C1
 483:Drivers/STM32L0xx_HAL_Driver/Inc/stm32l0xx_ll_bus.h ****   *         @arg @ref LL_APB1_GRP1_PERIPH_I2C2 (*)
 484:Drivers/STM32L0xx_HAL_Driver/Inc/stm32l0xx_ll_bus.h ****   *         @arg @ref LL_APB1_GRP1_PERIPH_USB (*)
 485:Drivers/STM32L0xx_HAL_Driver/Inc/stm32l0xx_ll_bus.h ****   *         @arg @ref LL_APB1_GRP1_PERIPH_CRS (*)
 486:Drivers/STM32L0xx_HAL_Driver/Inc/stm32l0xx_ll_bus.h ****   *         @arg @ref LL_APB1_GRP1_PERIPH_PWR
 487:Drivers/STM32L0xx_HAL_Driver/Inc/stm32l0xx_ll_bus.h ****   *         @arg @ref LL_APB1_GRP1_PERIPH_DAC1 (*)
 488:Drivers/STM32L0xx_HAL_Driver/Inc/stm32l0xx_ll_bus.h ****   *         @arg @ref LL_APB1_GRP1_PERIPH_I2C3 (*)
 489:Drivers/STM32L0xx_HAL_Driver/Inc/stm32l0xx_ll_bus.h ****   *         @arg @ref LL_APB1_GRP1_PERIPH_LPTIM1
 490:Drivers/STM32L0xx_HAL_Driver/Inc/stm32l0xx_ll_bus.h ****   *
 491:Drivers/STM32L0xx_HAL_Driver/Inc/stm32l0xx_ll_bus.h ****   *         (*) value not defined in all devices.
 492:Drivers/STM32L0xx_HAL_Driver/Inc/stm32l0xx_ll_bus.h ****   * @retval State of Periphs (1 or 0).
 493:Drivers/STM32L0xx_HAL_Driver/Inc/stm32l0xx_ll_bus.h **** */
 494:Drivers/STM32L0xx_HAL_Driver/Inc/stm32l0xx_ll_bus.h **** __STATIC_INLINE uint32_t LL_APB1_GRP1_IsEnabledClock(uint32_t Periphs)
 495:Drivers/STM32L0xx_HAL_Driver/Inc/stm32l0xx_ll_bus.h **** {
 496:Drivers/STM32L0xx_HAL_Driver/Inc/stm32l0xx_ll_bus.h ****   return ((READ_BIT(RCC->APB1ENR, Periphs) == (Periphs)) ? 1UL : 0UL);
 497:Drivers/STM32L0xx_HAL_Driver/Inc/stm32l0xx_ll_bus.h **** }
 498:Drivers/STM32L0xx_HAL_Driver/Inc/stm32l0xx_ll_bus.h **** 
 499:Drivers/STM32L0xx_HAL_Driver/Inc/stm32l0xx_ll_bus.h **** /**
 500:Drivers/STM32L0xx_HAL_Driver/Inc/stm32l0xx_ll_bus.h ****   * @brief  Disable APB1 peripherals clock.
 501:Drivers/STM32L0xx_HAL_Driver/Inc/stm32l0xx_ll_bus.h ****   * @rmtoll APB1ENR     TIM2EN        LL_APB1_GRP1_DisableClock\n
 502:Drivers/STM32L0xx_HAL_Driver/Inc/stm32l0xx_ll_bus.h ****   *         APB1ENR     TIM3EN        LL_APB1_GRP1_DisableClock\n
 503:Drivers/STM32L0xx_HAL_Driver/Inc/stm32l0xx_ll_bus.h ****   *         APB1ENR     TIM6EN        LL_APB1_GRP1_DisableClock\n
 504:Drivers/STM32L0xx_HAL_Driver/Inc/stm32l0xx_ll_bus.h ****   *         APB1ENR     TIM7EN        LL_APB1_GRP1_DisableClock\n
 505:Drivers/STM32L0xx_HAL_Driver/Inc/stm32l0xx_ll_bus.h ****   *         APB1ENR     LCDEN         LL_APB1_GRP1_DisableClock\n
 506:Drivers/STM32L0xx_HAL_Driver/Inc/stm32l0xx_ll_bus.h ****   *         APB1ENR     WWDGEN        LL_APB1_GRP1_DisableClock\n
 507:Drivers/STM32L0xx_HAL_Driver/Inc/stm32l0xx_ll_bus.h ****   *         APB1ENR     SPI2EN        LL_APB1_GRP1_DisableClock\n
 508:Drivers/STM32L0xx_HAL_Driver/Inc/stm32l0xx_ll_bus.h ****   *         APB1ENR     USART2EN      LL_APB1_GRP1_DisableClock\n
 509:Drivers/STM32L0xx_HAL_Driver/Inc/stm32l0xx_ll_bus.h ****   *         APB1ENR     LPUART1EN     LL_APB1_GRP1_DisableClock\n
 510:Drivers/STM32L0xx_HAL_Driver/Inc/stm32l0xx_ll_bus.h ****   *         APB1ENR     USART4EN      LL_APB1_GRP1_DisableClock\n
 511:Drivers/STM32L0xx_HAL_Driver/Inc/stm32l0xx_ll_bus.h ****   *         APB1ENR     USART5EN      LL_APB1_GRP1_DisableClock\n
 512:Drivers/STM32L0xx_HAL_Driver/Inc/stm32l0xx_ll_bus.h ****   *         APB1ENR     I2C1EN        LL_APB1_GRP1_DisableClock\n
 513:Drivers/STM32L0xx_HAL_Driver/Inc/stm32l0xx_ll_bus.h ****   *         APB1ENR     I2C2EN        LL_APB1_GRP1_DisableClock\n
 514:Drivers/STM32L0xx_HAL_Driver/Inc/stm32l0xx_ll_bus.h ****   *         APB1ENR     USBEN         LL_APB1_GRP1_DisableClock\n
 515:Drivers/STM32L0xx_HAL_Driver/Inc/stm32l0xx_ll_bus.h ****   *         APB1ENR     CRSEN         LL_APB1_GRP1_DisableClock\n
 516:Drivers/STM32L0xx_HAL_Driver/Inc/stm32l0xx_ll_bus.h ****   *         APB1ENR     PWREN         LL_APB1_GRP1_DisableClock\n
 517:Drivers/STM32L0xx_HAL_Driver/Inc/stm32l0xx_ll_bus.h ****   *         APB1ENR     DACEN         LL_APB1_GRP1_DisableClock\n
 518:Drivers/STM32L0xx_HAL_Driver/Inc/stm32l0xx_ll_bus.h ****   *         APB1ENR     I2C3EN        LL_APB1_GRP1_DisableClock\n
 519:Drivers/STM32L0xx_HAL_Driver/Inc/stm32l0xx_ll_bus.h ****   *         APB1ENR     LPTIM1EN      LL_APB1_GRP1_DisableClock
 520:Drivers/STM32L0xx_HAL_Driver/Inc/stm32l0xx_ll_bus.h ****   * @param  Periphs This parameter can be a combination of the following values:
 521:Drivers/STM32L0xx_HAL_Driver/Inc/stm32l0xx_ll_bus.h ****   *         @arg @ref LL_APB1_GRP1_PERIPH_TIM2
 522:Drivers/STM32L0xx_HAL_Driver/Inc/stm32l0xx_ll_bus.h ****   *         @arg @ref LL_APB1_GRP1_PERIPH_TIM3 (*)
 523:Drivers/STM32L0xx_HAL_Driver/Inc/stm32l0xx_ll_bus.h ****   *         @arg @ref LL_APB1_GRP1_PERIPH_TIM6 (*)
ARM GAS  /tmp/cccFncD6.s 			page 12


 524:Drivers/STM32L0xx_HAL_Driver/Inc/stm32l0xx_ll_bus.h ****   *         @arg @ref LL_APB1_GRP1_PERIPH_TIM7 (*)
 525:Drivers/STM32L0xx_HAL_Driver/Inc/stm32l0xx_ll_bus.h ****   *         @arg @ref LL_APB1_GRP1_PERIPH_LCD (*)
 526:Drivers/STM32L0xx_HAL_Driver/Inc/stm32l0xx_ll_bus.h ****   *         @arg @ref LL_APB1_GRP1_PERIPH_WWDG
 527:Drivers/STM32L0xx_HAL_Driver/Inc/stm32l0xx_ll_bus.h ****   *         @arg @ref LL_APB1_GRP1_PERIPH_SPI2 (*)
 528:Drivers/STM32L0xx_HAL_Driver/Inc/stm32l0xx_ll_bus.h ****   *         @arg @ref LL_APB1_GRP1_PERIPH_USART2
 529:Drivers/STM32L0xx_HAL_Driver/Inc/stm32l0xx_ll_bus.h ****   *         @arg @ref LL_APB1_GRP1_PERIPH_LPUART1
 530:Drivers/STM32L0xx_HAL_Driver/Inc/stm32l0xx_ll_bus.h ****   *         @arg @ref LL_APB1_GRP1_PERIPH_USART4 (*)
 531:Drivers/STM32L0xx_HAL_Driver/Inc/stm32l0xx_ll_bus.h ****   *         @arg @ref LL_APB1_GRP1_PERIPH_USART5 (*)
 532:Drivers/STM32L0xx_HAL_Driver/Inc/stm32l0xx_ll_bus.h ****   *         @arg @ref LL_APB1_GRP1_PERIPH_I2C1
 533:Drivers/STM32L0xx_HAL_Driver/Inc/stm32l0xx_ll_bus.h ****   *         @arg @ref LL_APB1_GRP1_PERIPH_I2C2 (*)
 534:Drivers/STM32L0xx_HAL_Driver/Inc/stm32l0xx_ll_bus.h ****   *         @arg @ref LL_APB1_GRP1_PERIPH_USB (*)
 535:Drivers/STM32L0xx_HAL_Driver/Inc/stm32l0xx_ll_bus.h ****   *         @arg @ref LL_APB1_GRP1_PERIPH_CRS (*)
 536:Drivers/STM32L0xx_HAL_Driver/Inc/stm32l0xx_ll_bus.h ****   *         @arg @ref LL_APB1_GRP1_PERIPH_PWR
 537:Drivers/STM32L0xx_HAL_Driver/Inc/stm32l0xx_ll_bus.h ****   *         @arg @ref LL_APB1_GRP1_PERIPH_DAC1 (*)
 538:Drivers/STM32L0xx_HAL_Driver/Inc/stm32l0xx_ll_bus.h ****   *         @arg @ref LL_APB1_GRP1_PERIPH_I2C3 (*)
 539:Drivers/STM32L0xx_HAL_Driver/Inc/stm32l0xx_ll_bus.h ****   *         @arg @ref LL_APB1_GRP1_PERIPH_LPTIM1
 540:Drivers/STM32L0xx_HAL_Driver/Inc/stm32l0xx_ll_bus.h ****   *
 541:Drivers/STM32L0xx_HAL_Driver/Inc/stm32l0xx_ll_bus.h ****   *         (*) value not defined in all devices.
 542:Drivers/STM32L0xx_HAL_Driver/Inc/stm32l0xx_ll_bus.h ****   * @retval None
 543:Drivers/STM32L0xx_HAL_Driver/Inc/stm32l0xx_ll_bus.h **** */
 544:Drivers/STM32L0xx_HAL_Driver/Inc/stm32l0xx_ll_bus.h **** __STATIC_INLINE void LL_APB1_GRP1_DisableClock(uint32_t Periphs)
 545:Drivers/STM32L0xx_HAL_Driver/Inc/stm32l0xx_ll_bus.h **** {
 546:Drivers/STM32L0xx_HAL_Driver/Inc/stm32l0xx_ll_bus.h ****   CLEAR_BIT(RCC->APB1ENR, Periphs);
 547:Drivers/STM32L0xx_HAL_Driver/Inc/stm32l0xx_ll_bus.h **** }
 548:Drivers/STM32L0xx_HAL_Driver/Inc/stm32l0xx_ll_bus.h **** 
 549:Drivers/STM32L0xx_HAL_Driver/Inc/stm32l0xx_ll_bus.h **** /**
 550:Drivers/STM32L0xx_HAL_Driver/Inc/stm32l0xx_ll_bus.h ****   * @brief  Force APB1 peripherals reset.
 551:Drivers/STM32L0xx_HAL_Driver/Inc/stm32l0xx_ll_bus.h ****   * @rmtoll APB1RSTR     TIM2RST        LL_APB1_GRP1_ForceReset\n
 552:Drivers/STM32L0xx_HAL_Driver/Inc/stm32l0xx_ll_bus.h ****   *         APB1RSTR     TIM3RST        LL_APB1_GRP1_ForceReset\n
 553:Drivers/STM32L0xx_HAL_Driver/Inc/stm32l0xx_ll_bus.h ****   *         APB1RSTR     TIM6RST        LL_APB1_GRP1_ForceReset\n
 554:Drivers/STM32L0xx_HAL_Driver/Inc/stm32l0xx_ll_bus.h ****   *         APB1RSTR     TIM7RST        LL_APB1_GRP1_ForceReset\n
 555:Drivers/STM32L0xx_HAL_Driver/Inc/stm32l0xx_ll_bus.h ****   *         APB1RSTR     LCDRST         LL_APB1_GRP1_ForceReset\n
 556:Drivers/STM32L0xx_HAL_Driver/Inc/stm32l0xx_ll_bus.h ****   *         APB1RSTR     WWDGRST        LL_APB1_GRP1_ForceReset\n
 557:Drivers/STM32L0xx_HAL_Driver/Inc/stm32l0xx_ll_bus.h ****   *         APB1RSTR     SPI2RST        LL_APB1_GRP1_ForceReset\n
 558:Drivers/STM32L0xx_HAL_Driver/Inc/stm32l0xx_ll_bus.h ****   *         APB1RSTR     USART2RST      LL_APB1_GRP1_ForceReset\n
 559:Drivers/STM32L0xx_HAL_Driver/Inc/stm32l0xx_ll_bus.h ****   *         APB1RSTR     LPUART1RST     LL_APB1_GRP1_ForceReset\n
 560:Drivers/STM32L0xx_HAL_Driver/Inc/stm32l0xx_ll_bus.h ****   *         APB1RSTR     USART4RST      LL_APB1_GRP1_ForceReset\n
 561:Drivers/STM32L0xx_HAL_Driver/Inc/stm32l0xx_ll_bus.h ****   *         APB1RSTR     USART5RST      LL_APB1_GRP1_ForceReset\n
 562:Drivers/STM32L0xx_HAL_Driver/Inc/stm32l0xx_ll_bus.h ****   *         APB1RSTR     I2C1RST        LL_APB1_GRP1_ForceReset\n
 563:Drivers/STM32L0xx_HAL_Driver/Inc/stm32l0xx_ll_bus.h ****   *         APB1RSTR     I2C2RST        LL_APB1_GRP1_ForceReset\n
 564:Drivers/STM32L0xx_HAL_Driver/Inc/stm32l0xx_ll_bus.h ****   *         APB1RSTR     USBRST         LL_APB1_GRP1_ForceReset\n
 565:Drivers/STM32L0xx_HAL_Driver/Inc/stm32l0xx_ll_bus.h ****   *         APB1RSTR     CRSRST         LL_APB1_GRP1_ForceReset\n
 566:Drivers/STM32L0xx_HAL_Driver/Inc/stm32l0xx_ll_bus.h ****   *         APB1RSTR     PWRRST         LL_APB1_GRP1_ForceReset\n
 567:Drivers/STM32L0xx_HAL_Driver/Inc/stm32l0xx_ll_bus.h ****   *         APB1RSTR     DACRST         LL_APB1_GRP1_ForceReset\n
 568:Drivers/STM32L0xx_HAL_Driver/Inc/stm32l0xx_ll_bus.h ****   *         APB1RSTR     I2C3RST        LL_APB1_GRP1_ForceReset\n
 569:Drivers/STM32L0xx_HAL_Driver/Inc/stm32l0xx_ll_bus.h ****   *         APB1RSTR     LPTIM1RST      LL_APB1_GRP1_ForceReset
 570:Drivers/STM32L0xx_HAL_Driver/Inc/stm32l0xx_ll_bus.h ****   * @param  Periphs This parameter can be a combination of the following values:
 571:Drivers/STM32L0xx_HAL_Driver/Inc/stm32l0xx_ll_bus.h ****   *         @arg @ref LL_APB1_GRP1_PERIPH_ALL
 572:Drivers/STM32L0xx_HAL_Driver/Inc/stm32l0xx_ll_bus.h ****   *         @arg @ref LL_APB1_GRP1_PERIPH_TIM2
 573:Drivers/STM32L0xx_HAL_Driver/Inc/stm32l0xx_ll_bus.h ****   *         @arg @ref LL_APB1_GRP1_PERIPH_TIM3 (*)
 574:Drivers/STM32L0xx_HAL_Driver/Inc/stm32l0xx_ll_bus.h ****   *         @arg @ref LL_APB1_GRP1_PERIPH_TIM6 (*)
 575:Drivers/STM32L0xx_HAL_Driver/Inc/stm32l0xx_ll_bus.h ****   *         @arg @ref LL_APB1_GRP1_PERIPH_TIM7 (*)
 576:Drivers/STM32L0xx_HAL_Driver/Inc/stm32l0xx_ll_bus.h ****   *         @arg @ref LL_APB1_GRP1_PERIPH_LCD (*)
 577:Drivers/STM32L0xx_HAL_Driver/Inc/stm32l0xx_ll_bus.h ****   *         @arg @ref LL_APB1_GRP1_PERIPH_WWDG
 578:Drivers/STM32L0xx_HAL_Driver/Inc/stm32l0xx_ll_bus.h ****   *         @arg @ref LL_APB1_GRP1_PERIPH_SPI2 (*)
 579:Drivers/STM32L0xx_HAL_Driver/Inc/stm32l0xx_ll_bus.h ****   *         @arg @ref LL_APB1_GRP1_PERIPH_USART2
 580:Drivers/STM32L0xx_HAL_Driver/Inc/stm32l0xx_ll_bus.h ****   *         @arg @ref LL_APB1_GRP1_PERIPH_LPUART1
ARM GAS  /tmp/cccFncD6.s 			page 13


 581:Drivers/STM32L0xx_HAL_Driver/Inc/stm32l0xx_ll_bus.h ****   *         @arg @ref LL_APB1_GRP1_PERIPH_USART4 (*)
 582:Drivers/STM32L0xx_HAL_Driver/Inc/stm32l0xx_ll_bus.h ****   *         @arg @ref LL_APB1_GRP1_PERIPH_USART5 (*)
 583:Drivers/STM32L0xx_HAL_Driver/Inc/stm32l0xx_ll_bus.h ****   *         @arg @ref LL_APB1_GRP1_PERIPH_I2C1
 584:Drivers/STM32L0xx_HAL_Driver/Inc/stm32l0xx_ll_bus.h ****   *         @arg @ref LL_APB1_GRP1_PERIPH_I2C2 (*)
 585:Drivers/STM32L0xx_HAL_Driver/Inc/stm32l0xx_ll_bus.h ****   *         @arg @ref LL_APB1_GRP1_PERIPH_USB (*)
 586:Drivers/STM32L0xx_HAL_Driver/Inc/stm32l0xx_ll_bus.h ****   *         @arg @ref LL_APB1_GRP1_PERIPH_CRS (*)
 587:Drivers/STM32L0xx_HAL_Driver/Inc/stm32l0xx_ll_bus.h ****   *         @arg @ref LL_APB1_GRP1_PERIPH_PWR
 588:Drivers/STM32L0xx_HAL_Driver/Inc/stm32l0xx_ll_bus.h ****   *         @arg @ref LL_APB1_GRP1_PERIPH_DAC1 (*)
 589:Drivers/STM32L0xx_HAL_Driver/Inc/stm32l0xx_ll_bus.h ****   *         @arg @ref LL_APB1_GRP1_PERIPH_I2C3 (*)
 590:Drivers/STM32L0xx_HAL_Driver/Inc/stm32l0xx_ll_bus.h ****   *         @arg @ref LL_APB1_GRP1_PERIPH_LPTIM1
 591:Drivers/STM32L0xx_HAL_Driver/Inc/stm32l0xx_ll_bus.h ****   *
 592:Drivers/STM32L0xx_HAL_Driver/Inc/stm32l0xx_ll_bus.h ****   *         (*) value not defined in all devices.
 593:Drivers/STM32L0xx_HAL_Driver/Inc/stm32l0xx_ll_bus.h ****   * @retval None
 594:Drivers/STM32L0xx_HAL_Driver/Inc/stm32l0xx_ll_bus.h **** */
 595:Drivers/STM32L0xx_HAL_Driver/Inc/stm32l0xx_ll_bus.h **** __STATIC_INLINE void LL_APB1_GRP1_ForceReset(uint32_t Periphs)
 596:Drivers/STM32L0xx_HAL_Driver/Inc/stm32l0xx_ll_bus.h **** {
 597:Drivers/STM32L0xx_HAL_Driver/Inc/stm32l0xx_ll_bus.h ****   SET_BIT(RCC->APB1RSTR, Periphs);
 598:Drivers/STM32L0xx_HAL_Driver/Inc/stm32l0xx_ll_bus.h **** }
 599:Drivers/STM32L0xx_HAL_Driver/Inc/stm32l0xx_ll_bus.h **** 
 600:Drivers/STM32L0xx_HAL_Driver/Inc/stm32l0xx_ll_bus.h **** /**
 601:Drivers/STM32L0xx_HAL_Driver/Inc/stm32l0xx_ll_bus.h ****   * @brief  Release APB1 peripherals reset.
 602:Drivers/STM32L0xx_HAL_Driver/Inc/stm32l0xx_ll_bus.h ****   * @rmtoll APB1RSTR     TIM2RST        LL_APB1_GRP1_ReleaseReset\n
 603:Drivers/STM32L0xx_HAL_Driver/Inc/stm32l0xx_ll_bus.h ****   *         APB1RSTR     TIM3RST        LL_APB1_GRP1_ReleaseReset\n
 604:Drivers/STM32L0xx_HAL_Driver/Inc/stm32l0xx_ll_bus.h ****   *         APB1RSTR     TIM6RST        LL_APB1_GRP1_ReleaseReset\n
 605:Drivers/STM32L0xx_HAL_Driver/Inc/stm32l0xx_ll_bus.h ****   *         APB1RSTR     TIM7RST        LL_APB1_GRP1_ReleaseReset\n
 606:Drivers/STM32L0xx_HAL_Driver/Inc/stm32l0xx_ll_bus.h ****   *         APB1RSTR     LCDRST         LL_APB1_GRP1_ReleaseReset\n
 607:Drivers/STM32L0xx_HAL_Driver/Inc/stm32l0xx_ll_bus.h ****   *         APB1RSTR     WWDGRST        LL_APB1_GRP1_ReleaseReset\n
 608:Drivers/STM32L0xx_HAL_Driver/Inc/stm32l0xx_ll_bus.h ****   *         APB1RSTR     SPI2RST        LL_APB1_GRP1_ReleaseReset\n
 609:Drivers/STM32L0xx_HAL_Driver/Inc/stm32l0xx_ll_bus.h ****   *         APB1RSTR     USART2RST      LL_APB1_GRP1_ReleaseReset\n
 610:Drivers/STM32L0xx_HAL_Driver/Inc/stm32l0xx_ll_bus.h ****   *         APB1RSTR     LPUART1RST     LL_APB1_GRP1_ReleaseReset\n
 611:Drivers/STM32L0xx_HAL_Driver/Inc/stm32l0xx_ll_bus.h ****   *         APB1RSTR     USART4RST      LL_APB1_GRP1_ReleaseReset\n
 612:Drivers/STM32L0xx_HAL_Driver/Inc/stm32l0xx_ll_bus.h ****   *         APB1RSTR     USART5RST      LL_APB1_GRP1_ReleaseReset\n
 613:Drivers/STM32L0xx_HAL_Driver/Inc/stm32l0xx_ll_bus.h ****   *         APB1RSTR     I2C1RST        LL_APB1_GRP1_ReleaseReset\n
 614:Drivers/STM32L0xx_HAL_Driver/Inc/stm32l0xx_ll_bus.h ****   *         APB1RSTR     I2C2RST        LL_APB1_GRP1_ReleaseReset\n
 615:Drivers/STM32L0xx_HAL_Driver/Inc/stm32l0xx_ll_bus.h ****   *         APB1RSTR     USBRST         LL_APB1_GRP1_ReleaseReset\n
 616:Drivers/STM32L0xx_HAL_Driver/Inc/stm32l0xx_ll_bus.h ****   *         APB1RSTR     CRSRST         LL_APB1_GRP1_ReleaseReset\n
 617:Drivers/STM32L0xx_HAL_Driver/Inc/stm32l0xx_ll_bus.h ****   *         APB1RSTR     PWRRST         LL_APB1_GRP1_ReleaseReset\n
 618:Drivers/STM32L0xx_HAL_Driver/Inc/stm32l0xx_ll_bus.h ****   *         APB1RSTR     DACRST         LL_APB1_GRP1_ReleaseReset\n
 619:Drivers/STM32L0xx_HAL_Driver/Inc/stm32l0xx_ll_bus.h ****   *         APB1RSTR     I2C3RST        LL_APB1_GRP1_ReleaseReset\n
 620:Drivers/STM32L0xx_HAL_Driver/Inc/stm32l0xx_ll_bus.h ****   *         APB1RSTR     LPTIM1RST      LL_APB1_GRP1_ReleaseReset
 621:Drivers/STM32L0xx_HAL_Driver/Inc/stm32l0xx_ll_bus.h ****   * @param  Periphs This parameter can be a combination of the following values:
 622:Drivers/STM32L0xx_HAL_Driver/Inc/stm32l0xx_ll_bus.h ****   *         @arg @ref LL_APB1_GRP1_PERIPH_ALL
 623:Drivers/STM32L0xx_HAL_Driver/Inc/stm32l0xx_ll_bus.h ****   *         @arg @ref LL_APB1_GRP1_PERIPH_TIM2
 624:Drivers/STM32L0xx_HAL_Driver/Inc/stm32l0xx_ll_bus.h ****   *         @arg @ref LL_APB1_GRP1_PERIPH_TIM3 (*)
 625:Drivers/STM32L0xx_HAL_Driver/Inc/stm32l0xx_ll_bus.h ****   *         @arg @ref LL_APB1_GRP1_PERIPH_TIM6 (*)
 626:Drivers/STM32L0xx_HAL_Driver/Inc/stm32l0xx_ll_bus.h ****   *         @arg @ref LL_APB1_GRP1_PERIPH_TIM7 (*)
 627:Drivers/STM32L0xx_HAL_Driver/Inc/stm32l0xx_ll_bus.h ****   *         @arg @ref LL_APB1_GRP1_PERIPH_LCD (*)
 628:Drivers/STM32L0xx_HAL_Driver/Inc/stm32l0xx_ll_bus.h ****   *         @arg @ref LL_APB1_GRP1_PERIPH_WWDG
 629:Drivers/STM32L0xx_HAL_Driver/Inc/stm32l0xx_ll_bus.h ****   *         @arg @ref LL_APB1_GRP1_PERIPH_SPI2 (*)
 630:Drivers/STM32L0xx_HAL_Driver/Inc/stm32l0xx_ll_bus.h ****   *         @arg @ref LL_APB1_GRP1_PERIPH_USART2
 631:Drivers/STM32L0xx_HAL_Driver/Inc/stm32l0xx_ll_bus.h ****   *         @arg @ref LL_APB1_GRP1_PERIPH_LPUART1
 632:Drivers/STM32L0xx_HAL_Driver/Inc/stm32l0xx_ll_bus.h ****   *         @arg @ref LL_APB1_GRP1_PERIPH_USART4 (*)
 633:Drivers/STM32L0xx_HAL_Driver/Inc/stm32l0xx_ll_bus.h ****   *         @arg @ref LL_APB1_GRP1_PERIPH_USART5 (*)
 634:Drivers/STM32L0xx_HAL_Driver/Inc/stm32l0xx_ll_bus.h ****   *         @arg @ref LL_APB1_GRP1_PERIPH_I2C1
 635:Drivers/STM32L0xx_HAL_Driver/Inc/stm32l0xx_ll_bus.h ****   *         @arg @ref LL_APB1_GRP1_PERIPH_I2C2 (*)
 636:Drivers/STM32L0xx_HAL_Driver/Inc/stm32l0xx_ll_bus.h ****   *         @arg @ref LL_APB1_GRP1_PERIPH_USB (*)
 637:Drivers/STM32L0xx_HAL_Driver/Inc/stm32l0xx_ll_bus.h ****   *         @arg @ref LL_APB1_GRP1_PERIPH_CRS (*)
ARM GAS  /tmp/cccFncD6.s 			page 14


 638:Drivers/STM32L0xx_HAL_Driver/Inc/stm32l0xx_ll_bus.h ****   *         @arg @ref LL_APB1_GRP1_PERIPH_PWR
 639:Drivers/STM32L0xx_HAL_Driver/Inc/stm32l0xx_ll_bus.h ****   *         @arg @ref LL_APB1_GRP1_PERIPH_DAC1 (*)
 640:Drivers/STM32L0xx_HAL_Driver/Inc/stm32l0xx_ll_bus.h ****   *         @arg @ref LL_APB1_GRP1_PERIPH_I2C3 (*)
 641:Drivers/STM32L0xx_HAL_Driver/Inc/stm32l0xx_ll_bus.h ****   *         @arg @ref LL_APB1_GRP1_PERIPH_LPTIM1
 642:Drivers/STM32L0xx_HAL_Driver/Inc/stm32l0xx_ll_bus.h ****   *
 643:Drivers/STM32L0xx_HAL_Driver/Inc/stm32l0xx_ll_bus.h ****   *         (*) value not defined in all devices.
 644:Drivers/STM32L0xx_HAL_Driver/Inc/stm32l0xx_ll_bus.h ****   * @retval None
 645:Drivers/STM32L0xx_HAL_Driver/Inc/stm32l0xx_ll_bus.h **** */
 646:Drivers/STM32L0xx_HAL_Driver/Inc/stm32l0xx_ll_bus.h **** __STATIC_INLINE void LL_APB1_GRP1_ReleaseReset(uint32_t Periphs)
 647:Drivers/STM32L0xx_HAL_Driver/Inc/stm32l0xx_ll_bus.h **** {
 648:Drivers/STM32L0xx_HAL_Driver/Inc/stm32l0xx_ll_bus.h ****   CLEAR_BIT(RCC->APB1RSTR, Periphs);
 649:Drivers/STM32L0xx_HAL_Driver/Inc/stm32l0xx_ll_bus.h **** }
 650:Drivers/STM32L0xx_HAL_Driver/Inc/stm32l0xx_ll_bus.h **** 
 651:Drivers/STM32L0xx_HAL_Driver/Inc/stm32l0xx_ll_bus.h **** /**
 652:Drivers/STM32L0xx_HAL_Driver/Inc/stm32l0xx_ll_bus.h ****   * @brief  Enable APB1 peripherals clock during Low Power (Sleep) mode.
 653:Drivers/STM32L0xx_HAL_Driver/Inc/stm32l0xx_ll_bus.h ****   * @rmtoll APB1SMENR    TIM2SMEN      LL_APB1_GRP1_EnableClockSleep\n
 654:Drivers/STM32L0xx_HAL_Driver/Inc/stm32l0xx_ll_bus.h ****   *         APB1SMENR    TIM3SMEN      LL_APB1_GRP1_EnableClockSleep\n
 655:Drivers/STM32L0xx_HAL_Driver/Inc/stm32l0xx_ll_bus.h ****   *         APB1SMENR    TIM6SMEN      LL_APB1_GRP1_EnableClockSleep\n
 656:Drivers/STM32L0xx_HAL_Driver/Inc/stm32l0xx_ll_bus.h ****   *         APB1SMENR    TIM7SMEN      LL_APB1_GRP1_EnableClockSleep\n
 657:Drivers/STM32L0xx_HAL_Driver/Inc/stm32l0xx_ll_bus.h ****   *         APB1SMENR    LCDSMEN       LL_APB1_GRP1_EnableClockSleep\n
 658:Drivers/STM32L0xx_HAL_Driver/Inc/stm32l0xx_ll_bus.h ****   *         APB1SMENR    WWDGSMEN      LL_APB1_GRP1_EnableClockSleep\n
 659:Drivers/STM32L0xx_HAL_Driver/Inc/stm32l0xx_ll_bus.h ****   *         APB1SMENR    SPI2SMEN      LL_APB1_GRP1_EnableClockSleep\n
 660:Drivers/STM32L0xx_HAL_Driver/Inc/stm32l0xx_ll_bus.h ****   *         APB1SMENR    USART2SMEN    LL_APB1_GRP1_EnableClockSleep\n
 661:Drivers/STM32L0xx_HAL_Driver/Inc/stm32l0xx_ll_bus.h ****   *         APB1SMENR    LPUART1SMEN   LL_APB1_GRP1_EnableClockSleep\n
 662:Drivers/STM32L0xx_HAL_Driver/Inc/stm32l0xx_ll_bus.h ****   *         APB1SMENR    USART4SMEN    LL_APB1_GRP1_EnableClockSleep\n
 663:Drivers/STM32L0xx_HAL_Driver/Inc/stm32l0xx_ll_bus.h ****   *         APB1SMENR    USART5SMEN    LL_APB1_GRP1_EnableClockSleep\n
 664:Drivers/STM32L0xx_HAL_Driver/Inc/stm32l0xx_ll_bus.h ****   *         APB1SMENR    I2C1SMEN      LL_APB1_GRP1_EnableClockSleep\n
 665:Drivers/STM32L0xx_HAL_Driver/Inc/stm32l0xx_ll_bus.h ****   *         APB1SMENR    I2C2SMEN      LL_APB1_GRP1_EnableClockSleep\n
 666:Drivers/STM32L0xx_HAL_Driver/Inc/stm32l0xx_ll_bus.h ****   *         APB1SMENR    USBSMEN       LL_APB1_GRP1_EnableClockSleep\n
 667:Drivers/STM32L0xx_HAL_Driver/Inc/stm32l0xx_ll_bus.h ****   *         APB1SMENR    CRSSMEN       LL_APB1_GRP1_EnableClockSleep\n
 668:Drivers/STM32L0xx_HAL_Driver/Inc/stm32l0xx_ll_bus.h ****   *         APB1SMENR    PWRSMEN       LL_APB1_GRP1_EnableClockSleep\n
 669:Drivers/STM32L0xx_HAL_Driver/Inc/stm32l0xx_ll_bus.h ****   *         APB1SMENR    DACSMEN       LL_APB1_GRP1_EnableClockSleep\n
 670:Drivers/STM32L0xx_HAL_Driver/Inc/stm32l0xx_ll_bus.h ****   *         APB1SMENR    I2C3SMEN      LL_APB1_GRP1_EnableClockSleep\n
 671:Drivers/STM32L0xx_HAL_Driver/Inc/stm32l0xx_ll_bus.h ****   *         APB1SMENR    LPTIM1SMEN    LL_APB1_GRP1_EnableClockSleep
 672:Drivers/STM32L0xx_HAL_Driver/Inc/stm32l0xx_ll_bus.h ****   * @param  Periphs This parameter can be a combination of the following values:
 673:Drivers/STM32L0xx_HAL_Driver/Inc/stm32l0xx_ll_bus.h ****   *         @arg @ref LL_APB1_GRP1_PERIPH_TIM2
 674:Drivers/STM32L0xx_HAL_Driver/Inc/stm32l0xx_ll_bus.h ****   *         @arg @ref LL_APB1_GRP1_PERIPH_TIM3 (*)
 675:Drivers/STM32L0xx_HAL_Driver/Inc/stm32l0xx_ll_bus.h ****   *         @arg @ref LL_APB1_GRP1_PERIPH_TIM6 (*)
 676:Drivers/STM32L0xx_HAL_Driver/Inc/stm32l0xx_ll_bus.h ****   *         @arg @ref LL_APB1_GRP1_PERIPH_TIM7 (*)
 677:Drivers/STM32L0xx_HAL_Driver/Inc/stm32l0xx_ll_bus.h ****   *         @arg @ref LL_APB1_GRP1_PERIPH_LCD (*)
 678:Drivers/STM32L0xx_HAL_Driver/Inc/stm32l0xx_ll_bus.h ****   *         @arg @ref LL_APB1_GRP1_PERIPH_WWDG
 679:Drivers/STM32L0xx_HAL_Driver/Inc/stm32l0xx_ll_bus.h ****   *         @arg @ref LL_APB1_GRP1_PERIPH_SPI2 (*)
 680:Drivers/STM32L0xx_HAL_Driver/Inc/stm32l0xx_ll_bus.h ****   *         @arg @ref LL_APB1_GRP1_PERIPH_USART2
 681:Drivers/STM32L0xx_HAL_Driver/Inc/stm32l0xx_ll_bus.h ****   *         @arg @ref LL_APB1_GRP1_PERIPH_LPUART1
 682:Drivers/STM32L0xx_HAL_Driver/Inc/stm32l0xx_ll_bus.h ****   *         @arg @ref LL_APB1_GRP1_PERIPH_USART4 (*)
 683:Drivers/STM32L0xx_HAL_Driver/Inc/stm32l0xx_ll_bus.h ****   *         @arg @ref LL_APB1_GRP1_PERIPH_USART5 (*)
 684:Drivers/STM32L0xx_HAL_Driver/Inc/stm32l0xx_ll_bus.h ****   *         @arg @ref LL_APB1_GRP1_PERIPH_I2C1
 685:Drivers/STM32L0xx_HAL_Driver/Inc/stm32l0xx_ll_bus.h ****   *         @arg @ref LL_APB1_GRP1_PERIPH_I2C2 (*)
 686:Drivers/STM32L0xx_HAL_Driver/Inc/stm32l0xx_ll_bus.h ****   *         @arg @ref LL_APB1_GRP1_PERIPH_USB (*)
 687:Drivers/STM32L0xx_HAL_Driver/Inc/stm32l0xx_ll_bus.h ****   *         @arg @ref LL_APB1_GRP1_PERIPH_CRS (*)
 688:Drivers/STM32L0xx_HAL_Driver/Inc/stm32l0xx_ll_bus.h ****   *         @arg @ref LL_APB1_GRP1_PERIPH_PWR
 689:Drivers/STM32L0xx_HAL_Driver/Inc/stm32l0xx_ll_bus.h ****   *         @arg @ref LL_APB1_GRP1_PERIPH_DAC1 (*)
 690:Drivers/STM32L0xx_HAL_Driver/Inc/stm32l0xx_ll_bus.h ****   *         @arg @ref LL_APB1_GRP1_PERIPH_I2C3 (*)
 691:Drivers/STM32L0xx_HAL_Driver/Inc/stm32l0xx_ll_bus.h ****   *         @arg @ref LL_APB1_GRP1_PERIPH_LPTIM1
 692:Drivers/STM32L0xx_HAL_Driver/Inc/stm32l0xx_ll_bus.h ****   *
 693:Drivers/STM32L0xx_HAL_Driver/Inc/stm32l0xx_ll_bus.h ****   *         (*) value not defined in all devices.
 694:Drivers/STM32L0xx_HAL_Driver/Inc/stm32l0xx_ll_bus.h ****   * @retval None
ARM GAS  /tmp/cccFncD6.s 			page 15


 695:Drivers/STM32L0xx_HAL_Driver/Inc/stm32l0xx_ll_bus.h **** */
 696:Drivers/STM32L0xx_HAL_Driver/Inc/stm32l0xx_ll_bus.h **** __STATIC_INLINE void LL_APB1_GRP1_EnableClockSleep(uint32_t Periphs)
 697:Drivers/STM32L0xx_HAL_Driver/Inc/stm32l0xx_ll_bus.h **** {
 698:Drivers/STM32L0xx_HAL_Driver/Inc/stm32l0xx_ll_bus.h ****   __IO uint32_t tmpreg;
 699:Drivers/STM32L0xx_HAL_Driver/Inc/stm32l0xx_ll_bus.h ****   SET_BIT(RCC->APB1SMENR, Periphs);
 700:Drivers/STM32L0xx_HAL_Driver/Inc/stm32l0xx_ll_bus.h ****   /* Delay after an RCC peripheral clock enabling */
 701:Drivers/STM32L0xx_HAL_Driver/Inc/stm32l0xx_ll_bus.h ****   tmpreg = READ_BIT(RCC->APB1SMENR, Periphs);
 702:Drivers/STM32L0xx_HAL_Driver/Inc/stm32l0xx_ll_bus.h ****   (void)tmpreg;
 703:Drivers/STM32L0xx_HAL_Driver/Inc/stm32l0xx_ll_bus.h **** }
 704:Drivers/STM32L0xx_HAL_Driver/Inc/stm32l0xx_ll_bus.h **** 
 705:Drivers/STM32L0xx_HAL_Driver/Inc/stm32l0xx_ll_bus.h **** /**
 706:Drivers/STM32L0xx_HAL_Driver/Inc/stm32l0xx_ll_bus.h ****   * @brief  Disable APB1 peripherals clock during Low Power (Sleep) mode.
 707:Drivers/STM32L0xx_HAL_Driver/Inc/stm32l0xx_ll_bus.h ****   * @rmtoll APB1SMENR    TIM2SMEN      LL_APB1_GRP1_DisableClockSleep\n
 708:Drivers/STM32L0xx_HAL_Driver/Inc/stm32l0xx_ll_bus.h ****   *         APB1SMENR    TIM3SMEN      LL_APB1_GRP1_DisableClockSleep\n
 709:Drivers/STM32L0xx_HAL_Driver/Inc/stm32l0xx_ll_bus.h ****   *         APB1SMENR    TIM6SMEN      LL_APB1_GRP1_DisableClockSleep\n
 710:Drivers/STM32L0xx_HAL_Driver/Inc/stm32l0xx_ll_bus.h ****   *         APB1SMENR    TIM7SMEN      LL_APB1_GRP1_DisableClockSleep\n
 711:Drivers/STM32L0xx_HAL_Driver/Inc/stm32l0xx_ll_bus.h ****   *         APB1SMENR    LCDSMEN       LL_APB1_GRP1_DisableClockSleep\n
 712:Drivers/STM32L0xx_HAL_Driver/Inc/stm32l0xx_ll_bus.h ****   *         APB1SMENR    WWDGSMEN      LL_APB1_GRP1_DisableClockSleep\n
 713:Drivers/STM32L0xx_HAL_Driver/Inc/stm32l0xx_ll_bus.h ****   *         APB1SMENR    SPI2SMEN      LL_APB1_GRP1_DisableClockSleep\n
 714:Drivers/STM32L0xx_HAL_Driver/Inc/stm32l0xx_ll_bus.h ****   *         APB1SMENR    USART2SMEN    LL_APB1_GRP1_DisableClockSleep\n
 715:Drivers/STM32L0xx_HAL_Driver/Inc/stm32l0xx_ll_bus.h ****   *         APB1SMENR    LPUART1SMEN   LL_APB1_GRP1_DisableClockSleep\n
 716:Drivers/STM32L0xx_HAL_Driver/Inc/stm32l0xx_ll_bus.h ****   *         APB1SMENR    USART4SMEN    LL_APB1_GRP1_DisableClockSleep\n
 717:Drivers/STM32L0xx_HAL_Driver/Inc/stm32l0xx_ll_bus.h ****   *         APB1SMENR    USART5SMEN    LL_APB1_GRP1_DisableClockSleep\n
 718:Drivers/STM32L0xx_HAL_Driver/Inc/stm32l0xx_ll_bus.h ****   *         APB1SMENR    I2C1SMEN      LL_APB1_GRP1_DisableClockSleep\n
 719:Drivers/STM32L0xx_HAL_Driver/Inc/stm32l0xx_ll_bus.h ****   *         APB1SMENR    I2C2SMEN      LL_APB1_GRP1_DisableClockSleep\n
 720:Drivers/STM32L0xx_HAL_Driver/Inc/stm32l0xx_ll_bus.h ****   *         APB1SMENR    USBSMEN       LL_APB1_GRP1_DisableClockSleep\n
 721:Drivers/STM32L0xx_HAL_Driver/Inc/stm32l0xx_ll_bus.h ****   *         APB1SMENR    CRSSMEN       LL_APB1_GRP1_DisableClockSleep\n
 722:Drivers/STM32L0xx_HAL_Driver/Inc/stm32l0xx_ll_bus.h ****   *         APB1SMENR    PWRSMEN       LL_APB1_GRP1_DisableClockSleep\n
 723:Drivers/STM32L0xx_HAL_Driver/Inc/stm32l0xx_ll_bus.h ****   *         APB1SMENR    DACSMEN       LL_APB1_GRP1_DisableClockSleep\n
 724:Drivers/STM32L0xx_HAL_Driver/Inc/stm32l0xx_ll_bus.h ****   *         APB1SMENR    I2C3SMEN      LL_APB1_GRP1_DisableClockSleep\n
 725:Drivers/STM32L0xx_HAL_Driver/Inc/stm32l0xx_ll_bus.h ****   *         APB1SMENR    LPTIM1SMEN    LL_APB1_GRP1_DisableClockSleep
 726:Drivers/STM32L0xx_HAL_Driver/Inc/stm32l0xx_ll_bus.h ****   * @param  Periphs This parameter can be a combination of the following values:
 727:Drivers/STM32L0xx_HAL_Driver/Inc/stm32l0xx_ll_bus.h ****   *         @arg @ref LL_APB1_GRP1_PERIPH_TIM2
 728:Drivers/STM32L0xx_HAL_Driver/Inc/stm32l0xx_ll_bus.h ****   *         @arg @ref LL_APB1_GRP1_PERIPH_TIM3 (*)
 729:Drivers/STM32L0xx_HAL_Driver/Inc/stm32l0xx_ll_bus.h ****   *         @arg @ref LL_APB1_GRP1_PERIPH_TIM6 (*)
 730:Drivers/STM32L0xx_HAL_Driver/Inc/stm32l0xx_ll_bus.h ****   *         @arg @ref LL_APB1_GRP1_PERIPH_TIM7 (*)
 731:Drivers/STM32L0xx_HAL_Driver/Inc/stm32l0xx_ll_bus.h ****   *         @arg @ref LL_APB1_GRP1_PERIPH_LCD (*)
 732:Drivers/STM32L0xx_HAL_Driver/Inc/stm32l0xx_ll_bus.h ****   *         @arg @ref LL_APB1_GRP1_PERIPH_WWDG
 733:Drivers/STM32L0xx_HAL_Driver/Inc/stm32l0xx_ll_bus.h ****   *         @arg @ref LL_APB1_GRP1_PERIPH_SPI2 (*)
 734:Drivers/STM32L0xx_HAL_Driver/Inc/stm32l0xx_ll_bus.h ****   *         @arg @ref LL_APB1_GRP1_PERIPH_USART2
 735:Drivers/STM32L0xx_HAL_Driver/Inc/stm32l0xx_ll_bus.h ****   *         @arg @ref LL_APB1_GRP1_PERIPH_LPUART1
 736:Drivers/STM32L0xx_HAL_Driver/Inc/stm32l0xx_ll_bus.h ****   *         @arg @ref LL_APB1_GRP1_PERIPH_USART4 (*)
 737:Drivers/STM32L0xx_HAL_Driver/Inc/stm32l0xx_ll_bus.h ****   *         @arg @ref LL_APB1_GRP1_PERIPH_USART5 (*)
 738:Drivers/STM32L0xx_HAL_Driver/Inc/stm32l0xx_ll_bus.h ****   *         @arg @ref LL_APB1_GRP1_PERIPH_I2C1
 739:Drivers/STM32L0xx_HAL_Driver/Inc/stm32l0xx_ll_bus.h ****   *         @arg @ref LL_APB1_GRP1_PERIPH_I2C2 (*)
 740:Drivers/STM32L0xx_HAL_Driver/Inc/stm32l0xx_ll_bus.h ****   *         @arg @ref LL_APB1_GRP1_PERIPH_USB (*)
 741:Drivers/STM32L0xx_HAL_Driver/Inc/stm32l0xx_ll_bus.h ****   *         @arg @ref LL_APB1_GRP1_PERIPH_CRS (*)
 742:Drivers/STM32L0xx_HAL_Driver/Inc/stm32l0xx_ll_bus.h ****   *         @arg @ref LL_APB1_GRP1_PERIPH_PWR
 743:Drivers/STM32L0xx_HAL_Driver/Inc/stm32l0xx_ll_bus.h ****   *         @arg @ref LL_APB1_GRP1_PERIPH_DAC1 (*)
 744:Drivers/STM32L0xx_HAL_Driver/Inc/stm32l0xx_ll_bus.h ****   *         @arg @ref LL_APB1_GRP1_PERIPH_I2C3 (*)
 745:Drivers/STM32L0xx_HAL_Driver/Inc/stm32l0xx_ll_bus.h ****   *         @arg @ref LL_APB1_GRP1_PERIPH_LPTIM1
 746:Drivers/STM32L0xx_HAL_Driver/Inc/stm32l0xx_ll_bus.h ****   *
 747:Drivers/STM32L0xx_HAL_Driver/Inc/stm32l0xx_ll_bus.h ****   *         (*) value not defined in all devices.
 748:Drivers/STM32L0xx_HAL_Driver/Inc/stm32l0xx_ll_bus.h ****   * @retval None
 749:Drivers/STM32L0xx_HAL_Driver/Inc/stm32l0xx_ll_bus.h **** */
 750:Drivers/STM32L0xx_HAL_Driver/Inc/stm32l0xx_ll_bus.h **** __STATIC_INLINE void LL_APB1_GRP1_DisableClockSleep(uint32_t Periphs)
 751:Drivers/STM32L0xx_HAL_Driver/Inc/stm32l0xx_ll_bus.h **** {
ARM GAS  /tmp/cccFncD6.s 			page 16


 752:Drivers/STM32L0xx_HAL_Driver/Inc/stm32l0xx_ll_bus.h ****   CLEAR_BIT(RCC->APB1SMENR, Periphs);
 753:Drivers/STM32L0xx_HAL_Driver/Inc/stm32l0xx_ll_bus.h **** }
 754:Drivers/STM32L0xx_HAL_Driver/Inc/stm32l0xx_ll_bus.h **** 
 755:Drivers/STM32L0xx_HAL_Driver/Inc/stm32l0xx_ll_bus.h **** /**
 756:Drivers/STM32L0xx_HAL_Driver/Inc/stm32l0xx_ll_bus.h ****   * @}
 757:Drivers/STM32L0xx_HAL_Driver/Inc/stm32l0xx_ll_bus.h ****   */
 758:Drivers/STM32L0xx_HAL_Driver/Inc/stm32l0xx_ll_bus.h **** 
 759:Drivers/STM32L0xx_HAL_Driver/Inc/stm32l0xx_ll_bus.h **** /** @defgroup BUS_LL_EF_APB2 APB2
 760:Drivers/STM32L0xx_HAL_Driver/Inc/stm32l0xx_ll_bus.h ****   * @{
 761:Drivers/STM32L0xx_HAL_Driver/Inc/stm32l0xx_ll_bus.h ****   */
 762:Drivers/STM32L0xx_HAL_Driver/Inc/stm32l0xx_ll_bus.h **** 
 763:Drivers/STM32L0xx_HAL_Driver/Inc/stm32l0xx_ll_bus.h **** /**
 764:Drivers/STM32L0xx_HAL_Driver/Inc/stm32l0xx_ll_bus.h ****   * @brief  Enable APB2 peripherals clock.
 765:Drivers/STM32L0xx_HAL_Driver/Inc/stm32l0xx_ll_bus.h ****   * @rmtoll APB2ENR      SYSCFGEN      LL_APB2_GRP1_EnableClock\n
 766:Drivers/STM32L0xx_HAL_Driver/Inc/stm32l0xx_ll_bus.h ****   *         APB2ENR      TIM21EN       LL_APB2_GRP1_EnableClock\n
 767:Drivers/STM32L0xx_HAL_Driver/Inc/stm32l0xx_ll_bus.h ****   *         APB2ENR      TIM22EN       LL_APB2_GRP1_EnableClock\n
 768:Drivers/STM32L0xx_HAL_Driver/Inc/stm32l0xx_ll_bus.h ****   *         APB2ENR      FWEN          LL_APB2_GRP1_EnableClock\n
 769:Drivers/STM32L0xx_HAL_Driver/Inc/stm32l0xx_ll_bus.h ****   *         APB2ENR      ADCEN         LL_APB2_GRP1_EnableClock\n
 770:Drivers/STM32L0xx_HAL_Driver/Inc/stm32l0xx_ll_bus.h ****   *         APB2ENR      SPI1EN        LL_APB2_GRP1_EnableClock\n
 771:Drivers/STM32L0xx_HAL_Driver/Inc/stm32l0xx_ll_bus.h ****   *         APB2ENR      USART1EN      LL_APB2_GRP1_EnableClock\n
 772:Drivers/STM32L0xx_HAL_Driver/Inc/stm32l0xx_ll_bus.h ****   *         APB2ENR      DBGEN         LL_APB2_GRP1_EnableClock
 773:Drivers/STM32L0xx_HAL_Driver/Inc/stm32l0xx_ll_bus.h ****   * @param  Periphs This parameter can be a combination of the following values:
 774:Drivers/STM32L0xx_HAL_Driver/Inc/stm32l0xx_ll_bus.h ****   *         @arg @ref LL_APB2_GRP1_PERIPH_SYSCFG
 775:Drivers/STM32L0xx_HAL_Driver/Inc/stm32l0xx_ll_bus.h ****   *         @arg @ref LL_APB2_GRP1_PERIPH_TIM21
 776:Drivers/STM32L0xx_HAL_Driver/Inc/stm32l0xx_ll_bus.h ****   *         @arg @ref LL_APB2_GRP1_PERIPH_TIM22  (*)
 777:Drivers/STM32L0xx_HAL_Driver/Inc/stm32l0xx_ll_bus.h ****   *         @arg @ref LL_APB2_GRP1_PERIPH_FW
 778:Drivers/STM32L0xx_HAL_Driver/Inc/stm32l0xx_ll_bus.h ****   *         @arg @ref LL_APB2_GRP1_PERIPH_ADC1
 779:Drivers/STM32L0xx_HAL_Driver/Inc/stm32l0xx_ll_bus.h ****   *         @arg @ref LL_APB2_GRP1_PERIPH_SPI1
 780:Drivers/STM32L0xx_HAL_Driver/Inc/stm32l0xx_ll_bus.h ****   *         @arg @ref LL_APB2_GRP1_PERIPH_USART1 (*)
 781:Drivers/STM32L0xx_HAL_Driver/Inc/stm32l0xx_ll_bus.h ****   *         @arg @ref LL_APB2_GRP1_PERIPH_DBGMCU
 782:Drivers/STM32L0xx_HAL_Driver/Inc/stm32l0xx_ll_bus.h ****   *
 783:Drivers/STM32L0xx_HAL_Driver/Inc/stm32l0xx_ll_bus.h ****   *         (*) value not defined in all devices.
 784:Drivers/STM32L0xx_HAL_Driver/Inc/stm32l0xx_ll_bus.h ****   * @retval None
 785:Drivers/STM32L0xx_HAL_Driver/Inc/stm32l0xx_ll_bus.h **** */
 786:Drivers/STM32L0xx_HAL_Driver/Inc/stm32l0xx_ll_bus.h **** __STATIC_INLINE void LL_APB2_GRP1_EnableClock(uint32_t Periphs)
  69              		.loc 2 786 22 view .LVU9
  70              	.LBB43:
 787:Drivers/STM32L0xx_HAL_Driver/Inc/stm32l0xx_ll_bus.h **** {
 788:Drivers/STM32L0xx_HAL_Driver/Inc/stm32l0xx_ll_bus.h ****   __IO uint32_t tmpreg;
  71              		.loc 2 788 3 view .LVU10
 789:Drivers/STM32L0xx_HAL_Driver/Inc/stm32l0xx_ll_bus.h ****   SET_BIT(RCC->APB2ENR, Periphs);
  72              		.loc 2 789 3 view .LVU11
  73 0022 8020     		movs	r0, #128
  74              	.LBE43:
  75              	.LBE42:
  76              	.LBB47:
  77              	.LBB48:
 790:Drivers/STM32L0xx_HAL_Driver/Inc/stm32l0xx_ll_bus.h ****   /* Delay after an RCC peripheral clock enabling */
 791:Drivers/STM32L0xx_HAL_Driver/Inc/stm32l0xx_ll_bus.h ****   tmpreg = READ_BIT(RCC->APB2ENR, Periphs);
 792:Drivers/STM32L0xx_HAL_Driver/Inc/stm32l0xx_ll_bus.h ****   (void)tmpreg;
 793:Drivers/STM32L0xx_HAL_Driver/Inc/stm32l0xx_ll_bus.h **** }
 794:Drivers/STM32L0xx_HAL_Driver/Inc/stm32l0xx_ll_bus.h **** 
 795:Drivers/STM32L0xx_HAL_Driver/Inc/stm32l0xx_ll_bus.h **** /**
 796:Drivers/STM32L0xx_HAL_Driver/Inc/stm32l0xx_ll_bus.h ****   * @brief  Check if APB2 peripheral clock is enabled or not
 797:Drivers/STM32L0xx_HAL_Driver/Inc/stm32l0xx_ll_bus.h ****   * @rmtoll APB2ENR      SYSCFGEN      LL_APB2_GRP1_IsEnabledClock\n
 798:Drivers/STM32L0xx_HAL_Driver/Inc/stm32l0xx_ll_bus.h ****   *         APB2ENR      TIM21EN       LL_APB2_GRP1_IsEnabledClock\n
 799:Drivers/STM32L0xx_HAL_Driver/Inc/stm32l0xx_ll_bus.h ****   *         APB2ENR      TIM22EN       LL_APB2_GRP1_IsEnabledClock\n
ARM GAS  /tmp/cccFncD6.s 			page 17


 800:Drivers/STM32L0xx_HAL_Driver/Inc/stm32l0xx_ll_bus.h ****   *         APB2ENR      FWEN          LL_APB2_GRP1_IsEnabledClock\n
 801:Drivers/STM32L0xx_HAL_Driver/Inc/stm32l0xx_ll_bus.h ****   *         APB2ENR      ADCEN         LL_APB2_GRP1_IsEnabledClock\n
 802:Drivers/STM32L0xx_HAL_Driver/Inc/stm32l0xx_ll_bus.h ****   *         APB2ENR      SPI1EN        LL_APB2_GRP1_IsEnabledClock\n
 803:Drivers/STM32L0xx_HAL_Driver/Inc/stm32l0xx_ll_bus.h ****   *         APB2ENR      USART1EN      LL_APB2_GRP1_IsEnabledClock\n
 804:Drivers/STM32L0xx_HAL_Driver/Inc/stm32l0xx_ll_bus.h ****   *         APB2ENR      DBGEN         LL_APB2_GRP1_IsEnabledClock
 805:Drivers/STM32L0xx_HAL_Driver/Inc/stm32l0xx_ll_bus.h ****   * @param  Periphs This parameter can be a combination of the following values:
 806:Drivers/STM32L0xx_HAL_Driver/Inc/stm32l0xx_ll_bus.h ****   *         @arg @ref LL_APB2_GRP1_PERIPH_SYSCFG
 807:Drivers/STM32L0xx_HAL_Driver/Inc/stm32l0xx_ll_bus.h ****   *         @arg @ref LL_APB2_GRP1_PERIPH_TIM21
 808:Drivers/STM32L0xx_HAL_Driver/Inc/stm32l0xx_ll_bus.h ****   *         @arg @ref LL_APB2_GRP1_PERIPH_TIM22  (*)
 809:Drivers/STM32L0xx_HAL_Driver/Inc/stm32l0xx_ll_bus.h ****   *         @arg @ref LL_APB2_GRP1_PERIPH_FW
 810:Drivers/STM32L0xx_HAL_Driver/Inc/stm32l0xx_ll_bus.h ****   *         @arg @ref LL_APB2_GRP1_PERIPH_ADC1
 811:Drivers/STM32L0xx_HAL_Driver/Inc/stm32l0xx_ll_bus.h ****   *         @arg @ref LL_APB2_GRP1_PERIPH_SPI1
 812:Drivers/STM32L0xx_HAL_Driver/Inc/stm32l0xx_ll_bus.h ****   *         @arg @ref LL_APB2_GRP1_PERIPH_USART1 (*)
 813:Drivers/STM32L0xx_HAL_Driver/Inc/stm32l0xx_ll_bus.h ****   *         @arg @ref LL_APB2_GRP1_PERIPH_DBGMCU
 814:Drivers/STM32L0xx_HAL_Driver/Inc/stm32l0xx_ll_bus.h ****   *
 815:Drivers/STM32L0xx_HAL_Driver/Inc/stm32l0xx_ll_bus.h ****   *         (*) value not defined in all devices.
 816:Drivers/STM32L0xx_HAL_Driver/Inc/stm32l0xx_ll_bus.h ****   * @retval State of Periphs (1 or 0).
 817:Drivers/STM32L0xx_HAL_Driver/Inc/stm32l0xx_ll_bus.h **** */
 818:Drivers/STM32L0xx_HAL_Driver/Inc/stm32l0xx_ll_bus.h **** __STATIC_INLINE uint32_t LL_APB2_GRP1_IsEnabledClock(uint32_t Periphs)
 819:Drivers/STM32L0xx_HAL_Driver/Inc/stm32l0xx_ll_bus.h **** {
 820:Drivers/STM32L0xx_HAL_Driver/Inc/stm32l0xx_ll_bus.h ****   return ((READ_BIT(RCC->APB2ENR, Periphs) == (Periphs)) ? 1UL : 0UL);
 821:Drivers/STM32L0xx_HAL_Driver/Inc/stm32l0xx_ll_bus.h **** }
 822:Drivers/STM32L0xx_HAL_Driver/Inc/stm32l0xx_ll_bus.h **** 
 823:Drivers/STM32L0xx_HAL_Driver/Inc/stm32l0xx_ll_bus.h **** /**
 824:Drivers/STM32L0xx_HAL_Driver/Inc/stm32l0xx_ll_bus.h ****   * @brief  Disable APB2 peripherals clock.
 825:Drivers/STM32L0xx_HAL_Driver/Inc/stm32l0xx_ll_bus.h ****   * @rmtoll APB2ENR      SYSCFGEN      LL_APB2_GRP1_DisableClock\n
 826:Drivers/STM32L0xx_HAL_Driver/Inc/stm32l0xx_ll_bus.h ****   *         APB2ENR      TIM21EN       LL_APB2_GRP1_DisableClock\n
 827:Drivers/STM32L0xx_HAL_Driver/Inc/stm32l0xx_ll_bus.h ****   *         APB2ENR      TIM22EN       LL_APB2_GRP1_DisableClock\n
 828:Drivers/STM32L0xx_HAL_Driver/Inc/stm32l0xx_ll_bus.h ****   *         APB2ENR      FWEN          LL_APB2_GRP1_DisableClock\n
 829:Drivers/STM32L0xx_HAL_Driver/Inc/stm32l0xx_ll_bus.h ****   *         APB2ENR      ADCEN         LL_APB2_GRP1_DisableClock\n
 830:Drivers/STM32L0xx_HAL_Driver/Inc/stm32l0xx_ll_bus.h ****   *         APB2ENR      SPI1EN        LL_APB2_GRP1_DisableClock\n
 831:Drivers/STM32L0xx_HAL_Driver/Inc/stm32l0xx_ll_bus.h ****   *         APB2ENR      USART1EN      LL_APB2_GRP1_DisableClock\n
 832:Drivers/STM32L0xx_HAL_Driver/Inc/stm32l0xx_ll_bus.h ****   *         APB2ENR      DBGEN         LL_APB2_GRP1_DisableClock
 833:Drivers/STM32L0xx_HAL_Driver/Inc/stm32l0xx_ll_bus.h ****   * @param  Periphs This parameter can be a combination of the following values:
 834:Drivers/STM32L0xx_HAL_Driver/Inc/stm32l0xx_ll_bus.h ****   *         @arg @ref LL_APB2_GRP1_PERIPH_SYSCFG
 835:Drivers/STM32L0xx_HAL_Driver/Inc/stm32l0xx_ll_bus.h ****   *         @arg @ref LL_APB2_GRP1_PERIPH_TIM21
 836:Drivers/STM32L0xx_HAL_Driver/Inc/stm32l0xx_ll_bus.h ****   *         @arg @ref LL_APB2_GRP1_PERIPH_TIM22  (*)
 837:Drivers/STM32L0xx_HAL_Driver/Inc/stm32l0xx_ll_bus.h ****   *         @arg @ref LL_APB2_GRP1_PERIPH_FW
 838:Drivers/STM32L0xx_HAL_Driver/Inc/stm32l0xx_ll_bus.h ****   *         @arg @ref LL_APB2_GRP1_PERIPH_ADC1
 839:Drivers/STM32L0xx_HAL_Driver/Inc/stm32l0xx_ll_bus.h ****   *         @arg @ref LL_APB2_GRP1_PERIPH_SPI1
 840:Drivers/STM32L0xx_HAL_Driver/Inc/stm32l0xx_ll_bus.h ****   *         @arg @ref LL_APB2_GRP1_PERIPH_USART1  (*)
 841:Drivers/STM32L0xx_HAL_Driver/Inc/stm32l0xx_ll_bus.h ****   *         @arg @ref LL_APB2_GRP1_PERIPH_DBGMCU
 842:Drivers/STM32L0xx_HAL_Driver/Inc/stm32l0xx_ll_bus.h ****   *
 843:Drivers/STM32L0xx_HAL_Driver/Inc/stm32l0xx_ll_bus.h ****   *         (*) value not defined in all devices.
 844:Drivers/STM32L0xx_HAL_Driver/Inc/stm32l0xx_ll_bus.h ****   * @retval None
 845:Drivers/STM32L0xx_HAL_Driver/Inc/stm32l0xx_ll_bus.h **** */
 846:Drivers/STM32L0xx_HAL_Driver/Inc/stm32l0xx_ll_bus.h **** __STATIC_INLINE void LL_APB2_GRP1_DisableClock(uint32_t Periphs)
 847:Drivers/STM32L0xx_HAL_Driver/Inc/stm32l0xx_ll_bus.h **** {
 848:Drivers/STM32L0xx_HAL_Driver/Inc/stm32l0xx_ll_bus.h ****   CLEAR_BIT(RCC->APB2ENR, Periphs);
 849:Drivers/STM32L0xx_HAL_Driver/Inc/stm32l0xx_ll_bus.h **** }
 850:Drivers/STM32L0xx_HAL_Driver/Inc/stm32l0xx_ll_bus.h **** 
 851:Drivers/STM32L0xx_HAL_Driver/Inc/stm32l0xx_ll_bus.h **** /**
 852:Drivers/STM32L0xx_HAL_Driver/Inc/stm32l0xx_ll_bus.h ****   * @brief  Force APB2 peripherals reset.
 853:Drivers/STM32L0xx_HAL_Driver/Inc/stm32l0xx_ll_bus.h ****   * @rmtoll APB2RSTR     SYSCFGRST     LL_APB2_GRP1_ForceReset\n
 854:Drivers/STM32L0xx_HAL_Driver/Inc/stm32l0xx_ll_bus.h ****   *         APB2RSTR     TIM21RST      LL_APB2_GRP1_ForceReset\n
 855:Drivers/STM32L0xx_HAL_Driver/Inc/stm32l0xx_ll_bus.h ****   *         APB2RSTR     TIM22RST      LL_APB2_GRP1_ForceReset\n
 856:Drivers/STM32L0xx_HAL_Driver/Inc/stm32l0xx_ll_bus.h ****   *         APB2RSTR     ADCRST        LL_APB2_GRP1_ForceReset\n
ARM GAS  /tmp/cccFncD6.s 			page 18


 857:Drivers/STM32L0xx_HAL_Driver/Inc/stm32l0xx_ll_bus.h ****   *         APB2RSTR     SPI1RST       LL_APB2_GRP1_ForceReset\n
 858:Drivers/STM32L0xx_HAL_Driver/Inc/stm32l0xx_ll_bus.h ****   *         APB2RSTR     USART1RST     LL_APB2_GRP1_ForceReset\n
 859:Drivers/STM32L0xx_HAL_Driver/Inc/stm32l0xx_ll_bus.h ****   *         APB2RSTR     DBGRST        LL_APB2_GRP1_ForceReset
 860:Drivers/STM32L0xx_HAL_Driver/Inc/stm32l0xx_ll_bus.h ****   * @param  Periphs This parameter can be a combination of the following values:
 861:Drivers/STM32L0xx_HAL_Driver/Inc/stm32l0xx_ll_bus.h ****   *         @arg @ref LL_APB2_GRP1_PERIPH_ALL
 862:Drivers/STM32L0xx_HAL_Driver/Inc/stm32l0xx_ll_bus.h ****   *         @arg @ref LL_APB2_GRP1_PERIPH_SYSCFG
 863:Drivers/STM32L0xx_HAL_Driver/Inc/stm32l0xx_ll_bus.h ****   *         @arg @ref LL_APB2_GRP1_PERIPH_TIM21
 864:Drivers/STM32L0xx_HAL_Driver/Inc/stm32l0xx_ll_bus.h ****   *         @arg @ref LL_APB2_GRP1_PERIPH_TIM22  (*)
 865:Drivers/STM32L0xx_HAL_Driver/Inc/stm32l0xx_ll_bus.h ****   *         @arg @ref LL_APB2_GRP1_PERIPH_ADC1
 866:Drivers/STM32L0xx_HAL_Driver/Inc/stm32l0xx_ll_bus.h ****   *         @arg @ref LL_APB2_GRP1_PERIPH_SPI1
 867:Drivers/STM32L0xx_HAL_Driver/Inc/stm32l0xx_ll_bus.h ****   *         @arg @ref LL_APB2_GRP1_PERIPH_USART1 (*)
 868:Drivers/STM32L0xx_HAL_Driver/Inc/stm32l0xx_ll_bus.h ****   *         @arg @ref LL_APB2_GRP1_PERIPH_DBGMCU
 869:Drivers/STM32L0xx_HAL_Driver/Inc/stm32l0xx_ll_bus.h ****   *
 870:Drivers/STM32L0xx_HAL_Driver/Inc/stm32l0xx_ll_bus.h ****   *         (*) value not defined in all devices.
 871:Drivers/STM32L0xx_HAL_Driver/Inc/stm32l0xx_ll_bus.h ****   * @retval None
 872:Drivers/STM32L0xx_HAL_Driver/Inc/stm32l0xx_ll_bus.h **** */
 873:Drivers/STM32L0xx_HAL_Driver/Inc/stm32l0xx_ll_bus.h **** __STATIC_INLINE void LL_APB2_GRP1_ForceReset(uint32_t Periphs)
 874:Drivers/STM32L0xx_HAL_Driver/Inc/stm32l0xx_ll_bus.h **** {
 875:Drivers/STM32L0xx_HAL_Driver/Inc/stm32l0xx_ll_bus.h ****   SET_BIT(RCC->APB2RSTR, Periphs);
 876:Drivers/STM32L0xx_HAL_Driver/Inc/stm32l0xx_ll_bus.h **** }
 877:Drivers/STM32L0xx_HAL_Driver/Inc/stm32l0xx_ll_bus.h **** 
 878:Drivers/STM32L0xx_HAL_Driver/Inc/stm32l0xx_ll_bus.h **** /**
 879:Drivers/STM32L0xx_HAL_Driver/Inc/stm32l0xx_ll_bus.h ****   * @brief  Release APB2 peripherals reset.
 880:Drivers/STM32L0xx_HAL_Driver/Inc/stm32l0xx_ll_bus.h ****   * @rmtoll APB2RSTR     SYSCFGRST     LL_APB2_GRP1_ReleaseReset\n
 881:Drivers/STM32L0xx_HAL_Driver/Inc/stm32l0xx_ll_bus.h ****   *         APB2RSTR     TIM21RST      LL_APB2_GRP1_ReleaseReset\n
 882:Drivers/STM32L0xx_HAL_Driver/Inc/stm32l0xx_ll_bus.h ****   *         APB2RSTR     TIM22RST      LL_APB2_GRP1_ReleaseReset\n
 883:Drivers/STM32L0xx_HAL_Driver/Inc/stm32l0xx_ll_bus.h ****   *         APB2RSTR     ADCRST        LL_APB2_GRP1_ReleaseReset\n
 884:Drivers/STM32L0xx_HAL_Driver/Inc/stm32l0xx_ll_bus.h ****   *         APB2RSTR     SPI1RST       LL_APB2_GRP1_ReleaseReset\n
 885:Drivers/STM32L0xx_HAL_Driver/Inc/stm32l0xx_ll_bus.h ****   *         APB2RSTR     USART1RST     LL_APB2_GRP1_ReleaseReset\n
 886:Drivers/STM32L0xx_HAL_Driver/Inc/stm32l0xx_ll_bus.h ****   *         APB2RSTR     DBGRST        LL_APB2_GRP1_ReleaseReset
 887:Drivers/STM32L0xx_HAL_Driver/Inc/stm32l0xx_ll_bus.h ****   * @param  Periphs This parameter can be a combination of the following values:
 888:Drivers/STM32L0xx_HAL_Driver/Inc/stm32l0xx_ll_bus.h ****   *         @arg @ref LL_APB2_GRP1_PERIPH_ALL
 889:Drivers/STM32L0xx_HAL_Driver/Inc/stm32l0xx_ll_bus.h ****   *         @arg @ref LL_APB2_GRP1_PERIPH_SYSCFG
 890:Drivers/STM32L0xx_HAL_Driver/Inc/stm32l0xx_ll_bus.h ****   *         @arg @ref LL_APB2_GRP1_PERIPH_TIM21
 891:Drivers/STM32L0xx_HAL_Driver/Inc/stm32l0xx_ll_bus.h ****   *         @arg @ref LL_APB2_GRP1_PERIPH_TIM22  (*)
 892:Drivers/STM32L0xx_HAL_Driver/Inc/stm32l0xx_ll_bus.h ****   *         @arg @ref LL_APB2_GRP1_PERIPH_ADC1
 893:Drivers/STM32L0xx_HAL_Driver/Inc/stm32l0xx_ll_bus.h ****   *         @arg @ref LL_APB2_GRP1_PERIPH_SPI1
 894:Drivers/STM32L0xx_HAL_Driver/Inc/stm32l0xx_ll_bus.h ****   *         @arg @ref LL_APB2_GRP1_PERIPH_USART1  (*)
 895:Drivers/STM32L0xx_HAL_Driver/Inc/stm32l0xx_ll_bus.h ****   *         @arg @ref LL_APB2_GRP1_PERIPH_DBGMCU
 896:Drivers/STM32L0xx_HAL_Driver/Inc/stm32l0xx_ll_bus.h ****   *
 897:Drivers/STM32L0xx_HAL_Driver/Inc/stm32l0xx_ll_bus.h ****   *         (*) value not defined in all devices.
 898:Drivers/STM32L0xx_HAL_Driver/Inc/stm32l0xx_ll_bus.h ****   * @retval None
 899:Drivers/STM32L0xx_HAL_Driver/Inc/stm32l0xx_ll_bus.h **** */
 900:Drivers/STM32L0xx_HAL_Driver/Inc/stm32l0xx_ll_bus.h **** __STATIC_INLINE void LL_APB2_GRP1_ReleaseReset(uint32_t Periphs)
 901:Drivers/STM32L0xx_HAL_Driver/Inc/stm32l0xx_ll_bus.h **** {
 902:Drivers/STM32L0xx_HAL_Driver/Inc/stm32l0xx_ll_bus.h ****   CLEAR_BIT(RCC->APB2RSTR, Periphs);
 903:Drivers/STM32L0xx_HAL_Driver/Inc/stm32l0xx_ll_bus.h **** }
 904:Drivers/STM32L0xx_HAL_Driver/Inc/stm32l0xx_ll_bus.h **** 
 905:Drivers/STM32L0xx_HAL_Driver/Inc/stm32l0xx_ll_bus.h **** /**
 906:Drivers/STM32L0xx_HAL_Driver/Inc/stm32l0xx_ll_bus.h ****   * @brief  Enable APB2 peripherals clock during Low Power (Sleep) mode.
 907:Drivers/STM32L0xx_HAL_Driver/Inc/stm32l0xx_ll_bus.h ****   * @rmtoll APB2SMENR    SYSCFGSMEN    LL_APB2_GRP1_EnableClockSleep\n
 908:Drivers/STM32L0xx_HAL_Driver/Inc/stm32l0xx_ll_bus.h ****   *         APB2SMENR    TIM21SMEN     LL_APB2_GRP1_EnableClockSleep\n
 909:Drivers/STM32L0xx_HAL_Driver/Inc/stm32l0xx_ll_bus.h ****   *         APB2SMENR    TIM22SMEN     LL_APB2_GRP1_EnableClockSleep\n
 910:Drivers/STM32L0xx_HAL_Driver/Inc/stm32l0xx_ll_bus.h ****   *         APB2SMENR    ADCSMEN       LL_APB2_GRP1_EnableClockSleep\n
 911:Drivers/STM32L0xx_HAL_Driver/Inc/stm32l0xx_ll_bus.h ****   *         APB2SMENR    SPI1SMEN      LL_APB2_GRP1_EnableClockSleep\n
 912:Drivers/STM32L0xx_HAL_Driver/Inc/stm32l0xx_ll_bus.h ****   *         APB2SMENR    USART1SMEN    LL_APB2_GRP1_EnableClockSleep\n
 913:Drivers/STM32L0xx_HAL_Driver/Inc/stm32l0xx_ll_bus.h ****   *         APB2SMENR    DBGSMEN       LL_APB2_GRP1_EnableClockSleep
ARM GAS  /tmp/cccFncD6.s 			page 19


 914:Drivers/STM32L0xx_HAL_Driver/Inc/stm32l0xx_ll_bus.h ****   * @param  Periphs This parameter can be a combination of the following values:
 915:Drivers/STM32L0xx_HAL_Driver/Inc/stm32l0xx_ll_bus.h ****   *         @arg @ref LL_APB2_GRP1_PERIPH_SYSCFG
 916:Drivers/STM32L0xx_HAL_Driver/Inc/stm32l0xx_ll_bus.h ****   *         @arg @ref LL_APB2_GRP1_PERIPH_TIM21
 917:Drivers/STM32L0xx_HAL_Driver/Inc/stm32l0xx_ll_bus.h ****   *         @arg @ref LL_APB2_GRP1_PERIPH_TIM22  (*)
 918:Drivers/STM32L0xx_HAL_Driver/Inc/stm32l0xx_ll_bus.h ****   *         @arg @ref LL_APB2_GRP1_PERIPH_ADC1
 919:Drivers/STM32L0xx_HAL_Driver/Inc/stm32l0xx_ll_bus.h ****   *         @arg @ref LL_APB2_GRP1_PERIPH_SPI1
 920:Drivers/STM32L0xx_HAL_Driver/Inc/stm32l0xx_ll_bus.h ****   *         @arg @ref LL_APB2_GRP1_PERIPH_USART1  (*)
 921:Drivers/STM32L0xx_HAL_Driver/Inc/stm32l0xx_ll_bus.h ****   *         @arg @ref LL_APB2_GRP1_PERIPH_DBGMCU
 922:Drivers/STM32L0xx_HAL_Driver/Inc/stm32l0xx_ll_bus.h ****   *
 923:Drivers/STM32L0xx_HAL_Driver/Inc/stm32l0xx_ll_bus.h ****   *         (*) value not defined in all devices.
 924:Drivers/STM32L0xx_HAL_Driver/Inc/stm32l0xx_ll_bus.h ****   * @retval None
 925:Drivers/STM32L0xx_HAL_Driver/Inc/stm32l0xx_ll_bus.h **** */
 926:Drivers/STM32L0xx_HAL_Driver/Inc/stm32l0xx_ll_bus.h **** __STATIC_INLINE void LL_APB2_GRP1_EnableClockSleep(uint32_t Periphs)
 927:Drivers/STM32L0xx_HAL_Driver/Inc/stm32l0xx_ll_bus.h **** {
 928:Drivers/STM32L0xx_HAL_Driver/Inc/stm32l0xx_ll_bus.h ****   __IO uint32_t tmpreg;
 929:Drivers/STM32L0xx_HAL_Driver/Inc/stm32l0xx_ll_bus.h ****   SET_BIT(RCC->APB2SMENR, Periphs);
 930:Drivers/STM32L0xx_HAL_Driver/Inc/stm32l0xx_ll_bus.h ****   /* Delay after an RCC peripheral clock enabling */
 931:Drivers/STM32L0xx_HAL_Driver/Inc/stm32l0xx_ll_bus.h ****   tmpreg = READ_BIT(RCC->APB2SMENR, Periphs);
 932:Drivers/STM32L0xx_HAL_Driver/Inc/stm32l0xx_ll_bus.h ****   (void)tmpreg;
 933:Drivers/STM32L0xx_HAL_Driver/Inc/stm32l0xx_ll_bus.h **** }
 934:Drivers/STM32L0xx_HAL_Driver/Inc/stm32l0xx_ll_bus.h **** 
 935:Drivers/STM32L0xx_HAL_Driver/Inc/stm32l0xx_ll_bus.h **** /**
 936:Drivers/STM32L0xx_HAL_Driver/Inc/stm32l0xx_ll_bus.h ****   * @brief  Disable APB2 peripherals clock during Low Power (Sleep) mode.
 937:Drivers/STM32L0xx_HAL_Driver/Inc/stm32l0xx_ll_bus.h ****   * @rmtoll APB2SMENR    SYSCFGSMEN    LL_APB2_GRP1_DisableClockSleep\n
 938:Drivers/STM32L0xx_HAL_Driver/Inc/stm32l0xx_ll_bus.h ****   *         APB2SMENR    TIM21SMEN     LL_APB2_GRP1_DisableClockSleep\n
 939:Drivers/STM32L0xx_HAL_Driver/Inc/stm32l0xx_ll_bus.h ****   *         APB2SMENR    TIM22SMEN     LL_APB2_GRP1_DisableClockSleep\n
 940:Drivers/STM32L0xx_HAL_Driver/Inc/stm32l0xx_ll_bus.h ****   *         APB2SMENR    ADCSMEN       LL_APB2_GRP1_DisableClockSleep\n
 941:Drivers/STM32L0xx_HAL_Driver/Inc/stm32l0xx_ll_bus.h ****   *         APB2SMENR    SPI1SMEN      LL_APB2_GRP1_DisableClockSleep\n
 942:Drivers/STM32L0xx_HAL_Driver/Inc/stm32l0xx_ll_bus.h ****   *         APB2SMENR    USART1SMEN    LL_APB2_GRP1_DisableClockSleep\n
 943:Drivers/STM32L0xx_HAL_Driver/Inc/stm32l0xx_ll_bus.h ****   *         APB2SMENR    DBGSMEN       LL_APB2_GRP1_DisableClockSleep
 944:Drivers/STM32L0xx_HAL_Driver/Inc/stm32l0xx_ll_bus.h ****   * @param  Periphs This parameter can be a combination of the following values:
 945:Drivers/STM32L0xx_HAL_Driver/Inc/stm32l0xx_ll_bus.h ****   *         @arg @ref LL_APB2_GRP1_PERIPH_SYSCFG
 946:Drivers/STM32L0xx_HAL_Driver/Inc/stm32l0xx_ll_bus.h ****   *         @arg @ref LL_APB2_GRP1_PERIPH_TIM21
 947:Drivers/STM32L0xx_HAL_Driver/Inc/stm32l0xx_ll_bus.h ****   *         @arg @ref LL_APB2_GRP1_PERIPH_TIM22  (*)
 948:Drivers/STM32L0xx_HAL_Driver/Inc/stm32l0xx_ll_bus.h ****   *         @arg @ref LL_APB2_GRP1_PERIPH_ADC1
 949:Drivers/STM32L0xx_HAL_Driver/Inc/stm32l0xx_ll_bus.h ****   *         @arg @ref LL_APB2_GRP1_PERIPH_SPI1
 950:Drivers/STM32L0xx_HAL_Driver/Inc/stm32l0xx_ll_bus.h ****   *         @arg @ref LL_APB2_GRP1_PERIPH_USART1  (*)
 951:Drivers/STM32L0xx_HAL_Driver/Inc/stm32l0xx_ll_bus.h ****   *         @arg @ref LL_APB2_GRP1_PERIPH_DBGMCU
 952:Drivers/STM32L0xx_HAL_Driver/Inc/stm32l0xx_ll_bus.h ****   *
 953:Drivers/STM32L0xx_HAL_Driver/Inc/stm32l0xx_ll_bus.h ****   *         (*) value not defined in all devices.
 954:Drivers/STM32L0xx_HAL_Driver/Inc/stm32l0xx_ll_bus.h ****   * @retval None
 955:Drivers/STM32L0xx_HAL_Driver/Inc/stm32l0xx_ll_bus.h **** */
 956:Drivers/STM32L0xx_HAL_Driver/Inc/stm32l0xx_ll_bus.h **** __STATIC_INLINE void LL_APB2_GRP1_DisableClockSleep(uint32_t Periphs)
 957:Drivers/STM32L0xx_HAL_Driver/Inc/stm32l0xx_ll_bus.h **** {
 958:Drivers/STM32L0xx_HAL_Driver/Inc/stm32l0xx_ll_bus.h ****   CLEAR_BIT(RCC->APB2SMENR, Periphs);
 959:Drivers/STM32L0xx_HAL_Driver/Inc/stm32l0xx_ll_bus.h **** }
 960:Drivers/STM32L0xx_HAL_Driver/Inc/stm32l0xx_ll_bus.h **** 
 961:Drivers/STM32L0xx_HAL_Driver/Inc/stm32l0xx_ll_bus.h **** /**
 962:Drivers/STM32L0xx_HAL_Driver/Inc/stm32l0xx_ll_bus.h ****   * @}
 963:Drivers/STM32L0xx_HAL_Driver/Inc/stm32l0xx_ll_bus.h ****   */
 964:Drivers/STM32L0xx_HAL_Driver/Inc/stm32l0xx_ll_bus.h **** /** @defgroup BUS_LL_EF_IOP IOP
 965:Drivers/STM32L0xx_HAL_Driver/Inc/stm32l0xx_ll_bus.h ****   * @{
 966:Drivers/STM32L0xx_HAL_Driver/Inc/stm32l0xx_ll_bus.h ****   */
 967:Drivers/STM32L0xx_HAL_Driver/Inc/stm32l0xx_ll_bus.h **** 
 968:Drivers/STM32L0xx_HAL_Driver/Inc/stm32l0xx_ll_bus.h **** /**
 969:Drivers/STM32L0xx_HAL_Driver/Inc/stm32l0xx_ll_bus.h ****   * @brief  Enable IOP peripherals clock.
 970:Drivers/STM32L0xx_HAL_Driver/Inc/stm32l0xx_ll_bus.h ****   * @rmtoll IOPENR       GPIOAEN       LL_IOP_GRP1_EnableClock\n
ARM GAS  /tmp/cccFncD6.s 			page 20


 971:Drivers/STM32L0xx_HAL_Driver/Inc/stm32l0xx_ll_bus.h ****   *         IOPENR       GPIOBEN       LL_IOP_GRP1_EnableClock\n
 972:Drivers/STM32L0xx_HAL_Driver/Inc/stm32l0xx_ll_bus.h ****   *         IOPENR       GPIOCEN       LL_IOP_GRP1_EnableClock\n
 973:Drivers/STM32L0xx_HAL_Driver/Inc/stm32l0xx_ll_bus.h ****   *         IOPENR       GPIODEN       LL_IOP_GRP1_EnableClock\n
 974:Drivers/STM32L0xx_HAL_Driver/Inc/stm32l0xx_ll_bus.h ****   *         IOPENR       GPIOEEN       LL_IOP_GRP1_EnableClock\n
 975:Drivers/STM32L0xx_HAL_Driver/Inc/stm32l0xx_ll_bus.h ****   *         IOPENR       GPIOHEN       LL_IOP_GRP1_EnableClock
 976:Drivers/STM32L0xx_HAL_Driver/Inc/stm32l0xx_ll_bus.h ****   * @param  Periphs This parameter can be a combination of the following values:
 977:Drivers/STM32L0xx_HAL_Driver/Inc/stm32l0xx_ll_bus.h ****   *         @arg @ref LL_IOP_GRP1_PERIPH_GPIOA
 978:Drivers/STM32L0xx_HAL_Driver/Inc/stm32l0xx_ll_bus.h ****   *         @arg @ref LL_IOP_GRP1_PERIPH_GPIOB
 979:Drivers/STM32L0xx_HAL_Driver/Inc/stm32l0xx_ll_bus.h ****   *         @arg @ref LL_IOP_GRP1_PERIPH_GPIOC
 980:Drivers/STM32L0xx_HAL_Driver/Inc/stm32l0xx_ll_bus.h ****   *         @arg @ref LL_IOP_GRP1_PERIPH_GPIOD (*)
 981:Drivers/STM32L0xx_HAL_Driver/Inc/stm32l0xx_ll_bus.h ****   *         @arg @ref LL_IOP_GRP1_PERIPH_GPIOE (*)
 982:Drivers/STM32L0xx_HAL_Driver/Inc/stm32l0xx_ll_bus.h ****   *         @arg @ref LL_IOP_GRP1_PERIPH_GPIOH (*)
 983:Drivers/STM32L0xx_HAL_Driver/Inc/stm32l0xx_ll_bus.h ****   *
 984:Drivers/STM32L0xx_HAL_Driver/Inc/stm32l0xx_ll_bus.h ****   *         (*) value not defined in all devices.
 985:Drivers/STM32L0xx_HAL_Driver/Inc/stm32l0xx_ll_bus.h ****   * @retval None
 986:Drivers/STM32L0xx_HAL_Driver/Inc/stm32l0xx_ll_bus.h **** */
 987:Drivers/STM32L0xx_HAL_Driver/Inc/stm32l0xx_ll_bus.h **** __STATIC_INLINE void LL_IOP_GRP1_EnableClock(uint32_t Periphs)
 988:Drivers/STM32L0xx_HAL_Driver/Inc/stm32l0xx_ll_bus.h **** {
 989:Drivers/STM32L0xx_HAL_Driver/Inc/stm32l0xx_ll_bus.h ****   __IO uint32_t tmpreg;
 990:Drivers/STM32L0xx_HAL_Driver/Inc/stm32l0xx_ll_bus.h ****   SET_BIT(RCC->IOPENR, Periphs);
  78              		.loc 2 990 3 is_stmt 0 view .LVU12
  79 0024 0127     		movs	r7, #1
  80              	.LBE48:
  81              	.LBE47:
  82              	.LBB52:
  83              	.LBB44:
 789:Drivers/STM32L0xx_HAL_Driver/Inc/stm32l0xx_ll_bus.h ****   SET_BIT(RCC->APB2ENR, Periphs);
  84              		.loc 2 789 3 view .LVU13
  85 0026 434B     		ldr	r3, .L3
  86 0028 8000     		lsls	r0, r0, #2
  87 002a 596B     		ldr	r1, [r3, #52]
  88              	.LBE44:
  89              	.LBE52:
  37:Core/Src/adc.c **** 
  38:Core/Src/adc.c ****   LL_IOP_GRP1_EnableClock(LL_IOP_GRP1_PERIPH_GPIOA);
  39:Core/Src/adc.c ****   /**ADC GPIO Configuration
  40:Core/Src/adc.c ****   PA0   ------> ADC_IN0
  41:Core/Src/adc.c ****   */
  42:Core/Src/adc.c ****   GPIO_InitStruct.Pin = LL_GPIO_PIN_0;
  43:Core/Src/adc.c ****   GPIO_InitStruct.Mode = LL_GPIO_MODE_ANALOG;
  44:Core/Src/adc.c ****   GPIO_InitStruct.Pull = LL_GPIO_PULL_NO;
  90              		.loc 1 44 24 view .LVU14
  91 002c 0025     		movs	r5, #0
  92              	.LBB53:
  93              	.LBB45:
 789:Drivers/STM32L0xx_HAL_Driver/Inc/stm32l0xx_ll_bus.h ****   /* Delay after an RCC peripheral clock enabling */
  94              		.loc 2 789 3 view .LVU15
  95 002e 0143     		orrs	r1, r0
  96 0030 5963     		str	r1, [r3, #52]
 791:Drivers/STM32L0xx_HAL_Driver/Inc/stm32l0xx_ll_bus.h ****   (void)tmpreg;
  97              		.loc 2 791 3 is_stmt 1 view .LVU16
 791:Drivers/STM32L0xx_HAL_Driver/Inc/stm32l0xx_ll_bus.h ****   (void)tmpreg;
  98              		.loc 2 791 12 is_stmt 0 view .LVU17
  99 0032 5A6B     		ldr	r2, [r3, #52]
 100              	.LBE45:
 101              	.LBE53:
  45:Core/Src/adc.c ****   LL_GPIO_Init(GPIOA, &GPIO_InitStruct);
ARM GAS  /tmp/cccFncD6.s 			page 21


 102              		.loc 1 45 3 view .LVU18
 103 0034 0CA9     		add	r1, sp, #48
 104              	.LBB54:
 105              	.LBB46:
 791:Drivers/STM32L0xx_HAL_Driver/Inc/stm32l0xx_ll_bus.h ****   (void)tmpreg;
 106              		.loc 2 791 12 view .LVU19
 107 0036 0240     		ands	r2, r0
 791:Drivers/STM32L0xx_HAL_Driver/Inc/stm32l0xx_ll_bus.h ****   (void)tmpreg;
 108              		.loc 2 791 10 view .LVU20
 109 0038 0292     		str	r2, [sp, #8]
 792:Drivers/STM32L0xx_HAL_Driver/Inc/stm32l0xx_ll_bus.h **** }
 110              		.loc 2 792 3 is_stmt 1 view .LVU21
 111 003a 029A     		ldr	r2, [sp, #8]
 112              	.LVL3:
 792:Drivers/STM32L0xx_HAL_Driver/Inc/stm32l0xx_ll_bus.h **** }
 113              		.loc 2 792 3 is_stmt 0 view .LVU22
 114              	.LBE46:
 115              	.LBE54:
  38:Core/Src/adc.c ****   /**ADC GPIO Configuration
 116              		.loc 1 38 3 is_stmt 1 view .LVU23
 117              	.LBB55:
 118              	.LBI47:
 987:Drivers/STM32L0xx_HAL_Driver/Inc/stm32l0xx_ll_bus.h **** {
 119              		.loc 2 987 22 view .LVU24
 120              	.LBB49:
 989:Drivers/STM32L0xx_HAL_Driver/Inc/stm32l0xx_ll_bus.h ****   SET_BIT(RCC->IOPENR, Periphs);
 121              		.loc 2 989 3 view .LVU25
 122              		.loc 2 990 3 view .LVU26
 123 003c DA6A     		ldr	r2, [r3, #44]
 124              	.LBE49:
 125              	.LBE55:
 126              		.loc 1 45 3 is_stmt 0 view .LVU27
 127 003e 6138     		subs	r0, r0, #97
 128              	.LBB56:
 129              	.LBB50:
 130              		.loc 2 990 3 view .LVU28
 131 0040 3A43     		orrs	r2, r7
 132 0042 DA62     		str	r2, [r3, #44]
 991:Drivers/STM32L0xx_HAL_Driver/Inc/stm32l0xx_ll_bus.h ****   /* Delay after an RCC peripheral clock enabling */
 992:Drivers/STM32L0xx_HAL_Driver/Inc/stm32l0xx_ll_bus.h ****   tmpreg = READ_BIT(RCC->IOPENR, Periphs);
 133              		.loc 2 992 3 is_stmt 1 view .LVU29
 134              		.loc 2 992 12 is_stmt 0 view .LVU30
 135 0044 DB6A     		ldr	r3, [r3, #44]
 136              	.LBE50:
 137              	.LBE56:
 138              		.loc 1 45 3 view .LVU31
 139 0046 FF38     		subs	r0, r0, #255
 140              	.LBB57:
 141              	.LBB51:
 142              		.loc 2 992 12 view .LVU32
 143 0048 3B40     		ands	r3, r7
 144              		.loc 2 992 10 view .LVU33
 145 004a 0193     		str	r3, [sp, #4]
 993:Drivers/STM32L0xx_HAL_Driver/Inc/stm32l0xx_ll_bus.h ****   (void)tmpreg;
 146              		.loc 2 993 3 is_stmt 1 view .LVU34
 147 004c 019B     		ldr	r3, [sp, #4]
 148              	.LVL4:
ARM GAS  /tmp/cccFncD6.s 			page 22


 149              		.loc 2 993 3 is_stmt 0 view .LVU35
 150              	.LBE51:
 151              	.LBE57:
  42:Core/Src/adc.c ****   GPIO_InitStruct.Mode = LL_GPIO_MODE_ANALOG;
 152              		.loc 1 42 3 is_stmt 1 view .LVU36
  43:Core/Src/adc.c ****   GPIO_InitStruct.Pull = LL_GPIO_PULL_NO;
 153              		.loc 1 43 24 is_stmt 0 view .LVU37
 154 004e 0323     		movs	r3, #3
 155              		.loc 1 45 3 view .LVU38
 156 0050 C005     		lsls	r0, r0, #23
  43:Core/Src/adc.c ****   GPIO_InitStruct.Pull = LL_GPIO_PULL_NO;
 157              		.loc 1 43 24 view .LVU39
 158 0052 0D93     		str	r3, [sp, #52]
  42:Core/Src/adc.c ****   GPIO_InitStruct.Mode = LL_GPIO_MODE_ANALOG;
 159              		.loc 1 42 23 view .LVU40
 160 0054 0C97     		str	r7, [sp, #48]
  43:Core/Src/adc.c ****   GPIO_InitStruct.Pull = LL_GPIO_PULL_NO;
 161              		.loc 1 43 3 is_stmt 1 view .LVU41
  44:Core/Src/adc.c ****   LL_GPIO_Init(GPIOA, &GPIO_InitStruct);
 162              		.loc 1 44 3 view .LVU42
  44:Core/Src/adc.c ****   LL_GPIO_Init(GPIOA, &GPIO_InitStruct);
 163              		.loc 1 44 24 is_stmt 0 view .LVU43
 164 0056 1095     		str	r5, [sp, #64]
 165              		.loc 1 45 3 is_stmt 1 view .LVU44
 166 0058 FFF7FEFF 		bl	LL_GPIO_Init
 167              	.LVL5:
  46:Core/Src/adc.c **** 
  47:Core/Src/adc.c ****   /* ADC DMA Init */
  48:Core/Src/adc.c **** 
  49:Core/Src/adc.c ****   /* ADC Init */
  50:Core/Src/adc.c ****   LL_DMA_SetPeriphRequest(DMA1, LL_DMA_CHANNEL_1, LL_DMA_REQUEST_0);
 168              		.loc 1 50 3 view .LVU45
 169              	.LBB58:
 170              	.LBI58:
 171              		.file 3 "Drivers/STM32L0xx_HAL_Driver/Inc/stm32l0xx_ll_dma.h"
   1:Drivers/STM32L0xx_HAL_Driver/Inc/stm32l0xx_ll_dma.h **** /**
   2:Drivers/STM32L0xx_HAL_Driver/Inc/stm32l0xx_ll_dma.h ****   ******************************************************************************
   3:Drivers/STM32L0xx_HAL_Driver/Inc/stm32l0xx_ll_dma.h ****   * @file    stm32l0xx_ll_dma.h
   4:Drivers/STM32L0xx_HAL_Driver/Inc/stm32l0xx_ll_dma.h ****   * @author  MCD Application Team
   5:Drivers/STM32L0xx_HAL_Driver/Inc/stm32l0xx_ll_dma.h ****   * @brief   Header file of DMA LL module.
   6:Drivers/STM32L0xx_HAL_Driver/Inc/stm32l0xx_ll_dma.h ****   ******************************************************************************
   7:Drivers/STM32L0xx_HAL_Driver/Inc/stm32l0xx_ll_dma.h ****   * @attention
   8:Drivers/STM32L0xx_HAL_Driver/Inc/stm32l0xx_ll_dma.h ****   *
   9:Drivers/STM32L0xx_HAL_Driver/Inc/stm32l0xx_ll_dma.h ****   * <h2><center>&copy; COPYRIGHT(c) 2016 STMicroelectronics.
  10:Drivers/STM32L0xx_HAL_Driver/Inc/stm32l0xx_ll_dma.h ****   * All rights reserved.</center></h2>
  11:Drivers/STM32L0xx_HAL_Driver/Inc/stm32l0xx_ll_dma.h ****   *
  12:Drivers/STM32L0xx_HAL_Driver/Inc/stm32l0xx_ll_dma.h ****   * This software component is licensed by ST under BSD 3-Clause license,
  13:Drivers/STM32L0xx_HAL_Driver/Inc/stm32l0xx_ll_dma.h ****   * the "License"; You may not use this file except in compliance with the
  14:Drivers/STM32L0xx_HAL_Driver/Inc/stm32l0xx_ll_dma.h ****   * License. You may obtain a copy of the License at:
  15:Drivers/STM32L0xx_HAL_Driver/Inc/stm32l0xx_ll_dma.h ****   *                        opensource.org/licenses/BSD-3-Clause
  16:Drivers/STM32L0xx_HAL_Driver/Inc/stm32l0xx_ll_dma.h ****   *
  17:Drivers/STM32L0xx_HAL_Driver/Inc/stm32l0xx_ll_dma.h ****   ******************************************************************************
  18:Drivers/STM32L0xx_HAL_Driver/Inc/stm32l0xx_ll_dma.h ****   */
  19:Drivers/STM32L0xx_HAL_Driver/Inc/stm32l0xx_ll_dma.h **** 
  20:Drivers/STM32L0xx_HAL_Driver/Inc/stm32l0xx_ll_dma.h **** /* Define to prevent recursive inclusion -------------------------------------*/
  21:Drivers/STM32L0xx_HAL_Driver/Inc/stm32l0xx_ll_dma.h **** #ifndef STM32L0xx_LL_DMA_H
  22:Drivers/STM32L0xx_HAL_Driver/Inc/stm32l0xx_ll_dma.h **** #define STM32L0xx_LL_DMA_H
ARM GAS  /tmp/cccFncD6.s 			page 23


  23:Drivers/STM32L0xx_HAL_Driver/Inc/stm32l0xx_ll_dma.h **** 
  24:Drivers/STM32L0xx_HAL_Driver/Inc/stm32l0xx_ll_dma.h **** #ifdef __cplusplus
  25:Drivers/STM32L0xx_HAL_Driver/Inc/stm32l0xx_ll_dma.h **** extern "C" {
  26:Drivers/STM32L0xx_HAL_Driver/Inc/stm32l0xx_ll_dma.h **** #endif
  27:Drivers/STM32L0xx_HAL_Driver/Inc/stm32l0xx_ll_dma.h **** 
  28:Drivers/STM32L0xx_HAL_Driver/Inc/stm32l0xx_ll_dma.h **** /* Includes ------------------------------------------------------------------*/
  29:Drivers/STM32L0xx_HAL_Driver/Inc/stm32l0xx_ll_dma.h **** #include "stm32l0xx.h"
  30:Drivers/STM32L0xx_HAL_Driver/Inc/stm32l0xx_ll_dma.h **** 
  31:Drivers/STM32L0xx_HAL_Driver/Inc/stm32l0xx_ll_dma.h **** /** @addtogroup STM32L0xx_LL_Driver
  32:Drivers/STM32L0xx_HAL_Driver/Inc/stm32l0xx_ll_dma.h ****   * @{
  33:Drivers/STM32L0xx_HAL_Driver/Inc/stm32l0xx_ll_dma.h ****   */
  34:Drivers/STM32L0xx_HAL_Driver/Inc/stm32l0xx_ll_dma.h **** 
  35:Drivers/STM32L0xx_HAL_Driver/Inc/stm32l0xx_ll_dma.h **** #if defined (DMA1)
  36:Drivers/STM32L0xx_HAL_Driver/Inc/stm32l0xx_ll_dma.h **** 
  37:Drivers/STM32L0xx_HAL_Driver/Inc/stm32l0xx_ll_dma.h **** /** @defgroup DMA_LL DMA
  38:Drivers/STM32L0xx_HAL_Driver/Inc/stm32l0xx_ll_dma.h ****   * @{
  39:Drivers/STM32L0xx_HAL_Driver/Inc/stm32l0xx_ll_dma.h ****   */
  40:Drivers/STM32L0xx_HAL_Driver/Inc/stm32l0xx_ll_dma.h **** 
  41:Drivers/STM32L0xx_HAL_Driver/Inc/stm32l0xx_ll_dma.h **** /* Private types -------------------------------------------------------------*/
  42:Drivers/STM32L0xx_HAL_Driver/Inc/stm32l0xx_ll_dma.h **** /* Private variables ---------------------------------------------------------*/
  43:Drivers/STM32L0xx_HAL_Driver/Inc/stm32l0xx_ll_dma.h **** /** @defgroup DMA_LL_Private_Variables DMA Private Variables
  44:Drivers/STM32L0xx_HAL_Driver/Inc/stm32l0xx_ll_dma.h ****   * @{
  45:Drivers/STM32L0xx_HAL_Driver/Inc/stm32l0xx_ll_dma.h ****   */
  46:Drivers/STM32L0xx_HAL_Driver/Inc/stm32l0xx_ll_dma.h **** /* Array used to get the DMA channel register offset versus channel index LL_DMA_CHANNEL_x */
  47:Drivers/STM32L0xx_HAL_Driver/Inc/stm32l0xx_ll_dma.h **** static const uint8_t CHANNEL_OFFSET_TAB[] =
  48:Drivers/STM32L0xx_HAL_Driver/Inc/stm32l0xx_ll_dma.h **** {
  49:Drivers/STM32L0xx_HAL_Driver/Inc/stm32l0xx_ll_dma.h ****   (uint8_t)(DMA1_Channel1_BASE - DMA1_BASE),
  50:Drivers/STM32L0xx_HAL_Driver/Inc/stm32l0xx_ll_dma.h ****   (uint8_t)(DMA1_Channel2_BASE - DMA1_BASE),
  51:Drivers/STM32L0xx_HAL_Driver/Inc/stm32l0xx_ll_dma.h ****   (uint8_t)(DMA1_Channel3_BASE - DMA1_BASE),
  52:Drivers/STM32L0xx_HAL_Driver/Inc/stm32l0xx_ll_dma.h ****   (uint8_t)(DMA1_Channel4_BASE - DMA1_BASE),
  53:Drivers/STM32L0xx_HAL_Driver/Inc/stm32l0xx_ll_dma.h ****   (uint8_t)(DMA1_Channel5_BASE - DMA1_BASE),
  54:Drivers/STM32L0xx_HAL_Driver/Inc/stm32l0xx_ll_dma.h **** #if defined(DMA1_Channel6)
  55:Drivers/STM32L0xx_HAL_Driver/Inc/stm32l0xx_ll_dma.h ****   (uint8_t)(DMA1_Channel6_BASE - DMA1_BASE),
  56:Drivers/STM32L0xx_HAL_Driver/Inc/stm32l0xx_ll_dma.h **** #endif /*DMA1_Channel6*/
  57:Drivers/STM32L0xx_HAL_Driver/Inc/stm32l0xx_ll_dma.h **** #if defined(DMA1_Channel7)
  58:Drivers/STM32L0xx_HAL_Driver/Inc/stm32l0xx_ll_dma.h ****   (uint8_t)(DMA1_Channel7_BASE - DMA1_BASE)
  59:Drivers/STM32L0xx_HAL_Driver/Inc/stm32l0xx_ll_dma.h **** #endif /*DMA1_Channel7*/
  60:Drivers/STM32L0xx_HAL_Driver/Inc/stm32l0xx_ll_dma.h **** };
  61:Drivers/STM32L0xx_HAL_Driver/Inc/stm32l0xx_ll_dma.h **** /**
  62:Drivers/STM32L0xx_HAL_Driver/Inc/stm32l0xx_ll_dma.h ****   * @}
  63:Drivers/STM32L0xx_HAL_Driver/Inc/stm32l0xx_ll_dma.h ****   */
  64:Drivers/STM32L0xx_HAL_Driver/Inc/stm32l0xx_ll_dma.h **** 
  65:Drivers/STM32L0xx_HAL_Driver/Inc/stm32l0xx_ll_dma.h **** /* Private constants ---------------------------------------------------------*/
  66:Drivers/STM32L0xx_HAL_Driver/Inc/stm32l0xx_ll_dma.h **** /** @defgroup DMA_LL_Private_Constants DMA Private Constants
  67:Drivers/STM32L0xx_HAL_Driver/Inc/stm32l0xx_ll_dma.h ****   * @{
  68:Drivers/STM32L0xx_HAL_Driver/Inc/stm32l0xx_ll_dma.h ****   */
  69:Drivers/STM32L0xx_HAL_Driver/Inc/stm32l0xx_ll_dma.h **** /* Define used to get CSELR register offset */
  70:Drivers/STM32L0xx_HAL_Driver/Inc/stm32l0xx_ll_dma.h **** #define DMA_CSELR_OFFSET                  (uint32_t)(DMA1_CSELR_BASE - DMA1_BASE)
  71:Drivers/STM32L0xx_HAL_Driver/Inc/stm32l0xx_ll_dma.h **** 
  72:Drivers/STM32L0xx_HAL_Driver/Inc/stm32l0xx_ll_dma.h **** /* Defines used for the bit position in the register and perform offsets */
  73:Drivers/STM32L0xx_HAL_Driver/Inc/stm32l0xx_ll_dma.h **** #define DMA_POSITION_CSELR_CXS            ((Channel-1U)*4U)
  74:Drivers/STM32L0xx_HAL_Driver/Inc/stm32l0xx_ll_dma.h **** /**
  75:Drivers/STM32L0xx_HAL_Driver/Inc/stm32l0xx_ll_dma.h ****   * @}
  76:Drivers/STM32L0xx_HAL_Driver/Inc/stm32l0xx_ll_dma.h ****   */
  77:Drivers/STM32L0xx_HAL_Driver/Inc/stm32l0xx_ll_dma.h **** 
  78:Drivers/STM32L0xx_HAL_Driver/Inc/stm32l0xx_ll_dma.h **** /* Private macros ------------------------------------------------------------*/
  79:Drivers/STM32L0xx_HAL_Driver/Inc/stm32l0xx_ll_dma.h **** #if defined(USE_FULL_LL_DRIVER)
ARM GAS  /tmp/cccFncD6.s 			page 24


  80:Drivers/STM32L0xx_HAL_Driver/Inc/stm32l0xx_ll_dma.h **** /** @defgroup DMA_LL_Private_Macros DMA Private Macros
  81:Drivers/STM32L0xx_HAL_Driver/Inc/stm32l0xx_ll_dma.h ****   * @{
  82:Drivers/STM32L0xx_HAL_Driver/Inc/stm32l0xx_ll_dma.h ****   */
  83:Drivers/STM32L0xx_HAL_Driver/Inc/stm32l0xx_ll_dma.h **** /**
  84:Drivers/STM32L0xx_HAL_Driver/Inc/stm32l0xx_ll_dma.h ****   * @}
  85:Drivers/STM32L0xx_HAL_Driver/Inc/stm32l0xx_ll_dma.h ****   */
  86:Drivers/STM32L0xx_HAL_Driver/Inc/stm32l0xx_ll_dma.h **** #endif /*USE_FULL_LL_DRIVER*/
  87:Drivers/STM32L0xx_HAL_Driver/Inc/stm32l0xx_ll_dma.h **** 
  88:Drivers/STM32L0xx_HAL_Driver/Inc/stm32l0xx_ll_dma.h **** /* Exported types ------------------------------------------------------------*/
  89:Drivers/STM32L0xx_HAL_Driver/Inc/stm32l0xx_ll_dma.h **** #if defined(USE_FULL_LL_DRIVER)
  90:Drivers/STM32L0xx_HAL_Driver/Inc/stm32l0xx_ll_dma.h **** /** @defgroup DMA_LL_ES_INIT DMA Exported Init structure
  91:Drivers/STM32L0xx_HAL_Driver/Inc/stm32l0xx_ll_dma.h ****   * @{
  92:Drivers/STM32L0xx_HAL_Driver/Inc/stm32l0xx_ll_dma.h ****   */
  93:Drivers/STM32L0xx_HAL_Driver/Inc/stm32l0xx_ll_dma.h **** typedef struct
  94:Drivers/STM32L0xx_HAL_Driver/Inc/stm32l0xx_ll_dma.h **** {
  95:Drivers/STM32L0xx_HAL_Driver/Inc/stm32l0xx_ll_dma.h ****   uint32_t PeriphOrM2MSrcAddress;  /*!< Specifies the peripheral base address for DMA transfer
  96:Drivers/STM32L0xx_HAL_Driver/Inc/stm32l0xx_ll_dma.h ****                                         or as Source base address in case of memory to memory trans
  97:Drivers/STM32L0xx_HAL_Driver/Inc/stm32l0xx_ll_dma.h **** 
  98:Drivers/STM32L0xx_HAL_Driver/Inc/stm32l0xx_ll_dma.h ****                                         This parameter must be a value between Min_Data = 0 and Max
  99:Drivers/STM32L0xx_HAL_Driver/Inc/stm32l0xx_ll_dma.h **** 
 100:Drivers/STM32L0xx_HAL_Driver/Inc/stm32l0xx_ll_dma.h ****   uint32_t MemoryOrM2MDstAddress;  /*!< Specifies the memory base address for DMA transfer
 101:Drivers/STM32L0xx_HAL_Driver/Inc/stm32l0xx_ll_dma.h ****                                         or as Destination base address in case of memory to memory 
 102:Drivers/STM32L0xx_HAL_Driver/Inc/stm32l0xx_ll_dma.h **** 
 103:Drivers/STM32L0xx_HAL_Driver/Inc/stm32l0xx_ll_dma.h ****                                         This parameter must be a value between Min_Data = 0 and Max
 104:Drivers/STM32L0xx_HAL_Driver/Inc/stm32l0xx_ll_dma.h **** 
 105:Drivers/STM32L0xx_HAL_Driver/Inc/stm32l0xx_ll_dma.h ****   uint32_t Direction;              /*!< Specifies if the data will be transferred from memory to pe
 106:Drivers/STM32L0xx_HAL_Driver/Inc/stm32l0xx_ll_dma.h ****                                         from memory to memory or from peripheral to memory.
 107:Drivers/STM32L0xx_HAL_Driver/Inc/stm32l0xx_ll_dma.h ****                                         This parameter can be a value of @ref DMA_LL_EC_DIRECTION
 108:Drivers/STM32L0xx_HAL_Driver/Inc/stm32l0xx_ll_dma.h **** 
 109:Drivers/STM32L0xx_HAL_Driver/Inc/stm32l0xx_ll_dma.h ****                                         This feature can be modified afterwards using unitary funct
 110:Drivers/STM32L0xx_HAL_Driver/Inc/stm32l0xx_ll_dma.h **** 
 111:Drivers/STM32L0xx_HAL_Driver/Inc/stm32l0xx_ll_dma.h ****   uint32_t Mode;                   /*!< Specifies the normal or circular operation mode.
 112:Drivers/STM32L0xx_HAL_Driver/Inc/stm32l0xx_ll_dma.h ****                                         This parameter can be a value of @ref DMA_LL_EC_MODE
 113:Drivers/STM32L0xx_HAL_Driver/Inc/stm32l0xx_ll_dma.h ****                                         @note: The circular buffer mode cannot be used if the memor
 114:Drivers/STM32L0xx_HAL_Driver/Inc/stm32l0xx_ll_dma.h ****                                                data transfer direction is configured on the selecte
 115:Drivers/STM32L0xx_HAL_Driver/Inc/stm32l0xx_ll_dma.h **** 
 116:Drivers/STM32L0xx_HAL_Driver/Inc/stm32l0xx_ll_dma.h ****                                         This feature can be modified afterwards using unitary funct
 117:Drivers/STM32L0xx_HAL_Driver/Inc/stm32l0xx_ll_dma.h **** 
 118:Drivers/STM32L0xx_HAL_Driver/Inc/stm32l0xx_ll_dma.h ****   uint32_t PeriphOrM2MSrcIncMode;  /*!< Specifies whether the Peripheral address or Source address 
 119:Drivers/STM32L0xx_HAL_Driver/Inc/stm32l0xx_ll_dma.h ****                                         is incremented or not.
 120:Drivers/STM32L0xx_HAL_Driver/Inc/stm32l0xx_ll_dma.h ****                                         This parameter can be a value of @ref DMA_LL_EC_PERIPH
 121:Drivers/STM32L0xx_HAL_Driver/Inc/stm32l0xx_ll_dma.h **** 
 122:Drivers/STM32L0xx_HAL_Driver/Inc/stm32l0xx_ll_dma.h ****                                         This feature can be modified afterwards using unitary funct
 123:Drivers/STM32L0xx_HAL_Driver/Inc/stm32l0xx_ll_dma.h **** 
 124:Drivers/STM32L0xx_HAL_Driver/Inc/stm32l0xx_ll_dma.h ****   uint32_t MemoryOrM2MDstIncMode;  /*!< Specifies whether the Memory address or Destination address
 125:Drivers/STM32L0xx_HAL_Driver/Inc/stm32l0xx_ll_dma.h ****                                         is incremented or not.
 126:Drivers/STM32L0xx_HAL_Driver/Inc/stm32l0xx_ll_dma.h ****                                         This parameter can be a value of @ref DMA_LL_EC_MEMORY
 127:Drivers/STM32L0xx_HAL_Driver/Inc/stm32l0xx_ll_dma.h **** 
 128:Drivers/STM32L0xx_HAL_Driver/Inc/stm32l0xx_ll_dma.h ****                                         This feature can be modified afterwards using unitary funct
 129:Drivers/STM32L0xx_HAL_Driver/Inc/stm32l0xx_ll_dma.h **** 
 130:Drivers/STM32L0xx_HAL_Driver/Inc/stm32l0xx_ll_dma.h ****   uint32_t PeriphOrM2MSrcDataSize; /*!< Specifies the Peripheral data size alignment or Source data
 131:Drivers/STM32L0xx_HAL_Driver/Inc/stm32l0xx_ll_dma.h ****                                         in case of memory to memory transfer direction.
 132:Drivers/STM32L0xx_HAL_Driver/Inc/stm32l0xx_ll_dma.h ****                                         This parameter can be a value of @ref DMA_LL_EC_PDATAALIGN
 133:Drivers/STM32L0xx_HAL_Driver/Inc/stm32l0xx_ll_dma.h **** 
 134:Drivers/STM32L0xx_HAL_Driver/Inc/stm32l0xx_ll_dma.h ****                                         This feature can be modified afterwards using unitary funct
 135:Drivers/STM32L0xx_HAL_Driver/Inc/stm32l0xx_ll_dma.h **** 
 136:Drivers/STM32L0xx_HAL_Driver/Inc/stm32l0xx_ll_dma.h ****   uint32_t MemoryOrM2MDstDataSize; /*!< Specifies the Memory data size alignment or Destination dat
ARM GAS  /tmp/cccFncD6.s 			page 25


 137:Drivers/STM32L0xx_HAL_Driver/Inc/stm32l0xx_ll_dma.h ****                                         in case of memory to memory transfer direction.
 138:Drivers/STM32L0xx_HAL_Driver/Inc/stm32l0xx_ll_dma.h ****                                         This parameter can be a value of @ref DMA_LL_EC_MDATAALIGN
 139:Drivers/STM32L0xx_HAL_Driver/Inc/stm32l0xx_ll_dma.h **** 
 140:Drivers/STM32L0xx_HAL_Driver/Inc/stm32l0xx_ll_dma.h ****                                         This feature can be modified afterwards using unitary funct
 141:Drivers/STM32L0xx_HAL_Driver/Inc/stm32l0xx_ll_dma.h **** 
 142:Drivers/STM32L0xx_HAL_Driver/Inc/stm32l0xx_ll_dma.h ****   uint32_t NbData;                 /*!< Specifies the number of data to transfer, in data unit.
 143:Drivers/STM32L0xx_HAL_Driver/Inc/stm32l0xx_ll_dma.h ****                                         The data unit is equal to the source buffer configuration s
 144:Drivers/STM32L0xx_HAL_Driver/Inc/stm32l0xx_ll_dma.h ****                                         or MemorySize parameters depending in the transfer directio
 145:Drivers/STM32L0xx_HAL_Driver/Inc/stm32l0xx_ll_dma.h ****                                         This parameter must be a value between Min_Data = 0 and Max
 146:Drivers/STM32L0xx_HAL_Driver/Inc/stm32l0xx_ll_dma.h **** 
 147:Drivers/STM32L0xx_HAL_Driver/Inc/stm32l0xx_ll_dma.h ****                                         This feature can be modified afterwards using unitary funct
 148:Drivers/STM32L0xx_HAL_Driver/Inc/stm32l0xx_ll_dma.h **** 
 149:Drivers/STM32L0xx_HAL_Driver/Inc/stm32l0xx_ll_dma.h ****   uint32_t PeriphRequest;          /*!< Specifies the peripheral request.
 150:Drivers/STM32L0xx_HAL_Driver/Inc/stm32l0xx_ll_dma.h ****                                         This parameter can be a value of @ref DMA_LL_EC_REQUEST
 151:Drivers/STM32L0xx_HAL_Driver/Inc/stm32l0xx_ll_dma.h **** 
 152:Drivers/STM32L0xx_HAL_Driver/Inc/stm32l0xx_ll_dma.h ****                                         This feature can be modified afterwards using unitary funct
 153:Drivers/STM32L0xx_HAL_Driver/Inc/stm32l0xx_ll_dma.h **** 
 154:Drivers/STM32L0xx_HAL_Driver/Inc/stm32l0xx_ll_dma.h ****   uint32_t Priority;               /*!< Specifies the channel priority level.
 155:Drivers/STM32L0xx_HAL_Driver/Inc/stm32l0xx_ll_dma.h ****                                         This parameter can be a value of @ref DMA_LL_EC_PRIORITY
 156:Drivers/STM32L0xx_HAL_Driver/Inc/stm32l0xx_ll_dma.h **** 
 157:Drivers/STM32L0xx_HAL_Driver/Inc/stm32l0xx_ll_dma.h ****                                         This feature can be modified afterwards using unitary funct
 158:Drivers/STM32L0xx_HAL_Driver/Inc/stm32l0xx_ll_dma.h **** 
 159:Drivers/STM32L0xx_HAL_Driver/Inc/stm32l0xx_ll_dma.h **** } LL_DMA_InitTypeDef;
 160:Drivers/STM32L0xx_HAL_Driver/Inc/stm32l0xx_ll_dma.h **** /**
 161:Drivers/STM32L0xx_HAL_Driver/Inc/stm32l0xx_ll_dma.h ****   * @}
 162:Drivers/STM32L0xx_HAL_Driver/Inc/stm32l0xx_ll_dma.h ****   */
 163:Drivers/STM32L0xx_HAL_Driver/Inc/stm32l0xx_ll_dma.h **** #endif /*USE_FULL_LL_DRIVER*/
 164:Drivers/STM32L0xx_HAL_Driver/Inc/stm32l0xx_ll_dma.h **** 
 165:Drivers/STM32L0xx_HAL_Driver/Inc/stm32l0xx_ll_dma.h **** /* Exported constants --------------------------------------------------------*/
 166:Drivers/STM32L0xx_HAL_Driver/Inc/stm32l0xx_ll_dma.h **** /** @defgroup DMA_LL_Exported_Constants DMA Exported Constants
 167:Drivers/STM32L0xx_HAL_Driver/Inc/stm32l0xx_ll_dma.h ****   * @{
 168:Drivers/STM32L0xx_HAL_Driver/Inc/stm32l0xx_ll_dma.h ****   */
 169:Drivers/STM32L0xx_HAL_Driver/Inc/stm32l0xx_ll_dma.h **** /** @defgroup DMA_LL_EC_CLEAR_FLAG Clear Flags Defines
 170:Drivers/STM32L0xx_HAL_Driver/Inc/stm32l0xx_ll_dma.h ****   * @brief    Flags defines which can be used with LL_DMA_WriteReg function
 171:Drivers/STM32L0xx_HAL_Driver/Inc/stm32l0xx_ll_dma.h ****   * @{
 172:Drivers/STM32L0xx_HAL_Driver/Inc/stm32l0xx_ll_dma.h ****   */
 173:Drivers/STM32L0xx_HAL_Driver/Inc/stm32l0xx_ll_dma.h **** #define LL_DMA_IFCR_CGIF1                 DMA_IFCR_CGIF1        /*!< Channel 1 global flag         
 174:Drivers/STM32L0xx_HAL_Driver/Inc/stm32l0xx_ll_dma.h **** #define LL_DMA_IFCR_CTCIF1                DMA_IFCR_CTCIF1       /*!< Channel 1 transfer complete fl
 175:Drivers/STM32L0xx_HAL_Driver/Inc/stm32l0xx_ll_dma.h **** #define LL_DMA_IFCR_CHTIF1                DMA_IFCR_CHTIF1       /*!< Channel 1 half transfer flag  
 176:Drivers/STM32L0xx_HAL_Driver/Inc/stm32l0xx_ll_dma.h **** #define LL_DMA_IFCR_CTEIF1                DMA_IFCR_CTEIF1       /*!< Channel 1 transfer error flag 
 177:Drivers/STM32L0xx_HAL_Driver/Inc/stm32l0xx_ll_dma.h **** #define LL_DMA_IFCR_CGIF2                 DMA_IFCR_CGIF2        /*!< Channel 2 global flag         
 178:Drivers/STM32L0xx_HAL_Driver/Inc/stm32l0xx_ll_dma.h **** #define LL_DMA_IFCR_CTCIF2                DMA_IFCR_CTCIF2       /*!< Channel 2 transfer complete fl
 179:Drivers/STM32L0xx_HAL_Driver/Inc/stm32l0xx_ll_dma.h **** #define LL_DMA_IFCR_CHTIF2                DMA_IFCR_CHTIF2       /*!< Channel 2 half transfer flag  
 180:Drivers/STM32L0xx_HAL_Driver/Inc/stm32l0xx_ll_dma.h **** #define LL_DMA_IFCR_CTEIF2                DMA_IFCR_CTEIF2       /*!< Channel 2 transfer error flag 
 181:Drivers/STM32L0xx_HAL_Driver/Inc/stm32l0xx_ll_dma.h **** #define LL_DMA_IFCR_CGIF3                 DMA_IFCR_CGIF3        /*!< Channel 3 global flag         
 182:Drivers/STM32L0xx_HAL_Driver/Inc/stm32l0xx_ll_dma.h **** #define LL_DMA_IFCR_CTCIF3                DMA_IFCR_CTCIF3       /*!< Channel 3 transfer complete fl
 183:Drivers/STM32L0xx_HAL_Driver/Inc/stm32l0xx_ll_dma.h **** #define LL_DMA_IFCR_CHTIF3                DMA_IFCR_CHTIF3       /*!< Channel 3 half transfer flag  
 184:Drivers/STM32L0xx_HAL_Driver/Inc/stm32l0xx_ll_dma.h **** #define LL_DMA_IFCR_CTEIF3                DMA_IFCR_CTEIF3       /*!< Channel 3 transfer error flag 
 185:Drivers/STM32L0xx_HAL_Driver/Inc/stm32l0xx_ll_dma.h **** #define LL_DMA_IFCR_CGIF4                 DMA_IFCR_CGIF4        /*!< Channel 4 global flag         
 186:Drivers/STM32L0xx_HAL_Driver/Inc/stm32l0xx_ll_dma.h **** #define LL_DMA_IFCR_CTCIF4                DMA_IFCR_CTCIF4       /*!< Channel 4 transfer complete fl
 187:Drivers/STM32L0xx_HAL_Driver/Inc/stm32l0xx_ll_dma.h **** #define LL_DMA_IFCR_CHTIF4                DMA_IFCR_CHTIF4       /*!< Channel 4 half transfer flag  
 188:Drivers/STM32L0xx_HAL_Driver/Inc/stm32l0xx_ll_dma.h **** #define LL_DMA_IFCR_CTEIF4                DMA_IFCR_CTEIF4       /*!< Channel 4 transfer error flag 
 189:Drivers/STM32L0xx_HAL_Driver/Inc/stm32l0xx_ll_dma.h **** #define LL_DMA_IFCR_CGIF5                 DMA_IFCR_CGIF5        /*!< Channel 5 global flag         
 190:Drivers/STM32L0xx_HAL_Driver/Inc/stm32l0xx_ll_dma.h **** #define LL_DMA_IFCR_CTCIF5                DMA_IFCR_CTCIF5       /*!< Channel 5 transfer complete fl
 191:Drivers/STM32L0xx_HAL_Driver/Inc/stm32l0xx_ll_dma.h **** #define LL_DMA_IFCR_CHTIF5                DMA_IFCR_CHTIF5       /*!< Channel 5 half transfer flag  
 192:Drivers/STM32L0xx_HAL_Driver/Inc/stm32l0xx_ll_dma.h **** #define LL_DMA_IFCR_CTEIF5                DMA_IFCR_CTEIF5       /*!< Channel 5 transfer error flag 
 193:Drivers/STM32L0xx_HAL_Driver/Inc/stm32l0xx_ll_dma.h **** #if defined(DMA1_Channel6)
ARM GAS  /tmp/cccFncD6.s 			page 26


 194:Drivers/STM32L0xx_HAL_Driver/Inc/stm32l0xx_ll_dma.h **** #define LL_DMA_IFCR_CGIF6                 DMA_IFCR_CGIF6        /*!< Channel 6 global flag         
 195:Drivers/STM32L0xx_HAL_Driver/Inc/stm32l0xx_ll_dma.h **** #define LL_DMA_IFCR_CTCIF6                DMA_IFCR_CTCIF6       /*!< Channel 6 transfer complete fl
 196:Drivers/STM32L0xx_HAL_Driver/Inc/stm32l0xx_ll_dma.h **** #define LL_DMA_IFCR_CHTIF6                DMA_IFCR_CHTIF6       /*!< Channel 6 half transfer flag  
 197:Drivers/STM32L0xx_HAL_Driver/Inc/stm32l0xx_ll_dma.h **** #define LL_DMA_IFCR_CTEIF6                DMA_IFCR_CTEIF6       /*!< Channel 6 transfer error flag 
 198:Drivers/STM32L0xx_HAL_Driver/Inc/stm32l0xx_ll_dma.h **** #endif
 199:Drivers/STM32L0xx_HAL_Driver/Inc/stm32l0xx_ll_dma.h **** #if defined(DMA1_Channel7)
 200:Drivers/STM32L0xx_HAL_Driver/Inc/stm32l0xx_ll_dma.h **** #define LL_DMA_IFCR_CGIF7                 DMA_IFCR_CGIF7        /*!< Channel 7 global flag         
 201:Drivers/STM32L0xx_HAL_Driver/Inc/stm32l0xx_ll_dma.h **** #define LL_DMA_IFCR_CTCIF7                DMA_IFCR_CTCIF7       /*!< Channel 7 transfer complete fl
 202:Drivers/STM32L0xx_HAL_Driver/Inc/stm32l0xx_ll_dma.h **** #define LL_DMA_IFCR_CHTIF7                DMA_IFCR_CHTIF7       /*!< Channel 7 half transfer flag  
 203:Drivers/STM32L0xx_HAL_Driver/Inc/stm32l0xx_ll_dma.h **** #define LL_DMA_IFCR_CTEIF7                DMA_IFCR_CTEIF7       /*!< Channel 7 transfer error flag 
 204:Drivers/STM32L0xx_HAL_Driver/Inc/stm32l0xx_ll_dma.h **** #endif
 205:Drivers/STM32L0xx_HAL_Driver/Inc/stm32l0xx_ll_dma.h **** /**
 206:Drivers/STM32L0xx_HAL_Driver/Inc/stm32l0xx_ll_dma.h ****   * @}
 207:Drivers/STM32L0xx_HAL_Driver/Inc/stm32l0xx_ll_dma.h ****   */
 208:Drivers/STM32L0xx_HAL_Driver/Inc/stm32l0xx_ll_dma.h **** 
 209:Drivers/STM32L0xx_HAL_Driver/Inc/stm32l0xx_ll_dma.h **** /** @defgroup DMA_LL_EC_GET_FLAG Get Flags Defines
 210:Drivers/STM32L0xx_HAL_Driver/Inc/stm32l0xx_ll_dma.h ****   * @brief    Flags defines which can be used with LL_DMA_ReadReg function
 211:Drivers/STM32L0xx_HAL_Driver/Inc/stm32l0xx_ll_dma.h ****   * @{
 212:Drivers/STM32L0xx_HAL_Driver/Inc/stm32l0xx_ll_dma.h ****   */
 213:Drivers/STM32L0xx_HAL_Driver/Inc/stm32l0xx_ll_dma.h **** #define LL_DMA_ISR_GIF1                   DMA_ISR_GIF1          /*!< Channel 1 global flag         
 214:Drivers/STM32L0xx_HAL_Driver/Inc/stm32l0xx_ll_dma.h **** #define LL_DMA_ISR_TCIF1                  DMA_ISR_TCIF1         /*!< Channel 1 transfer complete fl
 215:Drivers/STM32L0xx_HAL_Driver/Inc/stm32l0xx_ll_dma.h **** #define LL_DMA_ISR_HTIF1                  DMA_ISR_HTIF1         /*!< Channel 1 half transfer flag  
 216:Drivers/STM32L0xx_HAL_Driver/Inc/stm32l0xx_ll_dma.h **** #define LL_DMA_ISR_TEIF1                  DMA_ISR_TEIF1         /*!< Channel 1 transfer error flag 
 217:Drivers/STM32L0xx_HAL_Driver/Inc/stm32l0xx_ll_dma.h **** #define LL_DMA_ISR_GIF2                   DMA_ISR_GIF2          /*!< Channel 2 global flag         
 218:Drivers/STM32L0xx_HAL_Driver/Inc/stm32l0xx_ll_dma.h **** #define LL_DMA_ISR_TCIF2                  DMA_ISR_TCIF2         /*!< Channel 2 transfer complete fl
 219:Drivers/STM32L0xx_HAL_Driver/Inc/stm32l0xx_ll_dma.h **** #define LL_DMA_ISR_HTIF2                  DMA_ISR_HTIF2         /*!< Channel 2 half transfer flag  
 220:Drivers/STM32L0xx_HAL_Driver/Inc/stm32l0xx_ll_dma.h **** #define LL_DMA_ISR_TEIF2                  DMA_ISR_TEIF2         /*!< Channel 2 transfer error flag 
 221:Drivers/STM32L0xx_HAL_Driver/Inc/stm32l0xx_ll_dma.h **** #define LL_DMA_ISR_GIF3                   DMA_ISR_GIF3          /*!< Channel 3 global flag         
 222:Drivers/STM32L0xx_HAL_Driver/Inc/stm32l0xx_ll_dma.h **** #define LL_DMA_ISR_TCIF3                  DMA_ISR_TCIF3         /*!< Channel 3 transfer complete fl
 223:Drivers/STM32L0xx_HAL_Driver/Inc/stm32l0xx_ll_dma.h **** #define LL_DMA_ISR_HTIF3                  DMA_ISR_HTIF3         /*!< Channel 3 half transfer flag  
 224:Drivers/STM32L0xx_HAL_Driver/Inc/stm32l0xx_ll_dma.h **** #define LL_DMA_ISR_TEIF3                  DMA_ISR_TEIF3         /*!< Channel 3 transfer error flag 
 225:Drivers/STM32L0xx_HAL_Driver/Inc/stm32l0xx_ll_dma.h **** #define LL_DMA_ISR_GIF4                   DMA_ISR_GIF4          /*!< Channel 4 global flag         
 226:Drivers/STM32L0xx_HAL_Driver/Inc/stm32l0xx_ll_dma.h **** #define LL_DMA_ISR_TCIF4                  DMA_ISR_TCIF4         /*!< Channel 4 transfer complete fl
 227:Drivers/STM32L0xx_HAL_Driver/Inc/stm32l0xx_ll_dma.h **** #define LL_DMA_ISR_HTIF4                  DMA_ISR_HTIF4         /*!< Channel 4 half transfer flag  
 228:Drivers/STM32L0xx_HAL_Driver/Inc/stm32l0xx_ll_dma.h **** #define LL_DMA_ISR_TEIF4                  DMA_ISR_TEIF4         /*!< Channel 4 transfer error flag 
 229:Drivers/STM32L0xx_HAL_Driver/Inc/stm32l0xx_ll_dma.h **** #define LL_DMA_ISR_GIF5                   DMA_ISR_GIF5          /*!< Channel 5 global flag         
 230:Drivers/STM32L0xx_HAL_Driver/Inc/stm32l0xx_ll_dma.h **** #define LL_DMA_ISR_TCIF5                  DMA_ISR_TCIF5         /*!< Channel 5 transfer complete fl
 231:Drivers/STM32L0xx_HAL_Driver/Inc/stm32l0xx_ll_dma.h **** #define LL_DMA_ISR_HTIF5                  DMA_ISR_HTIF5         /*!< Channel 5 half transfer flag  
 232:Drivers/STM32L0xx_HAL_Driver/Inc/stm32l0xx_ll_dma.h **** #define LL_DMA_ISR_TEIF5                  DMA_ISR_TEIF5         /*!< Channel 5 transfer error flag 
 233:Drivers/STM32L0xx_HAL_Driver/Inc/stm32l0xx_ll_dma.h **** #if defined(DMA1_Channel6)
 234:Drivers/STM32L0xx_HAL_Driver/Inc/stm32l0xx_ll_dma.h **** #define LL_DMA_ISR_GIF6                   DMA_ISR_GIF6          /*!< Channel 6 global flag         
 235:Drivers/STM32L0xx_HAL_Driver/Inc/stm32l0xx_ll_dma.h **** #define LL_DMA_ISR_TCIF6                  DMA_ISR_TCIF6         /*!< Channel 6 transfer complete fl
 236:Drivers/STM32L0xx_HAL_Driver/Inc/stm32l0xx_ll_dma.h **** #define LL_DMA_ISR_HTIF6                  DMA_ISR_HTIF6         /*!< Channel 6 half transfer flag  
 237:Drivers/STM32L0xx_HAL_Driver/Inc/stm32l0xx_ll_dma.h **** #define LL_DMA_ISR_TEIF6                  DMA_ISR_TEIF6         /*!< Channel 6 transfer error flag 
 238:Drivers/STM32L0xx_HAL_Driver/Inc/stm32l0xx_ll_dma.h **** #endif
 239:Drivers/STM32L0xx_HAL_Driver/Inc/stm32l0xx_ll_dma.h **** #if defined(DMA1_Channel7)
 240:Drivers/STM32L0xx_HAL_Driver/Inc/stm32l0xx_ll_dma.h **** #define LL_DMA_ISR_GIF7                   DMA_ISR_GIF7          /*!< Channel 7 global flag         
 241:Drivers/STM32L0xx_HAL_Driver/Inc/stm32l0xx_ll_dma.h **** #define LL_DMA_ISR_TCIF7                  DMA_ISR_TCIF7         /*!< Channel 7 transfer complete fl
 242:Drivers/STM32L0xx_HAL_Driver/Inc/stm32l0xx_ll_dma.h **** #define LL_DMA_ISR_HTIF7                  DMA_ISR_HTIF7         /*!< Channel 7 half transfer flag  
 243:Drivers/STM32L0xx_HAL_Driver/Inc/stm32l0xx_ll_dma.h **** #define LL_DMA_ISR_TEIF7                  DMA_ISR_TEIF7         /*!< Channel 7 transfer error flag 
 244:Drivers/STM32L0xx_HAL_Driver/Inc/stm32l0xx_ll_dma.h **** #endif
 245:Drivers/STM32L0xx_HAL_Driver/Inc/stm32l0xx_ll_dma.h **** /**
 246:Drivers/STM32L0xx_HAL_Driver/Inc/stm32l0xx_ll_dma.h ****   * @}
 247:Drivers/STM32L0xx_HAL_Driver/Inc/stm32l0xx_ll_dma.h ****   */
 248:Drivers/STM32L0xx_HAL_Driver/Inc/stm32l0xx_ll_dma.h **** 
 249:Drivers/STM32L0xx_HAL_Driver/Inc/stm32l0xx_ll_dma.h **** /** @defgroup DMA_LL_EC_IT IT Defines
 250:Drivers/STM32L0xx_HAL_Driver/Inc/stm32l0xx_ll_dma.h ****   * @brief    IT defines which can be used with LL_DMA_ReadReg and  LL_DMA_WriteReg functions
ARM GAS  /tmp/cccFncD6.s 			page 27


 251:Drivers/STM32L0xx_HAL_Driver/Inc/stm32l0xx_ll_dma.h ****   * @{
 252:Drivers/STM32L0xx_HAL_Driver/Inc/stm32l0xx_ll_dma.h ****   */
 253:Drivers/STM32L0xx_HAL_Driver/Inc/stm32l0xx_ll_dma.h **** #define LL_DMA_CCR_TCIE                   DMA_CCR_TCIE          /*!< Transfer complete interrupt */
 254:Drivers/STM32L0xx_HAL_Driver/Inc/stm32l0xx_ll_dma.h **** #define LL_DMA_CCR_HTIE                   DMA_CCR_HTIE          /*!< Half Transfer interrupt     */
 255:Drivers/STM32L0xx_HAL_Driver/Inc/stm32l0xx_ll_dma.h **** #define LL_DMA_CCR_TEIE                   DMA_CCR_TEIE          /*!< Transfer error interrupt    */
 256:Drivers/STM32L0xx_HAL_Driver/Inc/stm32l0xx_ll_dma.h **** /**
 257:Drivers/STM32L0xx_HAL_Driver/Inc/stm32l0xx_ll_dma.h ****   * @}
 258:Drivers/STM32L0xx_HAL_Driver/Inc/stm32l0xx_ll_dma.h ****   */
 259:Drivers/STM32L0xx_HAL_Driver/Inc/stm32l0xx_ll_dma.h **** 
 260:Drivers/STM32L0xx_HAL_Driver/Inc/stm32l0xx_ll_dma.h **** /** @defgroup DMA_LL_EC_CHANNEL CHANNEL
 261:Drivers/STM32L0xx_HAL_Driver/Inc/stm32l0xx_ll_dma.h ****   * @{
 262:Drivers/STM32L0xx_HAL_Driver/Inc/stm32l0xx_ll_dma.h ****   */
 263:Drivers/STM32L0xx_HAL_Driver/Inc/stm32l0xx_ll_dma.h **** #define LL_DMA_CHANNEL_1                  0x00000001U /*!< DMA Channel 1 */
 264:Drivers/STM32L0xx_HAL_Driver/Inc/stm32l0xx_ll_dma.h **** #define LL_DMA_CHANNEL_2                  0x00000002U /*!< DMA Channel 2 */
 265:Drivers/STM32L0xx_HAL_Driver/Inc/stm32l0xx_ll_dma.h **** #define LL_DMA_CHANNEL_3                  0x00000003U /*!< DMA Channel 3 */
 266:Drivers/STM32L0xx_HAL_Driver/Inc/stm32l0xx_ll_dma.h **** #define LL_DMA_CHANNEL_4                  0x00000004U /*!< DMA Channel 4 */
 267:Drivers/STM32L0xx_HAL_Driver/Inc/stm32l0xx_ll_dma.h **** #define LL_DMA_CHANNEL_5                  0x00000005U /*!< DMA Channel 5 */
 268:Drivers/STM32L0xx_HAL_Driver/Inc/stm32l0xx_ll_dma.h **** #if defined(DMA1_Channel6)
 269:Drivers/STM32L0xx_HAL_Driver/Inc/stm32l0xx_ll_dma.h **** #define LL_DMA_CHANNEL_6                  0x00000006U /*!< DMA Channel 6 */
 270:Drivers/STM32L0xx_HAL_Driver/Inc/stm32l0xx_ll_dma.h **** #endif
 271:Drivers/STM32L0xx_HAL_Driver/Inc/stm32l0xx_ll_dma.h **** #if defined(DMA1_Channel7)
 272:Drivers/STM32L0xx_HAL_Driver/Inc/stm32l0xx_ll_dma.h **** #define LL_DMA_CHANNEL_7                  0x00000007U /*!< DMA Channel 7 */
 273:Drivers/STM32L0xx_HAL_Driver/Inc/stm32l0xx_ll_dma.h **** #endif
 274:Drivers/STM32L0xx_HAL_Driver/Inc/stm32l0xx_ll_dma.h **** #if defined(USE_FULL_LL_DRIVER)
 275:Drivers/STM32L0xx_HAL_Driver/Inc/stm32l0xx_ll_dma.h **** #define LL_DMA_CHANNEL_ALL                0xFFFF0000U /*!< DMA Channel all (used only for function 
 276:Drivers/STM32L0xx_HAL_Driver/Inc/stm32l0xx_ll_dma.h **** #endif /*USE_FULL_LL_DRIVER*/
 277:Drivers/STM32L0xx_HAL_Driver/Inc/stm32l0xx_ll_dma.h **** /**
 278:Drivers/STM32L0xx_HAL_Driver/Inc/stm32l0xx_ll_dma.h ****   * @}
 279:Drivers/STM32L0xx_HAL_Driver/Inc/stm32l0xx_ll_dma.h ****   */
 280:Drivers/STM32L0xx_HAL_Driver/Inc/stm32l0xx_ll_dma.h **** 
 281:Drivers/STM32L0xx_HAL_Driver/Inc/stm32l0xx_ll_dma.h **** /** @defgroup DMA_LL_EC_DIRECTION Transfer Direction
 282:Drivers/STM32L0xx_HAL_Driver/Inc/stm32l0xx_ll_dma.h ****   * @{
 283:Drivers/STM32L0xx_HAL_Driver/Inc/stm32l0xx_ll_dma.h ****   */
 284:Drivers/STM32L0xx_HAL_Driver/Inc/stm32l0xx_ll_dma.h **** #define LL_DMA_DIRECTION_PERIPH_TO_MEMORY 0x00000000U             /*!< Peripheral to memory directi
 285:Drivers/STM32L0xx_HAL_Driver/Inc/stm32l0xx_ll_dma.h **** #define LL_DMA_DIRECTION_MEMORY_TO_PERIPH DMA_CCR_DIR             /*!< Memory to peripheral directi
 286:Drivers/STM32L0xx_HAL_Driver/Inc/stm32l0xx_ll_dma.h **** #define LL_DMA_DIRECTION_MEMORY_TO_MEMORY DMA_CCR_MEM2MEM         /*!< Memory to memory direction  
 287:Drivers/STM32L0xx_HAL_Driver/Inc/stm32l0xx_ll_dma.h **** /**
 288:Drivers/STM32L0xx_HAL_Driver/Inc/stm32l0xx_ll_dma.h ****   * @}
 289:Drivers/STM32L0xx_HAL_Driver/Inc/stm32l0xx_ll_dma.h ****   */
 290:Drivers/STM32L0xx_HAL_Driver/Inc/stm32l0xx_ll_dma.h **** 
 291:Drivers/STM32L0xx_HAL_Driver/Inc/stm32l0xx_ll_dma.h **** /** @defgroup DMA_LL_EC_MODE Transfer mode
 292:Drivers/STM32L0xx_HAL_Driver/Inc/stm32l0xx_ll_dma.h ****   * @{
 293:Drivers/STM32L0xx_HAL_Driver/Inc/stm32l0xx_ll_dma.h ****   */
 294:Drivers/STM32L0xx_HAL_Driver/Inc/stm32l0xx_ll_dma.h **** #define LL_DMA_MODE_NORMAL                0x00000000U             /*!< Normal Mode                 
 295:Drivers/STM32L0xx_HAL_Driver/Inc/stm32l0xx_ll_dma.h **** #define LL_DMA_MODE_CIRCULAR              DMA_CCR_CIRC            /*!< Circular Mode               
 296:Drivers/STM32L0xx_HAL_Driver/Inc/stm32l0xx_ll_dma.h **** /**
 297:Drivers/STM32L0xx_HAL_Driver/Inc/stm32l0xx_ll_dma.h ****   * @}
 298:Drivers/STM32L0xx_HAL_Driver/Inc/stm32l0xx_ll_dma.h ****   */
 299:Drivers/STM32L0xx_HAL_Driver/Inc/stm32l0xx_ll_dma.h **** 
 300:Drivers/STM32L0xx_HAL_Driver/Inc/stm32l0xx_ll_dma.h **** /** @defgroup DMA_LL_EC_PERIPH Peripheral increment mode
 301:Drivers/STM32L0xx_HAL_Driver/Inc/stm32l0xx_ll_dma.h ****   * @{
 302:Drivers/STM32L0xx_HAL_Driver/Inc/stm32l0xx_ll_dma.h ****   */
 303:Drivers/STM32L0xx_HAL_Driver/Inc/stm32l0xx_ll_dma.h **** #define LL_DMA_PERIPH_INCREMENT           DMA_CCR_PINC            /*!< Peripheral increment mode En
 304:Drivers/STM32L0xx_HAL_Driver/Inc/stm32l0xx_ll_dma.h **** #define LL_DMA_PERIPH_NOINCREMENT         0x00000000U             /*!< Peripheral increment mode Di
 305:Drivers/STM32L0xx_HAL_Driver/Inc/stm32l0xx_ll_dma.h **** /**
 306:Drivers/STM32L0xx_HAL_Driver/Inc/stm32l0xx_ll_dma.h ****   * @}
 307:Drivers/STM32L0xx_HAL_Driver/Inc/stm32l0xx_ll_dma.h ****   */
ARM GAS  /tmp/cccFncD6.s 			page 28


 308:Drivers/STM32L0xx_HAL_Driver/Inc/stm32l0xx_ll_dma.h **** 
 309:Drivers/STM32L0xx_HAL_Driver/Inc/stm32l0xx_ll_dma.h **** /** @defgroup DMA_LL_EC_MEMORY Memory increment mode
 310:Drivers/STM32L0xx_HAL_Driver/Inc/stm32l0xx_ll_dma.h ****   * @{
 311:Drivers/STM32L0xx_HAL_Driver/Inc/stm32l0xx_ll_dma.h ****   */
 312:Drivers/STM32L0xx_HAL_Driver/Inc/stm32l0xx_ll_dma.h **** #define LL_DMA_MEMORY_INCREMENT           DMA_CCR_MINC            /*!< Memory increment mode Enable
 313:Drivers/STM32L0xx_HAL_Driver/Inc/stm32l0xx_ll_dma.h **** #define LL_DMA_MEMORY_NOINCREMENT         0x00000000U             /*!< Memory increment mode Disabl
 314:Drivers/STM32L0xx_HAL_Driver/Inc/stm32l0xx_ll_dma.h **** /**
 315:Drivers/STM32L0xx_HAL_Driver/Inc/stm32l0xx_ll_dma.h ****   * @}
 316:Drivers/STM32L0xx_HAL_Driver/Inc/stm32l0xx_ll_dma.h ****   */
 317:Drivers/STM32L0xx_HAL_Driver/Inc/stm32l0xx_ll_dma.h **** 
 318:Drivers/STM32L0xx_HAL_Driver/Inc/stm32l0xx_ll_dma.h **** /** @defgroup DMA_LL_EC_PDATAALIGN Peripheral data alignment
 319:Drivers/STM32L0xx_HAL_Driver/Inc/stm32l0xx_ll_dma.h ****   * @{
 320:Drivers/STM32L0xx_HAL_Driver/Inc/stm32l0xx_ll_dma.h ****   */
 321:Drivers/STM32L0xx_HAL_Driver/Inc/stm32l0xx_ll_dma.h **** #define LL_DMA_PDATAALIGN_BYTE            0x00000000U             /*!< Peripheral data alignment : 
 322:Drivers/STM32L0xx_HAL_Driver/Inc/stm32l0xx_ll_dma.h **** #define LL_DMA_PDATAALIGN_HALFWORD        DMA_CCR_PSIZE_0         /*!< Peripheral data alignment : 
 323:Drivers/STM32L0xx_HAL_Driver/Inc/stm32l0xx_ll_dma.h **** #define LL_DMA_PDATAALIGN_WORD            DMA_CCR_PSIZE_1         /*!< Peripheral data alignment : 
 324:Drivers/STM32L0xx_HAL_Driver/Inc/stm32l0xx_ll_dma.h **** /**
 325:Drivers/STM32L0xx_HAL_Driver/Inc/stm32l0xx_ll_dma.h ****   * @}
 326:Drivers/STM32L0xx_HAL_Driver/Inc/stm32l0xx_ll_dma.h ****   */
 327:Drivers/STM32L0xx_HAL_Driver/Inc/stm32l0xx_ll_dma.h **** 
 328:Drivers/STM32L0xx_HAL_Driver/Inc/stm32l0xx_ll_dma.h **** /** @defgroup DMA_LL_EC_MDATAALIGN Memory data alignment
 329:Drivers/STM32L0xx_HAL_Driver/Inc/stm32l0xx_ll_dma.h ****   * @{
 330:Drivers/STM32L0xx_HAL_Driver/Inc/stm32l0xx_ll_dma.h ****   */
 331:Drivers/STM32L0xx_HAL_Driver/Inc/stm32l0xx_ll_dma.h **** #define LL_DMA_MDATAALIGN_BYTE            0x00000000U             /*!< Memory data alignment : Byte
 332:Drivers/STM32L0xx_HAL_Driver/Inc/stm32l0xx_ll_dma.h **** #define LL_DMA_MDATAALIGN_HALFWORD        DMA_CCR_MSIZE_0         /*!< Memory data alignment : Half
 333:Drivers/STM32L0xx_HAL_Driver/Inc/stm32l0xx_ll_dma.h **** #define LL_DMA_MDATAALIGN_WORD            DMA_CCR_MSIZE_1         /*!< Memory data alignment : Word
 334:Drivers/STM32L0xx_HAL_Driver/Inc/stm32l0xx_ll_dma.h **** /**
 335:Drivers/STM32L0xx_HAL_Driver/Inc/stm32l0xx_ll_dma.h ****   * @}
 336:Drivers/STM32L0xx_HAL_Driver/Inc/stm32l0xx_ll_dma.h ****   */
 337:Drivers/STM32L0xx_HAL_Driver/Inc/stm32l0xx_ll_dma.h **** 
 338:Drivers/STM32L0xx_HAL_Driver/Inc/stm32l0xx_ll_dma.h **** /** @defgroup DMA_LL_EC_PRIORITY Transfer Priority level
 339:Drivers/STM32L0xx_HAL_Driver/Inc/stm32l0xx_ll_dma.h ****   * @{
 340:Drivers/STM32L0xx_HAL_Driver/Inc/stm32l0xx_ll_dma.h ****   */
 341:Drivers/STM32L0xx_HAL_Driver/Inc/stm32l0xx_ll_dma.h **** #define LL_DMA_PRIORITY_LOW               0x00000000U             /*!< Priority level : Low       *
 342:Drivers/STM32L0xx_HAL_Driver/Inc/stm32l0xx_ll_dma.h **** #define LL_DMA_PRIORITY_MEDIUM            DMA_CCR_PL_0            /*!< Priority level : Medium    *
 343:Drivers/STM32L0xx_HAL_Driver/Inc/stm32l0xx_ll_dma.h **** #define LL_DMA_PRIORITY_HIGH              DMA_CCR_PL_1            /*!< Priority level : High      *
 344:Drivers/STM32L0xx_HAL_Driver/Inc/stm32l0xx_ll_dma.h **** #define LL_DMA_PRIORITY_VERYHIGH          DMA_CCR_PL              /*!< Priority level : Very_High *
 345:Drivers/STM32L0xx_HAL_Driver/Inc/stm32l0xx_ll_dma.h **** /**
 346:Drivers/STM32L0xx_HAL_Driver/Inc/stm32l0xx_ll_dma.h ****   * @}
 347:Drivers/STM32L0xx_HAL_Driver/Inc/stm32l0xx_ll_dma.h ****   */
 348:Drivers/STM32L0xx_HAL_Driver/Inc/stm32l0xx_ll_dma.h **** 
 349:Drivers/STM32L0xx_HAL_Driver/Inc/stm32l0xx_ll_dma.h **** /** @defgroup DMA_LL_EC_REQUEST Transfer peripheral request
 350:Drivers/STM32L0xx_HAL_Driver/Inc/stm32l0xx_ll_dma.h ****   * @{
 351:Drivers/STM32L0xx_HAL_Driver/Inc/stm32l0xx_ll_dma.h ****   */
 352:Drivers/STM32L0xx_HAL_Driver/Inc/stm32l0xx_ll_dma.h **** #define LL_DMA_REQUEST_0                  0x00000000U             /*!< DMA peripheral request 0  */
 353:Drivers/STM32L0xx_HAL_Driver/Inc/stm32l0xx_ll_dma.h **** #define LL_DMA_REQUEST_1                  0x00000001U             /*!< DMA peripheral request 1  */
 354:Drivers/STM32L0xx_HAL_Driver/Inc/stm32l0xx_ll_dma.h **** #define LL_DMA_REQUEST_2                  0x00000002U             /*!< DMA peripheral request 2  */
 355:Drivers/STM32L0xx_HAL_Driver/Inc/stm32l0xx_ll_dma.h **** #define LL_DMA_REQUEST_3                  0x00000003U             /*!< DMA peripheral request 3  */
 356:Drivers/STM32L0xx_HAL_Driver/Inc/stm32l0xx_ll_dma.h **** #define LL_DMA_REQUEST_4                  0x00000004U             /*!< DMA peripheral request 4  */
 357:Drivers/STM32L0xx_HAL_Driver/Inc/stm32l0xx_ll_dma.h **** #define LL_DMA_REQUEST_5                  0x00000005U             /*!< DMA peripheral request 5  */
 358:Drivers/STM32L0xx_HAL_Driver/Inc/stm32l0xx_ll_dma.h **** #define LL_DMA_REQUEST_6                  0x00000006U             /*!< DMA peripheral request 6  */
 359:Drivers/STM32L0xx_HAL_Driver/Inc/stm32l0xx_ll_dma.h **** #define LL_DMA_REQUEST_7                  0x00000007U             /*!< DMA peripheral request 7  */
 360:Drivers/STM32L0xx_HAL_Driver/Inc/stm32l0xx_ll_dma.h **** #define LL_DMA_REQUEST_8                  0x00000008U             /*!< DMA peripheral request 8  */
 361:Drivers/STM32L0xx_HAL_Driver/Inc/stm32l0xx_ll_dma.h **** #define LL_DMA_REQUEST_9                  0x00000009U             /*!< DMA peripheral request 9  */
 362:Drivers/STM32L0xx_HAL_Driver/Inc/stm32l0xx_ll_dma.h **** #define LL_DMA_REQUEST_10                 0x0000000AU             /*!< DMA peripheral request 10 */
 363:Drivers/STM32L0xx_HAL_Driver/Inc/stm32l0xx_ll_dma.h **** #define LL_DMA_REQUEST_11                 0x0000000BU             /*!< DMA peripheral request 11 */
 364:Drivers/STM32L0xx_HAL_Driver/Inc/stm32l0xx_ll_dma.h **** #define LL_DMA_REQUEST_12                 0x0000000CU             /*!< DMA peripheral request 12 */
ARM GAS  /tmp/cccFncD6.s 			page 29


 365:Drivers/STM32L0xx_HAL_Driver/Inc/stm32l0xx_ll_dma.h **** #define LL_DMA_REQUEST_13                 0x0000000DU             /*!< DMA peripheral request 13 */
 366:Drivers/STM32L0xx_HAL_Driver/Inc/stm32l0xx_ll_dma.h **** #define LL_DMA_REQUEST_14                 0x0000000EU             /*!< DMA peripheral request 14 */
 367:Drivers/STM32L0xx_HAL_Driver/Inc/stm32l0xx_ll_dma.h **** #define LL_DMA_REQUEST_15                 0x0000000FU             /*!< DMA peripheral request 15 */
 368:Drivers/STM32L0xx_HAL_Driver/Inc/stm32l0xx_ll_dma.h **** /**
 369:Drivers/STM32L0xx_HAL_Driver/Inc/stm32l0xx_ll_dma.h ****   * @}
 370:Drivers/STM32L0xx_HAL_Driver/Inc/stm32l0xx_ll_dma.h ****   */
 371:Drivers/STM32L0xx_HAL_Driver/Inc/stm32l0xx_ll_dma.h **** 
 372:Drivers/STM32L0xx_HAL_Driver/Inc/stm32l0xx_ll_dma.h **** /**
 373:Drivers/STM32L0xx_HAL_Driver/Inc/stm32l0xx_ll_dma.h ****   * @}
 374:Drivers/STM32L0xx_HAL_Driver/Inc/stm32l0xx_ll_dma.h ****   */
 375:Drivers/STM32L0xx_HAL_Driver/Inc/stm32l0xx_ll_dma.h **** 
 376:Drivers/STM32L0xx_HAL_Driver/Inc/stm32l0xx_ll_dma.h **** /* Exported macro ------------------------------------------------------------*/
 377:Drivers/STM32L0xx_HAL_Driver/Inc/stm32l0xx_ll_dma.h **** /** @defgroup DMA_LL_Exported_Macros DMA Exported Macros
 378:Drivers/STM32L0xx_HAL_Driver/Inc/stm32l0xx_ll_dma.h ****   * @{
 379:Drivers/STM32L0xx_HAL_Driver/Inc/stm32l0xx_ll_dma.h ****   */
 380:Drivers/STM32L0xx_HAL_Driver/Inc/stm32l0xx_ll_dma.h **** 
 381:Drivers/STM32L0xx_HAL_Driver/Inc/stm32l0xx_ll_dma.h **** /** @defgroup DMA_LL_EM_WRITE_READ Common Write and read registers macros
 382:Drivers/STM32L0xx_HAL_Driver/Inc/stm32l0xx_ll_dma.h ****   * @{
 383:Drivers/STM32L0xx_HAL_Driver/Inc/stm32l0xx_ll_dma.h ****   */
 384:Drivers/STM32L0xx_HAL_Driver/Inc/stm32l0xx_ll_dma.h **** /**
 385:Drivers/STM32L0xx_HAL_Driver/Inc/stm32l0xx_ll_dma.h ****   * @brief  Write a value in DMA register
 386:Drivers/STM32L0xx_HAL_Driver/Inc/stm32l0xx_ll_dma.h ****   * @param  __INSTANCE__ DMA Instance
 387:Drivers/STM32L0xx_HAL_Driver/Inc/stm32l0xx_ll_dma.h ****   * @param  __REG__ Register to be written
 388:Drivers/STM32L0xx_HAL_Driver/Inc/stm32l0xx_ll_dma.h ****   * @param  __VALUE__ Value to be written in the register
 389:Drivers/STM32L0xx_HAL_Driver/Inc/stm32l0xx_ll_dma.h ****   * @retval None
 390:Drivers/STM32L0xx_HAL_Driver/Inc/stm32l0xx_ll_dma.h ****   */
 391:Drivers/STM32L0xx_HAL_Driver/Inc/stm32l0xx_ll_dma.h **** #define LL_DMA_WriteReg(__INSTANCE__, __REG__, __VALUE__) WRITE_REG(__INSTANCE__->__REG__, (__VALUE
 392:Drivers/STM32L0xx_HAL_Driver/Inc/stm32l0xx_ll_dma.h **** 
 393:Drivers/STM32L0xx_HAL_Driver/Inc/stm32l0xx_ll_dma.h **** /**
 394:Drivers/STM32L0xx_HAL_Driver/Inc/stm32l0xx_ll_dma.h ****   * @brief  Read a value in DMA register
 395:Drivers/STM32L0xx_HAL_Driver/Inc/stm32l0xx_ll_dma.h ****   * @param  __INSTANCE__ DMA Instance
 396:Drivers/STM32L0xx_HAL_Driver/Inc/stm32l0xx_ll_dma.h ****   * @param  __REG__ Register to be read
 397:Drivers/STM32L0xx_HAL_Driver/Inc/stm32l0xx_ll_dma.h ****   * @retval Register value
 398:Drivers/STM32L0xx_HAL_Driver/Inc/stm32l0xx_ll_dma.h ****   */
 399:Drivers/STM32L0xx_HAL_Driver/Inc/stm32l0xx_ll_dma.h **** #define LL_DMA_ReadReg(__INSTANCE__, __REG__) READ_REG(__INSTANCE__->__REG__)
 400:Drivers/STM32L0xx_HAL_Driver/Inc/stm32l0xx_ll_dma.h **** /**
 401:Drivers/STM32L0xx_HAL_Driver/Inc/stm32l0xx_ll_dma.h ****   * @}
 402:Drivers/STM32L0xx_HAL_Driver/Inc/stm32l0xx_ll_dma.h ****   */
 403:Drivers/STM32L0xx_HAL_Driver/Inc/stm32l0xx_ll_dma.h **** 
 404:Drivers/STM32L0xx_HAL_Driver/Inc/stm32l0xx_ll_dma.h **** /** @defgroup DMA_LL_EM_CONVERT_DMAxCHANNELy Convert DMAxChannely
 405:Drivers/STM32L0xx_HAL_Driver/Inc/stm32l0xx_ll_dma.h ****   * @{
 406:Drivers/STM32L0xx_HAL_Driver/Inc/stm32l0xx_ll_dma.h ****   */
 407:Drivers/STM32L0xx_HAL_Driver/Inc/stm32l0xx_ll_dma.h **** /**
 408:Drivers/STM32L0xx_HAL_Driver/Inc/stm32l0xx_ll_dma.h ****   * @brief  Convert DMAx_Channely into DMAx
 409:Drivers/STM32L0xx_HAL_Driver/Inc/stm32l0xx_ll_dma.h ****   * @param  __CHANNEL_INSTANCE__ DMAx_Channely
 410:Drivers/STM32L0xx_HAL_Driver/Inc/stm32l0xx_ll_dma.h ****   * @retval DMAx
 411:Drivers/STM32L0xx_HAL_Driver/Inc/stm32l0xx_ll_dma.h ****   */
 412:Drivers/STM32L0xx_HAL_Driver/Inc/stm32l0xx_ll_dma.h **** #define __LL_DMA_GET_INSTANCE(__CHANNEL_INSTANCE__)  (DMA1)
 413:Drivers/STM32L0xx_HAL_Driver/Inc/stm32l0xx_ll_dma.h **** 
 414:Drivers/STM32L0xx_HAL_Driver/Inc/stm32l0xx_ll_dma.h **** /**
 415:Drivers/STM32L0xx_HAL_Driver/Inc/stm32l0xx_ll_dma.h ****   * @brief  Convert DMAx_Channely into LL_DMA_CHANNEL_y
 416:Drivers/STM32L0xx_HAL_Driver/Inc/stm32l0xx_ll_dma.h ****   * @param  __CHANNEL_INSTANCE__ DMAx_Channely
 417:Drivers/STM32L0xx_HAL_Driver/Inc/stm32l0xx_ll_dma.h ****   * @retval LL_DMA_CHANNEL_y
 418:Drivers/STM32L0xx_HAL_Driver/Inc/stm32l0xx_ll_dma.h ****   */
 419:Drivers/STM32L0xx_HAL_Driver/Inc/stm32l0xx_ll_dma.h **** #if defined (DMA1_Channel6) && defined (DMA1_Channel7)
 420:Drivers/STM32L0xx_HAL_Driver/Inc/stm32l0xx_ll_dma.h **** #define __LL_DMA_GET_CHANNEL(__CHANNEL_INSTANCE__)   \
 421:Drivers/STM32L0xx_HAL_Driver/Inc/stm32l0xx_ll_dma.h **** (((uint32_t)(__CHANNEL_INSTANCE__) == ((uint32_t)DMA1_Channel1)) ? LL_DMA_CHANNEL_1 : \
ARM GAS  /tmp/cccFncD6.s 			page 30


 422:Drivers/STM32L0xx_HAL_Driver/Inc/stm32l0xx_ll_dma.h ****  ((uint32_t)(__CHANNEL_INSTANCE__) == ((uint32_t)DMA1_Channel2)) ? LL_DMA_CHANNEL_2 : \
 423:Drivers/STM32L0xx_HAL_Driver/Inc/stm32l0xx_ll_dma.h ****  ((uint32_t)(__CHANNEL_INSTANCE__) == ((uint32_t)DMA1_Channel3)) ? LL_DMA_CHANNEL_3 : \
 424:Drivers/STM32L0xx_HAL_Driver/Inc/stm32l0xx_ll_dma.h ****  ((uint32_t)(__CHANNEL_INSTANCE__) == ((uint32_t)DMA1_Channel4)) ? LL_DMA_CHANNEL_4 : \
 425:Drivers/STM32L0xx_HAL_Driver/Inc/stm32l0xx_ll_dma.h ****  ((uint32_t)(__CHANNEL_INSTANCE__) == ((uint32_t)DMA1_Channel5)) ? LL_DMA_CHANNEL_5 : \
 426:Drivers/STM32L0xx_HAL_Driver/Inc/stm32l0xx_ll_dma.h ****  ((uint32_t)(__CHANNEL_INSTANCE__) == ((uint32_t)DMA1_Channel6)) ? LL_DMA_CHANNEL_6 : \
 427:Drivers/STM32L0xx_HAL_Driver/Inc/stm32l0xx_ll_dma.h ****  LL_DMA_CHANNEL_7)
 428:Drivers/STM32L0xx_HAL_Driver/Inc/stm32l0xx_ll_dma.h **** #elif defined (DMA1_Channel6)
 429:Drivers/STM32L0xx_HAL_Driver/Inc/stm32l0xx_ll_dma.h **** #define __LL_DMA_GET_CHANNEL(__CHANNEL_INSTANCE__)   \
 430:Drivers/STM32L0xx_HAL_Driver/Inc/stm32l0xx_ll_dma.h **** (((uint32_t)(__CHANNEL_INSTANCE__) == ((uint32_t)DMA1_Channel1)) ? LL_DMA_CHANNEL_1 : \
 431:Drivers/STM32L0xx_HAL_Driver/Inc/stm32l0xx_ll_dma.h ****  ((uint32_t)(__CHANNEL_INSTANCE__) == ((uint32_t)DMA1_Channel2)) ? LL_DMA_CHANNEL_2 : \
 432:Drivers/STM32L0xx_HAL_Driver/Inc/stm32l0xx_ll_dma.h ****  ((uint32_t)(__CHANNEL_INSTANCE__) == ((uint32_t)DMA1_Channel3)) ? LL_DMA_CHANNEL_3 : \
 433:Drivers/STM32L0xx_HAL_Driver/Inc/stm32l0xx_ll_dma.h ****  ((uint32_t)(__CHANNEL_INSTANCE__) == ((uint32_t)DMA1_Channel4)) ? LL_DMA_CHANNEL_4 : \
 434:Drivers/STM32L0xx_HAL_Driver/Inc/stm32l0xx_ll_dma.h ****  ((uint32_t)(__CHANNEL_INSTANCE__) == ((uint32_t)DMA1_Channel5)) ? LL_DMA_CHANNEL_5 : \
 435:Drivers/STM32L0xx_HAL_Driver/Inc/stm32l0xx_ll_dma.h ****  LL_DMA_CHANNEL_6)
 436:Drivers/STM32L0xx_HAL_Driver/Inc/stm32l0xx_ll_dma.h **** #else
 437:Drivers/STM32L0xx_HAL_Driver/Inc/stm32l0xx_ll_dma.h **** #define __LL_DMA_GET_CHANNEL(__CHANNEL_INSTANCE__)   \
 438:Drivers/STM32L0xx_HAL_Driver/Inc/stm32l0xx_ll_dma.h **** (((uint32_t)(__CHANNEL_INSTANCE__) == ((uint32_t)DMA1_Channel1)) ? LL_DMA_CHANNEL_1 : \
 439:Drivers/STM32L0xx_HAL_Driver/Inc/stm32l0xx_ll_dma.h ****  ((uint32_t)(__CHANNEL_INSTANCE__) == ((uint32_t)DMA1_Channel2)) ? LL_DMA_CHANNEL_2 : \
 440:Drivers/STM32L0xx_HAL_Driver/Inc/stm32l0xx_ll_dma.h ****  ((uint32_t)(__CHANNEL_INSTANCE__) == ((uint32_t)DMA1_Channel3)) ? LL_DMA_CHANNEL_3 : \
 441:Drivers/STM32L0xx_HAL_Driver/Inc/stm32l0xx_ll_dma.h ****  ((uint32_t)(__CHANNEL_INSTANCE__) == ((uint32_t)DMA1_Channel4)) ? LL_DMA_CHANNEL_4 : \
 442:Drivers/STM32L0xx_HAL_Driver/Inc/stm32l0xx_ll_dma.h ****  LL_DMA_CHANNEL_5)
 443:Drivers/STM32L0xx_HAL_Driver/Inc/stm32l0xx_ll_dma.h **** #endif /* DMA1_Channel6 && DMA1_Channel7 */
 444:Drivers/STM32L0xx_HAL_Driver/Inc/stm32l0xx_ll_dma.h **** 
 445:Drivers/STM32L0xx_HAL_Driver/Inc/stm32l0xx_ll_dma.h **** /**
 446:Drivers/STM32L0xx_HAL_Driver/Inc/stm32l0xx_ll_dma.h ****   * @brief  Convert DMA Instance DMAx and LL_DMA_CHANNEL_y into DMAx_Channely
 447:Drivers/STM32L0xx_HAL_Driver/Inc/stm32l0xx_ll_dma.h ****   * @param  __DMA_INSTANCE__ DMAx
 448:Drivers/STM32L0xx_HAL_Driver/Inc/stm32l0xx_ll_dma.h ****   * @param  __CHANNEL__ LL_DMA_CHANNEL_y
 449:Drivers/STM32L0xx_HAL_Driver/Inc/stm32l0xx_ll_dma.h ****   * @retval DMAx_Channely
 450:Drivers/STM32L0xx_HAL_Driver/Inc/stm32l0xx_ll_dma.h ****   */
 451:Drivers/STM32L0xx_HAL_Driver/Inc/stm32l0xx_ll_dma.h **** #if defined (DMA1_Channel6) && defined (DMA1_Channel7)
 452:Drivers/STM32L0xx_HAL_Driver/Inc/stm32l0xx_ll_dma.h **** #define __LL_DMA_GET_CHANNEL_INSTANCE(__DMA_INSTANCE__, __CHANNEL__)   \
 453:Drivers/STM32L0xx_HAL_Driver/Inc/stm32l0xx_ll_dma.h **** ((((uint32_t)(__DMA_INSTANCE__) == ((uint32_t)DMA1)) && ((uint32_t)(__CHANNEL__) == ((uint32_t)LL_D
 454:Drivers/STM32L0xx_HAL_Driver/Inc/stm32l0xx_ll_dma.h ****  (((uint32_t)(__DMA_INSTANCE__) == ((uint32_t)DMA1)) && ((uint32_t)(__CHANNEL__) == ((uint32_t)LL_D
 455:Drivers/STM32L0xx_HAL_Driver/Inc/stm32l0xx_ll_dma.h ****  (((uint32_t)(__DMA_INSTANCE__) == ((uint32_t)DMA1)) && ((uint32_t)(__CHANNEL__) == ((uint32_t)LL_D
 456:Drivers/STM32L0xx_HAL_Driver/Inc/stm32l0xx_ll_dma.h ****  (((uint32_t)(__DMA_INSTANCE__) == ((uint32_t)DMA1)) && ((uint32_t)(__CHANNEL__) == ((uint32_t)LL_D
 457:Drivers/STM32L0xx_HAL_Driver/Inc/stm32l0xx_ll_dma.h ****  (((uint32_t)(__DMA_INSTANCE__) == ((uint32_t)DMA1)) && ((uint32_t)(__CHANNEL__) == ((uint32_t)LL_D
 458:Drivers/STM32L0xx_HAL_Driver/Inc/stm32l0xx_ll_dma.h ****  (((uint32_t)(__DMA_INSTANCE__) == ((uint32_t)DMA1)) && ((uint32_t)(__CHANNEL__) == ((uint32_t)LL_D
 459:Drivers/STM32L0xx_HAL_Driver/Inc/stm32l0xx_ll_dma.h ****  DMA1_Channel7)
 460:Drivers/STM32L0xx_HAL_Driver/Inc/stm32l0xx_ll_dma.h **** #elif defined (DMA1_Channel6)
 461:Drivers/STM32L0xx_HAL_Driver/Inc/stm32l0xx_ll_dma.h **** #define __LL_DMA_GET_CHANNEL_INSTANCE(__DMA_INSTANCE__, __CHANNEL__)   \
 462:Drivers/STM32L0xx_HAL_Driver/Inc/stm32l0xx_ll_dma.h **** ((((uint32_t)(__DMA_INSTANCE__) == ((uint32_t)DMA1)) && ((uint32_t)(__CHANNEL__) == ((uint32_t)LL_D
 463:Drivers/STM32L0xx_HAL_Driver/Inc/stm32l0xx_ll_dma.h ****  (((uint32_t)(__DMA_INSTANCE__) == ((uint32_t)DMA1)) && ((uint32_t)(__CHANNEL__) == ((uint32_t)LL_D
 464:Drivers/STM32L0xx_HAL_Driver/Inc/stm32l0xx_ll_dma.h ****  (((uint32_t)(__DMA_INSTANCE__) == ((uint32_t)DMA1)) && ((uint32_t)(__CHANNEL__) == ((uint32_t)LL_D
 465:Drivers/STM32L0xx_HAL_Driver/Inc/stm32l0xx_ll_dma.h ****  (((uint32_t)(__DMA_INSTANCE__) == ((uint32_t)DMA1)) && ((uint32_t)(__CHANNEL__) == ((uint32_t)LL_D
 466:Drivers/STM32L0xx_HAL_Driver/Inc/stm32l0xx_ll_dma.h ****  (((uint32_t)(__DMA_INSTANCE__) == ((uint32_t)DMA1)) && ((uint32_t)(__CHANNEL__) == ((uint32_t)LL_D
 467:Drivers/STM32L0xx_HAL_Driver/Inc/stm32l0xx_ll_dma.h ****  DMA1_Channel6)
 468:Drivers/STM32L0xx_HAL_Driver/Inc/stm32l0xx_ll_dma.h **** #else
 469:Drivers/STM32L0xx_HAL_Driver/Inc/stm32l0xx_ll_dma.h **** #define __LL_DMA_GET_CHANNEL_INSTANCE(__DMA_INSTANCE__, __CHANNEL__)   \
 470:Drivers/STM32L0xx_HAL_Driver/Inc/stm32l0xx_ll_dma.h **** ((((uint32_t)(__DMA_INSTANCE__) == ((uint32_t)DMA1)) && ((uint32_t)(__CHANNEL__) == ((uint32_t)LL_D
 471:Drivers/STM32L0xx_HAL_Driver/Inc/stm32l0xx_ll_dma.h ****  (((uint32_t)(__DMA_INSTANCE__) == ((uint32_t)DMA1)) && ((uint32_t)(__CHANNEL__) == ((uint32_t)LL_D
 472:Drivers/STM32L0xx_HAL_Driver/Inc/stm32l0xx_ll_dma.h ****  (((uint32_t)(__DMA_INSTANCE__) == ((uint32_t)DMA1)) && ((uint32_t)(__CHANNEL__) == ((uint32_t)LL_D
 473:Drivers/STM32L0xx_HAL_Driver/Inc/stm32l0xx_ll_dma.h ****  (((uint32_t)(__DMA_INSTANCE__) == ((uint32_t)DMA1)) && ((uint32_t)(__CHANNEL__) == ((uint32_t)LL_D
 474:Drivers/STM32L0xx_HAL_Driver/Inc/stm32l0xx_ll_dma.h ****  DMA1_Channel5)
 475:Drivers/STM32L0xx_HAL_Driver/Inc/stm32l0xx_ll_dma.h **** #endif /* DMA1_Channel6 && DMA1_Channel7 */
 476:Drivers/STM32L0xx_HAL_Driver/Inc/stm32l0xx_ll_dma.h **** 
 477:Drivers/STM32L0xx_HAL_Driver/Inc/stm32l0xx_ll_dma.h **** /**
 478:Drivers/STM32L0xx_HAL_Driver/Inc/stm32l0xx_ll_dma.h ****   * @}
ARM GAS  /tmp/cccFncD6.s 			page 31


 479:Drivers/STM32L0xx_HAL_Driver/Inc/stm32l0xx_ll_dma.h ****   */
 480:Drivers/STM32L0xx_HAL_Driver/Inc/stm32l0xx_ll_dma.h **** 
 481:Drivers/STM32L0xx_HAL_Driver/Inc/stm32l0xx_ll_dma.h **** /**
 482:Drivers/STM32L0xx_HAL_Driver/Inc/stm32l0xx_ll_dma.h ****   * @}
 483:Drivers/STM32L0xx_HAL_Driver/Inc/stm32l0xx_ll_dma.h ****   */
 484:Drivers/STM32L0xx_HAL_Driver/Inc/stm32l0xx_ll_dma.h **** 
 485:Drivers/STM32L0xx_HAL_Driver/Inc/stm32l0xx_ll_dma.h **** /* Exported functions --------------------------------------------------------*/
 486:Drivers/STM32L0xx_HAL_Driver/Inc/stm32l0xx_ll_dma.h **** /** @defgroup DMA_LL_Exported_Functions DMA Exported Functions
 487:Drivers/STM32L0xx_HAL_Driver/Inc/stm32l0xx_ll_dma.h ****  * @{
 488:Drivers/STM32L0xx_HAL_Driver/Inc/stm32l0xx_ll_dma.h ****  */
 489:Drivers/STM32L0xx_HAL_Driver/Inc/stm32l0xx_ll_dma.h **** 
 490:Drivers/STM32L0xx_HAL_Driver/Inc/stm32l0xx_ll_dma.h **** /** @defgroup DMA_LL_EF_Configuration Configuration
 491:Drivers/STM32L0xx_HAL_Driver/Inc/stm32l0xx_ll_dma.h ****   * @{
 492:Drivers/STM32L0xx_HAL_Driver/Inc/stm32l0xx_ll_dma.h ****   */
 493:Drivers/STM32L0xx_HAL_Driver/Inc/stm32l0xx_ll_dma.h **** /**
 494:Drivers/STM32L0xx_HAL_Driver/Inc/stm32l0xx_ll_dma.h ****   * @brief  Enable DMA channel.
 495:Drivers/STM32L0xx_HAL_Driver/Inc/stm32l0xx_ll_dma.h ****   * @rmtoll CCR          EN            LL_DMA_EnableChannel
 496:Drivers/STM32L0xx_HAL_Driver/Inc/stm32l0xx_ll_dma.h ****   * @param  DMAx DMAx Instance
 497:Drivers/STM32L0xx_HAL_Driver/Inc/stm32l0xx_ll_dma.h ****   * @param  Channel This parameter can be one of the following values:
 498:Drivers/STM32L0xx_HAL_Driver/Inc/stm32l0xx_ll_dma.h ****   *         @arg @ref LL_DMA_CHANNEL_1
 499:Drivers/STM32L0xx_HAL_Driver/Inc/stm32l0xx_ll_dma.h ****   *         @arg @ref LL_DMA_CHANNEL_2
 500:Drivers/STM32L0xx_HAL_Driver/Inc/stm32l0xx_ll_dma.h ****   *         @arg @ref LL_DMA_CHANNEL_3
 501:Drivers/STM32L0xx_HAL_Driver/Inc/stm32l0xx_ll_dma.h ****   *         @arg @ref LL_DMA_CHANNEL_4
 502:Drivers/STM32L0xx_HAL_Driver/Inc/stm32l0xx_ll_dma.h ****   *         @arg @ref LL_DMA_CHANNEL_5
 503:Drivers/STM32L0xx_HAL_Driver/Inc/stm32l0xx_ll_dma.h ****   *         @arg @ref LL_DMA_CHANNEL_6
 504:Drivers/STM32L0xx_HAL_Driver/Inc/stm32l0xx_ll_dma.h ****   *         @arg @ref LL_DMA_CHANNEL_7
 505:Drivers/STM32L0xx_HAL_Driver/Inc/stm32l0xx_ll_dma.h ****   * @retval None
 506:Drivers/STM32L0xx_HAL_Driver/Inc/stm32l0xx_ll_dma.h ****   */
 507:Drivers/STM32L0xx_HAL_Driver/Inc/stm32l0xx_ll_dma.h **** __STATIC_INLINE void LL_DMA_EnableChannel(DMA_TypeDef *DMAx, uint32_t Channel)
 508:Drivers/STM32L0xx_HAL_Driver/Inc/stm32l0xx_ll_dma.h **** {
 509:Drivers/STM32L0xx_HAL_Driver/Inc/stm32l0xx_ll_dma.h ****   SET_BIT(((DMA_Channel_TypeDef *)((uint32_t)((uint32_t)DMAx + CHANNEL_OFFSET_TAB[Channel - 1U])))-
 510:Drivers/STM32L0xx_HAL_Driver/Inc/stm32l0xx_ll_dma.h **** }
 511:Drivers/STM32L0xx_HAL_Driver/Inc/stm32l0xx_ll_dma.h **** 
 512:Drivers/STM32L0xx_HAL_Driver/Inc/stm32l0xx_ll_dma.h **** /**
 513:Drivers/STM32L0xx_HAL_Driver/Inc/stm32l0xx_ll_dma.h ****   * @brief  Disable DMA channel.
 514:Drivers/STM32L0xx_HAL_Driver/Inc/stm32l0xx_ll_dma.h ****   * @rmtoll CCR          EN            LL_DMA_DisableChannel
 515:Drivers/STM32L0xx_HAL_Driver/Inc/stm32l0xx_ll_dma.h ****   * @param  DMAx DMAx Instance
 516:Drivers/STM32L0xx_HAL_Driver/Inc/stm32l0xx_ll_dma.h ****   * @param  Channel This parameter can be one of the following values:
 517:Drivers/STM32L0xx_HAL_Driver/Inc/stm32l0xx_ll_dma.h ****   *         @arg @ref LL_DMA_CHANNEL_1
 518:Drivers/STM32L0xx_HAL_Driver/Inc/stm32l0xx_ll_dma.h ****   *         @arg @ref LL_DMA_CHANNEL_2
 519:Drivers/STM32L0xx_HAL_Driver/Inc/stm32l0xx_ll_dma.h ****   *         @arg @ref LL_DMA_CHANNEL_3
 520:Drivers/STM32L0xx_HAL_Driver/Inc/stm32l0xx_ll_dma.h ****   *         @arg @ref LL_DMA_CHANNEL_4
 521:Drivers/STM32L0xx_HAL_Driver/Inc/stm32l0xx_ll_dma.h ****   *         @arg @ref LL_DMA_CHANNEL_5
 522:Drivers/STM32L0xx_HAL_Driver/Inc/stm32l0xx_ll_dma.h ****   *         @arg @ref LL_DMA_CHANNEL_6
 523:Drivers/STM32L0xx_HAL_Driver/Inc/stm32l0xx_ll_dma.h ****   *         @arg @ref LL_DMA_CHANNEL_7
 524:Drivers/STM32L0xx_HAL_Driver/Inc/stm32l0xx_ll_dma.h ****   * @retval None
 525:Drivers/STM32L0xx_HAL_Driver/Inc/stm32l0xx_ll_dma.h ****   */
 526:Drivers/STM32L0xx_HAL_Driver/Inc/stm32l0xx_ll_dma.h **** __STATIC_INLINE void LL_DMA_DisableChannel(DMA_TypeDef *DMAx, uint32_t Channel)
 527:Drivers/STM32L0xx_HAL_Driver/Inc/stm32l0xx_ll_dma.h **** {
 528:Drivers/STM32L0xx_HAL_Driver/Inc/stm32l0xx_ll_dma.h ****   CLEAR_BIT(((DMA_Channel_TypeDef *)((uint32_t)((uint32_t)DMAx + CHANNEL_OFFSET_TAB[Channel - 1U]))
 529:Drivers/STM32L0xx_HAL_Driver/Inc/stm32l0xx_ll_dma.h **** }
 530:Drivers/STM32L0xx_HAL_Driver/Inc/stm32l0xx_ll_dma.h **** 
 531:Drivers/STM32L0xx_HAL_Driver/Inc/stm32l0xx_ll_dma.h **** /**
 532:Drivers/STM32L0xx_HAL_Driver/Inc/stm32l0xx_ll_dma.h ****   * @brief  Check if DMA channel is enabled or disabled.
 533:Drivers/STM32L0xx_HAL_Driver/Inc/stm32l0xx_ll_dma.h ****   * @rmtoll CCR          EN            LL_DMA_IsEnabledChannel
 534:Drivers/STM32L0xx_HAL_Driver/Inc/stm32l0xx_ll_dma.h ****   * @param  DMAx DMAx Instance
 535:Drivers/STM32L0xx_HAL_Driver/Inc/stm32l0xx_ll_dma.h ****   * @param  Channel This parameter can be one of the following values:
ARM GAS  /tmp/cccFncD6.s 			page 32


 536:Drivers/STM32L0xx_HAL_Driver/Inc/stm32l0xx_ll_dma.h ****   *         @arg @ref LL_DMA_CHANNEL_1
 537:Drivers/STM32L0xx_HAL_Driver/Inc/stm32l0xx_ll_dma.h ****   *         @arg @ref LL_DMA_CHANNEL_2
 538:Drivers/STM32L0xx_HAL_Driver/Inc/stm32l0xx_ll_dma.h ****   *         @arg @ref LL_DMA_CHANNEL_3
 539:Drivers/STM32L0xx_HAL_Driver/Inc/stm32l0xx_ll_dma.h ****   *         @arg @ref LL_DMA_CHANNEL_4
 540:Drivers/STM32L0xx_HAL_Driver/Inc/stm32l0xx_ll_dma.h ****   *         @arg @ref LL_DMA_CHANNEL_5
 541:Drivers/STM32L0xx_HAL_Driver/Inc/stm32l0xx_ll_dma.h ****   *         @arg @ref LL_DMA_CHANNEL_6
 542:Drivers/STM32L0xx_HAL_Driver/Inc/stm32l0xx_ll_dma.h ****   *         @arg @ref LL_DMA_CHANNEL_7
 543:Drivers/STM32L0xx_HAL_Driver/Inc/stm32l0xx_ll_dma.h ****   * @retval State of bit (1 or 0).
 544:Drivers/STM32L0xx_HAL_Driver/Inc/stm32l0xx_ll_dma.h ****   */
 545:Drivers/STM32L0xx_HAL_Driver/Inc/stm32l0xx_ll_dma.h **** __STATIC_INLINE uint32_t LL_DMA_IsEnabledChannel(DMA_TypeDef *DMAx, uint32_t Channel)
 546:Drivers/STM32L0xx_HAL_Driver/Inc/stm32l0xx_ll_dma.h **** {
 547:Drivers/STM32L0xx_HAL_Driver/Inc/stm32l0xx_ll_dma.h ****   return ((READ_BIT(((DMA_Channel_TypeDef *)((uint32_t)((uint32_t)DMAx + CHANNEL_OFFSET_TAB[Channel
 548:Drivers/STM32L0xx_HAL_Driver/Inc/stm32l0xx_ll_dma.h ****                    DMA_CCR_EN) == (DMA_CCR_EN)) ? 1UL : 0UL);
 549:Drivers/STM32L0xx_HAL_Driver/Inc/stm32l0xx_ll_dma.h **** }
 550:Drivers/STM32L0xx_HAL_Driver/Inc/stm32l0xx_ll_dma.h **** 
 551:Drivers/STM32L0xx_HAL_Driver/Inc/stm32l0xx_ll_dma.h **** /**
 552:Drivers/STM32L0xx_HAL_Driver/Inc/stm32l0xx_ll_dma.h ****   * @brief  Configure all parameters link to DMA transfer.
 553:Drivers/STM32L0xx_HAL_Driver/Inc/stm32l0xx_ll_dma.h ****   * @rmtoll CCR          DIR           LL_DMA_ConfigTransfer\n
 554:Drivers/STM32L0xx_HAL_Driver/Inc/stm32l0xx_ll_dma.h ****   *         CCR          MEM2MEM       LL_DMA_ConfigTransfer\n
 555:Drivers/STM32L0xx_HAL_Driver/Inc/stm32l0xx_ll_dma.h ****   *         CCR          CIRC          LL_DMA_ConfigTransfer\n
 556:Drivers/STM32L0xx_HAL_Driver/Inc/stm32l0xx_ll_dma.h ****   *         CCR          PINC          LL_DMA_ConfigTransfer\n
 557:Drivers/STM32L0xx_HAL_Driver/Inc/stm32l0xx_ll_dma.h ****   *         CCR          MINC          LL_DMA_ConfigTransfer\n
 558:Drivers/STM32L0xx_HAL_Driver/Inc/stm32l0xx_ll_dma.h ****   *         CCR          PSIZE         LL_DMA_ConfigTransfer\n
 559:Drivers/STM32L0xx_HAL_Driver/Inc/stm32l0xx_ll_dma.h ****   *         CCR          MSIZE         LL_DMA_ConfigTransfer\n
 560:Drivers/STM32L0xx_HAL_Driver/Inc/stm32l0xx_ll_dma.h ****   *         CCR          PL            LL_DMA_ConfigTransfer
 561:Drivers/STM32L0xx_HAL_Driver/Inc/stm32l0xx_ll_dma.h ****   * @param  DMAx DMAx Instance
 562:Drivers/STM32L0xx_HAL_Driver/Inc/stm32l0xx_ll_dma.h ****   * @param  Channel This parameter can be one of the following values:
 563:Drivers/STM32L0xx_HAL_Driver/Inc/stm32l0xx_ll_dma.h ****   *         @arg @ref LL_DMA_CHANNEL_1
 564:Drivers/STM32L0xx_HAL_Driver/Inc/stm32l0xx_ll_dma.h ****   *         @arg @ref LL_DMA_CHANNEL_2
 565:Drivers/STM32L0xx_HAL_Driver/Inc/stm32l0xx_ll_dma.h ****   *         @arg @ref LL_DMA_CHANNEL_3
 566:Drivers/STM32L0xx_HAL_Driver/Inc/stm32l0xx_ll_dma.h ****   *         @arg @ref LL_DMA_CHANNEL_4
 567:Drivers/STM32L0xx_HAL_Driver/Inc/stm32l0xx_ll_dma.h ****   *         @arg @ref LL_DMA_CHANNEL_5
 568:Drivers/STM32L0xx_HAL_Driver/Inc/stm32l0xx_ll_dma.h ****   *         @arg @ref LL_DMA_CHANNEL_6
 569:Drivers/STM32L0xx_HAL_Driver/Inc/stm32l0xx_ll_dma.h ****   *         @arg @ref LL_DMA_CHANNEL_7
 570:Drivers/STM32L0xx_HAL_Driver/Inc/stm32l0xx_ll_dma.h ****   * @param  Configuration This parameter must be a combination of all the following values:
 571:Drivers/STM32L0xx_HAL_Driver/Inc/stm32l0xx_ll_dma.h ****   *         @arg @ref LL_DMA_DIRECTION_PERIPH_TO_MEMORY or @ref LL_DMA_DIRECTION_MEMORY_TO_PERIPH o
 572:Drivers/STM32L0xx_HAL_Driver/Inc/stm32l0xx_ll_dma.h ****   *         @arg @ref LL_DMA_MODE_NORMAL or @ref LL_DMA_MODE_CIRCULAR
 573:Drivers/STM32L0xx_HAL_Driver/Inc/stm32l0xx_ll_dma.h ****   *         @arg @ref LL_DMA_PERIPH_INCREMENT or @ref LL_DMA_PERIPH_NOINCREMENT
 574:Drivers/STM32L0xx_HAL_Driver/Inc/stm32l0xx_ll_dma.h ****   *         @arg @ref LL_DMA_MEMORY_INCREMENT or @ref LL_DMA_MEMORY_NOINCREMENT
 575:Drivers/STM32L0xx_HAL_Driver/Inc/stm32l0xx_ll_dma.h ****   *         @arg @ref LL_DMA_PDATAALIGN_BYTE or @ref LL_DMA_PDATAALIGN_HALFWORD or @ref LL_DMA_PDAT
 576:Drivers/STM32L0xx_HAL_Driver/Inc/stm32l0xx_ll_dma.h ****   *         @arg @ref LL_DMA_MDATAALIGN_BYTE or @ref LL_DMA_MDATAALIGN_HALFWORD or @ref LL_DMA_MDAT
 577:Drivers/STM32L0xx_HAL_Driver/Inc/stm32l0xx_ll_dma.h ****   *         @arg @ref LL_DMA_PRIORITY_LOW or @ref LL_DMA_PRIORITY_MEDIUM or @ref LL_DMA_PRIORITY_HI
 578:Drivers/STM32L0xx_HAL_Driver/Inc/stm32l0xx_ll_dma.h ****   * @retval None
 579:Drivers/STM32L0xx_HAL_Driver/Inc/stm32l0xx_ll_dma.h ****   */
 580:Drivers/STM32L0xx_HAL_Driver/Inc/stm32l0xx_ll_dma.h **** __STATIC_INLINE void LL_DMA_ConfigTransfer(DMA_TypeDef *DMAx, uint32_t Channel, uint32_t Configurat
 581:Drivers/STM32L0xx_HAL_Driver/Inc/stm32l0xx_ll_dma.h **** {
 582:Drivers/STM32L0xx_HAL_Driver/Inc/stm32l0xx_ll_dma.h ****   MODIFY_REG(((DMA_Channel_TypeDef *)((uint32_t)((uint32_t)DMAx + CHANNEL_OFFSET_TAB[Channel - 1U])
 583:Drivers/STM32L0xx_HAL_Driver/Inc/stm32l0xx_ll_dma.h ****              DMA_CCR_DIR | DMA_CCR_MEM2MEM | DMA_CCR_CIRC | DMA_CCR_PINC | DMA_CCR_MINC | DMA_CCR_P
 584:Drivers/STM32L0xx_HAL_Driver/Inc/stm32l0xx_ll_dma.h ****              Configuration);
 585:Drivers/STM32L0xx_HAL_Driver/Inc/stm32l0xx_ll_dma.h **** }
 586:Drivers/STM32L0xx_HAL_Driver/Inc/stm32l0xx_ll_dma.h **** 
 587:Drivers/STM32L0xx_HAL_Driver/Inc/stm32l0xx_ll_dma.h **** /**
 588:Drivers/STM32L0xx_HAL_Driver/Inc/stm32l0xx_ll_dma.h ****   * @brief  Set Data transfer direction (read from peripheral or from memory).
 589:Drivers/STM32L0xx_HAL_Driver/Inc/stm32l0xx_ll_dma.h ****   * @rmtoll CCR          DIR           LL_DMA_SetDataTransferDirection\n
 590:Drivers/STM32L0xx_HAL_Driver/Inc/stm32l0xx_ll_dma.h ****   *         CCR          MEM2MEM       LL_DMA_SetDataTransferDirection
 591:Drivers/STM32L0xx_HAL_Driver/Inc/stm32l0xx_ll_dma.h ****   * @param  DMAx DMAx Instance
 592:Drivers/STM32L0xx_HAL_Driver/Inc/stm32l0xx_ll_dma.h ****   * @param  Channel This parameter can be one of the following values:
ARM GAS  /tmp/cccFncD6.s 			page 33


 593:Drivers/STM32L0xx_HAL_Driver/Inc/stm32l0xx_ll_dma.h ****   *         @arg @ref LL_DMA_CHANNEL_1
 594:Drivers/STM32L0xx_HAL_Driver/Inc/stm32l0xx_ll_dma.h ****   *         @arg @ref LL_DMA_CHANNEL_2
 595:Drivers/STM32L0xx_HAL_Driver/Inc/stm32l0xx_ll_dma.h ****   *         @arg @ref LL_DMA_CHANNEL_3
 596:Drivers/STM32L0xx_HAL_Driver/Inc/stm32l0xx_ll_dma.h ****   *         @arg @ref LL_DMA_CHANNEL_4
 597:Drivers/STM32L0xx_HAL_Driver/Inc/stm32l0xx_ll_dma.h ****   *         @arg @ref LL_DMA_CHANNEL_5
 598:Drivers/STM32L0xx_HAL_Driver/Inc/stm32l0xx_ll_dma.h ****   *         @arg @ref LL_DMA_CHANNEL_6
 599:Drivers/STM32L0xx_HAL_Driver/Inc/stm32l0xx_ll_dma.h ****   *         @arg @ref LL_DMA_CHANNEL_7
 600:Drivers/STM32L0xx_HAL_Driver/Inc/stm32l0xx_ll_dma.h ****   * @param  Direction This parameter can be one of the following values:
 601:Drivers/STM32L0xx_HAL_Driver/Inc/stm32l0xx_ll_dma.h ****   *         @arg @ref LL_DMA_DIRECTION_PERIPH_TO_MEMORY
 602:Drivers/STM32L0xx_HAL_Driver/Inc/stm32l0xx_ll_dma.h ****   *         @arg @ref LL_DMA_DIRECTION_MEMORY_TO_PERIPH
 603:Drivers/STM32L0xx_HAL_Driver/Inc/stm32l0xx_ll_dma.h ****   *         @arg @ref LL_DMA_DIRECTION_MEMORY_TO_MEMORY
 604:Drivers/STM32L0xx_HAL_Driver/Inc/stm32l0xx_ll_dma.h ****   * @retval None
 605:Drivers/STM32L0xx_HAL_Driver/Inc/stm32l0xx_ll_dma.h ****   */
 606:Drivers/STM32L0xx_HAL_Driver/Inc/stm32l0xx_ll_dma.h **** __STATIC_INLINE void LL_DMA_SetDataTransferDirection(DMA_TypeDef *DMAx, uint32_t Channel, uint32_t 
 607:Drivers/STM32L0xx_HAL_Driver/Inc/stm32l0xx_ll_dma.h **** {
 608:Drivers/STM32L0xx_HAL_Driver/Inc/stm32l0xx_ll_dma.h ****   MODIFY_REG(((DMA_Channel_TypeDef *)((uint32_t)((uint32_t)DMAx + CHANNEL_OFFSET_TAB[Channel - 1U])
 609:Drivers/STM32L0xx_HAL_Driver/Inc/stm32l0xx_ll_dma.h ****              DMA_CCR_DIR | DMA_CCR_MEM2MEM, Direction);
 610:Drivers/STM32L0xx_HAL_Driver/Inc/stm32l0xx_ll_dma.h **** }
 611:Drivers/STM32L0xx_HAL_Driver/Inc/stm32l0xx_ll_dma.h **** 
 612:Drivers/STM32L0xx_HAL_Driver/Inc/stm32l0xx_ll_dma.h **** /**
 613:Drivers/STM32L0xx_HAL_Driver/Inc/stm32l0xx_ll_dma.h ****   * @brief  Get Data transfer direction (read from peripheral or from memory).
 614:Drivers/STM32L0xx_HAL_Driver/Inc/stm32l0xx_ll_dma.h ****   * @rmtoll CCR          DIR           LL_DMA_GetDataTransferDirection\n
 615:Drivers/STM32L0xx_HAL_Driver/Inc/stm32l0xx_ll_dma.h ****   *         CCR          MEM2MEM       LL_DMA_GetDataTransferDirection
 616:Drivers/STM32L0xx_HAL_Driver/Inc/stm32l0xx_ll_dma.h ****   * @param  DMAx DMAx Instance
 617:Drivers/STM32L0xx_HAL_Driver/Inc/stm32l0xx_ll_dma.h ****   * @param  Channel This parameter can be one of the following values:
 618:Drivers/STM32L0xx_HAL_Driver/Inc/stm32l0xx_ll_dma.h ****   *         @arg @ref LL_DMA_CHANNEL_1
 619:Drivers/STM32L0xx_HAL_Driver/Inc/stm32l0xx_ll_dma.h ****   *         @arg @ref LL_DMA_CHANNEL_2
 620:Drivers/STM32L0xx_HAL_Driver/Inc/stm32l0xx_ll_dma.h ****   *         @arg @ref LL_DMA_CHANNEL_3
 621:Drivers/STM32L0xx_HAL_Driver/Inc/stm32l0xx_ll_dma.h ****   *         @arg @ref LL_DMA_CHANNEL_4
 622:Drivers/STM32L0xx_HAL_Driver/Inc/stm32l0xx_ll_dma.h ****   *         @arg @ref LL_DMA_CHANNEL_5
 623:Drivers/STM32L0xx_HAL_Driver/Inc/stm32l0xx_ll_dma.h ****   *         @arg @ref LL_DMA_CHANNEL_6
 624:Drivers/STM32L0xx_HAL_Driver/Inc/stm32l0xx_ll_dma.h ****   *         @arg @ref LL_DMA_CHANNEL_7
 625:Drivers/STM32L0xx_HAL_Driver/Inc/stm32l0xx_ll_dma.h ****   * @retval Returned value can be one of the following values:
 626:Drivers/STM32L0xx_HAL_Driver/Inc/stm32l0xx_ll_dma.h ****   *         @arg @ref LL_DMA_DIRECTION_PERIPH_TO_MEMORY
 627:Drivers/STM32L0xx_HAL_Driver/Inc/stm32l0xx_ll_dma.h ****   *         @arg @ref LL_DMA_DIRECTION_MEMORY_TO_PERIPH
 628:Drivers/STM32L0xx_HAL_Driver/Inc/stm32l0xx_ll_dma.h ****   *         @arg @ref LL_DMA_DIRECTION_MEMORY_TO_MEMORY
 629:Drivers/STM32L0xx_HAL_Driver/Inc/stm32l0xx_ll_dma.h ****   */
 630:Drivers/STM32L0xx_HAL_Driver/Inc/stm32l0xx_ll_dma.h **** __STATIC_INLINE uint32_t LL_DMA_GetDataTransferDirection(DMA_TypeDef *DMAx, uint32_t Channel)
 631:Drivers/STM32L0xx_HAL_Driver/Inc/stm32l0xx_ll_dma.h **** {
 632:Drivers/STM32L0xx_HAL_Driver/Inc/stm32l0xx_ll_dma.h ****   return (READ_BIT(((DMA_Channel_TypeDef *)((uint32_t)((uint32_t)DMAx + CHANNEL_OFFSET_TAB[Channel 
 633:Drivers/STM32L0xx_HAL_Driver/Inc/stm32l0xx_ll_dma.h ****                    DMA_CCR_DIR | DMA_CCR_MEM2MEM));
 634:Drivers/STM32L0xx_HAL_Driver/Inc/stm32l0xx_ll_dma.h **** }
 635:Drivers/STM32L0xx_HAL_Driver/Inc/stm32l0xx_ll_dma.h **** 
 636:Drivers/STM32L0xx_HAL_Driver/Inc/stm32l0xx_ll_dma.h **** /**
 637:Drivers/STM32L0xx_HAL_Driver/Inc/stm32l0xx_ll_dma.h ****   * @brief  Set DMA mode circular or normal.
 638:Drivers/STM32L0xx_HAL_Driver/Inc/stm32l0xx_ll_dma.h ****   * @note The circular buffer mode cannot be used if the memory-to-memory
 639:Drivers/STM32L0xx_HAL_Driver/Inc/stm32l0xx_ll_dma.h ****   * data transfer is configured on the selected Channel.
 640:Drivers/STM32L0xx_HAL_Driver/Inc/stm32l0xx_ll_dma.h ****   * @rmtoll CCR          CIRC          LL_DMA_SetMode
 641:Drivers/STM32L0xx_HAL_Driver/Inc/stm32l0xx_ll_dma.h ****   * @param  DMAx DMAx Instance
 642:Drivers/STM32L0xx_HAL_Driver/Inc/stm32l0xx_ll_dma.h ****   * @param  Channel This parameter can be one of the following values:
 643:Drivers/STM32L0xx_HAL_Driver/Inc/stm32l0xx_ll_dma.h ****   *         @arg @ref LL_DMA_CHANNEL_1
 644:Drivers/STM32L0xx_HAL_Driver/Inc/stm32l0xx_ll_dma.h ****   *         @arg @ref LL_DMA_CHANNEL_2
 645:Drivers/STM32L0xx_HAL_Driver/Inc/stm32l0xx_ll_dma.h ****   *         @arg @ref LL_DMA_CHANNEL_3
 646:Drivers/STM32L0xx_HAL_Driver/Inc/stm32l0xx_ll_dma.h ****   *         @arg @ref LL_DMA_CHANNEL_4
 647:Drivers/STM32L0xx_HAL_Driver/Inc/stm32l0xx_ll_dma.h ****   *         @arg @ref LL_DMA_CHANNEL_5
 648:Drivers/STM32L0xx_HAL_Driver/Inc/stm32l0xx_ll_dma.h ****   *         @arg @ref LL_DMA_CHANNEL_6
 649:Drivers/STM32L0xx_HAL_Driver/Inc/stm32l0xx_ll_dma.h ****   *         @arg @ref LL_DMA_CHANNEL_7
ARM GAS  /tmp/cccFncD6.s 			page 34


 650:Drivers/STM32L0xx_HAL_Driver/Inc/stm32l0xx_ll_dma.h ****   * @param  Mode This parameter can be one of the following values:
 651:Drivers/STM32L0xx_HAL_Driver/Inc/stm32l0xx_ll_dma.h ****   *         @arg @ref LL_DMA_MODE_NORMAL
 652:Drivers/STM32L0xx_HAL_Driver/Inc/stm32l0xx_ll_dma.h ****   *         @arg @ref LL_DMA_MODE_CIRCULAR
 653:Drivers/STM32L0xx_HAL_Driver/Inc/stm32l0xx_ll_dma.h ****   * @retval None
 654:Drivers/STM32L0xx_HAL_Driver/Inc/stm32l0xx_ll_dma.h ****   */
 655:Drivers/STM32L0xx_HAL_Driver/Inc/stm32l0xx_ll_dma.h **** __STATIC_INLINE void LL_DMA_SetMode(DMA_TypeDef *DMAx, uint32_t Channel, uint32_t Mode)
 656:Drivers/STM32L0xx_HAL_Driver/Inc/stm32l0xx_ll_dma.h **** {
 657:Drivers/STM32L0xx_HAL_Driver/Inc/stm32l0xx_ll_dma.h ****   MODIFY_REG(((DMA_Channel_TypeDef *)((uint32_t)((uint32_t)DMAx + CHANNEL_OFFSET_TAB[Channel - 1U])
 658:Drivers/STM32L0xx_HAL_Driver/Inc/stm32l0xx_ll_dma.h ****              Mode);
 659:Drivers/STM32L0xx_HAL_Driver/Inc/stm32l0xx_ll_dma.h **** }
 660:Drivers/STM32L0xx_HAL_Driver/Inc/stm32l0xx_ll_dma.h **** 
 661:Drivers/STM32L0xx_HAL_Driver/Inc/stm32l0xx_ll_dma.h **** /**
 662:Drivers/STM32L0xx_HAL_Driver/Inc/stm32l0xx_ll_dma.h ****   * @brief  Get DMA mode circular or normal.
 663:Drivers/STM32L0xx_HAL_Driver/Inc/stm32l0xx_ll_dma.h ****   * @rmtoll CCR          CIRC          LL_DMA_GetMode
 664:Drivers/STM32L0xx_HAL_Driver/Inc/stm32l0xx_ll_dma.h ****   * @param  DMAx DMAx Instance
 665:Drivers/STM32L0xx_HAL_Driver/Inc/stm32l0xx_ll_dma.h ****   * @param  Channel This parameter can be one of the following values:
 666:Drivers/STM32L0xx_HAL_Driver/Inc/stm32l0xx_ll_dma.h ****   *         @arg @ref LL_DMA_CHANNEL_1
 667:Drivers/STM32L0xx_HAL_Driver/Inc/stm32l0xx_ll_dma.h ****   *         @arg @ref LL_DMA_CHANNEL_2
 668:Drivers/STM32L0xx_HAL_Driver/Inc/stm32l0xx_ll_dma.h ****   *         @arg @ref LL_DMA_CHANNEL_3
 669:Drivers/STM32L0xx_HAL_Driver/Inc/stm32l0xx_ll_dma.h ****   *         @arg @ref LL_DMA_CHANNEL_4
 670:Drivers/STM32L0xx_HAL_Driver/Inc/stm32l0xx_ll_dma.h ****   *         @arg @ref LL_DMA_CHANNEL_5
 671:Drivers/STM32L0xx_HAL_Driver/Inc/stm32l0xx_ll_dma.h ****   *         @arg @ref LL_DMA_CHANNEL_6
 672:Drivers/STM32L0xx_HAL_Driver/Inc/stm32l0xx_ll_dma.h ****   *         @arg @ref LL_DMA_CHANNEL_7
 673:Drivers/STM32L0xx_HAL_Driver/Inc/stm32l0xx_ll_dma.h ****   * @retval Returned value can be one of the following values:
 674:Drivers/STM32L0xx_HAL_Driver/Inc/stm32l0xx_ll_dma.h ****   *         @arg @ref LL_DMA_MODE_NORMAL
 675:Drivers/STM32L0xx_HAL_Driver/Inc/stm32l0xx_ll_dma.h ****   *         @arg @ref LL_DMA_MODE_CIRCULAR
 676:Drivers/STM32L0xx_HAL_Driver/Inc/stm32l0xx_ll_dma.h ****   */
 677:Drivers/STM32L0xx_HAL_Driver/Inc/stm32l0xx_ll_dma.h **** __STATIC_INLINE uint32_t LL_DMA_GetMode(DMA_TypeDef *DMAx, uint32_t Channel)
 678:Drivers/STM32L0xx_HAL_Driver/Inc/stm32l0xx_ll_dma.h **** {
 679:Drivers/STM32L0xx_HAL_Driver/Inc/stm32l0xx_ll_dma.h ****   return (READ_BIT(((DMA_Channel_TypeDef *)((uint32_t)((uint32_t)DMAx + CHANNEL_OFFSET_TAB[Channel 
 680:Drivers/STM32L0xx_HAL_Driver/Inc/stm32l0xx_ll_dma.h ****                    DMA_CCR_CIRC));
 681:Drivers/STM32L0xx_HAL_Driver/Inc/stm32l0xx_ll_dma.h **** }
 682:Drivers/STM32L0xx_HAL_Driver/Inc/stm32l0xx_ll_dma.h **** 
 683:Drivers/STM32L0xx_HAL_Driver/Inc/stm32l0xx_ll_dma.h **** /**
 684:Drivers/STM32L0xx_HAL_Driver/Inc/stm32l0xx_ll_dma.h ****   * @brief  Set Peripheral increment mode.
 685:Drivers/STM32L0xx_HAL_Driver/Inc/stm32l0xx_ll_dma.h ****   * @rmtoll CCR          PINC          LL_DMA_SetPeriphIncMode
 686:Drivers/STM32L0xx_HAL_Driver/Inc/stm32l0xx_ll_dma.h ****   * @param  DMAx DMAx Instance
 687:Drivers/STM32L0xx_HAL_Driver/Inc/stm32l0xx_ll_dma.h ****   * @param  Channel This parameter can be one of the following values:
 688:Drivers/STM32L0xx_HAL_Driver/Inc/stm32l0xx_ll_dma.h ****   *         @arg @ref LL_DMA_CHANNEL_1
 689:Drivers/STM32L0xx_HAL_Driver/Inc/stm32l0xx_ll_dma.h ****   *         @arg @ref LL_DMA_CHANNEL_2
 690:Drivers/STM32L0xx_HAL_Driver/Inc/stm32l0xx_ll_dma.h ****   *         @arg @ref LL_DMA_CHANNEL_3
 691:Drivers/STM32L0xx_HAL_Driver/Inc/stm32l0xx_ll_dma.h ****   *         @arg @ref LL_DMA_CHANNEL_4
 692:Drivers/STM32L0xx_HAL_Driver/Inc/stm32l0xx_ll_dma.h ****   *         @arg @ref LL_DMA_CHANNEL_5
 693:Drivers/STM32L0xx_HAL_Driver/Inc/stm32l0xx_ll_dma.h ****   *         @arg @ref LL_DMA_CHANNEL_6
 694:Drivers/STM32L0xx_HAL_Driver/Inc/stm32l0xx_ll_dma.h ****   *         @arg @ref LL_DMA_CHANNEL_7
 695:Drivers/STM32L0xx_HAL_Driver/Inc/stm32l0xx_ll_dma.h ****   * @param  PeriphOrM2MSrcIncMode This parameter can be one of the following values:
 696:Drivers/STM32L0xx_HAL_Driver/Inc/stm32l0xx_ll_dma.h ****   *         @arg @ref LL_DMA_PERIPH_INCREMENT
 697:Drivers/STM32L0xx_HAL_Driver/Inc/stm32l0xx_ll_dma.h ****   *         @arg @ref LL_DMA_PERIPH_NOINCREMENT
 698:Drivers/STM32L0xx_HAL_Driver/Inc/stm32l0xx_ll_dma.h ****   * @retval None
 699:Drivers/STM32L0xx_HAL_Driver/Inc/stm32l0xx_ll_dma.h ****   */
 700:Drivers/STM32L0xx_HAL_Driver/Inc/stm32l0xx_ll_dma.h **** __STATIC_INLINE void LL_DMA_SetPeriphIncMode(DMA_TypeDef *DMAx, uint32_t Channel, uint32_t PeriphOr
 701:Drivers/STM32L0xx_HAL_Driver/Inc/stm32l0xx_ll_dma.h **** {
 702:Drivers/STM32L0xx_HAL_Driver/Inc/stm32l0xx_ll_dma.h ****   MODIFY_REG(((DMA_Channel_TypeDef *)((uint32_t)((uint32_t)DMAx + CHANNEL_OFFSET_TAB[Channel - 1U])
 703:Drivers/STM32L0xx_HAL_Driver/Inc/stm32l0xx_ll_dma.h ****              PeriphOrM2MSrcIncMode);
 704:Drivers/STM32L0xx_HAL_Driver/Inc/stm32l0xx_ll_dma.h **** }
 705:Drivers/STM32L0xx_HAL_Driver/Inc/stm32l0xx_ll_dma.h **** 
 706:Drivers/STM32L0xx_HAL_Driver/Inc/stm32l0xx_ll_dma.h **** /**
ARM GAS  /tmp/cccFncD6.s 			page 35


 707:Drivers/STM32L0xx_HAL_Driver/Inc/stm32l0xx_ll_dma.h ****   * @brief  Get Peripheral increment mode.
 708:Drivers/STM32L0xx_HAL_Driver/Inc/stm32l0xx_ll_dma.h ****   * @rmtoll CCR          PINC          LL_DMA_GetPeriphIncMode
 709:Drivers/STM32L0xx_HAL_Driver/Inc/stm32l0xx_ll_dma.h ****   * @param  DMAx DMAx Instance
 710:Drivers/STM32L0xx_HAL_Driver/Inc/stm32l0xx_ll_dma.h ****   * @param  Channel This parameter can be one of the following values:
 711:Drivers/STM32L0xx_HAL_Driver/Inc/stm32l0xx_ll_dma.h ****   *         @arg @ref LL_DMA_CHANNEL_1
 712:Drivers/STM32L0xx_HAL_Driver/Inc/stm32l0xx_ll_dma.h ****   *         @arg @ref LL_DMA_CHANNEL_2
 713:Drivers/STM32L0xx_HAL_Driver/Inc/stm32l0xx_ll_dma.h ****   *         @arg @ref LL_DMA_CHANNEL_3
 714:Drivers/STM32L0xx_HAL_Driver/Inc/stm32l0xx_ll_dma.h ****   *         @arg @ref LL_DMA_CHANNEL_4
 715:Drivers/STM32L0xx_HAL_Driver/Inc/stm32l0xx_ll_dma.h ****   *         @arg @ref LL_DMA_CHANNEL_5
 716:Drivers/STM32L0xx_HAL_Driver/Inc/stm32l0xx_ll_dma.h ****   *         @arg @ref LL_DMA_CHANNEL_6
 717:Drivers/STM32L0xx_HAL_Driver/Inc/stm32l0xx_ll_dma.h ****   *         @arg @ref LL_DMA_CHANNEL_7
 718:Drivers/STM32L0xx_HAL_Driver/Inc/stm32l0xx_ll_dma.h ****   * @retval Returned value can be one of the following values:
 719:Drivers/STM32L0xx_HAL_Driver/Inc/stm32l0xx_ll_dma.h ****   *         @arg @ref LL_DMA_PERIPH_INCREMENT
 720:Drivers/STM32L0xx_HAL_Driver/Inc/stm32l0xx_ll_dma.h ****   *         @arg @ref LL_DMA_PERIPH_NOINCREMENT
 721:Drivers/STM32L0xx_HAL_Driver/Inc/stm32l0xx_ll_dma.h ****   */
 722:Drivers/STM32L0xx_HAL_Driver/Inc/stm32l0xx_ll_dma.h **** __STATIC_INLINE uint32_t LL_DMA_GetPeriphIncMode(DMA_TypeDef *DMAx, uint32_t Channel)
 723:Drivers/STM32L0xx_HAL_Driver/Inc/stm32l0xx_ll_dma.h **** {
 724:Drivers/STM32L0xx_HAL_Driver/Inc/stm32l0xx_ll_dma.h ****   return (READ_BIT(((DMA_Channel_TypeDef *)((uint32_t)((uint32_t)DMAx + CHANNEL_OFFSET_TAB[Channel 
 725:Drivers/STM32L0xx_HAL_Driver/Inc/stm32l0xx_ll_dma.h ****                    DMA_CCR_PINC));
 726:Drivers/STM32L0xx_HAL_Driver/Inc/stm32l0xx_ll_dma.h **** }
 727:Drivers/STM32L0xx_HAL_Driver/Inc/stm32l0xx_ll_dma.h **** 
 728:Drivers/STM32L0xx_HAL_Driver/Inc/stm32l0xx_ll_dma.h **** /**
 729:Drivers/STM32L0xx_HAL_Driver/Inc/stm32l0xx_ll_dma.h ****   * @brief  Set Memory increment mode.
 730:Drivers/STM32L0xx_HAL_Driver/Inc/stm32l0xx_ll_dma.h ****   * @rmtoll CCR          MINC          LL_DMA_SetMemoryIncMode
 731:Drivers/STM32L0xx_HAL_Driver/Inc/stm32l0xx_ll_dma.h ****   * @param  DMAx DMAx Instance
 732:Drivers/STM32L0xx_HAL_Driver/Inc/stm32l0xx_ll_dma.h ****   * @param  Channel This parameter can be one of the following values:
 733:Drivers/STM32L0xx_HAL_Driver/Inc/stm32l0xx_ll_dma.h ****   *         @arg @ref LL_DMA_CHANNEL_1
 734:Drivers/STM32L0xx_HAL_Driver/Inc/stm32l0xx_ll_dma.h ****   *         @arg @ref LL_DMA_CHANNEL_2
 735:Drivers/STM32L0xx_HAL_Driver/Inc/stm32l0xx_ll_dma.h ****   *         @arg @ref LL_DMA_CHANNEL_3
 736:Drivers/STM32L0xx_HAL_Driver/Inc/stm32l0xx_ll_dma.h ****   *         @arg @ref LL_DMA_CHANNEL_4
 737:Drivers/STM32L0xx_HAL_Driver/Inc/stm32l0xx_ll_dma.h ****   *         @arg @ref LL_DMA_CHANNEL_5
 738:Drivers/STM32L0xx_HAL_Driver/Inc/stm32l0xx_ll_dma.h ****   *         @arg @ref LL_DMA_CHANNEL_6
 739:Drivers/STM32L0xx_HAL_Driver/Inc/stm32l0xx_ll_dma.h ****   *         @arg @ref LL_DMA_CHANNEL_7
 740:Drivers/STM32L0xx_HAL_Driver/Inc/stm32l0xx_ll_dma.h ****   * @param  MemoryOrM2MDstIncMode This parameter can be one of the following values:
 741:Drivers/STM32L0xx_HAL_Driver/Inc/stm32l0xx_ll_dma.h ****   *         @arg @ref LL_DMA_MEMORY_INCREMENT
 742:Drivers/STM32L0xx_HAL_Driver/Inc/stm32l0xx_ll_dma.h ****   *         @arg @ref LL_DMA_MEMORY_NOINCREMENT
 743:Drivers/STM32L0xx_HAL_Driver/Inc/stm32l0xx_ll_dma.h ****   * @retval None
 744:Drivers/STM32L0xx_HAL_Driver/Inc/stm32l0xx_ll_dma.h ****   */
 745:Drivers/STM32L0xx_HAL_Driver/Inc/stm32l0xx_ll_dma.h **** __STATIC_INLINE void LL_DMA_SetMemoryIncMode(DMA_TypeDef *DMAx, uint32_t Channel, uint32_t MemoryOr
 746:Drivers/STM32L0xx_HAL_Driver/Inc/stm32l0xx_ll_dma.h **** {
 747:Drivers/STM32L0xx_HAL_Driver/Inc/stm32l0xx_ll_dma.h ****   MODIFY_REG(((DMA_Channel_TypeDef *)((uint32_t)((uint32_t)DMAx + CHANNEL_OFFSET_TAB[Channel - 1U])
 748:Drivers/STM32L0xx_HAL_Driver/Inc/stm32l0xx_ll_dma.h ****              MemoryOrM2MDstIncMode);
 749:Drivers/STM32L0xx_HAL_Driver/Inc/stm32l0xx_ll_dma.h **** }
 750:Drivers/STM32L0xx_HAL_Driver/Inc/stm32l0xx_ll_dma.h **** 
 751:Drivers/STM32L0xx_HAL_Driver/Inc/stm32l0xx_ll_dma.h **** /**
 752:Drivers/STM32L0xx_HAL_Driver/Inc/stm32l0xx_ll_dma.h ****   * @brief  Get Memory increment mode.
 753:Drivers/STM32L0xx_HAL_Driver/Inc/stm32l0xx_ll_dma.h ****   * @rmtoll CCR          MINC          LL_DMA_GetMemoryIncMode
 754:Drivers/STM32L0xx_HAL_Driver/Inc/stm32l0xx_ll_dma.h ****   * @param  DMAx DMAx Instance
 755:Drivers/STM32L0xx_HAL_Driver/Inc/stm32l0xx_ll_dma.h ****   * @param  Channel This parameter can be one of the following values:
 756:Drivers/STM32L0xx_HAL_Driver/Inc/stm32l0xx_ll_dma.h ****   *         @arg @ref LL_DMA_CHANNEL_1
 757:Drivers/STM32L0xx_HAL_Driver/Inc/stm32l0xx_ll_dma.h ****   *         @arg @ref LL_DMA_CHANNEL_2
 758:Drivers/STM32L0xx_HAL_Driver/Inc/stm32l0xx_ll_dma.h ****   *         @arg @ref LL_DMA_CHANNEL_3
 759:Drivers/STM32L0xx_HAL_Driver/Inc/stm32l0xx_ll_dma.h ****   *         @arg @ref LL_DMA_CHANNEL_4
 760:Drivers/STM32L0xx_HAL_Driver/Inc/stm32l0xx_ll_dma.h ****   *         @arg @ref LL_DMA_CHANNEL_5
 761:Drivers/STM32L0xx_HAL_Driver/Inc/stm32l0xx_ll_dma.h ****   *         @arg @ref LL_DMA_CHANNEL_6
 762:Drivers/STM32L0xx_HAL_Driver/Inc/stm32l0xx_ll_dma.h ****   *         @arg @ref LL_DMA_CHANNEL_7
 763:Drivers/STM32L0xx_HAL_Driver/Inc/stm32l0xx_ll_dma.h ****   * @retval Returned value can be one of the following values:
ARM GAS  /tmp/cccFncD6.s 			page 36


 764:Drivers/STM32L0xx_HAL_Driver/Inc/stm32l0xx_ll_dma.h ****   *         @arg @ref LL_DMA_MEMORY_INCREMENT
 765:Drivers/STM32L0xx_HAL_Driver/Inc/stm32l0xx_ll_dma.h ****   *         @arg @ref LL_DMA_MEMORY_NOINCREMENT
 766:Drivers/STM32L0xx_HAL_Driver/Inc/stm32l0xx_ll_dma.h ****   */
 767:Drivers/STM32L0xx_HAL_Driver/Inc/stm32l0xx_ll_dma.h **** __STATIC_INLINE uint32_t LL_DMA_GetMemoryIncMode(DMA_TypeDef *DMAx, uint32_t Channel)
 768:Drivers/STM32L0xx_HAL_Driver/Inc/stm32l0xx_ll_dma.h **** {
 769:Drivers/STM32L0xx_HAL_Driver/Inc/stm32l0xx_ll_dma.h ****   return (READ_BIT(((DMA_Channel_TypeDef *)((uint32_t)((uint32_t)DMAx + CHANNEL_OFFSET_TAB[Channel 
 770:Drivers/STM32L0xx_HAL_Driver/Inc/stm32l0xx_ll_dma.h ****                    DMA_CCR_MINC));
 771:Drivers/STM32L0xx_HAL_Driver/Inc/stm32l0xx_ll_dma.h **** }
 772:Drivers/STM32L0xx_HAL_Driver/Inc/stm32l0xx_ll_dma.h **** 
 773:Drivers/STM32L0xx_HAL_Driver/Inc/stm32l0xx_ll_dma.h **** /**
 774:Drivers/STM32L0xx_HAL_Driver/Inc/stm32l0xx_ll_dma.h ****   * @brief  Set Peripheral size.
 775:Drivers/STM32L0xx_HAL_Driver/Inc/stm32l0xx_ll_dma.h ****   * @rmtoll CCR          PSIZE         LL_DMA_SetPeriphSize
 776:Drivers/STM32L0xx_HAL_Driver/Inc/stm32l0xx_ll_dma.h ****   * @param  DMAx DMAx Instance
 777:Drivers/STM32L0xx_HAL_Driver/Inc/stm32l0xx_ll_dma.h ****   * @param  Channel This parameter can be one of the following values:
 778:Drivers/STM32L0xx_HAL_Driver/Inc/stm32l0xx_ll_dma.h ****   *         @arg @ref LL_DMA_CHANNEL_1
 779:Drivers/STM32L0xx_HAL_Driver/Inc/stm32l0xx_ll_dma.h ****   *         @arg @ref LL_DMA_CHANNEL_2
 780:Drivers/STM32L0xx_HAL_Driver/Inc/stm32l0xx_ll_dma.h ****   *         @arg @ref LL_DMA_CHANNEL_3
 781:Drivers/STM32L0xx_HAL_Driver/Inc/stm32l0xx_ll_dma.h ****   *         @arg @ref LL_DMA_CHANNEL_4
 782:Drivers/STM32L0xx_HAL_Driver/Inc/stm32l0xx_ll_dma.h ****   *         @arg @ref LL_DMA_CHANNEL_5
 783:Drivers/STM32L0xx_HAL_Driver/Inc/stm32l0xx_ll_dma.h ****   *         @arg @ref LL_DMA_CHANNEL_6
 784:Drivers/STM32L0xx_HAL_Driver/Inc/stm32l0xx_ll_dma.h ****   *         @arg @ref LL_DMA_CHANNEL_7
 785:Drivers/STM32L0xx_HAL_Driver/Inc/stm32l0xx_ll_dma.h ****   * @param  PeriphOrM2MSrcDataSize This parameter can be one of the following values:
 786:Drivers/STM32L0xx_HAL_Driver/Inc/stm32l0xx_ll_dma.h ****   *         @arg @ref LL_DMA_PDATAALIGN_BYTE
 787:Drivers/STM32L0xx_HAL_Driver/Inc/stm32l0xx_ll_dma.h ****   *         @arg @ref LL_DMA_PDATAALIGN_HALFWORD
 788:Drivers/STM32L0xx_HAL_Driver/Inc/stm32l0xx_ll_dma.h ****   *         @arg @ref LL_DMA_PDATAALIGN_WORD
 789:Drivers/STM32L0xx_HAL_Driver/Inc/stm32l0xx_ll_dma.h ****   * @retval None
 790:Drivers/STM32L0xx_HAL_Driver/Inc/stm32l0xx_ll_dma.h ****   */
 791:Drivers/STM32L0xx_HAL_Driver/Inc/stm32l0xx_ll_dma.h **** __STATIC_INLINE void LL_DMA_SetPeriphSize(DMA_TypeDef *DMAx, uint32_t Channel, uint32_t PeriphOrM2M
 792:Drivers/STM32L0xx_HAL_Driver/Inc/stm32l0xx_ll_dma.h **** {
 793:Drivers/STM32L0xx_HAL_Driver/Inc/stm32l0xx_ll_dma.h ****   MODIFY_REG(((DMA_Channel_TypeDef *)((uint32_t)((uint32_t)DMAx + CHANNEL_OFFSET_TAB[Channel - 1U])
 794:Drivers/STM32L0xx_HAL_Driver/Inc/stm32l0xx_ll_dma.h ****              PeriphOrM2MSrcDataSize);
 795:Drivers/STM32L0xx_HAL_Driver/Inc/stm32l0xx_ll_dma.h **** }
 796:Drivers/STM32L0xx_HAL_Driver/Inc/stm32l0xx_ll_dma.h **** 
 797:Drivers/STM32L0xx_HAL_Driver/Inc/stm32l0xx_ll_dma.h **** /**
 798:Drivers/STM32L0xx_HAL_Driver/Inc/stm32l0xx_ll_dma.h ****   * @brief  Get Peripheral size.
 799:Drivers/STM32L0xx_HAL_Driver/Inc/stm32l0xx_ll_dma.h ****   * @rmtoll CCR          PSIZE         LL_DMA_GetPeriphSize
 800:Drivers/STM32L0xx_HAL_Driver/Inc/stm32l0xx_ll_dma.h ****   * @param  DMAx DMAx Instance
 801:Drivers/STM32L0xx_HAL_Driver/Inc/stm32l0xx_ll_dma.h ****   * @param  Channel This parameter can be one of the following values:
 802:Drivers/STM32L0xx_HAL_Driver/Inc/stm32l0xx_ll_dma.h ****   *         @arg @ref LL_DMA_CHANNEL_1
 803:Drivers/STM32L0xx_HAL_Driver/Inc/stm32l0xx_ll_dma.h ****   *         @arg @ref LL_DMA_CHANNEL_2
 804:Drivers/STM32L0xx_HAL_Driver/Inc/stm32l0xx_ll_dma.h ****   *         @arg @ref LL_DMA_CHANNEL_3
 805:Drivers/STM32L0xx_HAL_Driver/Inc/stm32l0xx_ll_dma.h ****   *         @arg @ref LL_DMA_CHANNEL_4
 806:Drivers/STM32L0xx_HAL_Driver/Inc/stm32l0xx_ll_dma.h ****   *         @arg @ref LL_DMA_CHANNEL_5
 807:Drivers/STM32L0xx_HAL_Driver/Inc/stm32l0xx_ll_dma.h ****   *         @arg @ref LL_DMA_CHANNEL_6
 808:Drivers/STM32L0xx_HAL_Driver/Inc/stm32l0xx_ll_dma.h ****   *         @arg @ref LL_DMA_CHANNEL_7
 809:Drivers/STM32L0xx_HAL_Driver/Inc/stm32l0xx_ll_dma.h ****   * @retval Returned value can be one of the following values:
 810:Drivers/STM32L0xx_HAL_Driver/Inc/stm32l0xx_ll_dma.h ****   *         @arg @ref LL_DMA_PDATAALIGN_BYTE
 811:Drivers/STM32L0xx_HAL_Driver/Inc/stm32l0xx_ll_dma.h ****   *         @arg @ref LL_DMA_PDATAALIGN_HALFWORD
 812:Drivers/STM32L0xx_HAL_Driver/Inc/stm32l0xx_ll_dma.h ****   *         @arg @ref LL_DMA_PDATAALIGN_WORD
 813:Drivers/STM32L0xx_HAL_Driver/Inc/stm32l0xx_ll_dma.h ****   */
 814:Drivers/STM32L0xx_HAL_Driver/Inc/stm32l0xx_ll_dma.h **** __STATIC_INLINE uint32_t LL_DMA_GetPeriphSize(DMA_TypeDef *DMAx, uint32_t Channel)
 815:Drivers/STM32L0xx_HAL_Driver/Inc/stm32l0xx_ll_dma.h **** {
 816:Drivers/STM32L0xx_HAL_Driver/Inc/stm32l0xx_ll_dma.h ****   return (READ_BIT(((DMA_Channel_TypeDef *)((uint32_t)((uint32_t)DMAx + CHANNEL_OFFSET_TAB[Channel 
 817:Drivers/STM32L0xx_HAL_Driver/Inc/stm32l0xx_ll_dma.h ****                    DMA_CCR_PSIZE));
 818:Drivers/STM32L0xx_HAL_Driver/Inc/stm32l0xx_ll_dma.h **** }
 819:Drivers/STM32L0xx_HAL_Driver/Inc/stm32l0xx_ll_dma.h **** 
 820:Drivers/STM32L0xx_HAL_Driver/Inc/stm32l0xx_ll_dma.h **** /**
ARM GAS  /tmp/cccFncD6.s 			page 37


 821:Drivers/STM32L0xx_HAL_Driver/Inc/stm32l0xx_ll_dma.h ****   * @brief  Set Memory size.
 822:Drivers/STM32L0xx_HAL_Driver/Inc/stm32l0xx_ll_dma.h ****   * @rmtoll CCR          MSIZE         LL_DMA_SetMemorySize
 823:Drivers/STM32L0xx_HAL_Driver/Inc/stm32l0xx_ll_dma.h ****   * @param  DMAx DMAx Instance
 824:Drivers/STM32L0xx_HAL_Driver/Inc/stm32l0xx_ll_dma.h ****   * @param  Channel This parameter can be one of the following values:
 825:Drivers/STM32L0xx_HAL_Driver/Inc/stm32l0xx_ll_dma.h ****   *         @arg @ref LL_DMA_CHANNEL_1
 826:Drivers/STM32L0xx_HAL_Driver/Inc/stm32l0xx_ll_dma.h ****   *         @arg @ref LL_DMA_CHANNEL_2
 827:Drivers/STM32L0xx_HAL_Driver/Inc/stm32l0xx_ll_dma.h ****   *         @arg @ref LL_DMA_CHANNEL_3
 828:Drivers/STM32L0xx_HAL_Driver/Inc/stm32l0xx_ll_dma.h ****   *         @arg @ref LL_DMA_CHANNEL_4
 829:Drivers/STM32L0xx_HAL_Driver/Inc/stm32l0xx_ll_dma.h ****   *         @arg @ref LL_DMA_CHANNEL_5
 830:Drivers/STM32L0xx_HAL_Driver/Inc/stm32l0xx_ll_dma.h ****   *         @arg @ref LL_DMA_CHANNEL_6
 831:Drivers/STM32L0xx_HAL_Driver/Inc/stm32l0xx_ll_dma.h ****   *         @arg @ref LL_DMA_CHANNEL_7
 832:Drivers/STM32L0xx_HAL_Driver/Inc/stm32l0xx_ll_dma.h ****   * @param  MemoryOrM2MDstDataSize This parameter can be one of the following values:
 833:Drivers/STM32L0xx_HAL_Driver/Inc/stm32l0xx_ll_dma.h ****   *         @arg @ref LL_DMA_MDATAALIGN_BYTE
 834:Drivers/STM32L0xx_HAL_Driver/Inc/stm32l0xx_ll_dma.h ****   *         @arg @ref LL_DMA_MDATAALIGN_HALFWORD
 835:Drivers/STM32L0xx_HAL_Driver/Inc/stm32l0xx_ll_dma.h ****   *         @arg @ref LL_DMA_MDATAALIGN_WORD
 836:Drivers/STM32L0xx_HAL_Driver/Inc/stm32l0xx_ll_dma.h ****   * @retval None
 837:Drivers/STM32L0xx_HAL_Driver/Inc/stm32l0xx_ll_dma.h ****   */
 838:Drivers/STM32L0xx_HAL_Driver/Inc/stm32l0xx_ll_dma.h **** __STATIC_INLINE void LL_DMA_SetMemorySize(DMA_TypeDef *DMAx, uint32_t Channel, uint32_t MemoryOrM2M
 839:Drivers/STM32L0xx_HAL_Driver/Inc/stm32l0xx_ll_dma.h **** {
 840:Drivers/STM32L0xx_HAL_Driver/Inc/stm32l0xx_ll_dma.h ****   MODIFY_REG(((DMA_Channel_TypeDef *)((uint32_t)((uint32_t)DMAx + CHANNEL_OFFSET_TAB[Channel - 1U])
 841:Drivers/STM32L0xx_HAL_Driver/Inc/stm32l0xx_ll_dma.h ****              MemoryOrM2MDstDataSize);
 842:Drivers/STM32L0xx_HAL_Driver/Inc/stm32l0xx_ll_dma.h **** }
 843:Drivers/STM32L0xx_HAL_Driver/Inc/stm32l0xx_ll_dma.h **** 
 844:Drivers/STM32L0xx_HAL_Driver/Inc/stm32l0xx_ll_dma.h **** /**
 845:Drivers/STM32L0xx_HAL_Driver/Inc/stm32l0xx_ll_dma.h ****   * @brief  Get Memory size.
 846:Drivers/STM32L0xx_HAL_Driver/Inc/stm32l0xx_ll_dma.h ****   * @rmtoll CCR          MSIZE         LL_DMA_GetMemorySize
 847:Drivers/STM32L0xx_HAL_Driver/Inc/stm32l0xx_ll_dma.h ****   * @param  DMAx DMAx Instance
 848:Drivers/STM32L0xx_HAL_Driver/Inc/stm32l0xx_ll_dma.h ****   * @param  Channel This parameter can be one of the following values:
 849:Drivers/STM32L0xx_HAL_Driver/Inc/stm32l0xx_ll_dma.h ****   *         @arg @ref LL_DMA_CHANNEL_1
 850:Drivers/STM32L0xx_HAL_Driver/Inc/stm32l0xx_ll_dma.h ****   *         @arg @ref LL_DMA_CHANNEL_2
 851:Drivers/STM32L0xx_HAL_Driver/Inc/stm32l0xx_ll_dma.h ****   *         @arg @ref LL_DMA_CHANNEL_3
 852:Drivers/STM32L0xx_HAL_Driver/Inc/stm32l0xx_ll_dma.h ****   *         @arg @ref LL_DMA_CHANNEL_4
 853:Drivers/STM32L0xx_HAL_Driver/Inc/stm32l0xx_ll_dma.h ****   *         @arg @ref LL_DMA_CHANNEL_5
 854:Drivers/STM32L0xx_HAL_Driver/Inc/stm32l0xx_ll_dma.h ****   *         @arg @ref LL_DMA_CHANNEL_6
 855:Drivers/STM32L0xx_HAL_Driver/Inc/stm32l0xx_ll_dma.h ****   *         @arg @ref LL_DMA_CHANNEL_7
 856:Drivers/STM32L0xx_HAL_Driver/Inc/stm32l0xx_ll_dma.h ****   * @retval Returned value can be one of the following values:
 857:Drivers/STM32L0xx_HAL_Driver/Inc/stm32l0xx_ll_dma.h ****   *         @arg @ref LL_DMA_MDATAALIGN_BYTE
 858:Drivers/STM32L0xx_HAL_Driver/Inc/stm32l0xx_ll_dma.h ****   *         @arg @ref LL_DMA_MDATAALIGN_HALFWORD
 859:Drivers/STM32L0xx_HAL_Driver/Inc/stm32l0xx_ll_dma.h ****   *         @arg @ref LL_DMA_MDATAALIGN_WORD
 860:Drivers/STM32L0xx_HAL_Driver/Inc/stm32l0xx_ll_dma.h ****   */
 861:Drivers/STM32L0xx_HAL_Driver/Inc/stm32l0xx_ll_dma.h **** __STATIC_INLINE uint32_t LL_DMA_GetMemorySize(DMA_TypeDef *DMAx, uint32_t Channel)
 862:Drivers/STM32L0xx_HAL_Driver/Inc/stm32l0xx_ll_dma.h **** {
 863:Drivers/STM32L0xx_HAL_Driver/Inc/stm32l0xx_ll_dma.h ****   return (READ_BIT(((DMA_Channel_TypeDef *)((uint32_t)((uint32_t)DMAx + CHANNEL_OFFSET_TAB[Channel 
 864:Drivers/STM32L0xx_HAL_Driver/Inc/stm32l0xx_ll_dma.h ****                    DMA_CCR_MSIZE));
 865:Drivers/STM32L0xx_HAL_Driver/Inc/stm32l0xx_ll_dma.h **** }
 866:Drivers/STM32L0xx_HAL_Driver/Inc/stm32l0xx_ll_dma.h **** 
 867:Drivers/STM32L0xx_HAL_Driver/Inc/stm32l0xx_ll_dma.h **** /**
 868:Drivers/STM32L0xx_HAL_Driver/Inc/stm32l0xx_ll_dma.h ****   * @brief  Set Channel priority level.
 869:Drivers/STM32L0xx_HAL_Driver/Inc/stm32l0xx_ll_dma.h ****   * @rmtoll CCR          PL            LL_DMA_SetChannelPriorityLevel
 870:Drivers/STM32L0xx_HAL_Driver/Inc/stm32l0xx_ll_dma.h ****   * @param  DMAx DMAx Instance
 871:Drivers/STM32L0xx_HAL_Driver/Inc/stm32l0xx_ll_dma.h ****   * @param  Channel This parameter can be one of the following values:
 872:Drivers/STM32L0xx_HAL_Driver/Inc/stm32l0xx_ll_dma.h ****   *         @arg @ref LL_DMA_CHANNEL_1
 873:Drivers/STM32L0xx_HAL_Driver/Inc/stm32l0xx_ll_dma.h ****   *         @arg @ref LL_DMA_CHANNEL_2
 874:Drivers/STM32L0xx_HAL_Driver/Inc/stm32l0xx_ll_dma.h ****   *         @arg @ref LL_DMA_CHANNEL_3
 875:Drivers/STM32L0xx_HAL_Driver/Inc/stm32l0xx_ll_dma.h ****   *         @arg @ref LL_DMA_CHANNEL_4
 876:Drivers/STM32L0xx_HAL_Driver/Inc/stm32l0xx_ll_dma.h ****   *         @arg @ref LL_DMA_CHANNEL_5
 877:Drivers/STM32L0xx_HAL_Driver/Inc/stm32l0xx_ll_dma.h ****   *         @arg @ref LL_DMA_CHANNEL_6
ARM GAS  /tmp/cccFncD6.s 			page 38


 878:Drivers/STM32L0xx_HAL_Driver/Inc/stm32l0xx_ll_dma.h ****   *         @arg @ref LL_DMA_CHANNEL_7
 879:Drivers/STM32L0xx_HAL_Driver/Inc/stm32l0xx_ll_dma.h ****   * @param  Priority This parameter can be one of the following values:
 880:Drivers/STM32L0xx_HAL_Driver/Inc/stm32l0xx_ll_dma.h ****   *         @arg @ref LL_DMA_PRIORITY_LOW
 881:Drivers/STM32L0xx_HAL_Driver/Inc/stm32l0xx_ll_dma.h ****   *         @arg @ref LL_DMA_PRIORITY_MEDIUM
 882:Drivers/STM32L0xx_HAL_Driver/Inc/stm32l0xx_ll_dma.h ****   *         @arg @ref LL_DMA_PRIORITY_HIGH
 883:Drivers/STM32L0xx_HAL_Driver/Inc/stm32l0xx_ll_dma.h ****   *         @arg @ref LL_DMA_PRIORITY_VERYHIGH
 884:Drivers/STM32L0xx_HAL_Driver/Inc/stm32l0xx_ll_dma.h ****   * @retval None
 885:Drivers/STM32L0xx_HAL_Driver/Inc/stm32l0xx_ll_dma.h ****   */
 886:Drivers/STM32L0xx_HAL_Driver/Inc/stm32l0xx_ll_dma.h **** __STATIC_INLINE void LL_DMA_SetChannelPriorityLevel(DMA_TypeDef *DMAx, uint32_t Channel, uint32_t P
 887:Drivers/STM32L0xx_HAL_Driver/Inc/stm32l0xx_ll_dma.h **** {
 888:Drivers/STM32L0xx_HAL_Driver/Inc/stm32l0xx_ll_dma.h ****   MODIFY_REG(((DMA_Channel_TypeDef *)((uint32_t)((uint32_t)DMAx + CHANNEL_OFFSET_TAB[Channel - 1U])
 889:Drivers/STM32L0xx_HAL_Driver/Inc/stm32l0xx_ll_dma.h ****              Priority);
 890:Drivers/STM32L0xx_HAL_Driver/Inc/stm32l0xx_ll_dma.h **** }
 891:Drivers/STM32L0xx_HAL_Driver/Inc/stm32l0xx_ll_dma.h **** 
 892:Drivers/STM32L0xx_HAL_Driver/Inc/stm32l0xx_ll_dma.h **** /**
 893:Drivers/STM32L0xx_HAL_Driver/Inc/stm32l0xx_ll_dma.h ****   * @brief  Get Channel priority level.
 894:Drivers/STM32L0xx_HAL_Driver/Inc/stm32l0xx_ll_dma.h ****   * @rmtoll CCR          PL            LL_DMA_GetChannelPriorityLevel
 895:Drivers/STM32L0xx_HAL_Driver/Inc/stm32l0xx_ll_dma.h ****   * @param  DMAx DMAx Instance
 896:Drivers/STM32L0xx_HAL_Driver/Inc/stm32l0xx_ll_dma.h ****   * @param  Channel This parameter can be one of the following values:
 897:Drivers/STM32L0xx_HAL_Driver/Inc/stm32l0xx_ll_dma.h ****   *         @arg @ref LL_DMA_CHANNEL_1
 898:Drivers/STM32L0xx_HAL_Driver/Inc/stm32l0xx_ll_dma.h ****   *         @arg @ref LL_DMA_CHANNEL_2
 899:Drivers/STM32L0xx_HAL_Driver/Inc/stm32l0xx_ll_dma.h ****   *         @arg @ref LL_DMA_CHANNEL_3
 900:Drivers/STM32L0xx_HAL_Driver/Inc/stm32l0xx_ll_dma.h ****   *         @arg @ref LL_DMA_CHANNEL_4
 901:Drivers/STM32L0xx_HAL_Driver/Inc/stm32l0xx_ll_dma.h ****   *         @arg @ref LL_DMA_CHANNEL_5
 902:Drivers/STM32L0xx_HAL_Driver/Inc/stm32l0xx_ll_dma.h ****   *         @arg @ref LL_DMA_CHANNEL_6
 903:Drivers/STM32L0xx_HAL_Driver/Inc/stm32l0xx_ll_dma.h ****   *         @arg @ref LL_DMA_CHANNEL_7
 904:Drivers/STM32L0xx_HAL_Driver/Inc/stm32l0xx_ll_dma.h ****   * @retval Returned value can be one of the following values:
 905:Drivers/STM32L0xx_HAL_Driver/Inc/stm32l0xx_ll_dma.h ****   *         @arg @ref LL_DMA_PRIORITY_LOW
 906:Drivers/STM32L0xx_HAL_Driver/Inc/stm32l0xx_ll_dma.h ****   *         @arg @ref LL_DMA_PRIORITY_MEDIUM
 907:Drivers/STM32L0xx_HAL_Driver/Inc/stm32l0xx_ll_dma.h ****   *         @arg @ref LL_DMA_PRIORITY_HIGH
 908:Drivers/STM32L0xx_HAL_Driver/Inc/stm32l0xx_ll_dma.h ****   *         @arg @ref LL_DMA_PRIORITY_VERYHIGH
 909:Drivers/STM32L0xx_HAL_Driver/Inc/stm32l0xx_ll_dma.h ****   */
 910:Drivers/STM32L0xx_HAL_Driver/Inc/stm32l0xx_ll_dma.h **** __STATIC_INLINE uint32_t LL_DMA_GetChannelPriorityLevel(DMA_TypeDef *DMAx, uint32_t Channel)
 911:Drivers/STM32L0xx_HAL_Driver/Inc/stm32l0xx_ll_dma.h **** {
 912:Drivers/STM32L0xx_HAL_Driver/Inc/stm32l0xx_ll_dma.h ****   return (READ_BIT(((DMA_Channel_TypeDef *)((uint32_t)((uint32_t)DMAx + CHANNEL_OFFSET_TAB[Channel 
 913:Drivers/STM32L0xx_HAL_Driver/Inc/stm32l0xx_ll_dma.h ****                    DMA_CCR_PL));
 914:Drivers/STM32L0xx_HAL_Driver/Inc/stm32l0xx_ll_dma.h **** }
 915:Drivers/STM32L0xx_HAL_Driver/Inc/stm32l0xx_ll_dma.h **** 
 916:Drivers/STM32L0xx_HAL_Driver/Inc/stm32l0xx_ll_dma.h **** /**
 917:Drivers/STM32L0xx_HAL_Driver/Inc/stm32l0xx_ll_dma.h ****   * @brief  Set Number of data to transfer.
 918:Drivers/STM32L0xx_HAL_Driver/Inc/stm32l0xx_ll_dma.h ****   * @note   This action has no effect if
 919:Drivers/STM32L0xx_HAL_Driver/Inc/stm32l0xx_ll_dma.h ****   *         channel is enabled.
 920:Drivers/STM32L0xx_HAL_Driver/Inc/stm32l0xx_ll_dma.h ****   * @rmtoll CNDTR        NDT           LL_DMA_SetDataLength
 921:Drivers/STM32L0xx_HAL_Driver/Inc/stm32l0xx_ll_dma.h ****   * @param  DMAx DMAx Instance
 922:Drivers/STM32L0xx_HAL_Driver/Inc/stm32l0xx_ll_dma.h ****   * @param  Channel This parameter can be one of the following values:
 923:Drivers/STM32L0xx_HAL_Driver/Inc/stm32l0xx_ll_dma.h ****   *         @arg @ref LL_DMA_CHANNEL_1
 924:Drivers/STM32L0xx_HAL_Driver/Inc/stm32l0xx_ll_dma.h ****   *         @arg @ref LL_DMA_CHANNEL_2
 925:Drivers/STM32L0xx_HAL_Driver/Inc/stm32l0xx_ll_dma.h ****   *         @arg @ref LL_DMA_CHANNEL_3
 926:Drivers/STM32L0xx_HAL_Driver/Inc/stm32l0xx_ll_dma.h ****   *         @arg @ref LL_DMA_CHANNEL_4
 927:Drivers/STM32L0xx_HAL_Driver/Inc/stm32l0xx_ll_dma.h ****   *         @arg @ref LL_DMA_CHANNEL_5
 928:Drivers/STM32L0xx_HAL_Driver/Inc/stm32l0xx_ll_dma.h ****   *         @arg @ref LL_DMA_CHANNEL_6
 929:Drivers/STM32L0xx_HAL_Driver/Inc/stm32l0xx_ll_dma.h ****   *         @arg @ref LL_DMA_CHANNEL_7
 930:Drivers/STM32L0xx_HAL_Driver/Inc/stm32l0xx_ll_dma.h ****   * @param  NbData Between Min_Data = 0 and Max_Data = 0x0000FFFF
 931:Drivers/STM32L0xx_HAL_Driver/Inc/stm32l0xx_ll_dma.h ****   * @retval None
 932:Drivers/STM32L0xx_HAL_Driver/Inc/stm32l0xx_ll_dma.h ****   */
 933:Drivers/STM32L0xx_HAL_Driver/Inc/stm32l0xx_ll_dma.h **** __STATIC_INLINE void LL_DMA_SetDataLength(DMA_TypeDef *DMAx, uint32_t Channel, uint32_t NbData)
 934:Drivers/STM32L0xx_HAL_Driver/Inc/stm32l0xx_ll_dma.h **** {
ARM GAS  /tmp/cccFncD6.s 			page 39


 935:Drivers/STM32L0xx_HAL_Driver/Inc/stm32l0xx_ll_dma.h ****   MODIFY_REG(((DMA_Channel_TypeDef *)((uint32_t)((uint32_t)DMAx + CHANNEL_OFFSET_TAB[Channel - 1U])
 936:Drivers/STM32L0xx_HAL_Driver/Inc/stm32l0xx_ll_dma.h ****              DMA_CNDTR_NDT, NbData);
 937:Drivers/STM32L0xx_HAL_Driver/Inc/stm32l0xx_ll_dma.h **** }
 938:Drivers/STM32L0xx_HAL_Driver/Inc/stm32l0xx_ll_dma.h **** 
 939:Drivers/STM32L0xx_HAL_Driver/Inc/stm32l0xx_ll_dma.h **** /**
 940:Drivers/STM32L0xx_HAL_Driver/Inc/stm32l0xx_ll_dma.h ****   * @brief  Get Number of data to transfer.
 941:Drivers/STM32L0xx_HAL_Driver/Inc/stm32l0xx_ll_dma.h ****   * @note   Once the channel is enabled, the return value indicate the
 942:Drivers/STM32L0xx_HAL_Driver/Inc/stm32l0xx_ll_dma.h ****   *         remaining bytes to be transmitted.
 943:Drivers/STM32L0xx_HAL_Driver/Inc/stm32l0xx_ll_dma.h ****   * @rmtoll CNDTR        NDT           LL_DMA_GetDataLength
 944:Drivers/STM32L0xx_HAL_Driver/Inc/stm32l0xx_ll_dma.h ****   * @param  DMAx DMAx Instance
 945:Drivers/STM32L0xx_HAL_Driver/Inc/stm32l0xx_ll_dma.h ****   * @param  Channel This parameter can be one of the following values:
 946:Drivers/STM32L0xx_HAL_Driver/Inc/stm32l0xx_ll_dma.h ****   *         @arg @ref LL_DMA_CHANNEL_1
 947:Drivers/STM32L0xx_HAL_Driver/Inc/stm32l0xx_ll_dma.h ****   *         @arg @ref LL_DMA_CHANNEL_2
 948:Drivers/STM32L0xx_HAL_Driver/Inc/stm32l0xx_ll_dma.h ****   *         @arg @ref LL_DMA_CHANNEL_3
 949:Drivers/STM32L0xx_HAL_Driver/Inc/stm32l0xx_ll_dma.h ****   *         @arg @ref LL_DMA_CHANNEL_4
 950:Drivers/STM32L0xx_HAL_Driver/Inc/stm32l0xx_ll_dma.h ****   *         @arg @ref LL_DMA_CHANNEL_5
 951:Drivers/STM32L0xx_HAL_Driver/Inc/stm32l0xx_ll_dma.h ****   *         @arg @ref LL_DMA_CHANNEL_6
 952:Drivers/STM32L0xx_HAL_Driver/Inc/stm32l0xx_ll_dma.h ****   *         @arg @ref LL_DMA_CHANNEL_7
 953:Drivers/STM32L0xx_HAL_Driver/Inc/stm32l0xx_ll_dma.h ****   * @retval Between Min_Data = 0 and Max_Data = 0xFFFFFFFF
 954:Drivers/STM32L0xx_HAL_Driver/Inc/stm32l0xx_ll_dma.h ****   */
 955:Drivers/STM32L0xx_HAL_Driver/Inc/stm32l0xx_ll_dma.h **** __STATIC_INLINE uint32_t LL_DMA_GetDataLength(DMA_TypeDef *DMAx, uint32_t Channel)
 956:Drivers/STM32L0xx_HAL_Driver/Inc/stm32l0xx_ll_dma.h **** {
 957:Drivers/STM32L0xx_HAL_Driver/Inc/stm32l0xx_ll_dma.h ****   return (READ_BIT(((DMA_Channel_TypeDef *)((uint32_t)((uint32_t)DMAx + CHANNEL_OFFSET_TAB[Channel 
 958:Drivers/STM32L0xx_HAL_Driver/Inc/stm32l0xx_ll_dma.h ****                    DMA_CNDTR_NDT));
 959:Drivers/STM32L0xx_HAL_Driver/Inc/stm32l0xx_ll_dma.h **** }
 960:Drivers/STM32L0xx_HAL_Driver/Inc/stm32l0xx_ll_dma.h **** 
 961:Drivers/STM32L0xx_HAL_Driver/Inc/stm32l0xx_ll_dma.h **** /**
 962:Drivers/STM32L0xx_HAL_Driver/Inc/stm32l0xx_ll_dma.h ****   * @brief  Configure the Source and Destination addresses.
 963:Drivers/STM32L0xx_HAL_Driver/Inc/stm32l0xx_ll_dma.h ****   * @note   This API must not be called when the DMA channel is enabled.
 964:Drivers/STM32L0xx_HAL_Driver/Inc/stm32l0xx_ll_dma.h ****   * @note   Each IP using DMA provides an API to get directly the register adress (LL_PPP_DMA_GetRe
 965:Drivers/STM32L0xx_HAL_Driver/Inc/stm32l0xx_ll_dma.h ****   * @rmtoll CPAR         PA            LL_DMA_ConfigAddresses\n
 966:Drivers/STM32L0xx_HAL_Driver/Inc/stm32l0xx_ll_dma.h ****   *         CMAR         MA            LL_DMA_ConfigAddresses
 967:Drivers/STM32L0xx_HAL_Driver/Inc/stm32l0xx_ll_dma.h ****   * @param  DMAx DMAx Instance
 968:Drivers/STM32L0xx_HAL_Driver/Inc/stm32l0xx_ll_dma.h ****   * @param  Channel This parameter can be one of the following values:
 969:Drivers/STM32L0xx_HAL_Driver/Inc/stm32l0xx_ll_dma.h ****   *         @arg @ref LL_DMA_CHANNEL_1
 970:Drivers/STM32L0xx_HAL_Driver/Inc/stm32l0xx_ll_dma.h ****   *         @arg @ref LL_DMA_CHANNEL_2
 971:Drivers/STM32L0xx_HAL_Driver/Inc/stm32l0xx_ll_dma.h ****   *         @arg @ref LL_DMA_CHANNEL_3
 972:Drivers/STM32L0xx_HAL_Driver/Inc/stm32l0xx_ll_dma.h ****   *         @arg @ref LL_DMA_CHANNEL_4
 973:Drivers/STM32L0xx_HAL_Driver/Inc/stm32l0xx_ll_dma.h ****   *         @arg @ref LL_DMA_CHANNEL_5
 974:Drivers/STM32L0xx_HAL_Driver/Inc/stm32l0xx_ll_dma.h ****   *         @arg @ref LL_DMA_CHANNEL_6
 975:Drivers/STM32L0xx_HAL_Driver/Inc/stm32l0xx_ll_dma.h ****   *         @arg @ref LL_DMA_CHANNEL_7
 976:Drivers/STM32L0xx_HAL_Driver/Inc/stm32l0xx_ll_dma.h ****   * @param  SrcAddress Between Min_Data = 0 and Max_Data = 0xFFFFFFFF
 977:Drivers/STM32L0xx_HAL_Driver/Inc/stm32l0xx_ll_dma.h ****   * @param  DstAddress Between Min_Data = 0 and Max_Data = 0xFFFFFFFF
 978:Drivers/STM32L0xx_HAL_Driver/Inc/stm32l0xx_ll_dma.h ****   * @param  Direction This parameter can be one of the following values:
 979:Drivers/STM32L0xx_HAL_Driver/Inc/stm32l0xx_ll_dma.h ****   *         @arg @ref LL_DMA_DIRECTION_PERIPH_TO_MEMORY
 980:Drivers/STM32L0xx_HAL_Driver/Inc/stm32l0xx_ll_dma.h ****   *         @arg @ref LL_DMA_DIRECTION_MEMORY_TO_PERIPH
 981:Drivers/STM32L0xx_HAL_Driver/Inc/stm32l0xx_ll_dma.h ****   *         @arg @ref LL_DMA_DIRECTION_MEMORY_TO_MEMORY
 982:Drivers/STM32L0xx_HAL_Driver/Inc/stm32l0xx_ll_dma.h ****   * @retval None
 983:Drivers/STM32L0xx_HAL_Driver/Inc/stm32l0xx_ll_dma.h ****   */
 984:Drivers/STM32L0xx_HAL_Driver/Inc/stm32l0xx_ll_dma.h **** __STATIC_INLINE void LL_DMA_ConfigAddresses(DMA_TypeDef *DMAx, uint32_t Channel, uint32_t SrcAddres
 985:Drivers/STM32L0xx_HAL_Driver/Inc/stm32l0xx_ll_dma.h ****                                             uint32_t DstAddress, uint32_t Direction)
 986:Drivers/STM32L0xx_HAL_Driver/Inc/stm32l0xx_ll_dma.h **** {
 987:Drivers/STM32L0xx_HAL_Driver/Inc/stm32l0xx_ll_dma.h ****   /* Direction Memory to Periph */
 988:Drivers/STM32L0xx_HAL_Driver/Inc/stm32l0xx_ll_dma.h ****   if (Direction == LL_DMA_DIRECTION_MEMORY_TO_PERIPH)
 989:Drivers/STM32L0xx_HAL_Driver/Inc/stm32l0xx_ll_dma.h ****   {
 990:Drivers/STM32L0xx_HAL_Driver/Inc/stm32l0xx_ll_dma.h ****     WRITE_REG(((DMA_Channel_TypeDef *)((uint32_t)((uint32_t)DMAx + CHANNEL_OFFSET_TAB[Channel - 1U]
 991:Drivers/STM32L0xx_HAL_Driver/Inc/stm32l0xx_ll_dma.h ****     WRITE_REG(((DMA_Channel_TypeDef *)((uint32_t)((uint32_t)DMAx + CHANNEL_OFFSET_TAB[Channel - 1U]
ARM GAS  /tmp/cccFncD6.s 			page 40


 992:Drivers/STM32L0xx_HAL_Driver/Inc/stm32l0xx_ll_dma.h ****   }
 993:Drivers/STM32L0xx_HAL_Driver/Inc/stm32l0xx_ll_dma.h ****   /* Direction Periph to Memory and Memory to Memory */
 994:Drivers/STM32L0xx_HAL_Driver/Inc/stm32l0xx_ll_dma.h ****   else
 995:Drivers/STM32L0xx_HAL_Driver/Inc/stm32l0xx_ll_dma.h ****   {
 996:Drivers/STM32L0xx_HAL_Driver/Inc/stm32l0xx_ll_dma.h ****     WRITE_REG(((DMA_Channel_TypeDef *)((uint32_t)((uint32_t)DMAx + CHANNEL_OFFSET_TAB[Channel - 1U]
 997:Drivers/STM32L0xx_HAL_Driver/Inc/stm32l0xx_ll_dma.h ****     WRITE_REG(((DMA_Channel_TypeDef *)((uint32_t)((uint32_t)DMAx + CHANNEL_OFFSET_TAB[Channel - 1U]
 998:Drivers/STM32L0xx_HAL_Driver/Inc/stm32l0xx_ll_dma.h ****   }
 999:Drivers/STM32L0xx_HAL_Driver/Inc/stm32l0xx_ll_dma.h **** }
1000:Drivers/STM32L0xx_HAL_Driver/Inc/stm32l0xx_ll_dma.h **** 
1001:Drivers/STM32L0xx_HAL_Driver/Inc/stm32l0xx_ll_dma.h **** /**
1002:Drivers/STM32L0xx_HAL_Driver/Inc/stm32l0xx_ll_dma.h ****   * @brief  Set the Memory address.
1003:Drivers/STM32L0xx_HAL_Driver/Inc/stm32l0xx_ll_dma.h ****   * @note   Interface used for direction LL_DMA_DIRECTION_PERIPH_TO_MEMORY or LL_DMA_DIRECTION_MEMO
1004:Drivers/STM32L0xx_HAL_Driver/Inc/stm32l0xx_ll_dma.h ****   * @note   This API must not be called when the DMA channel is enabled.
1005:Drivers/STM32L0xx_HAL_Driver/Inc/stm32l0xx_ll_dma.h ****   * @rmtoll CMAR         MA            LL_DMA_SetMemoryAddress
1006:Drivers/STM32L0xx_HAL_Driver/Inc/stm32l0xx_ll_dma.h ****   * @param  DMAx DMAx Instance
1007:Drivers/STM32L0xx_HAL_Driver/Inc/stm32l0xx_ll_dma.h ****   * @param  Channel This parameter can be one of the following values:
1008:Drivers/STM32L0xx_HAL_Driver/Inc/stm32l0xx_ll_dma.h ****   *         @arg @ref LL_DMA_CHANNEL_1
1009:Drivers/STM32L0xx_HAL_Driver/Inc/stm32l0xx_ll_dma.h ****   *         @arg @ref LL_DMA_CHANNEL_2
1010:Drivers/STM32L0xx_HAL_Driver/Inc/stm32l0xx_ll_dma.h ****   *         @arg @ref LL_DMA_CHANNEL_3
1011:Drivers/STM32L0xx_HAL_Driver/Inc/stm32l0xx_ll_dma.h ****   *         @arg @ref LL_DMA_CHANNEL_4
1012:Drivers/STM32L0xx_HAL_Driver/Inc/stm32l0xx_ll_dma.h ****   *         @arg @ref LL_DMA_CHANNEL_5
1013:Drivers/STM32L0xx_HAL_Driver/Inc/stm32l0xx_ll_dma.h ****   *         @arg @ref LL_DMA_CHANNEL_6
1014:Drivers/STM32L0xx_HAL_Driver/Inc/stm32l0xx_ll_dma.h ****   *         @arg @ref LL_DMA_CHANNEL_7
1015:Drivers/STM32L0xx_HAL_Driver/Inc/stm32l0xx_ll_dma.h ****   * @param  MemoryAddress Between Min_Data = 0 and Max_Data = 0xFFFFFFFF
1016:Drivers/STM32L0xx_HAL_Driver/Inc/stm32l0xx_ll_dma.h ****   * @retval None
1017:Drivers/STM32L0xx_HAL_Driver/Inc/stm32l0xx_ll_dma.h ****   */
1018:Drivers/STM32L0xx_HAL_Driver/Inc/stm32l0xx_ll_dma.h **** __STATIC_INLINE void LL_DMA_SetMemoryAddress(DMA_TypeDef *DMAx, uint32_t Channel, uint32_t MemoryAd
1019:Drivers/STM32L0xx_HAL_Driver/Inc/stm32l0xx_ll_dma.h **** {
1020:Drivers/STM32L0xx_HAL_Driver/Inc/stm32l0xx_ll_dma.h ****   WRITE_REG(((DMA_Channel_TypeDef *)((uint32_t)((uint32_t)DMAx + CHANNEL_OFFSET_TAB[Channel - 1U]))
1021:Drivers/STM32L0xx_HAL_Driver/Inc/stm32l0xx_ll_dma.h **** }
1022:Drivers/STM32L0xx_HAL_Driver/Inc/stm32l0xx_ll_dma.h **** 
1023:Drivers/STM32L0xx_HAL_Driver/Inc/stm32l0xx_ll_dma.h **** /**
1024:Drivers/STM32L0xx_HAL_Driver/Inc/stm32l0xx_ll_dma.h ****   * @brief  Set the Peripheral address.
1025:Drivers/STM32L0xx_HAL_Driver/Inc/stm32l0xx_ll_dma.h ****   * @note   Interface used for direction LL_DMA_DIRECTION_PERIPH_TO_MEMORY or LL_DMA_DIRECTION_MEMO
1026:Drivers/STM32L0xx_HAL_Driver/Inc/stm32l0xx_ll_dma.h ****   * @note   This API must not be called when the DMA channel is enabled.
1027:Drivers/STM32L0xx_HAL_Driver/Inc/stm32l0xx_ll_dma.h ****   * @rmtoll CPAR         PA            LL_DMA_SetPeriphAddress
1028:Drivers/STM32L0xx_HAL_Driver/Inc/stm32l0xx_ll_dma.h ****   * @param  DMAx DMAx Instance
1029:Drivers/STM32L0xx_HAL_Driver/Inc/stm32l0xx_ll_dma.h ****   * @param  Channel This parameter can be one of the following values:
1030:Drivers/STM32L0xx_HAL_Driver/Inc/stm32l0xx_ll_dma.h ****   *         @arg @ref LL_DMA_CHANNEL_1
1031:Drivers/STM32L0xx_HAL_Driver/Inc/stm32l0xx_ll_dma.h ****   *         @arg @ref LL_DMA_CHANNEL_2
1032:Drivers/STM32L0xx_HAL_Driver/Inc/stm32l0xx_ll_dma.h ****   *         @arg @ref LL_DMA_CHANNEL_3
1033:Drivers/STM32L0xx_HAL_Driver/Inc/stm32l0xx_ll_dma.h ****   *         @arg @ref LL_DMA_CHANNEL_4
1034:Drivers/STM32L0xx_HAL_Driver/Inc/stm32l0xx_ll_dma.h ****   *         @arg @ref LL_DMA_CHANNEL_5
1035:Drivers/STM32L0xx_HAL_Driver/Inc/stm32l0xx_ll_dma.h ****   *         @arg @ref LL_DMA_CHANNEL_6
1036:Drivers/STM32L0xx_HAL_Driver/Inc/stm32l0xx_ll_dma.h ****   *         @arg @ref LL_DMA_CHANNEL_7
1037:Drivers/STM32L0xx_HAL_Driver/Inc/stm32l0xx_ll_dma.h ****   * @param  PeriphAddress Between Min_Data = 0 and Max_Data = 0xFFFFFFFF
1038:Drivers/STM32L0xx_HAL_Driver/Inc/stm32l0xx_ll_dma.h ****   * @retval None
1039:Drivers/STM32L0xx_HAL_Driver/Inc/stm32l0xx_ll_dma.h ****   */
1040:Drivers/STM32L0xx_HAL_Driver/Inc/stm32l0xx_ll_dma.h **** __STATIC_INLINE void LL_DMA_SetPeriphAddress(DMA_TypeDef *DMAx, uint32_t Channel, uint32_t PeriphAd
1041:Drivers/STM32L0xx_HAL_Driver/Inc/stm32l0xx_ll_dma.h **** {
1042:Drivers/STM32L0xx_HAL_Driver/Inc/stm32l0xx_ll_dma.h ****   WRITE_REG(((DMA_Channel_TypeDef *)((uint32_t)((uint32_t)DMAx + CHANNEL_OFFSET_TAB[Channel - 1U]))
1043:Drivers/STM32L0xx_HAL_Driver/Inc/stm32l0xx_ll_dma.h **** }
1044:Drivers/STM32L0xx_HAL_Driver/Inc/stm32l0xx_ll_dma.h **** 
1045:Drivers/STM32L0xx_HAL_Driver/Inc/stm32l0xx_ll_dma.h **** /**
1046:Drivers/STM32L0xx_HAL_Driver/Inc/stm32l0xx_ll_dma.h ****   * @brief  Get Memory address.
1047:Drivers/STM32L0xx_HAL_Driver/Inc/stm32l0xx_ll_dma.h ****   * @note   Interface used for direction LL_DMA_DIRECTION_PERIPH_TO_MEMORY or LL_DMA_DIRECTION_MEMO
1048:Drivers/STM32L0xx_HAL_Driver/Inc/stm32l0xx_ll_dma.h ****   * @rmtoll CMAR         MA            LL_DMA_GetMemoryAddress
ARM GAS  /tmp/cccFncD6.s 			page 41


1049:Drivers/STM32L0xx_HAL_Driver/Inc/stm32l0xx_ll_dma.h ****   * @param  DMAx DMAx Instance
1050:Drivers/STM32L0xx_HAL_Driver/Inc/stm32l0xx_ll_dma.h ****   * @param  Channel This parameter can be one of the following values:
1051:Drivers/STM32L0xx_HAL_Driver/Inc/stm32l0xx_ll_dma.h ****   *         @arg @ref LL_DMA_CHANNEL_1
1052:Drivers/STM32L0xx_HAL_Driver/Inc/stm32l0xx_ll_dma.h ****   *         @arg @ref LL_DMA_CHANNEL_2
1053:Drivers/STM32L0xx_HAL_Driver/Inc/stm32l0xx_ll_dma.h ****   *         @arg @ref LL_DMA_CHANNEL_3
1054:Drivers/STM32L0xx_HAL_Driver/Inc/stm32l0xx_ll_dma.h ****   *         @arg @ref LL_DMA_CHANNEL_4
1055:Drivers/STM32L0xx_HAL_Driver/Inc/stm32l0xx_ll_dma.h ****   *         @arg @ref LL_DMA_CHANNEL_5
1056:Drivers/STM32L0xx_HAL_Driver/Inc/stm32l0xx_ll_dma.h ****   *         @arg @ref LL_DMA_CHANNEL_6
1057:Drivers/STM32L0xx_HAL_Driver/Inc/stm32l0xx_ll_dma.h ****   *         @arg @ref LL_DMA_CHANNEL_7
1058:Drivers/STM32L0xx_HAL_Driver/Inc/stm32l0xx_ll_dma.h ****   * @retval Between Min_Data = 0 and Max_Data = 0xFFFFFFFF
1059:Drivers/STM32L0xx_HAL_Driver/Inc/stm32l0xx_ll_dma.h ****   */
1060:Drivers/STM32L0xx_HAL_Driver/Inc/stm32l0xx_ll_dma.h **** __STATIC_INLINE uint32_t LL_DMA_GetMemoryAddress(DMA_TypeDef *DMAx, uint32_t Channel)
1061:Drivers/STM32L0xx_HAL_Driver/Inc/stm32l0xx_ll_dma.h **** {
1062:Drivers/STM32L0xx_HAL_Driver/Inc/stm32l0xx_ll_dma.h ****   return (READ_REG(((DMA_Channel_TypeDef *)((uint32_t)((uint32_t)DMAx + CHANNEL_OFFSET_TAB[Channel 
1063:Drivers/STM32L0xx_HAL_Driver/Inc/stm32l0xx_ll_dma.h **** }
1064:Drivers/STM32L0xx_HAL_Driver/Inc/stm32l0xx_ll_dma.h **** 
1065:Drivers/STM32L0xx_HAL_Driver/Inc/stm32l0xx_ll_dma.h **** /**
1066:Drivers/STM32L0xx_HAL_Driver/Inc/stm32l0xx_ll_dma.h ****   * @brief  Get Peripheral address.
1067:Drivers/STM32L0xx_HAL_Driver/Inc/stm32l0xx_ll_dma.h ****   * @note   Interface used for direction LL_DMA_DIRECTION_PERIPH_TO_MEMORY or LL_DMA_DIRECTION_MEMO
1068:Drivers/STM32L0xx_HAL_Driver/Inc/stm32l0xx_ll_dma.h ****   * @rmtoll CPAR         PA            LL_DMA_GetPeriphAddress
1069:Drivers/STM32L0xx_HAL_Driver/Inc/stm32l0xx_ll_dma.h ****   * @param  DMAx DMAx Instance
1070:Drivers/STM32L0xx_HAL_Driver/Inc/stm32l0xx_ll_dma.h ****   * @param  Channel This parameter can be one of the following values:
1071:Drivers/STM32L0xx_HAL_Driver/Inc/stm32l0xx_ll_dma.h ****   *         @arg @ref LL_DMA_CHANNEL_1
1072:Drivers/STM32L0xx_HAL_Driver/Inc/stm32l0xx_ll_dma.h ****   *         @arg @ref LL_DMA_CHANNEL_2
1073:Drivers/STM32L0xx_HAL_Driver/Inc/stm32l0xx_ll_dma.h ****   *         @arg @ref LL_DMA_CHANNEL_3
1074:Drivers/STM32L0xx_HAL_Driver/Inc/stm32l0xx_ll_dma.h ****   *         @arg @ref LL_DMA_CHANNEL_4
1075:Drivers/STM32L0xx_HAL_Driver/Inc/stm32l0xx_ll_dma.h ****   *         @arg @ref LL_DMA_CHANNEL_5
1076:Drivers/STM32L0xx_HAL_Driver/Inc/stm32l0xx_ll_dma.h ****   *         @arg @ref LL_DMA_CHANNEL_6
1077:Drivers/STM32L0xx_HAL_Driver/Inc/stm32l0xx_ll_dma.h ****   *         @arg @ref LL_DMA_CHANNEL_7
1078:Drivers/STM32L0xx_HAL_Driver/Inc/stm32l0xx_ll_dma.h ****   * @retval Between Min_Data = 0 and Max_Data = 0xFFFFFFFF
1079:Drivers/STM32L0xx_HAL_Driver/Inc/stm32l0xx_ll_dma.h ****   */
1080:Drivers/STM32L0xx_HAL_Driver/Inc/stm32l0xx_ll_dma.h **** __STATIC_INLINE uint32_t LL_DMA_GetPeriphAddress(DMA_TypeDef *DMAx, uint32_t Channel)
1081:Drivers/STM32L0xx_HAL_Driver/Inc/stm32l0xx_ll_dma.h **** {
1082:Drivers/STM32L0xx_HAL_Driver/Inc/stm32l0xx_ll_dma.h ****   return (READ_REG(((DMA_Channel_TypeDef *)((uint32_t)((uint32_t)DMAx + CHANNEL_OFFSET_TAB[Channel 
1083:Drivers/STM32L0xx_HAL_Driver/Inc/stm32l0xx_ll_dma.h **** }
1084:Drivers/STM32L0xx_HAL_Driver/Inc/stm32l0xx_ll_dma.h **** 
1085:Drivers/STM32L0xx_HAL_Driver/Inc/stm32l0xx_ll_dma.h **** /**
1086:Drivers/STM32L0xx_HAL_Driver/Inc/stm32l0xx_ll_dma.h ****   * @brief  Set the Memory to Memory Source address.
1087:Drivers/STM32L0xx_HAL_Driver/Inc/stm32l0xx_ll_dma.h ****   * @note   Interface used for direction LL_DMA_DIRECTION_MEMORY_TO_MEMORY only.
1088:Drivers/STM32L0xx_HAL_Driver/Inc/stm32l0xx_ll_dma.h ****   * @note   This API must not be called when the DMA channel is enabled.
1089:Drivers/STM32L0xx_HAL_Driver/Inc/stm32l0xx_ll_dma.h ****   * @rmtoll CPAR         PA            LL_DMA_SetM2MSrcAddress
1090:Drivers/STM32L0xx_HAL_Driver/Inc/stm32l0xx_ll_dma.h ****   * @param  DMAx DMAx Instance
1091:Drivers/STM32L0xx_HAL_Driver/Inc/stm32l0xx_ll_dma.h ****   * @param  Channel This parameter can be one of the following values:
1092:Drivers/STM32L0xx_HAL_Driver/Inc/stm32l0xx_ll_dma.h ****   *         @arg @ref LL_DMA_CHANNEL_1
1093:Drivers/STM32L0xx_HAL_Driver/Inc/stm32l0xx_ll_dma.h ****   *         @arg @ref LL_DMA_CHANNEL_2
1094:Drivers/STM32L0xx_HAL_Driver/Inc/stm32l0xx_ll_dma.h ****   *         @arg @ref LL_DMA_CHANNEL_3
1095:Drivers/STM32L0xx_HAL_Driver/Inc/stm32l0xx_ll_dma.h ****   *         @arg @ref LL_DMA_CHANNEL_4
1096:Drivers/STM32L0xx_HAL_Driver/Inc/stm32l0xx_ll_dma.h ****   *         @arg @ref LL_DMA_CHANNEL_5
1097:Drivers/STM32L0xx_HAL_Driver/Inc/stm32l0xx_ll_dma.h ****   *         @arg @ref LL_DMA_CHANNEL_6
1098:Drivers/STM32L0xx_HAL_Driver/Inc/stm32l0xx_ll_dma.h ****   *         @arg @ref LL_DMA_CHANNEL_7
1099:Drivers/STM32L0xx_HAL_Driver/Inc/stm32l0xx_ll_dma.h ****   * @param  MemoryAddress Between Min_Data = 0 and Max_Data = 0xFFFFFFFF
1100:Drivers/STM32L0xx_HAL_Driver/Inc/stm32l0xx_ll_dma.h ****   * @retval None
1101:Drivers/STM32L0xx_HAL_Driver/Inc/stm32l0xx_ll_dma.h ****   */
1102:Drivers/STM32L0xx_HAL_Driver/Inc/stm32l0xx_ll_dma.h **** __STATIC_INLINE void LL_DMA_SetM2MSrcAddress(DMA_TypeDef *DMAx, uint32_t Channel, uint32_t MemoryAd
1103:Drivers/STM32L0xx_HAL_Driver/Inc/stm32l0xx_ll_dma.h **** {
1104:Drivers/STM32L0xx_HAL_Driver/Inc/stm32l0xx_ll_dma.h ****   WRITE_REG(((DMA_Channel_TypeDef *)((uint32_t)((uint32_t)DMAx + CHANNEL_OFFSET_TAB[Channel - 1U]))
1105:Drivers/STM32L0xx_HAL_Driver/Inc/stm32l0xx_ll_dma.h **** }
ARM GAS  /tmp/cccFncD6.s 			page 42


1106:Drivers/STM32L0xx_HAL_Driver/Inc/stm32l0xx_ll_dma.h **** 
1107:Drivers/STM32L0xx_HAL_Driver/Inc/stm32l0xx_ll_dma.h **** /**
1108:Drivers/STM32L0xx_HAL_Driver/Inc/stm32l0xx_ll_dma.h ****   * @brief  Set the Memory to Memory Destination address.
1109:Drivers/STM32L0xx_HAL_Driver/Inc/stm32l0xx_ll_dma.h ****   * @note   Interface used for direction LL_DMA_DIRECTION_MEMORY_TO_MEMORY only.
1110:Drivers/STM32L0xx_HAL_Driver/Inc/stm32l0xx_ll_dma.h ****   * @note   This API must not be called when the DMA channel is enabled.
1111:Drivers/STM32L0xx_HAL_Driver/Inc/stm32l0xx_ll_dma.h ****   * @rmtoll CMAR         MA            LL_DMA_SetM2MDstAddress
1112:Drivers/STM32L0xx_HAL_Driver/Inc/stm32l0xx_ll_dma.h ****   * @param  DMAx DMAx Instance
1113:Drivers/STM32L0xx_HAL_Driver/Inc/stm32l0xx_ll_dma.h ****   * @param  Channel This parameter can be one of the following values:
1114:Drivers/STM32L0xx_HAL_Driver/Inc/stm32l0xx_ll_dma.h ****   *         @arg @ref LL_DMA_CHANNEL_1
1115:Drivers/STM32L0xx_HAL_Driver/Inc/stm32l0xx_ll_dma.h ****   *         @arg @ref LL_DMA_CHANNEL_2
1116:Drivers/STM32L0xx_HAL_Driver/Inc/stm32l0xx_ll_dma.h ****   *         @arg @ref LL_DMA_CHANNEL_3
1117:Drivers/STM32L0xx_HAL_Driver/Inc/stm32l0xx_ll_dma.h ****   *         @arg @ref LL_DMA_CHANNEL_4
1118:Drivers/STM32L0xx_HAL_Driver/Inc/stm32l0xx_ll_dma.h ****   *         @arg @ref LL_DMA_CHANNEL_5
1119:Drivers/STM32L0xx_HAL_Driver/Inc/stm32l0xx_ll_dma.h ****   *         @arg @ref LL_DMA_CHANNEL_6
1120:Drivers/STM32L0xx_HAL_Driver/Inc/stm32l0xx_ll_dma.h ****   *         @arg @ref LL_DMA_CHANNEL_7
1121:Drivers/STM32L0xx_HAL_Driver/Inc/stm32l0xx_ll_dma.h ****   * @param  MemoryAddress Between Min_Data = 0 and Max_Data = 0xFFFFFFFF
1122:Drivers/STM32L0xx_HAL_Driver/Inc/stm32l0xx_ll_dma.h ****   * @retval None
1123:Drivers/STM32L0xx_HAL_Driver/Inc/stm32l0xx_ll_dma.h ****   */
1124:Drivers/STM32L0xx_HAL_Driver/Inc/stm32l0xx_ll_dma.h **** __STATIC_INLINE void LL_DMA_SetM2MDstAddress(DMA_TypeDef *DMAx, uint32_t Channel, uint32_t MemoryAd
1125:Drivers/STM32L0xx_HAL_Driver/Inc/stm32l0xx_ll_dma.h **** {
1126:Drivers/STM32L0xx_HAL_Driver/Inc/stm32l0xx_ll_dma.h ****   WRITE_REG(((DMA_Channel_TypeDef *)((uint32_t)((uint32_t)DMAx + CHANNEL_OFFSET_TAB[Channel - 1U]))
1127:Drivers/STM32L0xx_HAL_Driver/Inc/stm32l0xx_ll_dma.h **** }
1128:Drivers/STM32L0xx_HAL_Driver/Inc/stm32l0xx_ll_dma.h **** 
1129:Drivers/STM32L0xx_HAL_Driver/Inc/stm32l0xx_ll_dma.h **** /**
1130:Drivers/STM32L0xx_HAL_Driver/Inc/stm32l0xx_ll_dma.h ****   * @brief  Get the Memory to Memory Source address.
1131:Drivers/STM32L0xx_HAL_Driver/Inc/stm32l0xx_ll_dma.h ****   * @note   Interface used for direction LL_DMA_DIRECTION_MEMORY_TO_MEMORY only.
1132:Drivers/STM32L0xx_HAL_Driver/Inc/stm32l0xx_ll_dma.h ****   * @rmtoll CPAR         PA            LL_DMA_GetM2MSrcAddress
1133:Drivers/STM32L0xx_HAL_Driver/Inc/stm32l0xx_ll_dma.h ****   * @param  DMAx DMAx Instance
1134:Drivers/STM32L0xx_HAL_Driver/Inc/stm32l0xx_ll_dma.h ****   * @param  Channel This parameter can be one of the following values:
1135:Drivers/STM32L0xx_HAL_Driver/Inc/stm32l0xx_ll_dma.h ****   *         @arg @ref LL_DMA_CHANNEL_1
1136:Drivers/STM32L0xx_HAL_Driver/Inc/stm32l0xx_ll_dma.h ****   *         @arg @ref LL_DMA_CHANNEL_2
1137:Drivers/STM32L0xx_HAL_Driver/Inc/stm32l0xx_ll_dma.h ****   *         @arg @ref LL_DMA_CHANNEL_3
1138:Drivers/STM32L0xx_HAL_Driver/Inc/stm32l0xx_ll_dma.h ****   *         @arg @ref LL_DMA_CHANNEL_4
1139:Drivers/STM32L0xx_HAL_Driver/Inc/stm32l0xx_ll_dma.h ****   *         @arg @ref LL_DMA_CHANNEL_5
1140:Drivers/STM32L0xx_HAL_Driver/Inc/stm32l0xx_ll_dma.h ****   *         @arg @ref LL_DMA_CHANNEL_6
1141:Drivers/STM32L0xx_HAL_Driver/Inc/stm32l0xx_ll_dma.h ****   *         @arg @ref LL_DMA_CHANNEL_7
1142:Drivers/STM32L0xx_HAL_Driver/Inc/stm32l0xx_ll_dma.h ****   * @retval Between Min_Data = 0 and Max_Data = 0xFFFFFFFF
1143:Drivers/STM32L0xx_HAL_Driver/Inc/stm32l0xx_ll_dma.h ****   */
1144:Drivers/STM32L0xx_HAL_Driver/Inc/stm32l0xx_ll_dma.h **** __STATIC_INLINE uint32_t LL_DMA_GetM2MSrcAddress(DMA_TypeDef *DMAx, uint32_t Channel)
1145:Drivers/STM32L0xx_HAL_Driver/Inc/stm32l0xx_ll_dma.h **** {
1146:Drivers/STM32L0xx_HAL_Driver/Inc/stm32l0xx_ll_dma.h ****   return (READ_REG(((DMA_Channel_TypeDef *)((uint32_t)((uint32_t)DMAx + CHANNEL_OFFSET_TAB[Channel 
1147:Drivers/STM32L0xx_HAL_Driver/Inc/stm32l0xx_ll_dma.h **** }
1148:Drivers/STM32L0xx_HAL_Driver/Inc/stm32l0xx_ll_dma.h **** 
1149:Drivers/STM32L0xx_HAL_Driver/Inc/stm32l0xx_ll_dma.h **** /**
1150:Drivers/STM32L0xx_HAL_Driver/Inc/stm32l0xx_ll_dma.h ****   * @brief  Get the Memory to Memory Destination address.
1151:Drivers/STM32L0xx_HAL_Driver/Inc/stm32l0xx_ll_dma.h ****   * @note   Interface used for direction LL_DMA_DIRECTION_MEMORY_TO_MEMORY only.
1152:Drivers/STM32L0xx_HAL_Driver/Inc/stm32l0xx_ll_dma.h ****   * @rmtoll CMAR         MA            LL_DMA_GetM2MDstAddress
1153:Drivers/STM32L0xx_HAL_Driver/Inc/stm32l0xx_ll_dma.h ****   * @param  DMAx DMAx Instance
1154:Drivers/STM32L0xx_HAL_Driver/Inc/stm32l0xx_ll_dma.h ****   * @param  Channel This parameter can be one of the following values:
1155:Drivers/STM32L0xx_HAL_Driver/Inc/stm32l0xx_ll_dma.h ****   *         @arg @ref LL_DMA_CHANNEL_1
1156:Drivers/STM32L0xx_HAL_Driver/Inc/stm32l0xx_ll_dma.h ****   *         @arg @ref LL_DMA_CHANNEL_2
1157:Drivers/STM32L0xx_HAL_Driver/Inc/stm32l0xx_ll_dma.h ****   *         @arg @ref LL_DMA_CHANNEL_3
1158:Drivers/STM32L0xx_HAL_Driver/Inc/stm32l0xx_ll_dma.h ****   *         @arg @ref LL_DMA_CHANNEL_4
1159:Drivers/STM32L0xx_HAL_Driver/Inc/stm32l0xx_ll_dma.h ****   *         @arg @ref LL_DMA_CHANNEL_5
1160:Drivers/STM32L0xx_HAL_Driver/Inc/stm32l0xx_ll_dma.h ****   *         @arg @ref LL_DMA_CHANNEL_6
1161:Drivers/STM32L0xx_HAL_Driver/Inc/stm32l0xx_ll_dma.h ****   *         @arg @ref LL_DMA_CHANNEL_7
1162:Drivers/STM32L0xx_HAL_Driver/Inc/stm32l0xx_ll_dma.h ****   * @retval Between Min_Data = 0 and Max_Data = 0xFFFFFFFF
ARM GAS  /tmp/cccFncD6.s 			page 43


1163:Drivers/STM32L0xx_HAL_Driver/Inc/stm32l0xx_ll_dma.h ****   */
1164:Drivers/STM32L0xx_HAL_Driver/Inc/stm32l0xx_ll_dma.h **** __STATIC_INLINE uint32_t LL_DMA_GetM2MDstAddress(DMA_TypeDef *DMAx, uint32_t Channel)
1165:Drivers/STM32L0xx_HAL_Driver/Inc/stm32l0xx_ll_dma.h **** {
1166:Drivers/STM32L0xx_HAL_Driver/Inc/stm32l0xx_ll_dma.h ****   return (READ_REG(((DMA_Channel_TypeDef *)((uint32_t)((uint32_t)DMAx + CHANNEL_OFFSET_TAB[Channel 
1167:Drivers/STM32L0xx_HAL_Driver/Inc/stm32l0xx_ll_dma.h **** }
1168:Drivers/STM32L0xx_HAL_Driver/Inc/stm32l0xx_ll_dma.h **** 
1169:Drivers/STM32L0xx_HAL_Driver/Inc/stm32l0xx_ll_dma.h **** /**
1170:Drivers/STM32L0xx_HAL_Driver/Inc/stm32l0xx_ll_dma.h ****   * @brief  Set DMA request for DMA instance on Channel x.
1171:Drivers/STM32L0xx_HAL_Driver/Inc/stm32l0xx_ll_dma.h ****   * @note   Please refer to Reference Manual to get the available mapping of Request value link to 
1172:Drivers/STM32L0xx_HAL_Driver/Inc/stm32l0xx_ll_dma.h ****   * @rmtoll CSELR        C1S           LL_DMA_SetPeriphRequest\n
1173:Drivers/STM32L0xx_HAL_Driver/Inc/stm32l0xx_ll_dma.h ****   *         CSELR        C2S           LL_DMA_SetPeriphRequest\n
1174:Drivers/STM32L0xx_HAL_Driver/Inc/stm32l0xx_ll_dma.h ****   *         CSELR        C3S           LL_DMA_SetPeriphRequest\n
1175:Drivers/STM32L0xx_HAL_Driver/Inc/stm32l0xx_ll_dma.h ****   *         CSELR        C4S           LL_DMA_SetPeriphRequest\n
1176:Drivers/STM32L0xx_HAL_Driver/Inc/stm32l0xx_ll_dma.h ****   *         CSELR        C5S           LL_DMA_SetPeriphRequest\n
1177:Drivers/STM32L0xx_HAL_Driver/Inc/stm32l0xx_ll_dma.h ****   *         CSELR        C6S           LL_DMA_SetPeriphRequest\n
1178:Drivers/STM32L0xx_HAL_Driver/Inc/stm32l0xx_ll_dma.h ****   *         CSELR        C7S           LL_DMA_SetPeriphRequest
1179:Drivers/STM32L0xx_HAL_Driver/Inc/stm32l0xx_ll_dma.h ****   * @param  DMAx DMAx Instance
1180:Drivers/STM32L0xx_HAL_Driver/Inc/stm32l0xx_ll_dma.h ****   * @param  Channel This parameter can be one of the following values:
1181:Drivers/STM32L0xx_HAL_Driver/Inc/stm32l0xx_ll_dma.h ****   *         @arg @ref LL_DMA_CHANNEL_1
1182:Drivers/STM32L0xx_HAL_Driver/Inc/stm32l0xx_ll_dma.h ****   *         @arg @ref LL_DMA_CHANNEL_2
1183:Drivers/STM32L0xx_HAL_Driver/Inc/stm32l0xx_ll_dma.h ****   *         @arg @ref LL_DMA_CHANNEL_3
1184:Drivers/STM32L0xx_HAL_Driver/Inc/stm32l0xx_ll_dma.h ****   *         @arg @ref LL_DMA_CHANNEL_4
1185:Drivers/STM32L0xx_HAL_Driver/Inc/stm32l0xx_ll_dma.h ****   *         @arg @ref LL_DMA_CHANNEL_5
1186:Drivers/STM32L0xx_HAL_Driver/Inc/stm32l0xx_ll_dma.h ****   *         @arg @ref LL_DMA_CHANNEL_6
1187:Drivers/STM32L0xx_HAL_Driver/Inc/stm32l0xx_ll_dma.h ****   *         @arg @ref LL_DMA_CHANNEL_7
1188:Drivers/STM32L0xx_HAL_Driver/Inc/stm32l0xx_ll_dma.h ****   * @param  PeriphRequest This parameter can be one of the following values:
1189:Drivers/STM32L0xx_HAL_Driver/Inc/stm32l0xx_ll_dma.h ****   *         @arg @ref LL_DMA_REQUEST_0
1190:Drivers/STM32L0xx_HAL_Driver/Inc/stm32l0xx_ll_dma.h ****   *         @arg @ref LL_DMA_REQUEST_1
1191:Drivers/STM32L0xx_HAL_Driver/Inc/stm32l0xx_ll_dma.h ****   *         @arg @ref LL_DMA_REQUEST_2
1192:Drivers/STM32L0xx_HAL_Driver/Inc/stm32l0xx_ll_dma.h ****   *         @arg @ref LL_DMA_REQUEST_3
1193:Drivers/STM32L0xx_HAL_Driver/Inc/stm32l0xx_ll_dma.h ****   *         @arg @ref LL_DMA_REQUEST_4
1194:Drivers/STM32L0xx_HAL_Driver/Inc/stm32l0xx_ll_dma.h ****   *         @arg @ref LL_DMA_REQUEST_5
1195:Drivers/STM32L0xx_HAL_Driver/Inc/stm32l0xx_ll_dma.h ****   *         @arg @ref LL_DMA_REQUEST_6
1196:Drivers/STM32L0xx_HAL_Driver/Inc/stm32l0xx_ll_dma.h ****   *         @arg @ref LL_DMA_REQUEST_7
1197:Drivers/STM32L0xx_HAL_Driver/Inc/stm32l0xx_ll_dma.h ****   *         @arg @ref LL_DMA_REQUEST_8
1198:Drivers/STM32L0xx_HAL_Driver/Inc/stm32l0xx_ll_dma.h ****   *         @arg @ref LL_DMA_REQUEST_9
1199:Drivers/STM32L0xx_HAL_Driver/Inc/stm32l0xx_ll_dma.h ****   *         @arg @ref LL_DMA_REQUEST_10
1200:Drivers/STM32L0xx_HAL_Driver/Inc/stm32l0xx_ll_dma.h ****   *         @arg @ref LL_DMA_REQUEST_11
1201:Drivers/STM32L0xx_HAL_Driver/Inc/stm32l0xx_ll_dma.h ****   *         @arg @ref LL_DMA_REQUEST_12
1202:Drivers/STM32L0xx_HAL_Driver/Inc/stm32l0xx_ll_dma.h ****   *         @arg @ref LL_DMA_REQUEST_13
1203:Drivers/STM32L0xx_HAL_Driver/Inc/stm32l0xx_ll_dma.h ****   *         @arg @ref LL_DMA_REQUEST_14
1204:Drivers/STM32L0xx_HAL_Driver/Inc/stm32l0xx_ll_dma.h ****   *         @arg @ref LL_DMA_REQUEST_15
1205:Drivers/STM32L0xx_HAL_Driver/Inc/stm32l0xx_ll_dma.h ****   * @retval None
1206:Drivers/STM32L0xx_HAL_Driver/Inc/stm32l0xx_ll_dma.h ****   */
1207:Drivers/STM32L0xx_HAL_Driver/Inc/stm32l0xx_ll_dma.h **** __STATIC_INLINE void LL_DMA_SetPeriphRequest(DMA_TypeDef *DMAx, uint32_t Channel, uint32_t Request)
 172              		.loc 3 1207 22 view .LVU46
 173              	.LBB59:
1208:Drivers/STM32L0xx_HAL_Driver/Inc/stm32l0xx_ll_dma.h **** {
1209:Drivers/STM32L0xx_HAL_Driver/Inc/stm32l0xx_ll_dma.h ****   MODIFY_REG(((DMA_Request_TypeDef *)((uint32_t)((uint32_t)DMAx + DMA_CSELR_OFFSET)))->CSELR,
 174              		.loc 3 1209 3 view .LVU47
 175 005c 0F21     		movs	r1, #15
 176 005e 364A     		ldr	r2, .L3+4
 177              	.LBE59:
 178              	.LBE58:
 179              	.LBB62:
 180              	.LBB63:
 181              		.file 4 "Drivers/STM32L0xx_HAL_Driver/Inc/stm32l0xx_ll_adc.h"
ARM GAS  /tmp/cccFncD6.s 			page 44


   1:Drivers/STM32L0xx_HAL_Driver/Inc/stm32l0xx_ll_adc.h **** /**
   2:Drivers/STM32L0xx_HAL_Driver/Inc/stm32l0xx_ll_adc.h ****   ******************************************************************************
   3:Drivers/STM32L0xx_HAL_Driver/Inc/stm32l0xx_ll_adc.h ****   * @file    stm32l0xx_ll_adc.h
   4:Drivers/STM32L0xx_HAL_Driver/Inc/stm32l0xx_ll_adc.h ****   * @author  MCD Application Team
   5:Drivers/STM32L0xx_HAL_Driver/Inc/stm32l0xx_ll_adc.h ****   * @brief   Header file of ADC LL module.
   6:Drivers/STM32L0xx_HAL_Driver/Inc/stm32l0xx_ll_adc.h ****   ******************************************************************************
   7:Drivers/STM32L0xx_HAL_Driver/Inc/stm32l0xx_ll_adc.h ****   * @attention
   8:Drivers/STM32L0xx_HAL_Driver/Inc/stm32l0xx_ll_adc.h ****   *
   9:Drivers/STM32L0xx_HAL_Driver/Inc/stm32l0xx_ll_adc.h ****   * <h2><center>&copy; Copyright(c) 2016 STMicroelectronics.
  10:Drivers/STM32L0xx_HAL_Driver/Inc/stm32l0xx_ll_adc.h ****   * All rights reserved.</center></h2>
  11:Drivers/STM32L0xx_HAL_Driver/Inc/stm32l0xx_ll_adc.h ****   *
  12:Drivers/STM32L0xx_HAL_Driver/Inc/stm32l0xx_ll_adc.h ****   * This software component is licensed by ST under BSD 3-Clause license,
  13:Drivers/STM32L0xx_HAL_Driver/Inc/stm32l0xx_ll_adc.h ****   * the "License"; You may not use this file except in compliance with the
  14:Drivers/STM32L0xx_HAL_Driver/Inc/stm32l0xx_ll_adc.h ****   * License. You may obtain a copy of the License at:
  15:Drivers/STM32L0xx_HAL_Driver/Inc/stm32l0xx_ll_adc.h ****   *                        opensource.org/licenses/BSD-3-Clause
  16:Drivers/STM32L0xx_HAL_Driver/Inc/stm32l0xx_ll_adc.h ****   *
  17:Drivers/STM32L0xx_HAL_Driver/Inc/stm32l0xx_ll_adc.h ****   ******************************************************************************
  18:Drivers/STM32L0xx_HAL_Driver/Inc/stm32l0xx_ll_adc.h ****   */
  19:Drivers/STM32L0xx_HAL_Driver/Inc/stm32l0xx_ll_adc.h **** 
  20:Drivers/STM32L0xx_HAL_Driver/Inc/stm32l0xx_ll_adc.h **** /* Define to prevent recursive inclusion -------------------------------------*/
  21:Drivers/STM32L0xx_HAL_Driver/Inc/stm32l0xx_ll_adc.h **** #ifndef __STM32L0xx_LL_ADC_H
  22:Drivers/STM32L0xx_HAL_Driver/Inc/stm32l0xx_ll_adc.h **** #define __STM32L0xx_LL_ADC_H
  23:Drivers/STM32L0xx_HAL_Driver/Inc/stm32l0xx_ll_adc.h **** 
  24:Drivers/STM32L0xx_HAL_Driver/Inc/stm32l0xx_ll_adc.h **** #ifdef __cplusplus
  25:Drivers/STM32L0xx_HAL_Driver/Inc/stm32l0xx_ll_adc.h **** extern "C" {
  26:Drivers/STM32L0xx_HAL_Driver/Inc/stm32l0xx_ll_adc.h **** #endif
  27:Drivers/STM32L0xx_HAL_Driver/Inc/stm32l0xx_ll_adc.h **** 
  28:Drivers/STM32L0xx_HAL_Driver/Inc/stm32l0xx_ll_adc.h **** /* Includes ------------------------------------------------------------------*/
  29:Drivers/STM32L0xx_HAL_Driver/Inc/stm32l0xx_ll_adc.h **** #include "stm32l0xx.h"
