ARM GAS  /tmp/cclaqcMK.s 			page 1


   1              		.cpu cortex-m0plus
   2              		.eabi_attribute 20, 1
   3              		.eabi_attribute 21, 1
   4              		.eabi_attribute 23, 3
   5              		.eabi_attribute 24, 1
   6              		.eabi_attribute 25, 1
   7              		.eabi_attribute 26, 1
   8              		.eabi_attribute 30, 2
   9              		.eabi_attribute 34, 0
  10              		.eabi_attribute 18, 4
  11              		.file	"bme280.c"
  12              		.text
  13              	.Ltext0:
  14              		.cfi_sections	.debug_frame
  15              		.section	.text.GetCalibData_BME280,"ax",%progbits
  16              		.align	1
  17              		.p2align 2,,3
  18              		.global	GetCalibData_BME280
  19              		.arch armv6s-m
  20              		.syntax unified
  21              		.code	16
  22              		.thumb_func
  23              		.fpu softvfp
  25              	GetCalibData_BME280:
  26              	.LVL0:
  27              	.LFB41:
  28              		.file 1 "Core/Src/bme280.c"
   1:Core/Src/bme280.c **** #include "main.h"
   2:Core/Src/bme280.c **** #include "bme280_defs.h"
   3:Core/Src/bme280.c **** #include "bme280.h"
   4:Core/Src/bme280.c **** 
   5:Core/Src/bme280.c **** static int32_t compensate_temperature(struct bme280_dev *dev);
   6:Core/Src/bme280.c **** 
   7:Core/Src/bme280.c **** static uint32_t compensate_pressure(struct bme280_dev *dev);
   8:Core/Src/bme280.c **** 
   9:Core/Src/bme280.c **** static uint32_t compensate_humidity(struct bme280_dev *dev);
  10:Core/Src/bme280.c **** static void bme280_parse_sensor_data(const uint8_t *reg_data, struct bme280_dev *dev);
  11:Core/Src/bme280.c **** 
  12:Core/Src/bme280.c **** static void parse_temp_press_calib_data(const uint8_t *reg_data, struct bme280_dev *dev);
  13:Core/Src/bme280.c **** 
  14:Core/Src/bme280.c **** static void parse_humidity_calib_data(const uint8_t *reg_data, struct bme280_dev *dev);
  15:Core/Src/bme280.c **** 
  16:Core/Src/bme280.c **** static int8_t bme280_compensate_data(struct bme280_dev *dev);
  17:Core/Src/bme280.c **** 
  18:Core/Src/bme280.c **** 
  19:Core/Src/bme280.c **** void bme280_parse_sensor_data(const uint8_t *reg_data, struct bme280_dev *dev)
  20:Core/Src/bme280.c **** {
  21:Core/Src/bme280.c ****     /* Variables to store the sensor data */
  22:Core/Src/bme280.c ****     uint32_t data_xlsb;
  23:Core/Src/bme280.c ****     uint32_t data_lsb;
  24:Core/Src/bme280.c ****     uint32_t data_msb;
  25:Core/Src/bme280.c **** 
  26:Core/Src/bme280.c ****     /* Store the parsed register values for pressure data */
  27:Core/Src/bme280.c ****     data_msb = (uint32_t)reg_data[0] << 12;
  28:Core/Src/bme280.c ****     data_lsb = (uint32_t)reg_data[1] << 4;
  29:Core/Src/bme280.c ****     data_xlsb = (uint32_t)reg_data[2] >> 4;
  30:Core/Src/bme280.c ****     dev->uncomp_dat.pressure = data_msb | data_lsb | data_xlsb;
ARM GAS  /tmp/cclaqcMK.s 			page 2


  31:Core/Src/bme280.c **** 		data_msb = data_lsb = data_xlsb =0;
  32:Core/Src/bme280.c ****     /* Store the parsed register values for temperature data */
  33:Core/Src/bme280.c ****     data_msb = (uint32_t)reg_data[3] << 12;
  34:Core/Src/bme280.c ****     data_lsb = (uint32_t)reg_data[4] << 4;
  35:Core/Src/bme280.c ****     data_xlsb = (uint32_t)reg_data[5] >> 4;
  36:Core/Src/bme280.c ****     dev->uncomp_dat.temperature = data_msb | data_lsb | data_xlsb;
  37:Core/Src/bme280.c **** 		data_msb = data_lsb = data_xlsb =0;
  38:Core/Src/bme280.c ****     /* Store the parsed register values for temperature data */
  39:Core/Src/bme280.c ****     data_lsb = (uint32_t)reg_data[6] << 8;
  40:Core/Src/bme280.c ****     data_msb = (uint32_t)reg_data[7];
  41:Core/Src/bme280.c ****     dev->uncomp_dat.humidity = data_msb | data_lsb;
  42:Core/Src/bme280.c **** }
  43:Core/Src/bme280.c **** 
  44:Core/Src/bme280.c **** int8_t bme280_compensate_data(struct bme280_dev *dev)
  45:Core/Src/bme280.c **** {
  46:Core/Src/bme280.c ****     int8_t rslt = 1;
  47:Core/Src/bme280.c **** 
  48:Core/Src/bme280.c ****         /* Initialize to zero */
  49:Core/Src/bme280.c **** 	      dev->data.temperature = 0;
  50:Core/Src/bme280.c ****         dev->data.pressure = 0;
  51:Core/Src/bme280.c ****         dev->data.humidity = 0;
  52:Core/Src/bme280.c ****         dev->data.temperature = compensate_temperature(dev);
  53:Core/Src/bme280.c ****         dev->data.pressure = compensate_pressure(dev);
  54:Core/Src/bme280.c ****         dev->data.humidity = compensate_humidity(dev);
  55:Core/Src/bme280.c **** 
  56:Core/Src/bme280.c ****     return rslt;
  57:Core/Src/bme280.c **** }
  58:Core/Src/bme280.c **** 
  59:Core/Src/bme280.c **** static int32_t compensate_temperature(struct bme280_dev *dev)
  60:Core/Src/bme280.c **** {
  61:Core/Src/bme280.c ****     int32_t var1;
  62:Core/Src/bme280.c ****     int32_t var2;
  63:Core/Src/bme280.c ****     int32_t temperature;
  64:Core/Src/bme280.c ****     int32_t temperature_min = -4000;
  65:Core/Src/bme280.c ****     int32_t temperature_max = 8500;
  66:Core/Src/bme280.c **** 
  67:Core/Src/bme280.c ****     var1 = (int32_t)((dev->uncomp_dat.temperature / 8) - ((int32_t) dev->calib_data.dig_T1 * 2));
  68:Core/Src/bme280.c ****     var1 = (var1 * ((int32_t)dev->calib_data.dig_T2)) / 2048;
  69:Core/Src/bme280.c ****     var2 = (int32_t)((dev->uncomp_dat.temperature / 16) - ((int32_t)dev->calib_data.dig_T1));
  70:Core/Src/bme280.c ****     var2 = (((var2 * var2) / 4096) * ((int32_t)dev->calib_data.dig_T3)) / 16384;
  71:Core/Src/bme280.c ****     dev->calib_data.t_fine = var1 + var2;
  72:Core/Src/bme280.c ****     temperature = (dev->calib_data.t_fine * 5 + 128) / 256;
  73:Core/Src/bme280.c ****     if (temperature < temperature_min)
  74:Core/Src/bme280.c ****     {
  75:Core/Src/bme280.c ****         temperature = temperature_min;
  76:Core/Src/bme280.c ****     }
  77:Core/Src/bme280.c ****     else if (temperature > temperature_max)
  78:Core/Src/bme280.c ****     {
  79:Core/Src/bme280.c ****         temperature = temperature_max;
  80:Core/Src/bme280.c ****     }
  81:Core/Src/bme280.c **** 
  82:Core/Src/bme280.c ****     return temperature;
  83:Core/Src/bme280.c **** }
  84:Core/Src/bme280.c **** static uint32_t compensate_pressure(struct bme280_dev *dev)
  85:Core/Src/bme280.c **** {
  86:Core/Src/bme280.c ****     int32_t var1;
  87:Core/Src/bme280.c ****     int32_t var2;
ARM GAS  /tmp/cclaqcMK.s 			page 3


  88:Core/Src/bme280.c ****     int32_t var3;
  89:Core/Src/bme280.c ****     int32_t var4;
  90:Core/Src/bme280.c ****     uint32_t var5;
  91:Core/Src/bme280.c ****     uint32_t pressure;
  92:Core/Src/bme280.c ****     uint32_t pressure_min = 30000;
  93:Core/Src/bme280.c ****     uint32_t pressure_max = 110000;
  94:Core/Src/bme280.c **** 
  95:Core/Src/bme280.c ****     var1 = (((int32_t)dev->calib_data.t_fine) / 2) - (int32_t)64000;
  96:Core/Src/bme280.c ****     var2 = (((var1 / 4) * (var1 / 4)) / 2048) * ((int32_t)dev->calib_data.dig_P6);
  97:Core/Src/bme280.c ****     var2 = var2 + ((var1 * ((int32_t)dev->calib_data.dig_P5)) * 2);
  98:Core/Src/bme280.c ****     var2 = (var2 / 4) + (((int32_t)dev->calib_data.dig_P4) * 65536);
  99:Core/Src/bme280.c ****     var3 = (dev->calib_data.dig_P3 * (((var1 / 4) * (var1 / 4)) / 8192)) / 8;
 100:Core/Src/bme280.c ****     var4 = (((int32_t)dev->calib_data.dig_P2) * var1) / 2;
 101:Core/Src/bme280.c ****     var1 = (var3 + var4) / 262144;
 102:Core/Src/bme280.c ****     var1 = (((32768 + var1)) * ((int32_t)dev->calib_data.dig_P1)) / 32768;
 103:Core/Src/bme280.c **** 
 104:Core/Src/bme280.c ****     /* avoid exception caused by division by zero */
 105:Core/Src/bme280.c ****     if (var1)
 106:Core/Src/bme280.c ****     {
 107:Core/Src/bme280.c ****         var5 = (uint32_t)((uint32_t)1048576) - dev->uncomp_dat.pressure;
 108:Core/Src/bme280.c ****         pressure = ((uint32_t)(var5 - (uint32_t)(var2 / 4096))) * 3125;
 109:Core/Src/bme280.c ****         if (pressure < 0x80000000)
 110:Core/Src/bme280.c ****         {
 111:Core/Src/bme280.c ****             pressure = (pressure << 1) / ((uint32_t)var1);
 112:Core/Src/bme280.c ****         }
 113:Core/Src/bme280.c ****         else
 114:Core/Src/bme280.c ****         {
 115:Core/Src/bme280.c ****             pressure = (pressure / (uint32_t)var1) * 2;
 116:Core/Src/bme280.c ****         }
 117:Core/Src/bme280.c ****         var1 = (((int32_t)dev->calib_data.dig_P9) * ((int32_t)(((pressure / 8) * (pressure / 8)) / 
 118:Core/Src/bme280.c ****         var2 = (((int32_t)(pressure / 4)) * ((int32_t)dev->calib_data.dig_P8)) / 8192;
 119:Core/Src/bme280.c ****         pressure = (uint32_t)((int32_t)pressure + ((var1 + var2 + dev->calib_data.dig_P7) / 16));
 120:Core/Src/bme280.c ****         if (pressure < pressure_min)
 121:Core/Src/bme280.c ****         {
 122:Core/Src/bme280.c ****             pressure = pressure_min;
 123:Core/Src/bme280.c ****         }
 124:Core/Src/bme280.c ****         else if (pressure > pressure_max)
 125:Core/Src/bme280.c ****         {
 126:Core/Src/bme280.c ****             pressure = pressure_max;
 127:Core/Src/bme280.c ****         }
 128:Core/Src/bme280.c ****     }
 129:Core/Src/bme280.c ****     else
 130:Core/Src/bme280.c ****     {
 131:Core/Src/bme280.c ****         pressure = pressure_min;
 132:Core/Src/bme280.c ****     }
 133:Core/Src/bme280.c **** 
 134:Core/Src/bme280.c ****     return pressure;
 135:Core/Src/bme280.c **** }
 136:Core/Src/bme280.c **** static uint32_t compensate_humidity(struct bme280_dev *dev)
 137:Core/Src/bme280.c **** {
 138:Core/Src/bme280.c ****     int32_t var1;
 139:Core/Src/bme280.c ****     int32_t var2;
 140:Core/Src/bme280.c ****     int32_t var3;
 141:Core/Src/bme280.c ****     int32_t var4;
 142:Core/Src/bme280.c ****     int32_t var5;
 143:Core/Src/bme280.c ****     uint32_t humidity;
 144:Core/Src/bme280.c ****     uint32_t humidity_max = 102400;
ARM GAS  /tmp/cclaqcMK.s 			page 4


 145:Core/Src/bme280.c **** 
 146:Core/Src/bme280.c ****     var1 = dev->calib_data.t_fine - ((int32_t)76800);
 147:Core/Src/bme280.c ****     var2 = (int32_t)(dev->uncomp_dat.humidity * 16384);
 148:Core/Src/bme280.c ****     var3 = (int32_t)(((int32_t)dev->calib_data.dig_H4) * 1048576);
 149:Core/Src/bme280.c ****     var4 = ((int32_t)dev->calib_data.dig_H5) * var1;
 150:Core/Src/bme280.c ****     var5 = (((var2 - var3) - var4) + (int32_t)16384) / 32768;
 151:Core/Src/bme280.c ****     var2 = (var1 * ((int32_t)dev->calib_data.dig_H6)) / 1024;
 152:Core/Src/bme280.c ****     var3 = (var1 * ((int32_t)dev->calib_data.dig_H3)) / 2048;
 153:Core/Src/bme280.c ****     var4 = ((var2 * (var3 + (int32_t)32768)) / 1024) + (int32_t)2097152;
 154:Core/Src/bme280.c ****     var2 = ((var4 * ((int32_t)dev->calib_data.dig_H2)) + 8192) / 16384;
 155:Core/Src/bme280.c ****     var3 = var5 * var2;
 156:Core/Src/bme280.c ****     var4 = ((var3 / 32768) * (var3 / 32768)) / 128;
 157:Core/Src/bme280.c ****     var5 = var3 - ((var4 * ((int32_t)dev->calib_data.dig_H1)) / 16);
 158:Core/Src/bme280.c ****     var5 = (var5 < 0 ? 0 : var5);
 159:Core/Src/bme280.c ****     var5 = (var5 > 419430400 ? 419430400 : var5);
 160:Core/Src/bme280.c ****     humidity = (uint32_t)(var5 / 4096);
 161:Core/Src/bme280.c ****     if (humidity > humidity_max)
 162:Core/Src/bme280.c ****     {
 163:Core/Src/bme280.c ****         humidity = humidity_max;
 164:Core/Src/bme280.c ****     }
 165:Core/Src/bme280.c **** 
 166:Core/Src/bme280.c ****     return humidity;
 167:Core/Src/bme280.c **** }
 168:Core/Src/bme280.c **** void parse_temp_press_calib_data(const uint8_t *reg_data, struct bme280_dev *dev)
 169:Core/Src/bme280.c **** {
 170:Core/Src/bme280.c ****     struct bme280_calib_data *calib_data = &dev->calib_data;
 171:Core/Src/bme280.c **** 
 172:Core/Src/bme280.c ****     calib_data->dig_T1 = BME280_CONCAT_BYTES(reg_data[1], reg_data[0]);
 173:Core/Src/bme280.c ****     calib_data->dig_T2 = (int16_t)BME280_CONCAT_BYTES(reg_data[3], reg_data[2]);
 174:Core/Src/bme280.c ****     calib_data->dig_T3 = (int16_t)BME280_CONCAT_BYTES(reg_data[5], reg_data[4]);
 175:Core/Src/bme280.c ****     calib_data->dig_P1 = BME280_CONCAT_BYTES(reg_data[7], reg_data[6]);
 176:Core/Src/bme280.c ****     calib_data->dig_P2 = (int16_t)BME280_CONCAT_BYTES(reg_data[9], reg_data[8]);
 177:Core/Src/bme280.c ****     calib_data->dig_P3 = (int16_t)BME280_CONCAT_BYTES(reg_data[11], reg_data[10]);
 178:Core/Src/bme280.c ****     calib_data->dig_P4 = (int16_t)BME280_CONCAT_BYTES(reg_data[13], reg_data[12]);
 179:Core/Src/bme280.c ****     calib_data->dig_P5 = (int16_t)BME280_CONCAT_BYTES(reg_data[15], reg_data[14]);
 180:Core/Src/bme280.c ****     calib_data->dig_P6 = (int16_t)BME280_CONCAT_BYTES(reg_data[17], reg_data[16]);
 181:Core/Src/bme280.c ****     calib_data->dig_P7 = (int16_t)BME280_CONCAT_BYTES(reg_data[19], reg_data[18]);
 182:Core/Src/bme280.c ****     calib_data->dig_P8 = (int16_t)BME280_CONCAT_BYTES(reg_data[21], reg_data[20]);
 183:Core/Src/bme280.c ****     calib_data->dig_P9 = (int16_t)BME280_CONCAT_BYTES(reg_data[23], reg_data[22]);
 184:Core/Src/bme280.c ****     calib_data->dig_H1 = reg_data[25];
 185:Core/Src/bme280.c **** }
 186:Core/Src/bme280.c ****  void parse_humidity_calib_data(const uint8_t *reg_data, struct bme280_dev *dev)
 187:Core/Src/bme280.c **** {
 188:Core/Src/bme280.c ****     struct bme280_calib_data *calib_data = &dev->calib_data;
 189:Core/Src/bme280.c ****     int16_t dig_H4_lsb;
 190:Core/Src/bme280.c ****     int16_t dig_H4_msb;
 191:Core/Src/bme280.c ****     int16_t dig_H5_lsb;
 192:Core/Src/bme280.c ****     int16_t dig_H5_msb;
 193:Core/Src/bme280.c **** 
 194:Core/Src/bme280.c ****     calib_data->dig_H2 = (int16_t)BME280_CONCAT_BYTES(reg_data[1], reg_data[0]);
 195:Core/Src/bme280.c ****     calib_data->dig_H3 = reg_data[2];
 196:Core/Src/bme280.c ****     dig_H4_msb = (int16_t)(int8_t)reg_data[3] * 16;
 197:Core/Src/bme280.c ****     dig_H4_lsb = (int16_t)(reg_data[4] & 0x0F);
 198:Core/Src/bme280.c ****     calib_data->dig_H4 = dig_H4_msb | dig_H4_lsb;
 199:Core/Src/bme280.c ****     dig_H5_msb = (int16_t)(int8_t)reg_data[5] * 16;
 200:Core/Src/bme280.c ****     dig_H5_lsb = (int16_t)(reg_data[4] >> 4);
 201:Core/Src/bme280.c ****     calib_data->dig_H5 = dig_H5_msb | dig_H5_lsb;
ARM GAS  /tmp/cclaqcMK.s 			page 5


 202:Core/Src/bme280.c ****     calib_data->dig_H6 = (int8_t)reg_data[6];
 203:Core/Src/bme280.c **** }
 204:Core/Src/bme280.c **** void GetCalibData_BME280(struct bme280_dev *dev)
 205:Core/Src/bme280.c **** {	
  29              		.loc 1 205 1 view -0
  30              		.cfi_startproc
  31              		@ args = 0, pretend = 0, frame = 8
  32              		@ frame_needed = 0, uses_anonymous_args = 0
 206:Core/Src/bme280.c **** 		uint8_t index_i,index_j;
  33              		.loc 1 206 3 view .LVU1
 207:Core/Src/bme280.c **** 	
 208:Core/Src/bme280.c **** 		index_i = 0;
  34              		.loc 1 208 3 view .LVU2
 209:Core/Src/bme280.c **** 		index_j = 0;
  35              		.loc 1 209 3 view .LVU3
 210:Core/Src/bme280.c **** 		
 211:Core/Src/bme280.c **** 		for (index_i=BME280_TEMP_PRESS_CALIB_DATA_ADDR; index_i<BME280_TEMP_PRESS_CALIB_DATA_ADDR+BME280_
  36              		.loc 1 211 3 view .LVU4
 205:Core/Src/bme280.c **** 		uint8_t index_i,index_j;
  37              		.loc 1 205 1 is_stmt 0 view .LVU5
  38 0000 70B5     		push	{r4, r5, r6, lr}
  39              	.LCFI0:
  40              		.cfi_def_cfa_offset 16
  41              		.cfi_offset 4, -16
  42              		.cfi_offset 5, -12
  43              		.cfi_offset 6, -8
  44              		.cfi_offset 14, -4
  45 0002 82B0     		sub	sp, sp, #8
  46              	.LCFI1:
  47              		.cfi_def_cfa_offset 24
  48              		.loc 1 211 15 view .LVU6
  49 0004 6B46     		mov	r3, sp
  50 0006 DC1D     		adds	r4, r3, #7
  51 0008 8823     		movs	r3, #136
 205:Core/Src/bme280.c **** 		uint8_t index_i,index_j;
  52              		.loc 1 205 1 view .LVU7
  53 000a 0500     		movs	r5, r0
 209:Core/Src/bme280.c **** 		index_j = 0;
  54              		.loc 1 209 11 view .LVU8
  55 000c 0026     		movs	r6, #0
  56              		.loc 1 211 15 view .LVU9
  57 000e 2370     		strb	r3, [r4]
  58              		.loc 1 211 51 is_stmt 1 view .LVU10
  59              	.LVL1:
  60              	.L2:
 212:Core/Src/bme280.c **** 			{
 213:Core/Src/bme280.c **** 				SPI_GET_DAT(&index_i, &dev->calib_0_25[index_j]);
  61              		.loc 1 213 5 discriminator 3 view .LVU11
  62 0010 A919     		adds	r1, r5, r6
  63 0012 2000     		movs	r0, r4
  64 0014 FFF7FEFF 		bl	SPI_GET_DAT
  65              	.LVL2:
 214:Core/Src/bme280.c **** 				index_j++;
  66              		.loc 1 214 5 discriminator 3 view .LVU12
 211:Core/Src/bme280.c **** 			{
  67              		.loc 1 211 134 is_stmt 0 discriminator 3 view .LVU13
  68 0018 2378     		ldrb	r3, [r4]
ARM GAS  /tmp/cclaqcMK.s 			page 6


  69              		.loc 1 214 12 discriminator 3 view .LVU14
  70 001a 0136     		adds	r6, r6, #1
  71              	.LVL3:
 211:Core/Src/bme280.c **** 			{
  72              		.loc 1 211 134 discriminator 3 view .LVU15
  73 001c 0133     		adds	r3, r3, #1
  74 001e DBB2     		uxtb	r3, r3
  75              		.loc 1 214 12 discriminator 3 view .LVU16
  76 0020 F6B2     		uxtb	r6, r6
  77              	.LVL4:
 211:Core/Src/bme280.c **** 			{
  78              		.loc 1 211 127 is_stmt 1 discriminator 3 view .LVU17
 211:Core/Src/bme280.c **** 			{
  79              		.loc 1 211 134 is_stmt 0 discriminator 3 view .LVU18
  80 0022 2370     		strb	r3, [r4]
 211:Core/Src/bme280.c **** 			{
  81              		.loc 1 211 51 is_stmt 1 discriminator 3 view .LVU19
 211:Core/Src/bme280.c **** 			{
  82              		.loc 1 211 3 is_stmt 0 discriminator 3 view .LVU20
  83 0024 A12B     		cmp	r3, #161
  84 0026 F3D9     		bls	.L2
 215:Core/Src/bme280.c **** 			}
 216:Core/Src/bme280.c **** 		
 217:Core/Src/bme280.c **** 		
 218:Core/Src/bme280.c **** 		index_j=0;
  85              		.loc 1 218 3 is_stmt 1 view .LVU21
  86              	.LVL5:
 219:Core/Src/bme280.c **** 		for (index_i=BME280_HUMIDITY_CALIB_DATA_ADDR; index_i<BME280_HUMIDITY_CALIB_DATA_ADDR+BME280_HUMI
  87              		.loc 1 219 3 view .LVU22
  88              		.loc 1 219 15 is_stmt 0 view .LVU23
  89 0028 E123     		movs	r3, #225
 218:Core/Src/bme280.c **** 		for (index_i=BME280_HUMIDITY_CALIB_DATA_ADDR; index_i<BME280_HUMIDITY_CALIB_DATA_ADDR+BME280_HUMI
  90              		.loc 1 218 10 view .LVU24
  91 002a 0026     		movs	r6, #0
  92              		.loc 1 219 15 view .LVU25
  93 002c 2370     		strb	r3, [r4]
  94              		.loc 1 219 49 is_stmt 1 view .LVU26
  95              	.LVL6:
  96              	.L3:
 220:Core/Src/bme280.c **** 			{
 221:Core/Src/bme280.c **** 				SPI_GET_DAT(&index_i, &dev->calib_26_41[index_j]);
  97              		.loc 1 221 5 discriminator 3 view .LVU27
  98 002e 3100     		movs	r1, r6
  99 0030 1A31     		adds	r1, r1, #26
 100 0032 2000     		movs	r0, r4
 101 0034 6918     		adds	r1, r5, r1
 102 0036 FFF7FEFF 		bl	SPI_GET_DAT
 103              	.LVL7:
 222:Core/Src/bme280.c **** 				index_j++;
 104              		.loc 1 222 5 discriminator 3 view .LVU28
 219:Core/Src/bme280.c **** 			{
 105              		.loc 1 219 128 is_stmt 0 discriminator 3 view .LVU29
 106 003a 2378     		ldrb	r3, [r4]
 107              		.loc 1 222 12 discriminator 3 view .LVU30
 108 003c 0136     		adds	r6, r6, #1
 109              	.LVL8:
 219:Core/Src/bme280.c **** 			{
ARM GAS  /tmp/cclaqcMK.s 			page 7


 110              		.loc 1 219 128 discriminator 3 view .LVU31
 111 003e 0133     		adds	r3, r3, #1
 112 0040 DBB2     		uxtb	r3, r3
 113              		.loc 1 222 12 discriminator 3 view .LVU32
 114 0042 F6B2     		uxtb	r6, r6
 115              	.LVL9:
 219:Core/Src/bme280.c **** 			{
 116              		.loc 1 219 121 is_stmt 1 discriminator 3 view .LVU33
 219:Core/Src/bme280.c **** 			{
 117              		.loc 1 219 128 is_stmt 0 discriminator 3 view .LVU34
 118 0044 2370     		strb	r3, [r4]
 219:Core/Src/bme280.c **** 			{
 119              		.loc 1 219 49 is_stmt 1 discriminator 3 view .LVU35
 219:Core/Src/bme280.c **** 			{
 120              		.loc 1 219 3 is_stmt 0 discriminator 3 view .LVU36
 121 0046 E72B     		cmp	r3, #231
 122 0048 F1D9     		bls	.L3
 223:Core/Src/bme280.c **** 			}
 224:Core/Src/bme280.c **** }
 123              		.loc 1 224 1 view .LVU37
 124 004a 02B0     		add	sp, sp, #8
 125              		@ sp needed
 126              	.LVL10:
 127              	.LVL11:
 128              		.loc 1 224 1 view .LVU38
 129 004c 70BD     		pop	{r4, r5, r6, pc}
 130              		.cfi_endproc
 131              	.LFE41:
 133              		.global	__aeabi_uidiv
 134 004e C046     		.section	.text.GetData_BME280,"ax",%progbits
 135              		.align	1
 136              		.p2align 2,,3
 137              		.global	GetData_BME280
 138              		.syntax unified
 139              		.code	16
 140              		.thumb_func
 141              		.fpu softvfp
 143              	GetData_BME280:
 144              	.LVL12:
 145              	.LFB42:
 225:Core/Src/bme280.c **** void GetData_BME280(struct bme280_dev *dev)
 226:Core/Src/bme280.c **** {
 146              		.loc 1 226 1 is_stmt 1 view -0
 147              		.cfi_startproc
 148              		@ args = 0, pretend = 0, frame = 64
 149              		@ frame_needed = 0, uses_anonymous_args = 0
 227:Core/Src/bme280.c **** 	uint8_t index_i,index_j;
 150              		.loc 1 227 2 view .LVU40
 228:Core/Src/bme280.c **** 	
 229:Core/Src/bme280.c **** 	index_i = 0;
 151              		.loc 1 229 2 view .LVU41
 230:Core/Src/bme280.c **** 	index_j = 0;
 152              		.loc 1 230 2 view .LVU42
 231:Core/Src/bme280.c **** 	
 232:Core/Src/bme280.c **** 		for (index_i=BME280_DATA_ADDR; index_i<BME280_DATA_ADDR+BME280_P_T_H_DATA_LEN; index_i++)
 153              		.loc 1 232 3 view .LVU43
 226:Core/Src/bme280.c **** 	uint8_t index_i,index_j;
ARM GAS  /tmp/cclaqcMK.s 			page 8


 154              		.loc 1 226 1 is_stmt 0 view .LVU44
 155 0000 F0B5     		push	{r4, r5, r6, r7, lr}
 156              	.LCFI2:
 157              		.cfi_def_cfa_offset 20
 158              		.cfi_offset 4, -20
 159              		.cfi_offset 5, -16
 160              		.cfi_offset 6, -12
 161              		.cfi_offset 7, -8
 162              		.cfi_offset 14, -4
 163 0002 4E46     		mov	r6, r9
 164 0004 4546     		mov	r5, r8
 165 0006 DE46     		mov	lr, fp
 166 0008 5746     		mov	r7, r10
 167 000a E0B5     		push	{r5, r6, r7, lr}
 168              	.LCFI3:
 169              		.cfi_def_cfa_offset 36
 170              		.cfi_offset 8, -36
 171              		.cfi_offset 9, -32
 172              		.cfi_offset 10, -28
 173              		.cfi_offset 11, -24
 174 000c 91B0     		sub	sp, sp, #68
 175              	.LCFI4:
 176              		.cfi_def_cfa_offset 104
 177              		.loc 1 232 15 view .LVU45
 178 000e 0EAB     		add	r3, sp, #56
 179 0010 DE1D     		adds	r6, r3, #7
 180 0012 F723     		movs	r3, #247
 226:Core/Src/bme280.c **** 	uint8_t index_i,index_j;
 181              		.loc 1 226 1 view .LVU46
 182 0014 0400     		movs	r4, r0
 230:Core/Src/bme280.c **** 	index_j = 0;
 183              		.loc 1 230 10 view .LVU47
 184 0016 0025     		movs	r5, #0
 185              		.loc 1 232 15 view .LVU48
 186 0018 3370     		strb	r3, [r6]
 187              		.loc 1 232 34 is_stmt 1 view .LVU49
 188              	.LVL13:
 189              	.L8:
 233:Core/Src/bme280.c **** 			{
 234:Core/Src/bme280.c **** 				SPI_GET_DAT(&index_i, &dev->raw_data[index_j]);
 190              		.loc 1 234 5 discriminator 3 view .LVU50
 191 001a 2900     		movs	r1, r5
 192 001c 2131     		adds	r1, r1, #33
 193 001e 3000     		movs	r0, r6
 194 0020 6118     		adds	r1, r4, r1
 195 0022 FFF7FEFF 		bl	SPI_GET_DAT
 196              	.LVL14:
 235:Core/Src/bme280.c **** 				index_j++;
 197              		.loc 1 235 5 discriminator 3 view .LVU51
 232:Core/Src/bme280.c **** 			{
 198              		.loc 1 232 89 is_stmt 0 discriminator 3 view .LVU52
 199 0026 3378     		ldrb	r3, [r6]
 200              		.loc 1 235 12 discriminator 3 view .LVU53
 201 0028 0135     		adds	r5, r5, #1
 202              	.LVL15:
 232:Core/Src/bme280.c **** 			{
 203              		.loc 1 232 89 discriminator 3 view .LVU54
ARM GAS  /tmp/cclaqcMK.s 			page 9


 204 002a 0133     		adds	r3, r3, #1
 205 002c DBB2     		uxtb	r3, r3
 206              		.loc 1 235 12 discriminator 3 view .LVU55
 207 002e EDB2     		uxtb	r5, r5
 208              	.LVL16:
 232:Core/Src/bme280.c **** 			{
 209              		.loc 1 232 82 is_stmt 1 discriminator 3 view .LVU56
 232:Core/Src/bme280.c **** 			{
 210              		.loc 1 232 89 is_stmt 0 discriminator 3 view .LVU57
 211 0030 3370     		strb	r3, [r6]
 232:Core/Src/bme280.c **** 			{
 212              		.loc 1 232 34 is_stmt 1 discriminator 3 view .LVU58
 232:Core/Src/bme280.c **** 			{
 213              		.loc 1 232 3 is_stmt 0 discriminator 3 view .LVU59
 214 0032 FF2B     		cmp	r3, #255
 215 0034 F1D1     		bne	.L8
 236:Core/Src/bme280.c **** 			}	
 237:Core/Src/bme280.c **** 		bme280_parse_sensor_data(dev->raw_data, dev);
 216              		.loc 1 237 3 is_stmt 1 view .LVU60
 217              	.LVL17:
 218              	.LBB18:
 219              	.LBI18:
  19:Core/Src/bme280.c **** {
 220              		.loc 1 19 6 view .LVU61
 221              	.LBB19:
  22:Core/Src/bme280.c ****     uint32_t data_lsb;
 222              		.loc 1 22 5 view .LVU62
  23:Core/Src/bme280.c ****     uint32_t data_msb;
 223              		.loc 1 23 5 view .LVU63
  24:Core/Src/bme280.c **** 
 224              		.loc 1 24 5 view .LVU64
  27:Core/Src/bme280.c ****     data_lsb = (uint32_t)reg_data[1] << 4;
 225              		.loc 1 27 5 view .LVU65
  28:Core/Src/bme280.c ****     data_xlsb = (uint32_t)reg_data[2] >> 4;
 226              		.loc 1 28 5 view .LVU66
  29:Core/Src/bme280.c ****     dev->uncomp_dat.pressure = data_msb | data_lsb | data_xlsb;
 227              		.loc 1 29 5 view .LVU67
  30:Core/Src/bme280.c **** 		data_msb = data_lsb = data_xlsb =0;
 228              		.loc 1 30 5 view .LVU68
  27:Core/Src/bme280.c ****     data_lsb = (uint32_t)reg_data[1] << 4;
 229              		.loc 1 27 34 is_stmt 0 view .LVU69
 230 0036 2122     		movs	r2, #33
  28:Core/Src/bme280.c ****     data_xlsb = (uint32_t)reg_data[2] >> 4;
 231              		.loc 1 28 34 view .LVU70
 232 0038 2221     		movs	r1, #34
  27:Core/Src/bme280.c ****     data_lsb = (uint32_t)reg_data[1] << 4;
 233              		.loc 1 27 16 view .LVU71
 234 003a A25C     		ldrb	r2, [r4, r2]
  28:Core/Src/bme280.c ****     data_xlsb = (uint32_t)reg_data[2] >> 4;
 235              		.loc 1 28 16 view .LVU72
 236 003c 615C     		ldrb	r1, [r4, r1]
  27:Core/Src/bme280.c ****     data_lsb = (uint32_t)reg_data[1] << 4;
 237              		.loc 1 27 14 view .LVU73
 238 003e 1203     		lsls	r2, r2, #12
 239              	.LVL18:
  28:Core/Src/bme280.c ****     data_xlsb = (uint32_t)reg_data[2] >> 4;
 240              		.loc 1 28 14 view .LVU74
ARM GAS  /tmp/cclaqcMK.s 			page 10


 241 0040 0901     		lsls	r1, r1, #4
 242              	.LVL19:
  30:Core/Src/bme280.c **** 		data_msb = data_lsb = data_xlsb =0;
 243              		.loc 1 30 41 view .LVU75
 244 0042 0A43     		orrs	r2, r1
 245              	.LVL20:
  29:Core/Src/bme280.c ****     dev->uncomp_dat.pressure = data_msb | data_lsb | data_xlsb;
 246              		.loc 1 29 35 view .LVU76
 247 0044 2321     		movs	r1, #35
 248              	.LVL21:
  29:Core/Src/bme280.c ****     dev->uncomp_dat.pressure = data_msb | data_lsb | data_xlsb;
 249              		.loc 1 29 39 view .LVU77
 250 0046 615C     		ldrb	r1, [r4, r1]
 251 0048 2000     		movs	r0, r4
  29:Core/Src/bme280.c ****     dev->uncomp_dat.pressure = data_msb | data_lsb | data_xlsb;
 252              		.loc 1 29 15 view .LVU78
 253 004a 0909     		lsrs	r1, r1, #4
  30:Core/Src/bme280.c **** 		data_msb = data_lsb = data_xlsb =0;
 254              		.loc 1 30 52 view .LVU79
 255 004c 0A43     		orrs	r2, r1
  30:Core/Src/bme280.c **** 		data_msb = data_lsb = data_xlsb =0;
 256              		.loc 1 30 30 view .LVU80
 257 004e A265     		str	r2, [r4, #88]
  31:Core/Src/bme280.c ****     /* Store the parsed register values for temperature data */
 258              		.loc 1 31 3 is_stmt 1 view .LVU81
 259              	.LVL22:
  33:Core/Src/bme280.c ****     data_lsb = (uint32_t)reg_data[4] << 4;
 260              		.loc 1 33 5 view .LVU82
  34:Core/Src/bme280.c ****     data_xlsb = (uint32_t)reg_data[5] >> 4;
 261              		.loc 1 34 5 view .LVU83
  35:Core/Src/bme280.c ****     dev->uncomp_dat.temperature = data_msb | data_lsb | data_xlsb;
 262              		.loc 1 35 5 view .LVU84
  36:Core/Src/bme280.c **** 		data_msb = data_lsb = data_xlsb =0;
 263              		.loc 1 36 5 view .LVU85
  30:Core/Src/bme280.c **** 		data_msb = data_lsb = data_xlsb =0;
 264              		.loc 1 30 52 is_stmt 0 view .LVU86
 265 0050 0D92     		str	r2, [sp, #52]
  34:Core/Src/bme280.c ****     data_xlsb = (uint32_t)reg_data[5] >> 4;
 266              		.loc 1 34 34 view .LVU87
 267 0052 2521     		movs	r1, #37
  33:Core/Src/bme280.c ****     data_lsb = (uint32_t)reg_data[4] << 4;
 268              		.loc 1 33 34 view .LVU88
 269 0054 2422     		movs	r2, #36
  34:Core/Src/bme280.c ****     data_xlsb = (uint32_t)reg_data[5] >> 4;
 270              		.loc 1 34 16 view .LVU89
 271 0056 615C     		ldrb	r1, [r4, r1]
  33:Core/Src/bme280.c ****     data_lsb = (uint32_t)reg_data[4] << 4;
 272              		.loc 1 33 16 view .LVU90
 273 0058 A25C     		ldrb	r2, [r4, r2]
  34:Core/Src/bme280.c ****     data_xlsb = (uint32_t)reg_data[5] >> 4;
 274              		.loc 1 34 14 view .LVU91
 275 005a 0901     		lsls	r1, r1, #4
 276              	.LVL23:
  33:Core/Src/bme280.c ****     data_lsb = (uint32_t)reg_data[4] << 4;
 277              		.loc 1 33 14 view .LVU92
 278 005c 1203     		lsls	r2, r2, #12
 279              	.LVL24:
ARM GAS  /tmp/cclaqcMK.s 			page 11


  36:Core/Src/bme280.c **** 		data_msb = data_lsb = data_xlsb =0;
 280              		.loc 1 36 44 view .LVU93
 281 005e 0A43     		orrs	r2, r1
 282              	.LVL25:
  35:Core/Src/bme280.c ****     dev->uncomp_dat.temperature = data_msb | data_lsb | data_xlsb;
 283              		.loc 1 35 35 view .LVU94
 284 0060 2621     		movs	r1, #38
 285              	.LVL26:
  35:Core/Src/bme280.c ****     dev->uncomp_dat.temperature = data_msb | data_lsb | data_xlsb;
 286              		.loc 1 35 39 view .LVU95
 287 0062 615C     		ldrb	r1, [r4, r1]
 288 0064 2730     		adds	r0, r0, #39
  35:Core/Src/bme280.c ****     dev->uncomp_dat.temperature = data_msb | data_lsb | data_xlsb;
 289              		.loc 1 35 15 view .LVU96
 290 0066 0909     		lsrs	r1, r1, #4
  36:Core/Src/bme280.c **** 		data_msb = data_lsb = data_xlsb =0;
 291              		.loc 1 36 55 view .LVU97
 292 0068 0A43     		orrs	r2, r1
  36:Core/Src/bme280.c **** 		data_msb = data_lsb = data_xlsb =0;
 293              		.loc 1 36 33 view .LVU98
 294 006a E265     		str	r2, [r4, #92]
  37:Core/Src/bme280.c ****     /* Store the parsed register values for temperature data */
 295              		.loc 1 37 3 is_stmt 1 view .LVU99
 296              	.LVL27:
  39:Core/Src/bme280.c ****     data_msb = (uint32_t)reg_data[7];
 297              		.loc 1 39 5 view .LVU100
 298 006c 4178     		ldrb	r1, [r0, #1]
 299 006e 0578     		ldrb	r5, [r0]
 300              	.LVL28:
  39:Core/Src/bme280.c ****     data_msb = (uint32_t)reg_data[7];
 301              		.loc 1 39 5 is_stmt 0 view .LVU101
 302 0070 0902     		lsls	r1, r1, #8
 303 0072 2943     		orrs	r1, r5
 304 0074 49BA     		rev16	r1, r1
 305 0076 89B2     		uxth	r1, r1
 306 0078 0591     		str	r1, [sp, #20]
 307              	.LVL29:
  40:Core/Src/bme280.c ****     dev->uncomp_dat.humidity = data_msb | data_lsb;
 308              		.loc 1 40 5 is_stmt 1 view .LVU102
  41:Core/Src/bme280.c **** }
 309              		.loc 1 41 5 view .LVU103
  41:Core/Src/bme280.c **** }
 310              		.loc 1 41 30 is_stmt 0 view .LVU104
 311 007a 2166     		str	r1, [r4, #96]
 312              	.LVL30:
  41:Core/Src/bme280.c **** }
 313              		.loc 1 41 30 view .LVU105
 314              	.LBE19:
 315              	.LBE18:
 238:Core/Src/bme280.c **** 		parse_temp_press_calib_data(dev->calib_0_25, dev);
 316              		.loc 1 238 3 is_stmt 1 view .LVU106
 317              	.LBB20:
 318              	.LBI20:
 168:Core/Src/bme280.c **** {
 319              		.loc 1 168 6 view .LVU107
 320              	.LBB21:
 170:Core/Src/bme280.c **** 
ARM GAS  /tmp/cclaqcMK.s 			page 12


 321              		.loc 1 170 5 view .LVU108
 172:Core/Src/bme280.c ****     calib_data->dig_T2 = (int16_t)BME280_CONCAT_BYTES(reg_data[3], reg_data[2]);
 322              		.loc 1 172 5 view .LVU109
 172:Core/Src/bme280.c ****     calib_data->dig_T2 = (int16_t)BME280_CONCAT_BYTES(reg_data[3], reg_data[2]);
 323              		.loc 1 172 26 is_stmt 0 view .LVU110
 324 007c 6178     		ldrb	r1, [r4, #1]
 325 007e 2078     		ldrb	r0, [r4]
 326 0080 0902     		lsls	r1, r1, #8
 327 0082 0843     		orrs	r0, r1
 173:Core/Src/bme280.c ****     calib_data->dig_T3 = (int16_t)BME280_CONCAT_BYTES(reg_data[5], reg_data[4]);
 328              		.loc 1 173 35 view .LVU111
 329 0084 E178     		ldrb	r1, [r4, #3]
 330 0086 A578     		ldrb	r5, [r4, #2]
 331 0088 0902     		lsls	r1, r1, #8
 173:Core/Src/bme280.c ****     calib_data->dig_T3 = (int16_t)BME280_CONCAT_BYTES(reg_data[5], reg_data[4]);
 332              		.loc 1 173 26 view .LVU112
 333 008a 0D43     		orrs	r5, r1
 172:Core/Src/bme280.c ****     calib_data->dig_T2 = (int16_t)BME280_CONCAT_BYTES(reg_data[3], reg_data[2]);
 334              		.loc 1 172 26 view .LVU113
 335 008c 8246     		mov	r10, r0
 173:Core/Src/bme280.c ****     calib_data->dig_T3 = (int16_t)BME280_CONCAT_BYTES(reg_data[5], reg_data[4]);
 336              		.loc 1 173 26 view .LVU114
 337 008e 29B2     		sxth	r1, r5
 172:Core/Src/bme280.c ****     calib_data->dig_T2 = (int16_t)BME280_CONCAT_BYTES(reg_data[3], reg_data[2]);
 338              		.loc 1 172 24 view .LVU115
 339 0090 A085     		strh	r0, [r4, #44]
 173:Core/Src/bme280.c ****     calib_data->dig_T3 = (int16_t)BME280_CONCAT_BYTES(reg_data[5], reg_data[4]);
 340              		.loc 1 173 5 is_stmt 1 view .LVU116
 174:Core/Src/bme280.c ****     calib_data->dig_P1 = BME280_CONCAT_BYTES(reg_data[7], reg_data[6]);
 341              		.loc 1 174 35 is_stmt 0 view .LVU117
 342 0092 6079     		ldrb	r0, [r4, #5]
 173:Core/Src/bme280.c ****     calib_data->dig_T3 = (int16_t)BME280_CONCAT_BYTES(reg_data[5], reg_data[4]);
 343              		.loc 1 173 26 view .LVU118
 344 0094 8946     		mov	r9, r1
 173:Core/Src/bme280.c ****     calib_data->dig_T3 = (int16_t)BME280_CONCAT_BYTES(reg_data[5], reg_data[4]);
 345              		.loc 1 173 24 view .LVU119
 346 0096 E185     		strh	r1, [r4, #46]
 174:Core/Src/bme280.c ****     calib_data->dig_P1 = BME280_CONCAT_BYTES(reg_data[7], reg_data[6]);
 347              		.loc 1 174 5 is_stmt 1 view .LVU120
 174:Core/Src/bme280.c ****     calib_data->dig_P1 = BME280_CONCAT_BYTES(reg_data[7], reg_data[6]);
 348              		.loc 1 174 35 is_stmt 0 view .LVU121
 349 0098 2179     		ldrb	r1, [r4, #4]
 350 009a 0002     		lsls	r0, r0, #8
 174:Core/Src/bme280.c ****     calib_data->dig_P1 = BME280_CONCAT_BYTES(reg_data[7], reg_data[6]);
 351              		.loc 1 174 26 view .LVU122
 352 009c 0143     		orrs	r1, r0
 353 009e 09B2     		sxth	r1, r1
 354 00a0 8846     		mov	r8, r1
 174:Core/Src/bme280.c ****     calib_data->dig_P1 = BME280_CONCAT_BYTES(reg_data[7], reg_data[6]);
 355              		.loc 1 174 24 view .LVU123
 356 00a2 2186     		strh	r1, [r4, #48]
 175:Core/Src/bme280.c ****     calib_data->dig_P2 = (int16_t)BME280_CONCAT_BYTES(reg_data[9], reg_data[8]);
 357              		.loc 1 175 5 is_stmt 1 view .LVU124
 175:Core/Src/bme280.c ****     calib_data->dig_P2 = (int16_t)BME280_CONCAT_BYTES(reg_data[9], reg_data[8]);
 358              		.loc 1 175 26 is_stmt 0 view .LVU125
 359 00a4 E179     		ldrb	r1, [r4, #7]
 360 00a6 A079     		ldrb	r0, [r4, #6]
ARM GAS  /tmp/cclaqcMK.s 			page 13


 361 00a8 0902     		lsls	r1, r1, #8
 362 00aa 0843     		orrs	r0, r1
 175:Core/Src/bme280.c ****     calib_data->dig_P2 = (int16_t)BME280_CONCAT_BYTES(reg_data[9], reg_data[8]);
 363              		.loc 1 175 24 view .LVU126
 364 00ac 6086     		strh	r0, [r4, #50]
 176:Core/Src/bme280.c ****     calib_data->dig_P3 = (int16_t)BME280_CONCAT_BYTES(reg_data[11], reg_data[10]);
 365              		.loc 1 176 5 is_stmt 1 view .LVU127
 175:Core/Src/bme280.c ****     calib_data->dig_P2 = (int16_t)BME280_CONCAT_BYTES(reg_data[9], reg_data[8]);
 366              		.loc 1 175 26 is_stmt 0 view .LVU128
 367 00ae 8446     		mov	ip, r0
 176:Core/Src/bme280.c ****     calib_data->dig_P3 = (int16_t)BME280_CONCAT_BYTES(reg_data[11], reg_data[10]);
 368              		.loc 1 176 35 view .LVU129
 369 00b0 607A     		ldrb	r0, [r4, #9]
 370 00b2 217A     		ldrb	r1, [r4, #8]
 177:Core/Src/bme280.c ****     calib_data->dig_P4 = (int16_t)BME280_CONCAT_BYTES(reg_data[13], reg_data[12]);
 371              		.loc 1 177 35 view .LVU130
 372 00b4 E57A     		ldrb	r5, [r4, #11]
 176:Core/Src/bme280.c ****     calib_data->dig_P3 = (int16_t)BME280_CONCAT_BYTES(reg_data[11], reg_data[10]);
 373              		.loc 1 176 35 view .LVU131
 374 00b6 0002     		lsls	r0, r0, #8
 176:Core/Src/bme280.c ****     calib_data->dig_P3 = (int16_t)BME280_CONCAT_BYTES(reg_data[11], reg_data[10]);
 375              		.loc 1 176 26 view .LVU132
 376 00b8 0143     		orrs	r1, r0
 177:Core/Src/bme280.c ****     calib_data->dig_P4 = (int16_t)BME280_CONCAT_BYTES(reg_data[13], reg_data[12]);
 377              		.loc 1 177 35 view .LVU133
 378 00ba A07A     		ldrb	r0, [r4, #10]
 379 00bc 2D02     		lsls	r5, r5, #8
 177:Core/Src/bme280.c ****     calib_data->dig_P4 = (int16_t)BME280_CONCAT_BYTES(reg_data[13], reg_data[12]);
 380              		.loc 1 177 26 view .LVU134
 381 00be 2843     		orrs	r0, r5
 176:Core/Src/bme280.c ****     calib_data->dig_P3 = (int16_t)BME280_CONCAT_BYTES(reg_data[11], reg_data[10]);
 382              		.loc 1 176 26 view .LVU135
 383 00c0 09B2     		sxth	r1, r1
 177:Core/Src/bme280.c ****     calib_data->dig_P4 = (int16_t)BME280_CONCAT_BYTES(reg_data[13], reg_data[12]);
 384              		.loc 1 177 26 view .LVU136
 385 00c2 00B2     		sxth	r0, r0
 176:Core/Src/bme280.c ****     calib_data->dig_P3 = (int16_t)BME280_CONCAT_BYTES(reg_data[11], reg_data[10]);
 386              		.loc 1 176 26 view .LVU137
 387 00c4 0391     		str	r1, [sp, #12]
 176:Core/Src/bme280.c ****     calib_data->dig_P3 = (int16_t)BME280_CONCAT_BYTES(reg_data[11], reg_data[10]);
 388              		.loc 1 176 24 view .LVU138
 389 00c6 A186     		strh	r1, [r4, #52]
 177:Core/Src/bme280.c ****     calib_data->dig_P4 = (int16_t)BME280_CONCAT_BYTES(reg_data[13], reg_data[12]);
 390              		.loc 1 177 5 is_stmt 1 view .LVU139
 177:Core/Src/bme280.c ****     calib_data->dig_P4 = (int16_t)BME280_CONCAT_BYTES(reg_data[13], reg_data[12]);
 391              		.loc 1 177 24 is_stmt 0 view .LVU140
 392 00c8 E086     		strh	r0, [r4, #54]
 178:Core/Src/bme280.c ****     calib_data->dig_P5 = (int16_t)BME280_CONCAT_BYTES(reg_data[15], reg_data[14]);
 393              		.loc 1 178 5 is_stmt 1 view .LVU141
 178:Core/Src/bme280.c ****     calib_data->dig_P5 = (int16_t)BME280_CONCAT_BYTES(reg_data[15], reg_data[14]);
 394              		.loc 1 178 35 is_stmt 0 view .LVU142
 395 00ca 667B     		ldrb	r6, [r4, #13]
 396 00cc 257B     		ldrb	r5, [r4, #12]
 397 00ce 3602     		lsls	r6, r6, #8
 178:Core/Src/bme280.c ****     calib_data->dig_P5 = (int16_t)BME280_CONCAT_BYTES(reg_data[15], reg_data[14]);
 398              		.loc 1 178 26 view .LVU143
 399 00d0 3543     		orrs	r5, r6
ARM GAS  /tmp/cclaqcMK.s 			page 14


 400 00d2 2DB2     		sxth	r5, r5
 179:Core/Src/bme280.c ****     calib_data->dig_P6 = (int16_t)BME280_CONCAT_BYTES(reg_data[17], reg_data[16]);
 401              		.loc 1 179 35 view .LVU144
 402 00d4 E67B     		ldrb	r6, [r4, #15]
 178:Core/Src/bme280.c ****     calib_data->dig_P5 = (int16_t)BME280_CONCAT_BYTES(reg_data[15], reg_data[14]);
 403              		.loc 1 178 24 view .LVU145
 404 00d6 2587     		strh	r5, [r4, #56]
 179:Core/Src/bme280.c ****     calib_data->dig_P6 = (int16_t)BME280_CONCAT_BYTES(reg_data[17], reg_data[16]);
 405              		.loc 1 179 5 is_stmt 1 view .LVU146
 178:Core/Src/bme280.c ****     calib_data->dig_P5 = (int16_t)BME280_CONCAT_BYTES(reg_data[15], reg_data[14]);
 406              		.loc 1 178 26 is_stmt 0 view .LVU147
 407 00d8 0795     		str	r5, [sp, #28]
 179:Core/Src/bme280.c ****     calib_data->dig_P6 = (int16_t)BME280_CONCAT_BYTES(reg_data[17], reg_data[16]);
 408              		.loc 1 179 35 view .LVU148
 409 00da A57B     		ldrb	r5, [r4, #14]
 410 00dc 3602     		lsls	r6, r6, #8
 179:Core/Src/bme280.c ****     calib_data->dig_P6 = (int16_t)BME280_CONCAT_BYTES(reg_data[17], reg_data[16]);
 411              		.loc 1 179 26 view .LVU149
 412 00de 3543     		orrs	r5, r6
 413 00e0 2DB2     		sxth	r5, r5
 180:Core/Src/bme280.c ****     calib_data->dig_P7 = (int16_t)BME280_CONCAT_BYTES(reg_data[19], reg_data[18]);
 414              		.loc 1 180 35 view .LVU150
 415 00e2 667C     		ldrb	r6, [r4, #17]
 179:Core/Src/bme280.c ****     calib_data->dig_P6 = (int16_t)BME280_CONCAT_BYTES(reg_data[17], reg_data[16]);
 416              		.loc 1 179 24 view .LVU151
 417 00e4 6587     		strh	r5, [r4, #58]
 180:Core/Src/bme280.c ****     calib_data->dig_P7 = (int16_t)BME280_CONCAT_BYTES(reg_data[19], reg_data[18]);
 418              		.loc 1 180 5 is_stmt 1 view .LVU152
 179:Core/Src/bme280.c ****     calib_data->dig_P6 = (int16_t)BME280_CONCAT_BYTES(reg_data[17], reg_data[16]);
 419              		.loc 1 179 26 is_stmt 0 view .LVU153
 420 00e6 0895     		str	r5, [sp, #32]
 180:Core/Src/bme280.c ****     calib_data->dig_P7 = (int16_t)BME280_CONCAT_BYTES(reg_data[19], reg_data[18]);
 421              		.loc 1 180 35 view .LVU154
 422 00e8 257C     		ldrb	r5, [r4, #16]
 423 00ea 3602     		lsls	r6, r6, #8
 180:Core/Src/bme280.c ****     calib_data->dig_P7 = (int16_t)BME280_CONCAT_BYTES(reg_data[19], reg_data[18]);
 424              		.loc 1 180 26 view .LVU155
 425 00ec 3543     		orrs	r5, r6
 426 00ee 2DB2     		sxth	r5, r5
 181:Core/Src/bme280.c ****     calib_data->dig_P8 = (int16_t)BME280_CONCAT_BYTES(reg_data[21], reg_data[20]);
 427              		.loc 1 181 35 view .LVU156
 428 00f0 E67C     		ldrb	r6, [r4, #19]
 180:Core/Src/bme280.c ****     calib_data->dig_P7 = (int16_t)BME280_CONCAT_BYTES(reg_data[19], reg_data[18]);
 429              		.loc 1 180 24 view .LVU157
 430 00f2 A587     		strh	r5, [r4, #60]
 181:Core/Src/bme280.c ****     calib_data->dig_P8 = (int16_t)BME280_CONCAT_BYTES(reg_data[21], reg_data[20]);
 431              		.loc 1 181 5 is_stmt 1 view .LVU158
 180:Core/Src/bme280.c ****     calib_data->dig_P7 = (int16_t)BME280_CONCAT_BYTES(reg_data[19], reg_data[18]);
 432              		.loc 1 180 26 is_stmt 0 view .LVU159
 433 00f4 0995     		str	r5, [sp, #36]
 181:Core/Src/bme280.c ****     calib_data->dig_P8 = (int16_t)BME280_CONCAT_BYTES(reg_data[21], reg_data[20]);
 434              		.loc 1 181 35 view .LVU160
 435 00f6 A57C     		ldrb	r5, [r4, #18]
 436 00f8 3602     		lsls	r6, r6, #8
 181:Core/Src/bme280.c ****     calib_data->dig_P8 = (int16_t)BME280_CONCAT_BYTES(reg_data[21], reg_data[20]);
 437              		.loc 1 181 26 view .LVU161
 438 00fa 3543     		orrs	r5, r6
ARM GAS  /tmp/cclaqcMK.s 			page 15


 439 00fc 2DB2     		sxth	r5, r5
 182:Core/Src/bme280.c ****     calib_data->dig_P9 = (int16_t)BME280_CONCAT_BYTES(reg_data[23], reg_data[22]);
 440              		.loc 1 182 35 view .LVU162
 441 00fe 667D     		ldrb	r6, [r4, #21]
 181:Core/Src/bme280.c ****     calib_data->dig_P8 = (int16_t)BME280_CONCAT_BYTES(reg_data[21], reg_data[20]);
 442              		.loc 1 181 24 view .LVU163
 443 0100 E587     		strh	r5, [r4, #62]
 182:Core/Src/bme280.c ****     calib_data->dig_P9 = (int16_t)BME280_CONCAT_BYTES(reg_data[23], reg_data[22]);
 444              		.loc 1 182 5 is_stmt 1 view .LVU164
 181:Core/Src/bme280.c ****     calib_data->dig_P8 = (int16_t)BME280_CONCAT_BYTES(reg_data[21], reg_data[20]);
 445              		.loc 1 181 26 is_stmt 0 view .LVU165
 446 0102 0A95     		str	r5, [sp, #40]
 182:Core/Src/bme280.c ****     calib_data->dig_P9 = (int16_t)BME280_CONCAT_BYTES(reg_data[23], reg_data[22]);
 447              		.loc 1 182 35 view .LVU166
 448 0104 257D     		ldrb	r5, [r4, #20]
 449 0106 3602     		lsls	r6, r6, #8
 182:Core/Src/bme280.c ****     calib_data->dig_P9 = (int16_t)BME280_CONCAT_BYTES(reg_data[23], reg_data[22]);
 450              		.loc 1 182 26 view .LVU167
 451 0108 3543     		orrs	r5, r6
 452 010a 2DB2     		sxth	r5, r5
 453 010c 2E00     		movs	r6, r5
 454 010e 0B95     		str	r5, [sp, #44]
 182:Core/Src/bme280.c ****     calib_data->dig_P9 = (int16_t)BME280_CONCAT_BYTES(reg_data[23], reg_data[22]);
 455              		.loc 1 182 24 view .LVU168
 456 0110 4025     		movs	r5, #64
 457 0112 6653     		strh	r6, [r4, r5]
 183:Core/Src/bme280.c ****     calib_data->dig_H1 = reg_data[25];
 458              		.loc 1 183 5 is_stmt 1 view .LVU169
 183:Core/Src/bme280.c ****     calib_data->dig_H1 = reg_data[25];
 459              		.loc 1 183 35 is_stmt 0 view .LVU170
 460 0114 E67D     		ldrb	r6, [r4, #23]
 461 0116 A57D     		ldrb	r5, [r4, #22]
 462 0118 3602     		lsls	r6, r6, #8
 183:Core/Src/bme280.c ****     calib_data->dig_H1 = reg_data[25];
 463              		.loc 1 183 26 view .LVU171
 464 011a 3543     		orrs	r5, r6
 465 011c 2DB2     		sxth	r5, r5
 466 011e 2E00     		movs	r6, r5
 467 0120 0C95     		str	r5, [sp, #48]
 183:Core/Src/bme280.c ****     calib_data->dig_H1 = reg_data[25];
 468              		.loc 1 183 24 view .LVU172
 469 0122 4225     		movs	r5, #66
 470 0124 6653     		strh	r6, [r4, r5]
 184:Core/Src/bme280.c **** }
 471              		.loc 1 184 5 is_stmt 1 view .LVU173
 184:Core/Src/bme280.c **** }
 472              		.loc 1 184 24 is_stmt 0 view .LVU174
 473 0126 2500     		movs	r5, r4
 474 0128 667E     		ldrb	r6, [r4, #25]
 475 012a 2C35     		adds	r5, r5, #44
 476              	.LVL31:
 184:Core/Src/bme280.c **** }
 477              		.loc 1 184 24 view .LVU175
 478 012c 2E76     		strb	r6, [r5, #24]
 479              	.LVL32:
 184:Core/Src/bme280.c **** }
 480              		.loc 1 184 24 view .LVU176
ARM GAS  /tmp/cclaqcMK.s 			page 16


 481              	.LBE21:
 482              	.LBE20:
 239:Core/Src/bme280.c **** 		parse_humidity_calib_data(dev->calib_26_41, dev);
 483              		.loc 1 239 3 is_stmt 1 view .LVU177
 484              	.LBB23:
 485              	.LBI23:
 186:Core/Src/bme280.c **** {
 486              		.loc 1 186 7 view .LVU178
 487              	.LBB24:
 188:Core/Src/bme280.c ****     int16_t dig_H4_lsb;
 488              		.loc 1 188 5 view .LVU179
 189:Core/Src/bme280.c ****     int16_t dig_H4_msb;
 489              		.loc 1 189 5 view .LVU180
 190:Core/Src/bme280.c ****     int16_t dig_H5_lsb;
 490              		.loc 1 190 5 view .LVU181
 191:Core/Src/bme280.c ****     int16_t dig_H5_msb;
 491              		.loc 1 191 5 view .LVU182
 192:Core/Src/bme280.c **** 
 492              		.loc 1 192 5 view .LVU183
 194:Core/Src/bme280.c ****     calib_data->dig_H3 = reg_data[2];
 493              		.loc 1 194 5 view .LVU184
 194:Core/Src/bme280.c ****     calib_data->dig_H3 = reg_data[2];
 494              		.loc 1 194 35 is_stmt 0 view .LVU185
 495 012e E77E     		ldrb	r7, [r4, #27]
 496              	.LBE24:
 497              	.LBE23:
 498              	.LBB27:
 499              	.LBB22:
 184:Core/Src/bme280.c **** }
 500              		.loc 1 184 24 view .LVU186
 501 0130 0496     		str	r6, [sp, #16]
 502              	.LBE22:
 503              	.LBE27:
 504              	.LBB28:
 505              	.LBB25:
 194:Core/Src/bme280.c ****     calib_data->dig_H3 = reg_data[2];
 506              		.loc 1 194 35 view .LVU187
 507 0132 A67E     		ldrb	r6, [r4, #26]
 508 0134 3F02     		lsls	r7, r7, #8
 194:Core/Src/bme280.c ****     calib_data->dig_H3 = reg_data[2];
 509              		.loc 1 194 26 view .LVU188
 510 0136 3E43     		orrs	r6, r7
 511 0138 36B2     		sxth	r6, r6
 512 013a 3700     		movs	r7, r6
 513 013c 0096     		str	r6, [sp]
 194:Core/Src/bme280.c ****     calib_data->dig_H3 = reg_data[2];
 514              		.loc 1 194 24 view .LVU189
 515 013e 4626     		movs	r6, #70
 516 0140 A753     		strh	r7, [r4, r6]
 195:Core/Src/bme280.c ****     dig_H4_msb = (int16_t)(int8_t)reg_data[3] * 16;
 517              		.loc 1 195 5 is_stmt 1 view .LVU190
 195:Core/Src/bme280.c ****     dig_H4_msb = (int16_t)(int8_t)reg_data[3] * 16;
 518              		.loc 1 195 24 is_stmt 0 view .LVU191
 519 0142 267F     		ldrb	r6, [r4, #28]
 197:Core/Src/bme280.c ****     calib_data->dig_H4 = dig_H4_msb | dig_H4_lsb;
 520              		.loc 1 197 16 view .LVU192
 521 0144 0F27     		movs	r7, #15
ARM GAS  /tmp/cclaqcMK.s 			page 17


 195:Core/Src/bme280.c ****     dig_H4_msb = (int16_t)(int8_t)reg_data[3] * 16;
 522              		.loc 1 195 24 view .LVU193
 523 0146 0196     		str	r6, [sp, #4]
 524 0148 2E77     		strb	r6, [r5, #28]
 196:Core/Src/bme280.c ****     dig_H4_lsb = (int16_t)(reg_data[4] & 0x0F);
 525              		.loc 1 196 5 is_stmt 1 view .LVU194
 526              	.LVL33:
 197:Core/Src/bme280.c ****     calib_data->dig_H4 = dig_H4_msb | dig_H4_lsb;
 527              		.loc 1 197 5 view .LVU195
 196:Core/Src/bme280.c ****     dig_H4_lsb = (int16_t)(reg_data[4] & 0x0F);
 528              		.loc 1 196 27 is_stmt 0 view .LVU196
 529 014a 1D26     		movs	r6, #29
 197:Core/Src/bme280.c ****     calib_data->dig_H4 = dig_H4_msb | dig_H4_lsb;
 530              		.loc 1 197 36 view .LVU197
 531 014c A57F     		ldrb	r5, [r4, #30]
 532              	.LVL34:
 198:Core/Src/bme280.c ****     dig_H5_msb = (int16_t)(int8_t)reg_data[5] * 16;
 533              		.loc 1 198 5 is_stmt 1 view .LVU198
 196:Core/Src/bme280.c ****     dig_H4_lsb = (int16_t)(reg_data[4] & 0x0F);
 534              		.loc 1 196 27 is_stmt 0 view .LVU199
 535 014e A657     		ldrsb	r6, [r4, r6]
 197:Core/Src/bme280.c ****     calib_data->dig_H4 = dig_H4_msb | dig_H4_lsb;
 536              		.loc 1 197 16 view .LVU200
 537 0150 2F40     		ands	r7, r5
 196:Core/Src/bme280.c ****     dig_H4_lsb = (int16_t)(reg_data[4] & 0x0F);
 538              		.loc 1 196 47 view .LVU201
 539 0152 3601     		lsls	r6, r6, #4
 198:Core/Src/bme280.c ****     dig_H5_msb = (int16_t)(int8_t)reg_data[5] * 16;
 540              		.loc 1 198 24 view .LVU202
 541 0154 3743     		orrs	r7, r6
 542 0156 4A26     		movs	r6, #74
 543 0158 0297     		str	r7, [sp, #8]
 544 015a A753     		strh	r7, [r4, r6]
 545              	.LVL35:
 199:Core/Src/bme280.c ****     dig_H5_lsb = (int16_t)(reg_data[4] >> 4);
 546              		.loc 1 199 5 is_stmt 1 view .LVU203
 200:Core/Src/bme280.c ****     calib_data->dig_H5 = dig_H5_msb | dig_H5_lsb;
 547              		.loc 1 200 5 view .LVU204
 201:Core/Src/bme280.c ****     calib_data->dig_H6 = (int8_t)reg_data[6];
 548              		.loc 1 201 5 view .LVU205
 199:Core/Src/bme280.c ****     dig_H5_lsb = (int16_t)(reg_data[4] >> 4);
 549              		.loc 1 199 27 is_stmt 0 view .LVU206
 550 015c 1F27     		movs	r7, #31
 200:Core/Src/bme280.c ****     calib_data->dig_H5 = dig_H5_msb | dig_H5_lsb;
 551              		.loc 1 200 16 view .LVU207
 552 015e 2E09     		lsrs	r6, r5, #4
 201:Core/Src/bme280.c ****     calib_data->dig_H6 = (int8_t)reg_data[6];
 553              		.loc 1 201 24 view .LVU208
 554 0160 4C25     		movs	r5, #76
 555              	.LVL36:
 199:Core/Src/bme280.c ****     dig_H5_lsb = (int16_t)(reg_data[4] >> 4);
 556              		.loc 1 199 27 view .LVU209
 557 0162 E757     		ldrsb	r7, [r4, r7]
 558              	.LBE25:
 559              	.LBE28:
 560              	.LBB29:
 561              	.LBB30:
ARM GAS  /tmp/cclaqcMK.s 			page 18


 562              	.LBB31:
 563              	.LBB32:
  67:Core/Src/bme280.c ****     var1 = (var1 * ((int32_t)dev->calib_data.dig_T2)) / 2048;
 564              		.loc 1 67 92 view .LVU210
 565 0164 5146     		mov	r1, r10
 566              	.LBE32:
 567              	.LBE31:
 568              	.LBE30:
 569              	.LBE29:
 570              	.LBB47:
 571              	.LBB26:
 199:Core/Src/bme280.c ****     dig_H5_lsb = (int16_t)(reg_data[4] >> 4);
 572              		.loc 1 199 47 view .LVU211
 573 0166 3F01     		lsls	r7, r7, #4
 201:Core/Src/bme280.c ****     calib_data->dig_H6 = (int8_t)reg_data[6];
 574              		.loc 1 201 24 view .LVU212
 575 0168 3E43     		orrs	r6, r7
 576 016a 6653     		strh	r6, [r4, r5]
 577              	.LVL37:
 202:Core/Src/bme280.c **** }
 578              		.loc 1 202 5 is_stmt 1 view .LVU213
 202:Core/Src/bme280.c **** }
 579              		.loc 1 202 42 is_stmt 0 view .LVU214
 580 016c 2C3D     		subs	r5, r5, #44
 202:Core/Src/bme280.c **** }
 581              		.loc 1 202 26 view .LVU215
 582 016e 6757     		ldrsb	r7, [r4, r5]
 202:Core/Src/bme280.c **** }
 583              		.loc 1 202 24 view .LVU216
 584 0170 2500     		movs	r5, r4
 585 0172 4E35     		adds	r5, r5, #78
 586 0174 2F70     		strb	r7, [r5]
 587              	.LVL38:
 202:Core/Src/bme280.c **** }
 588              		.loc 1 202 24 view .LVU217
 589              	.LBE26:
 590              	.LBE47:
 240:Core/Src/bme280.c **** 		bme280_compensate_data(dev);
 591              		.loc 1 240 3 is_stmt 1 view .LVU218
 592              	.LBB48:
 593              	.LBI29:
  44:Core/Src/bme280.c **** {
 594              		.loc 1 44 8 view .LVU219
 595              	.LBB45:
  46:Core/Src/bme280.c **** 
 596              		.loc 1 46 5 view .LVU220
  49:Core/Src/bme280.c ****         dev->data.pressure = 0;
 597              		.loc 1 49 8 view .LVU221
  50:Core/Src/bme280.c ****         dev->data.humidity = 0;
 598              		.loc 1 50 9 view .LVU222
  51:Core/Src/bme280.c ****         dev->data.temperature = compensate_temperature(dev);
 599              		.loc 1 51 9 view .LVU223
  52:Core/Src/bme280.c ****         dev->data.pressure = compensate_pressure(dev);
 600              		.loc 1 52 9 view .LVU224
 601              	.LBB35:
 602              	.LBI31:
  59:Core/Src/bme280.c **** {
ARM GAS  /tmp/cclaqcMK.s 			page 19


 603              		.loc 1 59 16 view .LVU225
 604              	.LBB33:
  61:Core/Src/bme280.c ****     int32_t var2;
 605              		.loc 1 61 5 view .LVU226
  62:Core/Src/bme280.c ****     int32_t temperature;
 606              		.loc 1 62 5 view .LVU227
  63:Core/Src/bme280.c ****     int32_t temperature_min = -4000;
 607              		.loc 1 63 5 view .LVU228
  64:Core/Src/bme280.c ****     int32_t temperature_max = 8500;
 608              		.loc 1 64 5 view .LVU229
  65:Core/Src/bme280.c **** 
 609              		.loc 1 65 5 view .LVU230
  67:Core/Src/bme280.c ****     var1 = (var1 * ((int32_t)dev->calib_data.dig_T2)) / 2048;
 610              		.loc 1 67 5 view .LVU231
  68:Core/Src/bme280.c ****     var2 = (int32_t)((dev->uncomp_dat.temperature / 16) - ((int32_t)dev->calib_data.dig_T1));
 611              		.loc 1 68 5 view .LVU232
  67:Core/Src/bme280.c ****     var1 = (var1 * ((int32_t)dev->calib_data.dig_T2)) / 2048;
 612              		.loc 1 67 92 is_stmt 0 view .LVU233
 613 0176 4900     		lsls	r1, r1, #1
  67:Core/Src/bme280.c ****     var1 = (var1 * ((int32_t)dev->calib_data.dig_T2)) / 2048;
 614              		.loc 1 67 51 view .LVU234
 615 0178 D508     		lsrs	r5, r2, #3
  67:Core/Src/bme280.c ****     var1 = (var1 * ((int32_t)dev->calib_data.dig_T2)) / 2048;
 616              		.loc 1 67 56 view .LVU235
 617 017a 6D1A     		subs	r5, r5, r1
  68:Core/Src/bme280.c ****     var2 = (int32_t)((dev->uncomp_dat.temperature / 16) - ((int32_t)dev->calib_data.dig_T1));
 618              		.loc 1 68 18 view .LVU236
 619 017c 4946     		mov	r1, r9
 620 017e 4D43     		muls	r5, r1
 621              	.LVL39:
  69:Core/Src/bme280.c ****     var2 = (((var2 * var2) / 4096) * ((int32_t)dev->calib_data.dig_T3)) / 16384;
 622              		.loc 1 69 5 is_stmt 1 view .LVU237
  69:Core/Src/bme280.c ****     var2 = (((var2 * var2) / 4096) * ((int32_t)dev->calib_data.dig_T3)) / 16384;
 623              		.loc 1 69 57 is_stmt 0 view .LVU238
 624 0180 5146     		mov	r1, r10
  69:Core/Src/bme280.c ****     var2 = (((var2 * var2) / 4096) * ((int32_t)dev->calib_data.dig_T3)) / 16384;
 625              		.loc 1 69 51 view .LVU239
 626 0182 1209     		lsrs	r2, r2, #4
  69:Core/Src/bme280.c ****     var2 = (((var2 * var2) / 4096) * ((int32_t)dev->calib_data.dig_T3)) / 16384;
 627              		.loc 1 69 57 view .LVU240
 628 0184 521A     		subs	r2, r2, r1
 629              	.LVL40:
  70:Core/Src/bme280.c ****     dev->calib_data.t_fine = var1 + var2;
 630              		.loc 1 70 5 is_stmt 1 view .LVU241
  70:Core/Src/bme280.c ****     dev->calib_data.t_fine = var1 + var2;
 631              		.loc 1 70 20 is_stmt 0 view .LVU242
 632 0186 5243     		muls	r2, r2
 633              	.LVL41:
  70:Core/Src/bme280.c ****     dev->calib_data.t_fine = var1 + var2;
 634              		.loc 1 70 20 view .LVU243
 635 0188 9246     		mov	r10, r2
  70:Core/Src/bme280.c ****     dev->calib_data.t_fine = var1 + var2;
 636              		.loc 1 70 36 view .LVU244
 637 018a 4146     		mov	r1, r8
 638              	.LVL42:
  70:Core/Src/bme280.c ****     dev->calib_data.t_fine = var1 + var2;
 639              		.loc 1 70 28 view .LVU245
ARM GAS  /tmp/cclaqcMK.s 			page 20


 640 018c D217     		asrs	r2, r2, #31
 641 018e 1205     		lsls	r2, r2, #20
 642 0190 120D     		lsrs	r2, r2, #20
 643 0192 5244     		add	r2, r2, r10
 644 0194 1213     		asrs	r2, r2, #12
  70:Core/Src/bme280.c ****     dev->calib_data.t_fine = var1 + var2;
 645              		.loc 1 70 36 view .LVU246
 646 0196 5143     		muls	r1, r2
 647 0198 8846     		mov	r8, r1
 648              	.LVL43:
  71:Core/Src/bme280.c ****     temperature = (dev->calib_data.t_fine * 5 + 128) / 256;
 649              		.loc 1 71 5 is_stmt 1 view .LVU247
  68:Core/Src/bme280.c ****     var2 = (int32_t)((dev->uncomp_dat.temperature / 16) - ((int32_t)dev->calib_data.dig_T1));
 650              		.loc 1 68 10 is_stmt 0 view .LVU248
 651 019a EA17     		asrs	r2, r5, #31
 652 019c 5205     		lsls	r2, r2, #21
 653 019e 520D     		lsrs	r2, r2, #21
 654 01a0 5519     		adds	r5, r2, r5
 655              	.LVL44:
  70:Core/Src/bme280.c ****     dev->calib_data.t_fine = var1 + var2;
 656              		.loc 1 70 10 view .LVU249
 657 01a2 CA17     		asrs	r2, r1, #31
 658 01a4 9204     		lsls	r2, r2, #18
 659 01a6 920C     		lsrs	r2, r2, #18
 660 01a8 4244     		add	r2, r2, r8
 661 01aa 9213     		asrs	r2, r2, #14
  68:Core/Src/bme280.c ****     var2 = (int32_t)((dev->uncomp_dat.temperature / 16) - ((int32_t)dev->calib_data.dig_T1));
 662              		.loc 1 68 10 view .LVU250
 663 01ac ED12     		asrs	r5, r5, #11
  71:Core/Src/bme280.c ****     temperature = (dev->calib_data.t_fine * 5 + 128) / 256;
 664              		.loc 1 71 35 view .LVU251
 665 01ae AD18     		adds	r5, r5, r2
  72:Core/Src/bme280.c ****     if (temperature < temperature_min)
 666              		.loc 1 72 43 view .LVU252
 667 01b0 AA00     		lsls	r2, r5, #2
  73:Core/Src/bme280.c ****     {
 668              		.loc 1 73 8 view .LVU253
 669 01b2 7D49     		ldr	r1, .L21
 670              	.LVL45:
  72:Core/Src/bme280.c ****     if (temperature < temperature_min)
 671              		.loc 1 72 43 view .LVU254
 672 01b4 5219     		adds	r2, r2, r5
  71:Core/Src/bme280.c ****     temperature = (dev->calib_data.t_fine * 5 + 128) / 256;
 673              		.loc 1 71 28 view .LVU255
 674 01b6 2565     		str	r5, [r4, #80]
  72:Core/Src/bme280.c ****     if (temperature < temperature_min)
 675              		.loc 1 72 5 is_stmt 1 view .LVU256
 676              	.LVL46:
  73:Core/Src/bme280.c ****     {
 677              		.loc 1 73 5 view .LVU257
  73:Core/Src/bme280.c ****     {
 678              		.loc 1 73 8 is_stmt 0 view .LVU258
 679 01b8 8A42     		cmp	r2, r1
 680 01ba 00DA     		bge	.LCB537
 681 01bc F1E0     		b	.L17	@long jump
 682              	.LCB537:
  77:Core/Src/bme280.c ****     {
ARM GAS  /tmp/cclaqcMK.s 			page 21


 683              		.loc 1 77 10 is_stmt 1 view .LVU259
  77:Core/Src/bme280.c ****     {
 684              		.loc 1 77 13 is_stmt 0 view .LVU260
 685 01be 7B49     		ldr	r1, .L21+4
 686 01c0 8A42     		cmp	r2, r1
 687 01c2 00DD     		ble	.LCB541
 688 01c4 EBE0     		b	.L18	@long jump
 689              	.LCB541:
  72:Core/Src/bme280.c ****     if (temperature < temperature_min)
 690              		.loc 1 72 47 view .LVU261
 691 01c6 8032     		adds	r2, r2, #128
 692              	.LVL47:
  72:Core/Src/bme280.c ****     if (temperature < temperature_min)
 693              		.loc 1 72 17 view .LVU262
 694 01c8 D117     		asrs	r1, r2, #31
 695 01ca 0B40     		ands	r3, r1
 696 01cc 9A18     		adds	r2, r3, r2
 697              	.LVL48:
  72:Core/Src/bme280.c ****     if (temperature < temperature_min)
 698              		.loc 1 72 17 view .LVU263
 699 01ce 1212     		asrs	r2, r2, #8
 700              	.L9:
 701              	.LVL49:
  82:Core/Src/bme280.c **** }
 702              		.loc 1 82 5 is_stmt 1 view .LVU264
  82:Core/Src/bme280.c **** }
 703              		.loc 1 82 5 is_stmt 0 view .LVU265
 704              	.LBE33:
 705              	.LBE35:
  52:Core/Src/bme280.c ****         dev->data.pressure = compensate_pressure(dev);
 706              		.loc 1 52 31 view .LVU266
 707 01d0 A266     		str	r2, [r4, #104]
  53:Core/Src/bme280.c ****         dev->data.humidity = compensate_humidity(dev);
 708              		.loc 1 53 9 is_stmt 1 view .LVU267
 709              	.LVL50:
 710              	.LBB36:
 711              	.LBI36:
  84:Core/Src/bme280.c **** {
 712              		.loc 1 84 17 view .LVU268
 713              	.LBB37:
  86:Core/Src/bme280.c ****     int32_t var2;
 714              		.loc 1 86 5 view .LVU269
  87:Core/Src/bme280.c ****     int32_t var3;
 715              		.loc 1 87 5 view .LVU270
  88:Core/Src/bme280.c ****     int32_t var4;
 716              		.loc 1 88 5 view .LVU271
  89:Core/Src/bme280.c ****     uint32_t var5;
 717              		.loc 1 89 5 view .LVU272
  90:Core/Src/bme280.c ****     uint32_t pressure;
 718              		.loc 1 90 5 view .LVU273
  91:Core/Src/bme280.c ****     uint32_t pressure_min = 30000;
 719              		.loc 1 91 5 view .LVU274
  92:Core/Src/bme280.c ****     uint32_t pressure_max = 110000;
 720              		.loc 1 92 5 view .LVU275
  93:Core/Src/bme280.c **** 
 721              		.loc 1 93 5 view .LVU276
  95:Core/Src/bme280.c ****     var2 = (((var1 / 4) * (var1 / 4)) / 2048) * ((int32_t)dev->calib_data.dig_P6);
ARM GAS  /tmp/cclaqcMK.s 			page 22


 722              		.loc 1 95 5 view .LVU277
  95:Core/Src/bme280.c ****     var2 = (((var1 / 4) * (var1 / 4)) / 2048) * ((int32_t)dev->calib_data.dig_P6);
 723              		.loc 1 95 10 is_stmt 0 view .LVU278
 724 01d2 774A     		ldr	r2, .L21+8
  96:Core/Src/bme280.c ****     var2 = var2 + ((var1 * ((int32_t)dev->calib_data.dig_P5)) * 2);
 725              		.loc 1 96 20 view .LVU279
 726 01d4 0321     		movs	r1, #3
  95:Core/Src/bme280.c ****     var2 = (((var1 / 4) * (var1 / 4)) / 2048) * ((int32_t)dev->calib_data.dig_P6);
 727              		.loc 1 95 10 view .LVU280
 728 01d6 9046     		mov	r8, r2
  95:Core/Src/bme280.c ****     var2 = (((var1 / 4) * (var1 / 4)) / 2048) * ((int32_t)dev->calib_data.dig_P6);
 729              		.loc 1 95 47 view .LVU281
 730 01d8 EB0F     		lsrs	r3, r5, #31
 731 01da 5B19     		adds	r3, r3, r5
 732 01dc 5B10     		asrs	r3, r3, #1
  95:Core/Src/bme280.c ****     var2 = (((var1 / 4) * (var1 / 4)) / 2048) * ((int32_t)dev->calib_data.dig_P6);
 733              		.loc 1 95 10 view .LVU282
 734 01de 4344     		add	r3, r3, r8
 735              	.LVL51:
  96:Core/Src/bme280.c ****     var2 = var2 + ((var1 * ((int32_t)dev->calib_data.dig_P5)) * 2);
 736              		.loc 1 96 5 is_stmt 1 view .LVU283
  96:Core/Src/bme280.c ****     var2 = var2 + ((var1 * ((int32_t)dev->calib_data.dig_P5)) * 2);
 737              		.loc 1 96 20 is_stmt 0 view .LVU284
 738 01e0 DA17     		asrs	r2, r3, #31
 739 01e2 0A40     		ands	r2, r1
 740 01e4 D218     		adds	r2, r2, r3
 741 01e6 9210     		asrs	r2, r2, #2
  96:Core/Src/bme280.c ****     var2 = var2 + ((var1 * ((int32_t)dev->calib_data.dig_P5)) * 2);
 742              		.loc 1 96 25 view .LVU285
 743 01e8 5243     		muls	r2, r2
 744              	.LVL52:
  97:Core/Src/bme280.c ****     var2 = (var2 / 4) + (((int32_t)dev->calib_data.dig_P4) * 65536);
 745              		.loc 1 97 5 is_stmt 1 view .LVU286
  98:Core/Src/bme280.c ****     var3 = (dev->calib_data.dig_P3 * (((var1 / 4) * (var1 / 4)) / 8192)) / 8;
 746              		.loc 1 98 5 view .LVU287
  99:Core/Src/bme280.c ****     var4 = (((int32_t)dev->calib_data.dig_P2) * var1) / 2;
 747              		.loc 1 99 5 view .LVU288
 100:Core/Src/bme280.c ****     var1 = (var3 + var4) / 262144;
 748              		.loc 1 100 5 view .LVU289
 101:Core/Src/bme280.c ****     var1 = (((32768 + var1)) * ((int32_t)dev->calib_data.dig_P1)) / 32768;
 749              		.loc 1 101 5 view .LVU290
  96:Core/Src/bme280.c ****     var2 = var2 + ((var1 * ((int32_t)dev->calib_data.dig_P5)) * 2);
 750              		.loc 1 96 20 is_stmt 0 view .LVU291
 751 01ea 8A46     		mov	r10, r1
  99:Core/Src/bme280.c ****     var4 = (((int32_t)dev->calib_data.dig_P2) * var1) / 2;
 752              		.loc 1 99 65 view .LVU292
 753 01ec D117     		asrs	r1, r2, #31
 754 01ee 8946     		mov	r9, r1
 755 01f0 C904     		lsls	r1, r1, #19
 756 01f2 C90C     		lsrs	r1, r1, #19
 757 01f4 8846     		mov	r8, r1
 758 01f6 9044     		add	r8, r8, r2
 759 01f8 4146     		mov	r1, r8
 760 01fa 4913     		asrs	r1, r1, #13
  99:Core/Src/bme280.c ****     var4 = (((int32_t)dev->calib_data.dig_P2) * var1) / 2;
 761              		.loc 1 99 36 view .LVU293
 762 01fc 4843     		muls	r0, r1
ARM GAS  /tmp/cclaqcMK.s 			page 23


 763              	.LVL53:
  99:Core/Src/bme280.c ****     var4 = (((int32_t)dev->calib_data.dig_P2) * var1) / 2;
 764              		.loc 1 99 10 view .LVU294
 765 01fe C117     		asrs	r1, r0, #31
 766 0200 8B46     		mov	fp, r1
 767 0202 0721     		movs	r1, #7
 768 0204 8846     		mov	r8, r1
 769 0206 0690     		str	r0, [sp, #24]
 770 0208 5946     		mov	r1, fp
 771 020a 4046     		mov	r0, r8
 772 020c 0140     		ands	r1, r0
 773 020e 8846     		mov	r8, r1
 774 0210 0699     		ldr	r1, [sp, #24]
 775 0212 4144     		add	r1, r1, r8
 776 0214 C910     		asrs	r1, r1, #3
 777 0216 8846     		mov	r8, r1
 100:Core/Src/bme280.c ****     var1 = (var3 + var4) / 262144;
 778              		.loc 1 100 47 view .LVU295
 779 0218 0399     		ldr	r1, [sp, #12]
 780 021a 5943     		muls	r1, r3
 100:Core/Src/bme280.c ****     var1 = (var3 + var4) / 262144;
 781              		.loc 1 100 10 view .LVU296
 782 021c C80F     		lsrs	r0, r1, #31
 783 021e 4018     		adds	r0, r0, r1
 784 0220 4010     		asrs	r0, r0, #1
 101:Core/Src/bme280.c ****     var1 = (((32768 + var1)) * ((int32_t)dev->calib_data.dig_P1)) / 32768;
 785              		.loc 1 101 18 view .LVU297
 786 0222 4044     		add	r0, r0, r8
 787              	.LVL54:
 102:Core/Src/bme280.c **** 
 788              		.loc 1 102 5 is_stmt 1 view .LVU298
 101:Core/Src/bme280.c ****     var1 = (((32768 + var1)) * ((int32_t)dev->calib_data.dig_P1)) / 32768;
 789              		.loc 1 101 10 is_stmt 0 view .LVU299
 790 0224 C117     		asrs	r1, r0, #31
 791 0226 8903     		lsls	r1, r1, #14
 792 0228 890B     		lsrs	r1, r1, #14
 793 022a 0918     		adds	r1, r1, r0
 102:Core/Src/bme280.c **** 
 794              		.loc 1 102 21 view .LVU300
 795 022c 8020     		movs	r0, #128
 796              	.LVL55:
 102:Core/Src/bme280.c **** 
 797              		.loc 1 102 21 view .LVU301
 798 022e 0002     		lsls	r0, r0, #8
 799 0230 8046     		mov	r8, r0
 800              	.LVL56:
 102:Core/Src/bme280.c **** 
 801              		.loc 1 102 30 view .LVU302
 802 0232 6046     		mov	r0, ip
 101:Core/Src/bme280.c ****     var1 = (((32768 + var1)) * ((int32_t)dev->calib_data.dig_P1)) / 32768;
 803              		.loc 1 101 10 view .LVU303
 804 0234 8914     		asrs	r1, r1, #18
 102:Core/Src/bme280.c **** 
 805              		.loc 1 102 21 view .LVU304
 806 0236 4144     		add	r1, r1, r8
 102:Core/Src/bme280.c **** 
 807              		.loc 1 102 30 view .LVU305
ARM GAS  /tmp/cclaqcMK.s 			page 24


 808 0238 4843     		muls	r0, r1
 102:Core/Src/bme280.c **** 
 809              		.loc 1 102 10 view .LVU306
 810 023a C113     		asrs	r1, r0, #15
 811              	.LVL57:
 105:Core/Src/bme280.c ****     {
 812              		.loc 1 105 5 is_stmt 1 view .LVU307
 105:Core/Src/bme280.c ****     {
 813              		.loc 1 105 8 is_stmt 0 view .LVU308
 814 023c 4AD0     		beq	.L19
 107:Core/Src/bme280.c ****         pressure = ((uint32_t)(var5 - (uint32_t)(var2 / 4096))) * 3125;
 815              		.loc 1 107 9 is_stmt 1 view .LVU309
 816              	.LVL58:
 108:Core/Src/bme280.c ****         if (pressure < 0x80000000)
 817              		.loc 1 108 9 view .LVU310
  96:Core/Src/bme280.c ****     var2 = var2 + ((var1 * ((int32_t)dev->calib_data.dig_P5)) * 2);
 818              		.loc 1 96 39 is_stmt 0 view .LVU311
 819 023e 4846     		mov	r0, r9
 820 0240 4005     		lsls	r0, r0, #21
 821 0242 400D     		lsrs	r0, r0, #21
 822 0244 8018     		adds	r0, r0, r2
  96:Core/Src/bme280.c ****     var2 = var2 + ((var1 * ((int32_t)dev->calib_data.dig_P5)) * 2);
 823              		.loc 1 96 10 view .LVU312
 824 0246 099A     		ldr	r2, [sp, #36]
 825              	.LVL59:
  96:Core/Src/bme280.c ****     var2 = var2 + ((var1 * ((int32_t)dev->calib_data.dig_P5)) * 2);
 826              		.loc 1 96 39 view .LVU313
 827 0248 C012     		asrs	r0, r0, #11
  96:Core/Src/bme280.c ****     var2 = var2 + ((var1 * ((int32_t)dev->calib_data.dig_P5)) * 2);
 828              		.loc 1 96 10 view .LVU314
 829 024a 4243     		muls	r2, r0
 830 024c 1000     		movs	r0, r2
  97:Core/Src/bme280.c ****     var2 = (var2 / 4) + (((int32_t)dev->calib_data.dig_P4) * 65536);
 831              		.loc 1 97 26 view .LVU315
 832 024e 089A     		ldr	r2, [sp, #32]
 833 0250 5343     		muls	r3, r2
 834              	.LVL60:
  98:Core/Src/bme280.c ****     var3 = (dev->calib_data.dig_P3 * (((var1 / 4) * (var1 / 4)) / 8192)) / 8;
 835              		.loc 1 98 18 view .LVU316
 836 0252 5246     		mov	r2, r10
  97:Core/Src/bme280.c ****     var2 = (var2 / 4) + (((int32_t)dev->calib_data.dig_P4) * 65536);
 837              		.loc 1 97 63 view .LVU317
 838 0254 5B00     		lsls	r3, r3, #1
  97:Core/Src/bme280.c ****     var2 = (var2 / 4) + (((int32_t)dev->calib_data.dig_P4) * 65536);
 839              		.loc 1 97 10 view .LVU318
 840 0256 1818     		adds	r0, r3, r0
  98:Core/Src/bme280.c ****     var3 = (dev->calib_data.dig_P3 * (((var1 / 4) * (var1 / 4)) / 8192)) / 8;
 841              		.loc 1 98 18 view .LVU319
 842 0258 C317     		asrs	r3, r0, #31
 843 025a 1A40     		ands	r2, r3
 844 025c 1018     		adds	r0, r2, r0
 107:Core/Src/bme280.c ****         pressure = ((uint32_t)(var5 - (uint32_t)(var2 / 4096))) * 3125;
 845              		.loc 1 107 14 view .LVU320
 846 025e 8022     		movs	r2, #128
 847 0260 0D9B     		ldr	r3, [sp, #52]
 848 0262 5203     		lsls	r2, r2, #13
 849 0264 D21A     		subs	r2, r2, r3
ARM GAS  /tmp/cclaqcMK.s 			page 25


  98:Core/Src/bme280.c ****     var3 = (dev->calib_data.dig_P3 * (((var1 / 4) * (var1 / 4)) / 8192)) / 8;
 850              		.loc 1 98 60 view .LVU321
 851 0266 079B     		ldr	r3, [sp, #28]
  98:Core/Src/bme280.c ****     var3 = (dev->calib_data.dig_P3 * (((var1 / 4) * (var1 / 4)) / 8192)) / 8;
 852              		.loc 1 98 18 view .LVU322
 853 0268 8010     		asrs	r0, r0, #2
  98:Core/Src/bme280.c ****     var3 = (dev->calib_data.dig_P3 * (((var1 / 4) * (var1 / 4)) / 8192)) / 8;
 854              		.loc 1 98 60 view .LVU323
 855 026a 1B04     		lsls	r3, r3, #16
  98:Core/Src/bme280.c ****     var3 = (dev->calib_data.dig_P3 * (((var1 / 4) * (var1 / 4)) / 8192)) / 8;
 856              		.loc 1 98 10 view .LVU324
 857 026c 1B18     		adds	r3, r3, r0
 108:Core/Src/bme280.c ****         if (pressure < 0x80000000)
 858              		.loc 1 108 55 view .LVU325
 859 026e D817     		asrs	r0, r3, #31
 860 0270 0005     		lsls	r0, r0, #20
 861 0272 000D     		lsrs	r0, r0, #20
 862 0274 C018     		adds	r0, r0, r3
 863 0276 0013     		asrs	r0, r0, #12
 108:Core/Src/bme280.c ****         if (pressure < 0x80000000)
 864              		.loc 1 108 21 view .LVU326
 865 0278 121A     		subs	r2, r2, r0
 108:Core/Src/bme280.c ****         if (pressure < 0x80000000)
 866              		.loc 1 108 18 view .LVU327
 867 027a 4E48     		ldr	r0, .L21+12
 868 027c 5043     		muls	r0, r2
 869              	.LVL61:
 109:Core/Src/bme280.c ****         {
 870              		.loc 1 109 9 is_stmt 1 view .LVU328
 109:Core/Src/bme280.c ****         {
 871              		.loc 1 109 12 is_stmt 0 view .LVU329
 872 027e 0028     		cmp	r0, #0
 873 0280 00DA     		bge	.LCB696
 874 0282 88E0     		b	.L11	@long jump
 875              	.LCB696:
 111:Core/Src/bme280.c ****         }
 876              		.loc 1 111 13 is_stmt 1 view .LVU330
 111:Core/Src/bme280.c ****         }
 877              		.loc 1 111 34 is_stmt 0 view .LVU331
 878 0284 4000     		lsls	r0, r0, #1
 879              	.LVL62:
 111:Core/Src/bme280.c ****         }
 880              		.loc 1 111 22 view .LVU332
 881 0286 FFF7FEFF 		bl	__aeabi_uidiv
 882              	.LVL63:
 111:Core/Src/bme280.c ****         }
 883              		.loc 1 111 22 view .LVU333
 884 028a 0200     		movs	r2, r0
 885              	.LVL64:
 886              	.L12:
 117:Core/Src/bme280.c ****         var2 = (((int32_t)(pressure / 4)) * ((int32_t)dev->calib_data.dig_P8)) / 8192;
 887              		.loc 1 117 9 is_stmt 1 view .LVU334
 117:Core/Src/bme280.c ****         var2 = (((int32_t)(pressure / 4)) * ((int32_t)dev->calib_data.dig_P8)) / 8192;
 888              		.loc 1 117 75 is_stmt 0 view .LVU335
 889 028c D308     		lsrs	r3, r2, #3
 890              	.LVL65:
 118:Core/Src/bme280.c ****         pressure = (uint32_t)((int32_t)pressure + ((var1 + var2 + dev->calib_data.dig_P7) / 16));
ARM GAS  /tmp/cclaqcMK.s 			page 26


 891              		.loc 1 118 9 is_stmt 1 view .LVU336
 119:Core/Src/bme280.c ****         if (pressure < pressure_min)
 892              		.loc 1 119 9 view .LVU337
 117:Core/Src/bme280.c ****         var2 = (((int32_t)(pressure / 4)) * ((int32_t)dev->calib_data.dig_P8)) / 8192;
 893              		.loc 1 117 80 is_stmt 0 view .LVU338
 894 028e 5B43     		muls	r3, r3
 895              	.LVL66:
 117:Core/Src/bme280.c ****         var2 = (((int32_t)(pressure / 4)) * ((int32_t)dev->calib_data.dig_P8)) / 8192;
 896              		.loc 1 117 51 view .LVU339
 897 0290 0C99     		ldr	r1, [sp, #48]
 117:Core/Src/bme280.c ****         var2 = (((int32_t)(pressure / 4)) * ((int32_t)dev->calib_data.dig_P8)) / 8192;
 898              		.loc 1 117 98 view .LVU340
 899 0292 5B0B     		lsrs	r3, r3, #13
 117:Core/Src/bme280.c ****         var2 = (((int32_t)(pressure / 4)) * ((int32_t)dev->calib_data.dig_P8)) / 8192;
 900              		.loc 1 117 51 view .LVU341
 901 0294 5943     		muls	r1, r3
 117:Core/Src/bme280.c ****         var2 = (((int32_t)(pressure / 4)) * ((int32_t)dev->calib_data.dig_P8)) / 8192;
 902              		.loc 1 117 14 view .LVU342
 903 0296 CB17     		asrs	r3, r1, #31
 904 0298 1B05     		lsls	r3, r3, #20
 118:Core/Src/bme280.c ****         pressure = (uint32_t)((int32_t)pressure + ((var1 + var2 + dev->calib_data.dig_P7) / 16));
 905              		.loc 1 118 43 view .LVU343
 906 029a 0B98     		ldr	r0, [sp, #44]
 117:Core/Src/bme280.c ****         var2 = (((int32_t)(pressure / 4)) * ((int32_t)dev->calib_data.dig_P8)) / 8192;
 907              		.loc 1 117 14 view .LVU344
 908 029c 1B0D     		lsrs	r3, r3, #20
 909 029e 5B18     		adds	r3, r3, r1
 118:Core/Src/bme280.c ****         pressure = (uint32_t)((int32_t)pressure + ((var1 + var2 + dev->calib_data.dig_P7) / 16));
 910              		.loc 1 118 37 view .LVU345
 911 02a0 9108     		lsrs	r1, r2, #2
 118:Core/Src/bme280.c ****         pressure = (uint32_t)((int32_t)pressure + ((var1 + var2 + dev->calib_data.dig_P7) / 16));
 912              		.loc 1 118 43 view .LVU346
 913 02a2 4843     		muls	r0, r1
 914 02a4 0100     		movs	r1, r0
 118:Core/Src/bme280.c ****         pressure = (uint32_t)((int32_t)pressure + ((var1 + var2 + dev->calib_data.dig_P7) / 16));
 915              		.loc 1 118 14 view .LVU347
 916 02a6 C017     		asrs	r0, r0, #31
 917 02a8 C004     		lsls	r0, r0, #19
 918 02aa C00C     		lsrs	r0, r0, #19
 919 02ac 4018     		adds	r0, r0, r1
 119:Core/Src/bme280.c ****         if (pressure < pressure_min)
 920              		.loc 1 119 65 view .LVU348
 921 02ae 0A99     		ldr	r1, [sp, #40]
 118:Core/Src/bme280.c ****         pressure = (uint32_t)((int32_t)pressure + ((var1 + var2 + dev->calib_data.dig_P7) / 16));
 922              		.loc 1 118 14 view .LVU349
 923 02b0 4013     		asrs	r0, r0, #13
 119:Core/Src/bme280.c ****         if (pressure < pressure_min)
 924              		.loc 1 119 65 view .LVU350
 925 02b2 8C46     		mov	ip, r1
 117:Core/Src/bme280.c ****         var2 = (((int32_t)(pressure / 4)) * ((int32_t)dev->calib_data.dig_P8)) / 8192;
 926              		.loc 1 117 14 view .LVU351
 927 02b4 1B13     		asrs	r3, r3, #12
 119:Core/Src/bme280.c ****         if (pressure < pressure_min)
 928              		.loc 1 119 58 view .LVU352
 929 02b6 1B18     		adds	r3, r3, r0
 119:Core/Src/bme280.c ****         if (pressure < pressure_min)
 930              		.loc 1 119 91 view .LVU353
ARM GAS  /tmp/cclaqcMK.s 			page 27


 931 02b8 0F20     		movs	r0, #15
 119:Core/Src/bme280.c ****         if (pressure < pressure_min)
 932              		.loc 1 119 65 view .LVU354
 933 02ba 6344     		add	r3, r3, ip
 119:Core/Src/bme280.c ****         if (pressure < pressure_min)
 934              		.loc 1 119 91 view .LVU355
 935 02bc D917     		asrs	r1, r3, #31
 936 02be 0840     		ands	r0, r1
 937 02c0 C018     		adds	r0, r0, r3
 938 02c2 0011     		asrs	r0, r0, #4
 939 02c4 3C4B     		ldr	r3, .L21+16
 119:Core/Src/bme280.c ****         if (pressure < pressure_min)
 940              		.loc 1 119 49 view .LVU356
 941 02c6 8018     		adds	r0, r0, r2
 942              	.LVL67:
 120:Core/Src/bme280.c ****         {
 943              		.loc 1 120 9 is_stmt 1 view .LVU357
 944 02c8 9842     		cmp	r0, r3
 945 02ca 00D9     		bls	.L13
 120:Core/Src/bme280.c ****         {
 946              		.loc 1 120 9 is_stmt 0 view .LVU358
 947 02cc 1800     		movs	r0, r3
 948              	.L13:
 949 02ce 3B4B     		ldr	r3, .L21+20
 950 02d0 9842     		cmp	r0, r3
 951 02d2 00D2     		bcs	.L10
 952              	.LVL68:
 953              	.L19:
 131:Core/Src/bme280.c ****     }
 954              		.loc 1 131 18 view .LVU359
 955 02d4 3948     		ldr	r0, .L21+20
 956              	.L10:
 957              	.LVL69:
 134:Core/Src/bme280.c **** }
 958              		.loc 1 134 5 is_stmt 1 view .LVU360
 134:Core/Src/bme280.c **** }
 959              		.loc 1 134 5 is_stmt 0 view .LVU361
 960              	.LBE37:
 961              	.LBE36:
 962              	.LBB39:
 963              	.LBB40:
 146:Core/Src/bme280.c ****     var2 = (int32_t)(dev->uncomp_dat.humidity * 16384);
 964              		.loc 1 146 10 view .LVU362
 965 02d6 3A4B     		ldr	r3, .L21+24
 156:Core/Src/bme280.c ****     var5 = var3 - ((var4 * ((int32_t)dev->calib_data.dig_H1)) / 16);
 966              		.loc 1 156 10 view .LVU363
 967 02d8 7F21     		movs	r1, #127
 146:Core/Src/bme280.c ****     var2 = (int32_t)(dev->uncomp_dat.humidity * 16384);
 968              		.loc 1 146 10 view .LVU364
 969 02da 9C46     		mov	ip, r3
 147:Core/Src/bme280.c ****     var3 = (int32_t)(((int32_t)dev->calib_data.dig_H4) * 1048576);
 970              		.loc 1 147 47 view .LVU365
 971 02dc 059B     		ldr	r3, [sp, #20]
 146:Core/Src/bme280.c ****     var2 = (int32_t)(dev->uncomp_dat.humidity * 16384);
 972              		.loc 1 146 10 view .LVU366
 973 02de 6544     		add	r5, r5, ip
 147:Core/Src/bme280.c ****     var3 = (int32_t)(((int32_t)dev->calib_data.dig_H4) * 1048576);
ARM GAS  /tmp/cclaqcMK.s 			page 28


 974              		.loc 1 147 47 view .LVU367
 975 02e0 9A03     		lsls	r2, r3, #14
 148:Core/Src/bme280.c ****     var4 = ((int32_t)dev->calib_data.dig_H5) * var1;
 976              		.loc 1 148 10 view .LVU368
 977 02e2 029B     		ldr	r3, [sp, #8]
 149:Core/Src/bme280.c ****     var5 = (((var2 - var3) - var4) + (int32_t)16384) / 32768;
 978              		.loc 1 149 10 view .LVU369
 979 02e4 6E43     		muls	r6, r5
 148:Core/Src/bme280.c ****     var4 = ((int32_t)dev->calib_data.dig_H5) * var1;
 980              		.loc 1 148 10 view .LVU370
 981 02e6 1B05     		lsls	r3, r3, #20
 150:Core/Src/bme280.c ****     var2 = (var1 * ((int32_t)dev->calib_data.dig_H6)) / 1024;
 982              		.loc 1 150 20 view .LVU371
 983 02e8 D21A     		subs	r2, r2, r3
 150:Core/Src/bme280.c ****     var2 = (var1 * ((int32_t)dev->calib_data.dig_H6)) / 1024;
 984              		.loc 1 150 36 view .LVU372
 985 02ea 8023     		movs	r3, #128
 986 02ec DB01     		lsls	r3, r3, #7
 987 02ee 9C46     		mov	ip, r3
 150:Core/Src/bme280.c ****     var2 = (var1 * ((int32_t)dev->calib_data.dig_H6)) / 1024;
 988              		.loc 1 150 28 view .LVU373
 989 02f0 921B     		subs	r2, r2, r6
 150:Core/Src/bme280.c ****     var2 = (var1 * ((int32_t)dev->calib_data.dig_H6)) / 1024;
 990              		.loc 1 150 36 view .LVU374
 991 02f2 6244     		add	r2, r2, ip
 150:Core/Src/bme280.c ****     var2 = (var1 * ((int32_t)dev->calib_data.dig_H6)) / 1024;
 992              		.loc 1 150 10 view .LVU375
 993 02f4 D617     		asrs	r6, r2, #31
 994 02f6 7604     		lsls	r6, r6, #17
 995 02f8 760C     		lsrs	r6, r6, #17
 996 02fa B618     		adds	r6, r6, r2
 152:Core/Src/bme280.c ****     var4 = ((var2 * (var3 + (int32_t)32768)) / 1024) + (int32_t)2097152;
 997              		.loc 1 152 18 view .LVU376
 998 02fc 019A     		ldr	r2, [sp, #4]
 150:Core/Src/bme280.c ****     var2 = (var1 * ((int32_t)dev->calib_data.dig_H6)) / 1024;
 999              		.loc 1 150 10 view .LVU377
 1000 02fe F613     		asrs	r6, r6, #15
 152:Core/Src/bme280.c ****     var4 = ((var2 * (var3 + (int32_t)32768)) / 1024) + (int32_t)2097152;
 1001              		.loc 1 152 18 view .LVU378
 1002 0300 6A43     		muls	r2, r5
 152:Core/Src/bme280.c ****     var4 = ((var2 * (var3 + (int32_t)32768)) / 1024) + (int32_t)2097152;
 1003              		.loc 1 152 10 view .LVU379
 1004 0302 D317     		asrs	r3, r2, #31
 1005 0304 5B05     		lsls	r3, r3, #21
 1006 0306 5B0D     		lsrs	r3, r3, #21
 1007 0308 9B18     		adds	r3, r3, r2
 153:Core/Src/bme280.c ****     var2 = ((var4 * ((int32_t)dev->calib_data.dig_H2)) + 8192) / 16384;
 1008              		.loc 1 153 27 view .LVU380
 1009 030a 8022     		movs	r2, #128
 1010 030c 1202     		lsls	r2, r2, #8
 1011 030e 9446     		mov	ip, r2
 151:Core/Src/bme280.c ****     var3 = (var1 * ((int32_t)dev->calib_data.dig_H3)) / 2048;
 1012              		.loc 1 151 18 view .LVU381
 1013 0310 7D43     		muls	r5, r7
 151:Core/Src/bme280.c ****     var3 = (var1 * ((int32_t)dev->calib_data.dig_H3)) / 2048;
 1014              		.loc 1 151 10 view .LVU382
 1015 0312 EF17     		asrs	r7, r5, #31
ARM GAS  /tmp/cclaqcMK.s 			page 29


 1016 0314 BF05     		lsls	r7, r7, #22
 1017 0316 BF0D     		lsrs	r7, r7, #22
 152:Core/Src/bme280.c ****     var4 = ((var2 * (var3 + (int32_t)32768)) / 1024) + (int32_t)2097152;
 1018              		.loc 1 152 10 view .LVU383
 1019 0318 DB12     		asrs	r3, r3, #11
 151:Core/Src/bme280.c ****     var3 = (var1 * ((int32_t)dev->calib_data.dig_H3)) / 2048;
 1020              		.loc 1 151 10 view .LVU384
 1021 031a 7F19     		adds	r7, r7, r5
 153:Core/Src/bme280.c ****     var2 = ((var4 * ((int32_t)dev->calib_data.dig_H2)) + 8192) / 16384;
 1022              		.loc 1 153 27 view .LVU385
 1023 031c 6344     		add	r3, r3, ip
 151:Core/Src/bme280.c ****     var3 = (var1 * ((int32_t)dev->calib_data.dig_H3)) / 2048;
 1024              		.loc 1 151 10 view .LVU386
 1025 031e BF12     		asrs	r7, r7, #10
 153:Core/Src/bme280.c ****     var2 = ((var4 * ((int32_t)dev->calib_data.dig_H2)) + 8192) / 16384;
 1026              		.loc 1 153 19 view .LVU387
 1027 0320 5F43     		muls	r7, r3
 153:Core/Src/bme280.c ****     var2 = ((var4 * ((int32_t)dev->calib_data.dig_H2)) + 8192) / 16384;
 1028              		.loc 1 153 46 view .LVU388
 1029 0322 FB17     		asrs	r3, r7, #31
 1030 0324 9B05     		lsls	r3, r3, #22
 1031 0326 9B0D     		lsrs	r3, r3, #22
 1032 0328 DF19     		adds	r7, r3, r7
 153:Core/Src/bme280.c ****     var2 = ((var4 * ((int32_t)dev->calib_data.dig_H2)) + 8192) / 16384;
 1033              		.loc 1 153 10 view .LVU389
 1034 032a 8023     		movs	r3, #128
 1035 032c 9B03     		lsls	r3, r3, #14
 1036 032e 9C46     		mov	ip, r3
 153:Core/Src/bme280.c ****     var2 = ((var4 * ((int32_t)dev->calib_data.dig_H2)) + 8192) / 16384;
 1037              		.loc 1 153 46 view .LVU390
 1038 0330 BF12     		asrs	r7, r7, #10
 154:Core/Src/bme280.c ****     var3 = var5 * var2;
 1039              		.loc 1 154 19 view .LVU391
 1040 0332 009B     		ldr	r3, [sp]
 153:Core/Src/bme280.c ****     var2 = ((var4 * ((int32_t)dev->calib_data.dig_H2)) + 8192) / 16384;
 1041              		.loc 1 153 10 view .LVU392
 1042 0334 6744     		add	r7, r7, ip
 154:Core/Src/bme280.c ****     var3 = var5 * var2;
 1043              		.loc 1 154 19 view .LVU393
 1044 0336 7B43     		muls	r3, r7
 1045 0338 1F00     		movs	r7, r3
 154:Core/Src/bme280.c ****     var3 = var5 * var2;
 1046              		.loc 1 154 56 view .LVU394
 1047 033a 8023     		movs	r3, #128
 1048 033c 9B01     		lsls	r3, r3, #6
 1049 033e 9C46     		mov	ip, r3
 1050 0340 6744     		add	r7, r7, ip
 154:Core/Src/bme280.c ****     var3 = var5 * var2;
 1051              		.loc 1 154 10 view .LVU395
 1052 0342 FB17     		asrs	r3, r7, #31
 1053 0344 9B04     		lsls	r3, r3, #18
 1054 0346 9B0C     		lsrs	r3, r3, #18
 1055 0348 DB19     		adds	r3, r3, r7
 1056 034a 9B13     		asrs	r3, r3, #14
 155:Core/Src/bme280.c ****     var4 = ((var3 / 32768) * (var3 / 32768)) / 128;
 1057              		.loc 1 155 10 view .LVU396
 1058 034c 7343     		muls	r3, r6
ARM GAS  /tmp/cclaqcMK.s 			page 30


 156:Core/Src/bme280.c ****     var5 = var3 - ((var4 * ((int32_t)dev->calib_data.dig_H1)) / 16);
 1059              		.loc 1 156 19 view .LVU397
 1060 034e DA17     		asrs	r2, r3, #31
 1061 0350 5204     		lsls	r2, r2, #17
 1062 0352 520C     		lsrs	r2, r2, #17
 1063 0354 D218     		adds	r2, r2, r3
 1064 0356 D213     		asrs	r2, r2, #15
 156:Core/Src/bme280.c ****     var5 = var3 - ((var4 * ((int32_t)dev->calib_data.dig_H1)) / 16);
 1065              		.loc 1 156 28 view .LVU398
 1066 0358 5243     		muls	r2, r2
 1067              	.LBE40:
 1068              	.LBE39:
  53:Core/Src/bme280.c ****         dev->data.humidity = compensate_humidity(dev);
 1069              		.loc 1 53 28 view .LVU399
 1070 035a 6066     		str	r0, [r4, #100]
  54:Core/Src/bme280.c **** 
 1071              		.loc 1 54 9 is_stmt 1 view .LVU400
 1072              	.LVL70:
 1073              	.LBB42:
 1074              	.LBI39:
 136:Core/Src/bme280.c **** {
 1075              		.loc 1 136 17 view .LVU401
 1076              	.LBB41:
 138:Core/Src/bme280.c ****     int32_t var2;
 1077              		.loc 1 138 5 view .LVU402
 139:Core/Src/bme280.c ****     int32_t var3;
 1078              		.loc 1 139 5 view .LVU403
 140:Core/Src/bme280.c ****     int32_t var4;
 1079              		.loc 1 140 5 view .LVU404
 141:Core/Src/bme280.c ****     int32_t var5;
 1080              		.loc 1 141 5 view .LVU405
 142:Core/Src/bme280.c ****     uint32_t humidity;
 1081              		.loc 1 142 5 view .LVU406
 143:Core/Src/bme280.c ****     uint32_t humidity_max = 102400;
 1082              		.loc 1 143 5 view .LVU407
 144:Core/Src/bme280.c **** 
 1083              		.loc 1 144 5 view .LVU408
 146:Core/Src/bme280.c ****     var2 = (int32_t)(dev->uncomp_dat.humidity * 16384);
 1084              		.loc 1 146 5 view .LVU409
 147:Core/Src/bme280.c ****     var3 = (int32_t)(((int32_t)dev->calib_data.dig_H4) * 1048576);
 1085              		.loc 1 147 5 view .LVU410
 148:Core/Src/bme280.c ****     var4 = ((int32_t)dev->calib_data.dig_H5) * var1;
 1086              		.loc 1 148 5 view .LVU411
 149:Core/Src/bme280.c ****     var5 = (((var2 - var3) - var4) + (int32_t)16384) / 32768;
 1087              		.loc 1 149 5 view .LVU412
 150:Core/Src/bme280.c ****     var2 = (var1 * ((int32_t)dev->calib_data.dig_H6)) / 1024;
 1088              		.loc 1 150 5 view .LVU413
 151:Core/Src/bme280.c ****     var3 = (var1 * ((int32_t)dev->calib_data.dig_H3)) / 2048;
 1089              		.loc 1 151 5 view .LVU414
 152:Core/Src/bme280.c ****     var4 = ((var2 * (var3 + (int32_t)32768)) / 1024) + (int32_t)2097152;
 1090              		.loc 1 152 5 view .LVU415
 153:Core/Src/bme280.c ****     var2 = ((var4 * ((int32_t)dev->calib_data.dig_H2)) + 8192) / 16384;
 1091              		.loc 1 153 5 view .LVU416
 154:Core/Src/bme280.c ****     var3 = var5 * var2;
 1092              		.loc 1 154 5 view .LVU417
 155:Core/Src/bme280.c ****     var4 = ((var3 / 32768) * (var3 / 32768)) / 128;
 1093              		.loc 1 155 5 view .LVU418
ARM GAS  /tmp/cclaqcMK.s 			page 31


 156:Core/Src/bme280.c ****     var5 = var3 - ((var4 * ((int32_t)dev->calib_data.dig_H1)) / 16);
 1094              		.loc 1 156 5 view .LVU419
 157:Core/Src/bme280.c ****     var5 = (var5 < 0 ? 0 : var5);
 1095              		.loc 1 157 5 view .LVU420
 156:Core/Src/bme280.c ****     var5 = var3 - ((var4 * ((int32_t)dev->calib_data.dig_H1)) / 16);
 1096              		.loc 1 156 10 is_stmt 0 view .LVU421
 1097 035c D017     		asrs	r0, r2, #31
 1098 035e 0140     		ands	r1, r0
 1099 0360 8A18     		adds	r2, r1, r2
 157:Core/Src/bme280.c ****     var5 = (var5 < 0 ? 0 : var5);
 1100              		.loc 1 157 26 view .LVU422
 1101 0362 0499     		ldr	r1, [sp, #16]
 156:Core/Src/bme280.c ****     var5 = var3 - ((var4 * ((int32_t)dev->calib_data.dig_H1)) / 16);
 1102              		.loc 1 156 10 view .LVU423
 1103 0364 D211     		asrs	r2, r2, #7
 157:Core/Src/bme280.c ****     var5 = (var5 < 0 ? 0 : var5);
 1104              		.loc 1 157 26 view .LVU424
 1105 0366 5143     		muls	r1, r2
 157:Core/Src/bme280.c ****     var5 = (var5 < 0 ? 0 : var5);
 1106              		.loc 1 157 63 view .LVU425
 1107 0368 0F22     		movs	r2, #15
 1108 036a C817     		asrs	r0, r1, #31
 1109 036c 0240     		ands	r2, r0
 1110 036e 5218     		adds	r2, r2, r1
 1111 0370 1211     		asrs	r2, r2, #4
 157:Core/Src/bme280.c ****     var5 = (var5 < 0 ? 0 : var5);
 1112              		.loc 1 157 10 view .LVU426
 1113 0372 9B1A     		subs	r3, r3, r2
 1114              	.LVL71:
 158:Core/Src/bme280.c ****     var5 = (var5 > 419430400 ? 419430400 : var5);
 1115              		.loc 1 158 5 is_stmt 1 view .LVU427
 158:Core/Src/bme280.c ****     var5 = (var5 > 419430400 ? 419430400 : var5);
 1116              		.loc 1 158 10 is_stmt 0 view .LVU428
 1117 0374 DA43     		mvns	r2, r3
 1118 0376 D217     		asrs	r2, r2, #31
 1119 0378 1340     		ands	r3, r2
 1120              	.LVL72:
 159:Core/Src/bme280.c ****     humidity = (uint32_t)(var5 / 4096);
 1121              		.loc 1 159 5 is_stmt 1 view .LVU429
 160:Core/Src/bme280.c ****     if (humidity > humidity_max)
 1122              		.loc 1 160 5 view .LVU430
 161:Core/Src/bme280.c ****     {
 1123              		.loc 1 161 5 view .LVU431
 166:Core/Src/bme280.c **** }
 1124              		.loc 1 166 5 view .LVU432
 159:Core/Src/bme280.c ****     humidity = (uint32_t)(var5 / 4096);
 1125              		.loc 1 159 10 is_stmt 0 view .LVU433
 1126 037a C822     		movs	r2, #200
 1127 037c 5205     		lsls	r2, r2, #21
 1128 037e 9342     		cmp	r3, r2
 1129 0380 00DD     		ble	.L16
 1130 0382 1300     		movs	r3, r2
 1131              	.L16:
 160:Core/Src/bme280.c ****     if (humidity > humidity_max)
 1132              		.loc 1 160 32 view .LVU434
 1133 0384 1B13     		asrs	r3, r3, #12
 1134              	.LBE41:
ARM GAS  /tmp/cclaqcMK.s 			page 32


 1135              	.LBE42:
  54:Core/Src/bme280.c **** 
 1136              		.loc 1 54 28 view .LVU435
 1137 0386 E366     		str	r3, [r4, #108]
  56:Core/Src/bme280.c **** }
 1138              		.loc 1 56 5 is_stmt 1 view .LVU436
 1139              	.LVL73:
  56:Core/Src/bme280.c **** }
 1140              		.loc 1 56 5 is_stmt 0 view .LVU437
 1141              	.LBE45:
 1142              	.LBE48:
 241:Core/Src/bme280.c **** }
 1143              		.loc 1 241 1 view .LVU438
 1144 0388 11B0     		add	sp, sp, #68
 1145              		@ sp needed
 1146              	.LVL74:
 1147              		.loc 1 241 1 view .LVU439
 1148 038a 3CBC     		pop	{r2, r3, r4, r5}
 1149 038c 9046     		mov	r8, r2
 1150 038e 9946     		mov	r9, r3
 1151 0390 A246     		mov	r10, r4
 1152 0392 AB46     		mov	fp, r5
 1153 0394 F0BD     		pop	{r4, r5, r6, r7, pc}
 1154              	.LVL75:
 1155              	.L11:
 1156              	.LBB49:
 1157              	.LBB46:
 1158              	.LBB43:
 1159              	.LBB38:
 115:Core/Src/bme280.c ****         }
 1160              		.loc 1 115 13 is_stmt 1 view .LVU440
 115:Core/Src/bme280.c ****         }
 1161              		.loc 1 115 34 is_stmt 0 view .LVU441
 1162 0396 FFF7FEFF 		bl	__aeabi_uidiv
 1163              	.LVL76:
 115:Core/Src/bme280.c ****         }
 1164              		.loc 1 115 22 view .LVU442
 1165 039a 4200     		lsls	r2, r0, #1
 1166              	.LVL77:
 115:Core/Src/bme280.c ****         }
 1167              		.loc 1 115 22 view .LVU443
 1168 039c 76E7     		b	.L12
 1169              	.LVL78:
 1170              	.L18:
 115:Core/Src/bme280.c ****         }
 1171              		.loc 1 115 22 view .LVU444
 1172              	.LBE38:
 1173              	.LBE43:
 1174              	.LBB44:
 1175              	.LBB34:
  79:Core/Src/bme280.c ****     }
 1176              		.loc 1 79 21 view .LVU445
 1177 039e 094A     		ldr	r2, .L21+28
 1178              	.LVL79:
  79:Core/Src/bme280.c ****     }
 1179              		.loc 1 79 21 view .LVU446
 1180 03a0 16E7     		b	.L9
ARM GAS  /tmp/cclaqcMK.s 			page 33


 1181              	.LVL80:
 1182              	.L17:
  75:Core/Src/bme280.c ****     }
 1183              		.loc 1 75 21 view .LVU447
 1184 03a2 094A     		ldr	r2, .L21+32
 1185              	.LVL81:
  75:Core/Src/bme280.c ****     }
 1186              		.loc 1 75 21 view .LVU448
 1187 03a4 14E7     		b	.L9
 1188              	.L22:
 1189 03a6 C046     		.align	2
 1190              	.L21:
 1191 03a8 815EF0FF 		.word	-1024383
 1192 03ac 7F342100 		.word	2176127
 1193 03b0 0006FFFF 		.word	-64000
 1194 03b4 350C0000 		.word	3125
 1195 03b8 B0AD0100 		.word	110000
 1196 03bc 30750000 		.word	30000
 1197 03c0 00D4FEFF 		.word	-76800
 1198 03c4 34210000 		.word	8500
 1199 03c8 60F0FFFF 		.word	-4000
 1200              	.LBE34:
 1201              	.LBE44:
 1202              	.LBE46:
 1203              	.LBE49:
 1204              		.cfi_endproc
 1205              	.LFE42:
 1207              		.section	.text.initBME280,"ax",%progbits
 1208              		.align	1
 1209              		.p2align 2,,3
 1210              		.global	initBME280
 1211              		.syntax unified
 1212              		.code	16
 1213              		.thumb_func
 1214              		.fpu softvfp
 1216              	initBME280:
 1217              	.LVL82:
 1218              	.LFB43:
 242:Core/Src/bme280.c **** uint8_t initBME280(struct bme280_dev *dev)
 243:Core/Src/bme280.c **** {
 1219              		.loc 1 243 1 is_stmt 1 view -0
 1220              		.cfi_startproc
 1221              		@ args = 0, pretend = 0, frame = 8
 1222              		@ frame_needed = 0, uses_anonymous_args = 0
 244:Core/Src/bme280.c **** 	uint8_t result, addr;
 1223              		.loc 1 244 2 view .LVU450
 245:Core/Src/bme280.c **** 	
 246:Core/Src/bme280.c **** 	result = 0;
 1224              		.loc 1 246 2 view .LVU451
 247:Core/Src/bme280.c **** 	addr = BME280_RESET_ADDR;
 1225              		.loc 1 247 2 view .LVU452
 243:Core/Src/bme280.c **** 	uint8_t result, addr;
 1226              		.loc 1 243 1 is_stmt 0 view .LVU453
 1227 0000 30B5     		push	{r4, r5, lr}
 1228              	.LCFI5:
 1229              		.cfi_def_cfa_offset 12
 1230              		.cfi_offset 4, -12
ARM GAS  /tmp/cclaqcMK.s 			page 34


 1231              		.cfi_offset 5, -8
 1232              		.cfi_offset 14, -4
 1233 0002 83B0     		sub	sp, sp, #12
 1234              	.LCFI6:
 1235              		.cfi_def_cfa_offset 24
 1236              		.loc 1 247 7 view .LVU454
 1237 0004 6A46     		mov	r2, sp
 1238 0006 E023     		movs	r3, #224
 1239 0008 D371     		strb	r3, [r2, #7]
 248:Core/Src/bme280.c **** 	result = RESET_CMD;
 1240              		.loc 1 248 2 is_stmt 1 view .LVU455
 1241              		.loc 1 248 9 is_stmt 0 view .LVU456
 1242 000a B623     		movs	r3, #182
 1243 000c 941D     		adds	r4, r2, #6
 249:Core/Src/bme280.c **** 	SPI_SET_DAT(&addr, &result);
 1244              		.loc 1 249 2 view .LVU457
 1245 000e 2100     		movs	r1, r4
 243:Core/Src/bme280.c **** 	uint8_t result, addr;
 1246              		.loc 1 243 1 view .LVU458
 1247 0010 0500     		movs	r5, r0
 1248              		.loc 1 249 2 view .LVU459
 1249 0012 D01D     		adds	r0, r2, #7
 1250              	.LVL83:
 248:Core/Src/bme280.c **** 	result = RESET_CMD;
 1251              		.loc 1 248 9 view .LVU460
 1252 0014 2370     		strb	r3, [r4]
 1253              		.loc 1 249 2 is_stmt 1 view .LVU461
 1254 0016 FFF7FEFF 		bl	SPI_SET_DAT
 1255              	.LVL84:
 250:Core/Src/bme280.c **** 	result = 0;
 1256              		.loc 1 250 2 view .LVU462
 251:Core/Src/bme280.c **** 	addr = BME280_CHIP_ID_ADDR;
 1257              		.loc 1 251 7 is_stmt 0 view .LVU463
 1258 001a 6A46     		mov	r2, sp
 250:Core/Src/bme280.c **** 	result = 0;
 1259              		.loc 1 250 9 view .LVU464
 1260 001c 0023     		movs	r3, #0
 252:Core/Src/bme280.c **** 	SPI_GET_DAT(&addr, &result);
 1261              		.loc 1 252 2 view .LVU465
 1262 001e D01D     		adds	r0, r2, #7
 250:Core/Src/bme280.c **** 	result = 0;
 1263              		.loc 1 250 9 view .LVU466
 1264 0020 2370     		strb	r3, [r4]
 251:Core/Src/bme280.c **** 	addr = BME280_CHIP_ID_ADDR;
 1265              		.loc 1 251 2 is_stmt 1 view .LVU467
 1266              		.loc 1 252 2 is_stmt 0 view .LVU468
 1267 0022 2100     		movs	r1, r4
 251:Core/Src/bme280.c **** 	addr = BME280_CHIP_ID_ADDR;
 1268              		.loc 1 251 7 view .LVU469
 1269 0024 D033     		adds	r3, r3, #208
 1270 0026 D371     		strb	r3, [r2, #7]
 1271              		.loc 1 252 2 is_stmt 1 view .LVU470
 1272 0028 FFF7FEFF 		bl	SPI_GET_DAT
 1273              	.LVL85:
 253:Core/Src/bme280.c **** 	if (result != 0x060) { return 0;}
 1274              		.loc 1 253 2 view .LVU471
 1275              		.loc 1 253 5 is_stmt 0 view .LVU472
ARM GAS  /tmp/cclaqcMK.s 			page 35


 1276 002c 2378     		ldrb	r3, [r4]
 1277              		.loc 1 253 32 view .LVU473
 1278 002e 0020     		movs	r0, #0
 1279              		.loc 1 253 5 view .LVU474
 1280 0030 602B     		cmp	r3, #96
 1281 0032 01D0     		beq	.L26
 1282              	.L24:
 254:Core/Src/bme280.c **** 	
 255:Core/Src/bme280.c **** 	dev->settings.config = 0;
 256:Core/Src/bme280.c **** 	dev->settings.config |= BME280_STANDBY_TIME_1000_MS | BME280_FILTER_COEFF_OFF;
 257:Core/Src/bme280.c **** 	dev->settings.ctrl_hum = 0;
 258:Core/Src/bme280.c **** 	dev->settings.ctrl_hum |= BME280_OSRS_H_OVERSAMPLING_1X;
 259:Core/Src/bme280.c **** 	dev->settings.ctrl_meas = 0;
 260:Core/Src/bme280.c **** 	dev->settings.ctrl_meas |= BME280_OSRS_T_OVERSAMPLING_1X | BME280_OSRS_P_OVERSAMPLING_1X | BME280_
 261:Core/Src/bme280.c **** 	addr = BME280_CONFIG_ADDR; 
 262:Core/Src/bme280.c **** 	SPI_SET_DAT(&addr, &dev->settings.config);
 263:Core/Src/bme280.c **** 	addr = BME280_CTRL_HUM_ADDR; 
 264:Core/Src/bme280.c **** 	SPI_SET_DAT(&addr, &dev->settings.ctrl_hum);
 265:Core/Src/bme280.c **** 	addr = BME280_CTRL_MEAS_ADDR; 
 266:Core/Src/bme280.c **** 	SPI_SET_DAT(&addr, &dev->settings.ctrl_meas);
 267:Core/Src/bme280.c **** 	
 268:Core/Src/bme280.c **** 
 269:Core/Src/bme280.c **** 	
 270:Core/Src/bme280.c **** 	return 1;
 271:Core/Src/bme280.c **** }
 1283              		.loc 1 271 1 view .LVU475
 1284 0034 03B0     		add	sp, sp, #12
 1285              		@ sp needed
 1286              	.LVL86:
 1287              		.loc 1 271 1 view .LVU476
 1288 0036 30BD     		pop	{r4, r5, pc}
 1289              	.LVL87:
 1290              	.L26:
 255:Core/Src/bme280.c **** 	dev->settings.config |= BME280_STANDBY_TIME_1000_MS | BME280_FILTER_COEFF_OFF;
 1291              		.loc 1 255 2 is_stmt 1 view .LVU477
 256:Core/Src/bme280.c **** 	dev->settings.ctrl_hum = 0;
 1292              		.loc 1 256 2 view .LVU478
 257:Core/Src/bme280.c **** 	dev->settings.ctrl_hum |= BME280_OSRS_H_OVERSAMPLING_1X;
 1293              		.loc 1 257 2 view .LVU479
 258:Core/Src/bme280.c **** 	dev->settings.ctrl_meas = 0;
 1294              		.loc 1 258 2 view .LVU480
 259:Core/Src/bme280.c **** 	dev->settings.ctrl_meas |= BME280_OSRS_T_OVERSAMPLING_1X | BME280_OSRS_P_OVERSAMPLING_1X | BME280_
 1295              		.loc 1 259 2 view .LVU481
 260:Core/Src/bme280.c **** 	addr = BME280_CONFIG_ADDR; 
 1296              		.loc 1 260 2 view .LVU482
 256:Core/Src/bme280.c **** 	dev->settings.ctrl_hum = 0;
 1297              		.loc 1 256 23 is_stmt 0 view .LVU483
 1298 0038 0F4A     		ldr	r2, .L27
 1299 003a 0C3B     		subs	r3, r3, #12
 1300 003c EA52     		strh	r2, [r5, r3]
 258:Core/Src/bme280.c **** 	dev->settings.ctrl_meas = 0;
 1301              		.loc 1 258 25 view .LVU484
 1302 003e 0122     		movs	r2, #1
 1303 0040 0233     		adds	r3, r3, #2
 1304 0042 EA54     		strb	r2, [r5, r3]
 261:Core/Src/bme280.c **** 	SPI_SET_DAT(&addr, &dev->settings.config);
 1305              		.loc 1 261 2 is_stmt 1 view .LVU485
ARM GAS  /tmp/cclaqcMK.s 			page 36


 262:Core/Src/bme280.c **** 	addr = BME280_CTRL_HUM_ADDR; 
 1306              		.loc 1 262 2 is_stmt 0 view .LVU486
 1307 0044 2900     		movs	r1, r5
 261:Core/Src/bme280.c **** 	SPI_SET_DAT(&addr, &dev->settings.config);
 1308              		.loc 1 261 7 view .LVU487
 1309 0046 6A46     		mov	r2, sp
 1310 0048 9F33     		adds	r3, r3, #159
 262:Core/Src/bme280.c **** 	addr = BME280_CTRL_HUM_ADDR; 
 1311              		.loc 1 262 2 view .LVU488
 1312 004a D01D     		adds	r0, r2, #7
 1313 004c 5431     		adds	r1, r1, #84
 261:Core/Src/bme280.c **** 	SPI_SET_DAT(&addr, &dev->settings.config);
 1314              		.loc 1 261 7 view .LVU489
 1315 004e D371     		strb	r3, [r2, #7]
 262:Core/Src/bme280.c **** 	addr = BME280_CTRL_HUM_ADDR; 
 1316              		.loc 1 262 2 is_stmt 1 view .LVU490
 1317 0050 FFF7FEFF 		bl	SPI_SET_DAT
 1318              	.LVL88:
 263:Core/Src/bme280.c **** 	SPI_SET_DAT(&addr, &dev->settings.ctrl_hum);
 1319              		.loc 1 263 2 view .LVU491
 263:Core/Src/bme280.c **** 	SPI_SET_DAT(&addr, &dev->settings.ctrl_hum);
 1320              		.loc 1 263 7 is_stmt 0 view .LVU492
 1321 0054 6A46     		mov	r2, sp
 264:Core/Src/bme280.c **** 	addr = BME280_CTRL_MEAS_ADDR; 
 1322              		.loc 1 264 2 view .LVU493
 1323 0056 2900     		movs	r1, r5
 263:Core/Src/bme280.c **** 	SPI_SET_DAT(&addr, &dev->settings.ctrl_hum);
 1324              		.loc 1 263 7 view .LVU494
 1325 0058 F223     		movs	r3, #242
 264:Core/Src/bme280.c **** 	addr = BME280_CTRL_MEAS_ADDR; 
 1326              		.loc 1 264 2 view .LVU495
 1327 005a D01D     		adds	r0, r2, #7
 1328 005c 5631     		adds	r1, r1, #86
 263:Core/Src/bme280.c **** 	SPI_SET_DAT(&addr, &dev->settings.ctrl_hum);
 1329              		.loc 1 263 7 view .LVU496
 1330 005e D371     		strb	r3, [r2, #7]
 264:Core/Src/bme280.c **** 	addr = BME280_CTRL_MEAS_ADDR; 
 1331              		.loc 1 264 2 is_stmt 1 view .LVU497
 1332 0060 FFF7FEFF 		bl	SPI_SET_DAT
 1333              	.LVL89:
 265:Core/Src/bme280.c **** 	SPI_SET_DAT(&addr, &dev->settings.ctrl_meas);
 1334              		.loc 1 265 2 view .LVU498
 265:Core/Src/bme280.c **** 	SPI_SET_DAT(&addr, &dev->settings.ctrl_meas);
 1335              		.loc 1 265 7 is_stmt 0 view .LVU499
 1336 0064 6A46     		mov	r2, sp
 266:Core/Src/bme280.c **** 	
 1337              		.loc 1 266 2 view .LVU500
 1338 0066 2900     		movs	r1, r5
 265:Core/Src/bme280.c **** 	SPI_SET_DAT(&addr, &dev->settings.ctrl_meas);
 1339              		.loc 1 265 7 view .LVU501
 1340 0068 F423     		movs	r3, #244
 266:Core/Src/bme280.c **** 	
 1341              		.loc 1 266 2 view .LVU502
 1342 006a D01D     		adds	r0, r2, #7
 1343 006c 5531     		adds	r1, r1, #85
 265:Core/Src/bme280.c **** 	SPI_SET_DAT(&addr, &dev->settings.ctrl_meas);
 1344              		.loc 1 265 7 view .LVU503
ARM GAS  /tmp/cclaqcMK.s 			page 37


 1345 006e D371     		strb	r3, [r2, #7]
 266:Core/Src/bme280.c **** 	
 1346              		.loc 1 266 2 is_stmt 1 view .LVU504
 1347 0070 FFF7FEFF 		bl	SPI_SET_DAT
 1348              	.LVL90:
 270:Core/Src/bme280.c **** }
 1349              		.loc 1 270 2 view .LVU505
 270:Core/Src/bme280.c **** }
 1350              		.loc 1 270 9 is_stmt 0 view .LVU506
 1351 0074 0120     		movs	r0, #1
 1352 0076 DDE7     		b	.L24
 1353              	.L28:
 1354              		.align	2
 1355              	.L27:
 1356 0078 A0250000 		.word	9632
 1357              		.cfi_endproc
 1358              	.LFE43:
 1360              		.section	.text.FORCEMode,"ax",%progbits
 1361              		.align	1
 1362              		.p2align 2,,3
 1363              		.global	FORCEMode
 1364              		.syntax unified
 1365              		.code	16
 1366              		.thumb_func
 1367              		.fpu softvfp
 1369              	FORCEMode:
 1370              	.LVL91:
 1371              	.LFB44:
 272:Core/Src/bme280.c **** void FORCEMode (struct bme280_dev *dev)
 273:Core/Src/bme280.c **** {
 1372              		.loc 1 273 1 is_stmt 1 view -0
 1373              		.cfi_startproc
 1374              		@ args = 0, pretend = 0, frame = 8
 1375              		@ frame_needed = 0, uses_anonymous_args = 0
 274:Core/Src/bme280.c **** 	uint8_t addr;
 1376              		.loc 1 274 2 view .LVU508
 275:Core/Src/bme280.c **** 	addr = BME280_CTRL_MEAS_ADDR; 
 1377              		.loc 1 275 2 view .LVU509
 273:Core/Src/bme280.c **** 	uint8_t addr;
 1378              		.loc 1 273 1 is_stmt 0 view .LVU510
 1379 0000 00B5     		push	{lr}
 1380              	.LCFI7:
 1381              		.cfi_def_cfa_offset 4
 1382              		.cfi_offset 14, -4
 1383 0002 83B0     		sub	sp, sp, #12
 1384              	.LCFI8:
 1385              		.cfi_def_cfa_offset 16
 1386              		.loc 1 275 7 view .LVU511
 1387 0004 6B46     		mov	r3, sp
 273:Core/Src/bme280.c **** 	uint8_t addr;
 1388              		.loc 1 273 1 view .LVU512
 1389 0006 0100     		movs	r1, r0
 1390              		.loc 1 275 7 view .LVU513
 1391 0008 D81D     		adds	r0, r3, #7
 1392              	.LVL92:
 1393              		.loc 1 275 7 view .LVU514
 1394 000a F423     		movs	r3, #244
ARM GAS  /tmp/cclaqcMK.s 			page 38


 276:Core/Src/bme280.c **** 	SPI_SET_DAT(&addr, &dev->settings.ctrl_meas);
 1395              		.loc 1 276 2 view .LVU515
 1396 000c 5531     		adds	r1, r1, #85
 1397              	.LVL93:
 275:Core/Src/bme280.c **** 	addr = BME280_CTRL_MEAS_ADDR; 
 1398              		.loc 1 275 7 view .LVU516
 1399 000e 0370     		strb	r3, [r0]
 1400              		.loc 1 276 2 is_stmt 1 view .LVU517
 1401 0010 FFF7FEFF 		bl	SPI_SET_DAT
 1402              	.LVL94:
 277:Core/Src/bme280.c **** }
 1403              		.loc 1 277 1 is_stmt 0 view .LVU518
 1404 0014 03B0     		add	sp, sp, #12
 1405              		@ sp needed
 1406 0016 00BD     		pop	{pc}
 1407              		.cfi_endproc
 1408              	.LFE44:
 1410              		.text
 1411              	.Letext0:
 1412              		.file 2 "/usr/lib/gcc/arm-none-eabi/9.2.1/include/stdint.h"
 1413              		.file 3 "Drivers/CMSIS/Device/ST/STM32L0xx/Include/system_stm32l0xx.h"
 1414              		.file 4 "Drivers/STM32L0xx_HAL_Driver/Inc/stm32l0xx_hal.h"
 1415              		.file 5 "Core/Inc/bme280_defs.h"
 1416              		.file 6 "Core/Inc/bme280.h"
ARM GAS  /tmp/cclaqcMK.s 			page 39

