ARM GAS  /tmp/cc7Xn1Ba.s 			page 1


   1              		.cpu cortex-m0plus
   2              		.eabi_attribute 20, 1
   3              		.eabi_attribute 21, 1
   4              		.eabi_attribute 23, 3
   5              		.eabi_attribute 24, 1
   6              		.eabi_attribute 25, 1
   7              		.eabi_attribute 26, 1
   8              		.eabi_attribute 30, 1
   9              		.eabi_attribute 34, 0
  10              		.eabi_attribute 18, 4
  11              		.file	"gpio.c"
  12              		.text
  13              	.Ltext0:
  14              		.cfi_sections	.debug_frame
  15              		.section	.text.MX_GPIO_Init,"ax",%progbits
  16              		.align	1
  17              		.global	MX_GPIO_Init
  18              		.arch armv6s-m
  19              		.syntax unified
  20              		.code	16
  21              		.thumb_func
  22              		.fpu softvfp
  24              	MX_GPIO_Init:
  25              	.LFB34:
  26              		.file 1 "Core/Src/gpio.c"
   1:Core/Src/gpio.c **** /**
   2:Core/Src/gpio.c ****   ******************************************************************************
   3:Core/Src/gpio.c ****   * File Name          : gpio.c
   4:Core/Src/gpio.c ****   * Description        : This file provides code for the configuration
   5:Core/Src/gpio.c ****   *                      of all used GPIO pins.
   6:Core/Src/gpio.c ****   ******************************************************************************
   7:Core/Src/gpio.c ****   * @attention
   8:Core/Src/gpio.c ****   *
   9:Core/Src/gpio.c ****   * <h2><center>&copy; Copyright (c) 2020 STMicroelectronics.
  10:Core/Src/gpio.c ****   * All rights reserved.</center></h2>
  11:Core/Src/gpio.c ****   *
  12:Core/Src/gpio.c ****   * This software component is licensed by ST under BSD 3-Clause license,
  13:Core/Src/gpio.c ****   * the "License"; You may not use this file except in compliance with the
  14:Core/Src/gpio.c ****   * License. You may obtain a copy of the License at:
  15:Core/Src/gpio.c ****   *                        opensource.org/licenses/BSD-3-Clause
  16:Core/Src/gpio.c ****   *
  17:Core/Src/gpio.c ****   ******************************************************************************
  18:Core/Src/gpio.c ****   */
  19:Core/Src/gpio.c **** 
  20:Core/Src/gpio.c **** /* Includes ------------------------------------------------------------------*/
  21:Core/Src/gpio.c **** #include "gpio.h"
  22:Core/Src/gpio.c **** /* USER CODE BEGIN 0 */
  23:Core/Src/gpio.c **** 
  24:Core/Src/gpio.c **** /* USER CODE END 0 */
  25:Core/Src/gpio.c **** 
  26:Core/Src/gpio.c **** /*----------------------------------------------------------------------------*/
  27:Core/Src/gpio.c **** /* Configure GPIO                                                             */
  28:Core/Src/gpio.c **** /*----------------------------------------------------------------------------*/
  29:Core/Src/gpio.c **** /* USER CODE BEGIN 1 */
  30:Core/Src/gpio.c **** 
  31:Core/Src/gpio.c **** /* USER CODE END 1 */
  32:Core/Src/gpio.c **** 
ARM GAS  /tmp/cc7Xn1Ba.s 			page 2


  33:Core/Src/gpio.c **** /** Configure pins as 
  34:Core/Src/gpio.c ****         * Analog 
  35:Core/Src/gpio.c ****         * Input 
  36:Core/Src/gpio.c ****         * Output
  37:Core/Src/gpio.c ****         * EVENT_OUT
  38:Core/Src/gpio.c ****         * EXTI
  39:Core/Src/gpio.c **** */
  40:Core/Src/gpio.c **** void MX_GPIO_Init(void)
  41:Core/Src/gpio.c **** {
  27              		.loc 1 41 1 view -0
  28              		.cfi_startproc
  29              		@ args = 0, pretend = 0, frame = 32
  30              		@ frame_needed = 0, uses_anonymous_args = 0
  31 0000 F0B5     		push	{r4, r5, r6, r7, lr}
  32              	.LCFI0:
  33              		.cfi_def_cfa_offset 20
  34              		.cfi_offset 4, -20
  35              		.cfi_offset 5, -16
  36              		.cfi_offset 6, -12
  37              		.cfi_offset 7, -8
  38              		.cfi_offset 14, -4
  39 0002 D646     		mov	lr, r10
  40 0004 4F46     		mov	r7, r9
  41 0006 4646     		mov	r6, r8
  42 0008 C0B5     		push	{r6, r7, lr}
  43              	.LCFI1:
  44              		.cfi_def_cfa_offset 32
  45              		.cfi_offset 8, -32
  46              		.cfi_offset 9, -28
  47              		.cfi_offset 10, -24
  48 000a 88B0     		sub	sp, sp, #32
  49              	.LCFI2:
  50              		.cfi_def_cfa_offset 64
  42:Core/Src/gpio.c **** 
  43:Core/Src/gpio.c ****   GPIO_InitTypeDef GPIO_InitStruct = {0};
  51              		.loc 1 43 3 view .LVU1
  52              		.loc 1 43 20 is_stmt 0 view .LVU2
  53 000c 1422     		movs	r2, #20
  54 000e 0021     		movs	r1, #0
  55 0010 03A8     		add	r0, sp, #12
  56 0012 FFF7FEFF 		bl	memset
  57              	.LVL0:
  44:Core/Src/gpio.c **** 
  45:Core/Src/gpio.c ****   /* GPIO Ports Clock Enable */
  46:Core/Src/gpio.c ****   __HAL_RCC_GPIOC_CLK_ENABLE();
  58              		.loc 1 46 3 is_stmt 1 view .LVU3
  59              	.LBB2:
  60              		.loc 1 46 3 view .LVU4
  61              		.loc 1 46 3 view .LVU5
  62 0016 414B     		ldr	r3, .L2
  63 0018 D96A     		ldr	r1, [r3, #44]
  64 001a 0422     		movs	r2, #4
  65 001c 1143     		orrs	r1, r2
  66 001e D962     		str	r1, [r3, #44]
  67              		.loc 1 46 3 view .LVU6
  68 0020 D96A     		ldr	r1, [r3, #44]
  69 0022 0A40     		ands	r2, r1
ARM GAS  /tmp/cc7Xn1Ba.s 			page 3


  70 0024 0092     		str	r2, [sp]
  71              		.loc 1 46 3 view .LVU7
  72 0026 009A     		ldr	r2, [sp]
  73              	.LBE2:
  74              		.loc 1 46 3 view .LVU8
  47:Core/Src/gpio.c ****   __HAL_RCC_GPIOA_CLK_ENABLE();
  75              		.loc 1 47 3 view .LVU9
  76              	.LBB3:
  77              		.loc 1 47 3 view .LVU10
  78              		.loc 1 47 3 view .LVU11
  79 0028 DA6A     		ldr	r2, [r3, #44]
  80 002a 0124     		movs	r4, #1
  81 002c 2243     		orrs	r2, r4
  82 002e DA62     		str	r2, [r3, #44]
  83              		.loc 1 47 3 view .LVU12
  84 0030 DA6A     		ldr	r2, [r3, #44]
  85 0032 2240     		ands	r2, r4
  86 0034 0192     		str	r2, [sp, #4]
  87              		.loc 1 47 3 view .LVU13
  88 0036 019A     		ldr	r2, [sp, #4]
  89              	.LBE3:
  90              		.loc 1 47 3 view .LVU14
  48:Core/Src/gpio.c ****   __HAL_RCC_GPIOB_CLK_ENABLE();
  91              		.loc 1 48 3 view .LVU15
  92              	.LBB4:
  93              		.loc 1 48 3 view .LVU16
  94              		.loc 1 48 3 view .LVU17
  95 0038 DA6A     		ldr	r2, [r3, #44]
  96 003a 0225     		movs	r5, #2
  97 003c 2A43     		orrs	r2, r5
  98 003e DA62     		str	r2, [r3, #44]
  99              		.loc 1 48 3 view .LVU18
 100 0040 DB6A     		ldr	r3, [r3, #44]
 101 0042 2B40     		ands	r3, r5
 102 0044 0293     		str	r3, [sp, #8]
 103              		.loc 1 48 3 view .LVU19
 104 0046 029B     		ldr	r3, [sp, #8]
 105              	.LBE4:
 106              		.loc 1 48 3 view .LVU20
  49:Core/Src/gpio.c **** 
  50:Core/Src/gpio.c ****   /*Configure GPIO pin Output Level */
  51:Core/Src/gpio.c ****   HAL_GPIO_WritePin(GPIOA, CE_Pin, GPIO_PIN_RESET);
 107              		.loc 1 51 3 view .LVU21
 108 0048 8023     		movs	r3, #128
 109 004a DB00     		lsls	r3, r3, #3
 110 004c 9946     		mov	r9, r3
 111 004e A026     		movs	r6, #160
 112 0050 F605     		lsls	r6, r6, #23
 113 0052 0022     		movs	r2, #0
 114 0054 1900     		movs	r1, r3
 115 0056 3000     		movs	r0, r6
 116 0058 FFF7FEFF 		bl	HAL_GPIO_WritePin
 117              	.LVL1:
  52:Core/Src/gpio.c ****   HAL_GPIO_WritePin(GPIOC, PWR_Pin | TXE_Pin, GPIO_PIN_RESET);
 118              		.loc 1 52 3 view .LVU22
 119 005c C021     		movs	r1, #192
 120 005e 304B     		ldr	r3, .L2+4
ARM GAS  /tmp/cc7Xn1Ba.s 			page 4


 121 0060 9846     		mov	r8, r3
 122 0062 0022     		movs	r2, #0
 123 0064 0902     		lsls	r1, r1, #8
 124 0066 1800     		movs	r0, r3
 125 0068 FFF7FEFF 		bl	HAL_GPIO_WritePin
 126              	.LVL2:
  53:Core/Src/gpio.c ****   HAL_GPIO_WritePin(GPIOA, CS_BME_Pin, GPIO_PIN_SET);
 127              		.loc 1 53 3 view .LVU23
 128 006c 8027     		movs	r7, #128
 129 006e BF00     		lsls	r7, r7, #2
 130 0070 0122     		movs	r2, #1
 131 0072 3900     		movs	r1, r7
 132 0074 3000     		movs	r0, r6
 133 0076 FFF7FEFF 		bl	HAL_GPIO_WritePin
 134              	.LVL3:
  54:Core/Src/gpio.c ****   HAL_GPIO_WritePin(GPIOB, CS_NRF_Pin, GPIO_PIN_SET);
 135              		.loc 1 54 3 view .LVU24
 136 007a 2A4B     		ldr	r3, .L2+8
 137 007c 9A46     		mov	r10, r3
 138 007e 0122     		movs	r2, #1
 139 0080 0221     		movs	r1, #2
 140 0082 1800     		movs	r0, r3
 141 0084 FFF7FEFF 		bl	HAL_GPIO_WritePin
 142              	.LVL4:
  55:Core/Src/gpio.c ****   HAL_GPIO_WritePin(GPIOA, SP_EN_Pin, GPIO_PIN_RESET);
 143              		.loc 1 55 3 view .LVU25
 144 0088 0022     		movs	r2, #0
 145 008a 0221     		movs	r1, #2
 146 008c 3000     		movs	r0, r6
 147 008e FFF7FEFF 		bl	HAL_GPIO_WritePin
 148              	.LVL5:
  56:Core/Src/gpio.c **** 
  57:Core/Src/gpio.c ****   /*Configure GPIO pin Output Level */
  58:Core/Src/gpio.c ****   //HAL_GPIO_WritePin(LD3_GPIO_Port, LD3_Pin, GPIO_PIN_RESET);
  59:Core/Src/gpio.c **** 
  60:Core/Src/gpio.c ****   /*Configure GPIO pins : PAPin PAPin PAPin PAPin 
  61:Core/Src/gpio.c ****                            PAPin */
  62:Core/Src/gpio.c ****   GPIO_InitStruct.Pin = CS_BME_Pin;
 149              		.loc 1 62 3 view .LVU26
 150              		.loc 1 62 23 is_stmt 0 view .LVU27
 151 0092 0397     		str	r7, [sp, #12]
  63:Core/Src/gpio.c ****   GPIO_InitStruct.Mode = GPIO_MODE_OUTPUT_PP;
 152              		.loc 1 63 3 is_stmt 1 view .LVU28
 153              		.loc 1 63 24 is_stmt 0 view .LVU29
 154 0094 0494     		str	r4, [sp, #16]
  64:Core/Src/gpio.c ****   GPIO_InitStruct.Pull = GPIO_PULLUP;
 155              		.loc 1 64 3 is_stmt 1 view .LVU30
 156              		.loc 1 64 24 is_stmt 0 view .LVU31
 157 0096 0594     		str	r4, [sp, #20]
  65:Core/Src/gpio.c ****   GPIO_InitStruct.Speed = GPIO_SPEED_FREQ_LOW;
 158              		.loc 1 65 3 is_stmt 1 view .LVU32
 159              		.loc 1 65 25 is_stmt 0 view .LVU33
 160 0098 0027     		movs	r7, #0
 161 009a 0697     		str	r7, [sp, #24]
  66:Core/Src/gpio.c ****   HAL_GPIO_Init(GPIOA, &GPIO_InitStruct);
 162              		.loc 1 66 3 is_stmt 1 view .LVU34
 163 009c 03A9     		add	r1, sp, #12
ARM GAS  /tmp/cc7Xn1Ba.s 			page 5


 164 009e 3000     		movs	r0, r6
 165 00a0 FFF7FEFF 		bl	HAL_GPIO_Init
 166              	.LVL6:
  67:Core/Src/gpio.c **** 
  68:Core/Src/gpio.c ****   GPIO_InitStruct.Pin = CS_NRF_Pin;
 167              		.loc 1 68 3 view .LVU35
 168              		.loc 1 68 23 is_stmt 0 view .LVU36
 169 00a4 0395     		str	r5, [sp, #12]
  69:Core/Src/gpio.c ****   GPIO_InitStruct.Mode = GPIO_MODE_OUTPUT_PP;
 170              		.loc 1 69 3 is_stmt 1 view .LVU37
 171              		.loc 1 69 24 is_stmt 0 view .LVU38
 172 00a6 0494     		str	r4, [sp, #16]
  70:Core/Src/gpio.c ****   GPIO_InitStruct.Pull = GPIO_PULLUP;
 173              		.loc 1 70 3 is_stmt 1 view .LVU39
 174              		.loc 1 70 24 is_stmt 0 view .LVU40
 175 00a8 0594     		str	r4, [sp, #20]
  71:Core/Src/gpio.c ****   GPIO_InitStruct.Speed = GPIO_SPEED_FREQ_LOW;
 176              		.loc 1 71 3 is_stmt 1 view .LVU41
 177              		.loc 1 71 25 is_stmt 0 view .LVU42
 178 00aa 0697     		str	r7, [sp, #24]
  72:Core/Src/gpio.c ****   HAL_GPIO_Init(GPIOB, &GPIO_InitStruct);
 179              		.loc 1 72 3 is_stmt 1 view .LVU43
 180 00ac 03A9     		add	r1, sp, #12
 181 00ae 5046     		mov	r0, r10
 182 00b0 FFF7FEFF 		bl	HAL_GPIO_Init
 183              	.LVL7:
  73:Core/Src/gpio.c **** 
  74:Core/Src/gpio.c ****   GPIO_InitStruct.Pin = CE_Pin;
 184              		.loc 1 74 3 view .LVU44
 185              		.loc 1 74 23 is_stmt 0 view .LVU45
 186 00b4 4B46     		mov	r3, r9
 187 00b6 0393     		str	r3, [sp, #12]
  75:Core/Src/gpio.c ****   GPIO_InitStruct.Mode = GPIO_MODE_OUTPUT_PP;
 188              		.loc 1 75 3 is_stmt 1 view .LVU46
 189              		.loc 1 75 24 is_stmt 0 view .LVU47
 190 00b8 0494     		str	r4, [sp, #16]
  76:Core/Src/gpio.c ****   GPIO_InitStruct.Pull = GPIO_PULLDOWN;
 191              		.loc 1 76 3 is_stmt 1 view .LVU48
 192              		.loc 1 76 24 is_stmt 0 view .LVU49
 193 00ba 0595     		str	r5, [sp, #20]
  77:Core/Src/gpio.c ****   GPIO_InitStruct.Speed = GPIO_SPEED_FREQ_LOW;
 194              		.loc 1 77 3 is_stmt 1 view .LVU50
 195              		.loc 1 77 25 is_stmt 0 view .LVU51
 196 00bc 0697     		str	r7, [sp, #24]
  78:Core/Src/gpio.c ****   HAL_GPIO_Init(GPIOA, &GPIO_InitStruct);
 197              		.loc 1 78 3 is_stmt 1 view .LVU52
 198 00be 03A9     		add	r1, sp, #12
 199 00c0 3000     		movs	r0, r6
 200 00c2 FFF7FEFF 		bl	HAL_GPIO_Init
 201              	.LVL8:
  79:Core/Src/gpio.c **** 
  80:Core/Src/gpio.c ****   GPIO_InitStruct.Pin = PWR_Pin;
 202              		.loc 1 80 3 view .LVU53
 203              		.loc 1 80 23 is_stmt 0 view .LVU54
 204 00c6 8023     		movs	r3, #128
 205 00c8 DB01     		lsls	r3, r3, #7
 206 00ca 0393     		str	r3, [sp, #12]
ARM GAS  /tmp/cc7Xn1Ba.s 			page 6


  81:Core/Src/gpio.c ****   GPIO_InitStruct.Mode = GPIO_MODE_OUTPUT_PP;
 207              		.loc 1 81 3 is_stmt 1 view .LVU55
 208              		.loc 1 81 24 is_stmt 0 view .LVU56
 209 00cc 0494     		str	r4, [sp, #16]
  82:Core/Src/gpio.c ****   GPIO_InitStruct.Pull = GPIO_PULLDOWN;
 210              		.loc 1 82 3 is_stmt 1 view .LVU57
 211              		.loc 1 82 24 is_stmt 0 view .LVU58
 212 00ce 0595     		str	r5, [sp, #20]
  83:Core/Src/gpio.c ****   GPIO_InitStruct.Speed = GPIO_SPEED_FREQ_LOW;
 213              		.loc 1 83 3 is_stmt 1 view .LVU59
 214              		.loc 1 83 25 is_stmt 0 view .LVU60
 215 00d0 0697     		str	r7, [sp, #24]
  84:Core/Src/gpio.c ****   HAL_GPIO_Init(GPIOC, &GPIO_InitStruct);
 216              		.loc 1 84 3 is_stmt 1 view .LVU61
 217 00d2 03A9     		add	r1, sp, #12
 218 00d4 4046     		mov	r0, r8
 219 00d6 FFF7FEFF 		bl	HAL_GPIO_Init
 220              	.LVL9:
  85:Core/Src/gpio.c **** 
  86:Core/Src/gpio.c **** 
  87:Core/Src/gpio.c ****   GPIO_InitStruct.Pin = TXE_Pin;
 221              		.loc 1 87 3 view .LVU62
 222              		.loc 1 87 23 is_stmt 0 view .LVU63
 223 00da 8023     		movs	r3, #128
 224 00dc 1B02     		lsls	r3, r3, #8
 225 00de 0393     		str	r3, [sp, #12]
  88:Core/Src/gpio.c ****   GPIO_InitStruct.Mode = GPIO_MODE_OUTPUT_PP;
 226              		.loc 1 88 3 is_stmt 1 view .LVU64
 227              		.loc 1 88 24 is_stmt 0 view .LVU65
 228 00e0 0494     		str	r4, [sp, #16]
  89:Core/Src/gpio.c ****   GPIO_InitStruct.Pull = GPIO_PULLDOWN;
 229              		.loc 1 89 3 is_stmt 1 view .LVU66
 230              		.loc 1 89 24 is_stmt 0 view .LVU67
 231 00e2 0595     		str	r5, [sp, #20]
  90:Core/Src/gpio.c ****   GPIO_InitStruct.Speed = GPIO_SPEED_FREQ_LOW;
 232              		.loc 1 90 3 is_stmt 1 view .LVU68
 233              		.loc 1 90 25 is_stmt 0 view .LVU69
 234 00e4 0697     		str	r7, [sp, #24]
  91:Core/Src/gpio.c ****   HAL_GPIO_Init(GPIOC, &GPIO_InitStruct);
 235              		.loc 1 91 3 is_stmt 1 view .LVU70
 236 00e6 03A9     		add	r1, sp, #12
 237 00e8 4046     		mov	r0, r8
 238 00ea FFF7FEFF 		bl	HAL_GPIO_Init
 239              	.LVL10:
  92:Core/Src/gpio.c **** 
  93:Core/Src/gpio.c **** 
  94:Core/Src/gpio.c ****   /*Configure GPIO pin : PtPin */
  95:Core/Src/gpio.c ****   GPIO_InitStruct.Pin = DR_Pin;
 240              		.loc 1 95 3 view .LVU71
 241              		.loc 1 95 23 is_stmt 0 view .LVU72
 242 00ee 1023     		movs	r3, #16
 243 00f0 0393     		str	r3, [sp, #12]
  96:Core/Src/gpio.c ****   GPIO_InitStruct.Mode = GPIO_MODE_IT_RISING;
 244              		.loc 1 96 3 is_stmt 1 view .LVU73
 245              		.loc 1 96 24 is_stmt 0 view .LVU74
 246 00f2 0D4B     		ldr	r3, .L2+12
 247 00f4 0493     		str	r3, [sp, #16]
ARM GAS  /tmp/cc7Xn1Ba.s 			page 7


  97:Core/Src/gpio.c ****   GPIO_InitStruct.Pull = GPIO_PULLDOWN;
 248              		.loc 1 97 3 is_stmt 1 view .LVU75
 249              		.loc 1 97 24 is_stmt 0 view .LVU76
 250 00f6 0595     		str	r5, [sp, #20]
  98:Core/Src/gpio.c ****   HAL_GPIO_Init(DR_GPIO_Port, &GPIO_InitStruct);
 251              		.loc 1 98 3 is_stmt 1 view .LVU77
 252 00f8 03A9     		add	r1, sp, #12
 253 00fa 3000     		movs	r0, r6
 254 00fc FFF7FEFF 		bl	HAL_GPIO_Init
 255              	.LVL11:
  99:Core/Src/gpio.c **** 
 100:Core/Src/gpio.c **** GPIO_InitStruct.Pin = SP_EN_Pin;
 256              		.loc 1 100 1 view .LVU78
 257              		.loc 1 100 21 is_stmt 0 view .LVU79
 258 0100 0395     		str	r5, [sp, #12]
 101:Core/Src/gpio.c **** GPIO_InitStruct.Mode = GPIO_MODE_OUTPUT_PP;
 259              		.loc 1 101 1 is_stmt 1 view .LVU80
 260              		.loc 1 101 22 is_stmt 0 view .LVU81
 261 0102 0494     		str	r4, [sp, #16]
 102:Core/Src/gpio.c **** GPIO_InitStruct.Pull = GPIO_PULLDOWN;
 262              		.loc 1 102 1 is_stmt 1 view .LVU82
 263              		.loc 1 102 22 is_stmt 0 view .LVU83
 264 0104 0595     		str	r5, [sp, #20]
 103:Core/Src/gpio.c **** GPIO_InitStruct.Speed = GPIO_SPEED_FREQ_LOW;
 265              		.loc 1 103 1 is_stmt 1 view .LVU84
 266              		.loc 1 103 23 is_stmt 0 view .LVU85
 267 0106 0697     		str	r7, [sp, #24]
 104:Core/Src/gpio.c **** HAL_GPIO_Init(GPIOA, &GPIO_InitStruct);
 268              		.loc 1 104 1 is_stmt 1 view .LVU86
 269 0108 03A9     		add	r1, sp, #12
 270 010a 3000     		movs	r0, r6
 271 010c FFF7FEFF 		bl	HAL_GPIO_Init
 272              	.LVL12:
 105:Core/Src/gpio.c **** 
 106:Core/Src/gpio.c ****   /*Configure GPIO pin : PtPin */
 107:Core/Src/gpio.c ****   //GPIO_InitStruct.Pin = LD3_Pin;
 108:Core/Src/gpio.c ****   //GPIO_InitStruct.Mode = GPIO_MODE_OUTPUT_PP;
 109:Core/Src/gpio.c ****   //GPIO_InitStruct.Pull = GPIO_PULLDOWN;
 110:Core/Src/gpio.c ****   //GPIO_InitStruct.Speed = GPIO_SPEED_FREQ_LOW;
 111:Core/Src/gpio.c ****   //HAL_GPIO_Init(LD3_GPIO_Port, &GPIO_InitStruct);
 112:Core/Src/gpio.c **** 
 113:Core/Src/gpio.c **** }
 273              		.loc 1 113 1 is_stmt 0 view .LVU87
 274 0110 08B0     		add	sp, sp, #32
 275              		@ sp needed
 276 0112 1CBC     		pop	{r2, r3, r4}
 277 0114 9046     		mov	r8, r2
 278 0116 9946     		mov	r9, r3
 279 0118 A246     		mov	r10, r4
 280 011a F0BD     		pop	{r4, r5, r6, r7, pc}
 281              	.L3:
 282              		.align	2
 283              	.L2:
 284 011c 00100240 		.word	1073876992
 285 0120 00080050 		.word	1342179328
 286 0124 00040050 		.word	1342178304
 287 0128 00001110 		.word	269549568
ARM GAS  /tmp/cc7Xn1Ba.s 			page 8


 288              		.cfi_endproc
 289              	.LFE34:
 291              		.text
 292              	.Letext0:
 293              		.file 2 "/usr/lib/gcc/arm-none-eabi/9.2.1/include/stdint.h"
 294              		.file 3 "Drivers/CMSIS/Device/ST/STM32L0xx/Include/system_stm32l0xx.h"
 295              		.file 4 "Drivers/CMSIS/Device/ST/STM32L0xx/Include/stm32l031xx.h"
 296              		.file 5 "Drivers/STM32L0xx_HAL_Driver/Inc/stm32l0xx_hal_gpio.h"
 297              		.file 6 "Drivers/STM32L0xx_HAL_Driver/Inc/stm32l0xx_hal.h"
 298              		.file 7 "<built-in>"
ARM GAS  /tmp/cc7Xn1Ba.s 			page 9

