ARM GAS  /tmp/ccJolXmM.s 			page 1


   1              		.cpu cortex-m0plus
   2              		.eabi_attribute 20, 1
   3              		.eabi_attribute 21, 1
   4              		.eabi_attribute 23, 3
   5              		.eabi_attribute 24, 1
   6              		.eabi_attribute 25, 1
   7              		.eabi_attribute 26, 1
   8              		.eabi_attribute 30, 1
   9              		.eabi_attribute 34, 0
  10              		.eabi_attribute 18, 4
  11              		.file	"nrf905.c"
  12              		.text
  13              	.Ltext0:
  14              		.cfi_sections	.debug_frame
  15              		.section	.text.NRF905_ReadReg,"ax",%progbits
  16              		.align	1
  17              		.global	NRF905_ReadReg
  18              		.arch armv6s-m
  19              		.syntax unified
  20              		.code	16
  21              		.thumb_func
  22              		.fpu softvfp
  24              	NRF905_ReadReg:
  25              	.LVL0:
  26              	.LFB34:
  27              		.file 1 "Core/Src/nrf905.c"
   1:Core/Src/nrf905.c **** 
   2:Core/Src/nrf905.c **** #include "main.h"
   3:Core/Src/nrf905.c **** #include "nrf905.h"
   4:Core/Src/nrf905.c **** #include "spi.h"
   5:Core/Src/nrf905.c **** //extern SPI_HandleTypeDef hspi1;
   6:Core/Src/nrf905.c **** 
   7:Core/Src/nrf905.c **** uint8_t NRF905_ReadReg(uint8_t reg)
   8:Core/Src/nrf905.c **** {
  28              		.loc 1 8 1 view -0
  29              		.cfi_startproc
  30              		@ args = 0, pretend = 0, frame = 16
  31              		@ frame_needed = 0, uses_anonymous_args = 0
  32              		.loc 1 8 1 is_stmt 0 view .LVU1
  33 0000 F0B5     		push	{r4, r5, r6, r7, lr}
  34              	.LCFI0:
  35              		.cfi_def_cfa_offset 20
  36              		.cfi_offset 4, -20
  37              		.cfi_offset 5, -16
  38              		.cfi_offset 6, -12
  39              		.cfi_offset 7, -8
  40              		.cfi_offset 14, -4
  41 0002 87B0     		sub	sp, sp, #28
  42              	.LCFI1:
  43              		.cfi_def_cfa_offset 48
  44 0004 0F27     		movs	r7, #15
  45 0006 6F44     		add	r7, r7, sp
   9:Core/Src/nrf905.c ****  uint8_t dt=0, cmd=0;
  46              		.loc 1 9 2 is_stmt 1 view .LVU2
  47              		.loc 1 9 10 is_stmt 0 view .LVU3
  48 0008 0023     		movs	r3, #0
  49 000a 6A46     		mov	r2, sp
ARM GAS  /tmp/ccJolXmM.s 			page 2


  50 000c D375     		strb	r3, [r2, #23]
  51              	.LVL1:
  10:Core/Src/nrf905.c ****  reg |= R_CONFIG;
  52              		.loc 1 10 2 is_stmt 1 view .LVU4
  53              		.loc 1 10 6 is_stmt 0 view .LVU5
  54 000e 1023     		movs	r3, #16
  55 0010 1843     		orrs	r0, r3
  56              	.LVL2:
  57              		.loc 1 10 6 view .LVU6
  58 0012 3870     		strb	r0, [r7]
  11:Core/Src/nrf905.c ****  NRF905_CS_LO;
  59              		.loc 1 11 2 is_stmt 1 view .LVU7
  60 0014 104C     		ldr	r4, .L2
  61 0016 0022     		movs	r2, #0
  62 0018 0221     		movs	r1, #2
  63 001a 2000     		movs	r0, r4
  64 001c FFF7FEFF 		bl	HAL_GPIO_WritePin
  65              	.LVL3:
  12:Core/Src/nrf905.c ****  HAL_SPI_TransmitReceive(&hspi1,&reg,&dt,1,1000);
  66              		.loc 1 12 2 view .LVU8
  67 0020 0E4D     		ldr	r5, .L2+4
  68 0022 FA26     		movs	r6, #250
  69 0024 B600     		lsls	r6, r6, #2
  70 0026 0096     		str	r6, [sp]
  71 0028 0123     		movs	r3, #1
  72 002a 1722     		movs	r2, #23
  73 002c 6A44     		add	r2, r2, sp
  74 002e 3900     		movs	r1, r7
  75 0030 2800     		movs	r0, r5
  76 0032 FFF7FEFF 		bl	HAL_SPI_TransmitReceive
  77              	.LVL4:
  13:Core/Src/nrf905.c ****  HAL_SPI_Receive(&hspi1,&dt,1,1000);
  78              		.loc 1 13 2 view .LVU9
  79 0036 3300     		movs	r3, r6
  80 0038 0122     		movs	r2, #1
  81 003a 1721     		movs	r1, #23
  82 003c 6944     		add	r1, r1, sp
  83 003e 2800     		movs	r0, r5
  84 0040 FFF7FEFF 		bl	HAL_SPI_Receive
  85              	.LVL5:
  14:Core/Src/nrf905.c ****   NRF905_CS_HI;	
  86              		.loc 1 14 3 view .LVU10
  87 0044 0122     		movs	r2, #1
  88 0046 0221     		movs	r1, #2
  89 0048 2000     		movs	r0, r4
  90 004a FFF7FEFF 		bl	HAL_GPIO_WritePin
  91              	.LVL6:
  15:Core/Src/nrf905.c ****  return dt;
  92              		.loc 1 15 2 view .LVU11
  93              		.loc 1 15 9 is_stmt 0 view .LVU12
  94 004e 6B46     		mov	r3, sp
  95 0050 D87D     		ldrb	r0, [r3, #23]
  16:Core/Src/nrf905.c **** }
  96              		.loc 1 16 1 view .LVU13
  97 0052 07B0     		add	sp, sp, #28
  98              		@ sp needed
  99 0054 F0BD     		pop	{r4, r5, r6, r7, pc}
ARM GAS  /tmp/ccJolXmM.s 			page 3


 100              	.L3:
 101 0056 C046     		.align	2
 102              	.L2:
 103 0058 00040050 		.word	1342178304
 104 005c 00000000 		.word	hspi1
 105              		.cfi_endproc
 106              	.LFE34:
 108              		.section	.text.NRF905_WriteReg,"ax",%progbits
 109              		.align	1
 110              		.global	NRF905_WriteReg
 111              		.syntax unified
 112              		.code	16
 113              		.thumb_func
 114              		.fpu softvfp
 116              	NRF905_WriteReg:
 117              	.LVL7:
 118              	.LFB35:
  17:Core/Src/nrf905.c **** 
  18:Core/Src/nrf905.c **** uint8_t NRF905_WriteReg(uint8_t reg, uint8_t data )
  19:Core/Src/nrf905.c **** {
 119              		.loc 1 19 1 is_stmt 1 view -0
 120              		.cfi_startproc
 121              		@ args = 0, pretend = 0, frame = 8
 122              		@ frame_needed = 0, uses_anonymous_args = 0
 123              		.loc 1 19 1 is_stmt 0 view .LVU15
 124 0000 F0B5     		push	{r4, r5, r6, r7, lr}
 125              	.LCFI2:
 126              		.cfi_def_cfa_offset 20
 127              		.cfi_offset 4, -20
 128              		.cfi_offset 5, -16
 129              		.cfi_offset 6, -12
 130              		.cfi_offset 7, -8
 131              		.cfi_offset 14, -4
 132 0002 C646     		mov	lr, r8
 133 0004 00B5     		push	{lr}
 134              	.LCFI3:
 135              		.cfi_def_cfa_offset 24
 136              		.cfi_offset 8, -24
 137 0006 82B0     		sub	sp, sp, #8
 138              	.LCFI4:
 139              		.cfi_def_cfa_offset 32
 140 0008 0723     		movs	r3, #7
 141 000a 6B44     		add	r3, r3, sp
 142 000c 9846     		mov	r8, r3
 143 000e 1870     		strb	r0, [r3]
 144 0010 6B46     		mov	r3, sp
 145 0012 9E1D     		adds	r6, r3, #6
 146 0014 9971     		strb	r1, [r3, #6]
  20:Core/Src/nrf905.c ****  reg |= W_CONFIG;
 147              		.loc 1 20 2 is_stmt 1 view .LVU16
  21:Core/Src/nrf905.c ****  NRF905_CS_LO;
 148              		.loc 1 21 2 view .LVU17
 149 0016 0F4C     		ldr	r4, .L5
 150 0018 0022     		movs	r2, #0
 151 001a 0221     		movs	r1, #2
 152              	.LVL8:
 153              		.loc 1 21 2 is_stmt 0 view .LVU18
ARM GAS  /tmp/ccJolXmM.s 			page 4


 154 001c 2000     		movs	r0, r4
 155              	.LVL9:
 156              		.loc 1 21 2 view .LVU19
 157 001e FFF7FEFF 		bl	HAL_GPIO_WritePin
 158              	.LVL10:
  22:Core/Src/nrf905.c ****  HAL_SPI_Transmit(&hspi1,&reg,1,1000);
 159              		.loc 1 22 2 is_stmt 1 view .LVU20
 160 0022 FA27     		movs	r7, #250
 161 0024 BF00     		lsls	r7, r7, #2
 162 0026 0C4D     		ldr	r5, .L5+4
 163 0028 3B00     		movs	r3, r7
 164 002a 0122     		movs	r2, #1
 165 002c 4146     		mov	r1, r8
 166 002e 2800     		movs	r0, r5
 167 0030 FFF7FEFF 		bl	HAL_SPI_Transmit
 168              	.LVL11:
  23:Core/Src/nrf905.c ****  HAL_SPI_Transmit(&hspi1,&data,1,1000);
 169              		.loc 1 23 2 view .LVU21
 170 0034 3B00     		movs	r3, r7
 171 0036 0122     		movs	r2, #1
 172 0038 3100     		movs	r1, r6
 173 003a 2800     		movs	r0, r5
 174 003c FFF7FEFF 		bl	HAL_SPI_Transmit
 175              	.LVL12:
  24:Core/Src/nrf905.c ****  NRF905_CS_HI;
 176              		.loc 1 24 2 view .LVU22
 177 0040 0122     		movs	r2, #1
 178 0042 0221     		movs	r1, #2
 179 0044 2000     		movs	r0, r4
 180 0046 FFF7FEFF 		bl	HAL_GPIO_WritePin
 181              	.LVL13:
  25:Core/Src/nrf905.c ****  return 0;
 182              		.loc 1 25 2 view .LVU23
  26:Core/Src/nrf905.c **** }
 183              		.loc 1 26 1 is_stmt 0 view .LVU24
 184 004a 0020     		movs	r0, #0
 185 004c 02B0     		add	sp, sp, #8
 186              		@ sp needed
 187 004e 04BC     		pop	{r2}
 188 0050 9046     		mov	r8, r2
 189 0052 F0BD     		pop	{r4, r5, r6, r7, pc}
 190              	.L6:
 191              		.align	2
 192              	.L5:
 193 0054 00040050 		.word	1342178304
 194 0058 00000000 		.word	hspi1
 195              		.cfi_endproc
 196              	.LFE35:
 198              		.section	.text.NRF905_ReadBuf,"ax",%progbits
 199              		.align	1
 200              		.global	NRF905_ReadBuf
 201              		.syntax unified
 202              		.code	16
 203              		.thumb_func
 204              		.fpu softvfp
 206              	NRF905_ReadBuf:
 207              	.LVL14:
ARM GAS  /tmp/ccJolXmM.s 			page 5


 208              	.LFB36:
  27:Core/Src/nrf905.c **** void NRF905_ReadBuf(uint8_t reg,uint8_t *pBuf,uint8_t bytes)
  28:Core/Src/nrf905.c **** {
 209              		.loc 1 28 1 is_stmt 1 view -0
 210              		.cfi_startproc
 211              		@ args = 0, pretend = 0, frame = 16
 212              		@ frame_needed = 0, uses_anonymous_args = 0
 213              		.loc 1 28 1 is_stmt 0 view .LVU26
 214 0000 F0B5     		push	{r4, r5, r6, r7, lr}
 215              	.LCFI5:
 216              		.cfi_def_cfa_offset 20
 217              		.cfi_offset 4, -20
 218              		.cfi_offset 5, -16
 219              		.cfi_offset 6, -12
 220              		.cfi_offset 7, -8
 221              		.cfi_offset 14, -4
 222 0002 87B0     		sub	sp, sp, #28
 223              	.LCFI6:
 224              		.cfi_def_cfa_offset 48
 225 0004 0D00     		movs	r5, r1
 226 0006 1600     		movs	r6, r2
 227 0008 0F27     		movs	r7, #15
 228 000a 6F44     		add	r7, r7, sp
  29:Core/Src/nrf905.c ****   uint8_t i=0, tmp;
 229              		.loc 1 29 3 is_stmt 1 view .LVU27
 230              	.LVL15:
  30:Core/Src/nrf905.c ****  reg |= R_CONFIG;
 231              		.loc 1 30 2 view .LVU28
 232              		.loc 1 30 6 is_stmt 0 view .LVU29
 233 000c 1023     		movs	r3, #16
 234 000e 1843     		orrs	r0, r3
 235              	.LVL16:
 236              		.loc 1 30 6 view .LVU30
 237 0010 3870     		strb	r0, [r7]
  31:Core/Src/nrf905.c ****  
  32:Core/Src/nrf905.c ****  NRF905_CS_LO;
 238              		.loc 1 32 2 is_stmt 1 view .LVU31
 239 0012 0022     		movs	r2, #0
 240              	.LVL17:
 241              		.loc 1 32 2 is_stmt 0 view .LVU32
 242 0014 0221     		movs	r1, #2
 243              	.LVL18:
 244              		.loc 1 32 2 view .LVU33
 245 0016 1448     		ldr	r0, .L11
 246 0018 FFF7FEFF 		bl	HAL_GPIO_WritePin
 247              	.LVL19:
  33:Core/Src/nrf905.c ****  HAL_SPI_TransmitReceive(&hspi1,&reg,&tmp,1,1000);
 248              		.loc 1 33 2 is_stmt 1 view .LVU34
 249 001c 1724     		movs	r4, #23
 250 001e 6C44     		add	r4, r4, sp
 251 0020 FA23     		movs	r3, #250
 252 0022 9B00     		lsls	r3, r3, #2
 253 0024 0093     		str	r3, [sp]
 254 0026 0123     		movs	r3, #1
 255 0028 2200     		movs	r2, r4
 256 002a 3900     		movs	r1, r7
 257 002c 0F48     		ldr	r0, .L11+4
ARM GAS  /tmp/ccJolXmM.s 			page 6


 258 002e FFF7FEFF 		bl	HAL_SPI_TransmitReceive
 259              	.LVL20:
  34:Core/Src/nrf905.c ****  tmp = NOP;
 260              		.loc 1 34 2 view .LVU35
 261              		.loc 1 34 6 is_stmt 0 view .LVU36
 262 0032 FF23     		movs	r3, #255
 263 0034 2370     		strb	r3, [r4]
  35:Core/Src/nrf905.c **** for (i=0; i<bytes; i++)
 264              		.loc 1 35 1 is_stmt 1 view .LVU37
 265              		.loc 1 35 7 is_stmt 0 view .LVU38
 266 0036 0024     		movs	r4, #0
 267              	.LVL21:
 268              	.L8:
 269              		.loc 1 35 11 is_stmt 1 discriminator 1 view .LVU39
 270              		.loc 1 35 1 is_stmt 0 discriminator 1 view .LVU40
 271 0038 B442     		cmp	r4, r6
 272 003a 0DD2     		bcs	.L10
  36:Core/Src/nrf905.c ****   {
  37:Core/Src/nrf905.c ****    HAL_SPI_TransmitReceive(&hspi1,&tmp,pBuf,1,1000);
 273              		.loc 1 37 4 is_stmt 1 discriminator 3 view .LVU41
 274 003c FA23     		movs	r3, #250
 275 003e 9B00     		lsls	r3, r3, #2
 276 0040 0093     		str	r3, [sp]
 277 0042 0123     		movs	r3, #1
 278 0044 2A00     		movs	r2, r5
 279 0046 1721     		movs	r1, #23
 280 0048 6944     		add	r1, r1, sp
 281 004a 0848     		ldr	r0, .L11+4
 282 004c FFF7FEFF 		bl	HAL_SPI_TransmitReceive
 283              	.LVL22:
  38:Core/Src/nrf905.c ****     pBuf++;
 284              		.loc 1 38 5 discriminator 3 view .LVU42
 285              		.loc 1 38 9 is_stmt 0 discriminator 3 view .LVU43
 286 0050 0135     		adds	r5, r5, #1
 287              	.LVL23:
  35:Core/Src/nrf905.c **** for (i=0; i<bytes; i++)
 288              		.loc 1 35 20 is_stmt 1 discriminator 3 view .LVU44
  35:Core/Src/nrf905.c **** for (i=0; i<bytes; i++)
 289              		.loc 1 35 21 is_stmt 0 discriminator 3 view .LVU45
 290 0052 0134     		adds	r4, r4, #1
 291              	.LVL24:
  35:Core/Src/nrf905.c **** for (i=0; i<bytes; i++)
 292              		.loc 1 35 21 discriminator 3 view .LVU46
 293 0054 E4B2     		uxtb	r4, r4
 294              	.LVL25:
  35:Core/Src/nrf905.c **** for (i=0; i<bytes; i++)
 295              		.loc 1 35 21 discriminator 3 view .LVU47
 296 0056 EFE7     		b	.L8
 297              	.L10:
  39:Core/Src/nrf905.c ****   }
  40:Core/Src/nrf905.c ****  NRF905_CS_HI;
 298              		.loc 1 40 2 is_stmt 1 view .LVU48
 299 0058 0122     		movs	r2, #1
 300 005a 0221     		movs	r1, #2
 301 005c 0248     		ldr	r0, .L11
 302 005e FFF7FEFF 		bl	HAL_GPIO_WritePin
 303              	.LVL26:
ARM GAS  /tmp/ccJolXmM.s 			page 7


  41:Core/Src/nrf905.c **** }
 304              		.loc 1 41 1 is_stmt 0 view .LVU49
 305 0062 07B0     		add	sp, sp, #28
 306              		@ sp needed
 307              	.LVL27:
 308              	.LVL28:
 309              		.loc 1 41 1 view .LVU50
 310 0064 F0BD     		pop	{r4, r5, r6, r7, pc}
 311              	.L12:
 312 0066 C046     		.align	2
 313              	.L11:
 314 0068 00040050 		.word	1342178304
 315 006c 00000000 		.word	hspi1
 316              		.cfi_endproc
 317              	.LFE36:
 319              		.section	.text.NRF905_WriteBuf,"ax",%progbits
 320              		.align	1
 321              		.global	NRF905_WriteBuf
 322              		.syntax unified
 323              		.code	16
 324              		.thumb_func
 325              		.fpu softvfp
 327              	NRF905_WriteBuf:
 328              	.LVL29:
 329              	.LFB37:
  42:Core/Src/nrf905.c **** 
  43:Core/Src/nrf905.c **** 
  44:Core/Src/nrf905.c **** void NRF905_WriteBuf(uint8_t reg,uint8_t *pBuf,uint8_t bytes)
  45:Core/Src/nrf905.c **** {
 330              		.loc 1 45 1 is_stmt 1 view -0
 331              		.cfi_startproc
 332              		@ args = 0, pretend = 0, frame = 16
 333              		@ frame_needed = 0, uses_anonymous_args = 0
 334              		.loc 1 45 1 is_stmt 0 view .LVU52
 335 0000 70B5     		push	{r4, r5, r6, lr}
 336              	.LCFI7:
 337              		.cfi_def_cfa_offset 16
 338              		.cfi_offset 4, -16
 339              		.cfi_offset 5, -12
 340              		.cfi_offset 6, -8
 341              		.cfi_offset 14, -4
 342 0002 86B0     		sub	sp, sp, #24
 343              	.LCFI8:
 344              		.cfi_def_cfa_offset 40
 345 0004 0D00     		movs	r5, r1
 346 0006 1600     		movs	r6, r2
 347 0008 0F24     		movs	r4, #15
 348 000a 6C44     		add	r4, r4, sp
 349 000c 2070     		strb	r0, [r4]
  46:Core/Src/nrf905.c ****  uint8_t i,y; 
 350              		.loc 1 46 2 is_stmt 1 view .LVU53
  47:Core/Src/nrf905.c ****  reg |=W_CONFIG;
 351              		.loc 1 47 2 view .LVU54
  48:Core/Src/nrf905.c ****  NRF905_CS_LO;
 352              		.loc 1 48 2 view .LVU55
 353 000e 0022     		movs	r2, #0
 354              	.LVL30:
ARM GAS  /tmp/ccJolXmM.s 			page 8


 355              		.loc 1 48 2 is_stmt 0 view .LVU56
 356 0010 0221     		movs	r1, #2
 357              	.LVL31:
 358              		.loc 1 48 2 view .LVU57
 359 0012 1248     		ldr	r0, .L17
 360              	.LVL32:
 361              		.loc 1 48 2 view .LVU58
 362 0014 FFF7FEFF 		bl	HAL_GPIO_WritePin
 363              	.LVL33:
  49:Core/Src/nrf905.c ****  HAL_SPI_TransmitReceive(&hspi1,&reg, &y,1,1000);
 364              		.loc 1 49 2 is_stmt 1 view .LVU59
 365 0018 FA23     		movs	r3, #250
 366 001a 9B00     		lsls	r3, r3, #2
 367 001c 0093     		str	r3, [sp]
 368 001e 0123     		movs	r3, #1
 369 0020 1722     		movs	r2, #23
 370 0022 6A44     		add	r2, r2, sp
 371 0024 2100     		movs	r1, r4
 372 0026 0E48     		ldr	r0, .L17+4
 373 0028 FFF7FEFF 		bl	HAL_SPI_TransmitReceive
 374              	.LVL34:
  50:Core/Src/nrf905.c ****  for (i=0;i<bytes;i++) 
 375              		.loc 1 50 2 view .LVU60
 376              		.loc 1 50 8 is_stmt 0 view .LVU61
 377 002c 0024     		movs	r4, #0
 378              	.LVL35:
 379              	.L14:
 380              		.loc 1 50 11 is_stmt 1 discriminator 1 view .LVU62
 381              		.loc 1 50 2 is_stmt 0 discriminator 1 view .LVU63
 382 002e B442     		cmp	r4, r6
 383 0030 0DD2     		bcs	.L16
  51:Core/Src/nrf905.c ****    {
  52:Core/Src/nrf905.c ****      HAL_SPI_TransmitReceive(&hspi1,pBuf,&y,1,1000);
 384              		.loc 1 52 6 is_stmt 1 discriminator 3 view .LVU64
 385 0032 FA23     		movs	r3, #250
 386 0034 9B00     		lsls	r3, r3, #2
 387 0036 0093     		str	r3, [sp]
 388 0038 0123     		movs	r3, #1
 389 003a 1722     		movs	r2, #23
 390 003c 6A44     		add	r2, r2, sp
 391 003e 2900     		movs	r1, r5
 392 0040 0748     		ldr	r0, .L17+4
 393 0042 FFF7FEFF 		bl	HAL_SPI_TransmitReceive
 394              	.LVL36:
  53:Core/Src/nrf905.c ****      pBuf++;
 395              		.loc 1 53 6 discriminator 3 view .LVU65
 396              		.loc 1 53 10 is_stmt 0 discriminator 3 view .LVU66
 397 0046 0135     		adds	r5, r5, #1
 398              	.LVL37:
  50:Core/Src/nrf905.c ****  for (i=0;i<bytes;i++) 
 399              		.loc 1 50 19 is_stmt 1 discriminator 3 view .LVU67
  50:Core/Src/nrf905.c ****  for (i=0;i<bytes;i++) 
 400              		.loc 1 50 20 is_stmt 0 discriminator 3 view .LVU68
 401 0048 0134     		adds	r4, r4, #1
 402              	.LVL38:
  50:Core/Src/nrf905.c ****  for (i=0;i<bytes;i++) 
 403              		.loc 1 50 20 discriminator 3 view .LVU69
ARM GAS  /tmp/ccJolXmM.s 			page 9


 404 004a E4B2     		uxtb	r4, r4
 405              	.LVL39:
  50:Core/Src/nrf905.c ****  for (i=0;i<bytes;i++) 
 406              		.loc 1 50 20 discriminator 3 view .LVU70
 407 004c EFE7     		b	.L14
 408              	.L16:
  54:Core/Src/nrf905.c ****    }
  55:Core/Src/nrf905.c ****  NRF905_CS_HI;
 409              		.loc 1 55 2 is_stmt 1 view .LVU71
 410 004e 0122     		movs	r2, #1
 411 0050 0221     		movs	r1, #2
 412 0052 0248     		ldr	r0, .L17
 413 0054 FFF7FEFF 		bl	HAL_GPIO_WritePin
 414              	.LVL40:
  56:Core/Src/nrf905.c **** }
 415              		.loc 1 56 1 is_stmt 0 view .LVU72
 416 0058 06B0     		add	sp, sp, #24
 417              		@ sp needed
 418              	.LVL41:
 419              	.LVL42:
 420              		.loc 1 56 1 view .LVU73
 421 005a 70BD     		pop	{r4, r5, r6, pc}
 422              	.L18:
 423              		.align	2
 424              	.L17:
 425 005c 00040050 		.word	1342178304
 426 0060 00000000 		.word	hspi1
 427              		.cfi_endproc
 428              	.LFE37:
 430              		.section	.text.NRF905_POWER_OFF,"ax",%progbits
 431              		.align	1
 432              		.global	NRF905_POWER_OFF
 433              		.syntax unified
 434              		.code	16
 435              		.thumb_func
 436              		.fpu softvfp
 438              	NRF905_POWER_OFF:
 439              	.LFB39:
  57:Core/Src/nrf905.c **** void NRF905_POWER_ON (void)
  58:Core/Src/nrf905.c **** {
  59:Core/Src/nrf905.c ****  HAL_GPIO_WritePin(PWR_GPIO_Port, PWR_Pin, GPIO_PIN_SET);
  60:Core/Src/nrf905.c ****  HAL_Delay(1);
  61:Core/Src/nrf905.c ****  ReciveOn ();
  62:Core/Src/nrf905.c ****  HAL_Delay(2);
  63:Core/Src/nrf905.c **** }
  64:Core/Src/nrf905.c **** void NRF905_POWER_OFF (void)
  65:Core/Src/nrf905.c **** {
 440              		.loc 1 65 1 is_stmt 1 view -0
 441              		.cfi_startproc
 442              		@ args = 0, pretend = 0, frame = 0
 443              		@ frame_needed = 0, uses_anonymous_args = 0
 444 0000 10B5     		push	{r4, lr}
 445              	.LCFI9:
 446              		.cfi_def_cfa_offset 8
 447              		.cfi_offset 4, -8
 448              		.cfi_offset 14, -4
  66:Core/Src/nrf905.c ****  HAL_GPIO_WritePin(PWR_GPIO_Port, PWR_Pin, GPIO_PIN_RESET);
ARM GAS  /tmp/ccJolXmM.s 			page 10


 449              		.loc 1 66 2 view .LVU75
 450 0002 8021     		movs	r1, #128
 451 0004 0022     		movs	r2, #0
 452 0006 C901     		lsls	r1, r1, #7
 453 0008 0148     		ldr	r0, .L20
 454 000a FFF7FEFF 		bl	HAL_GPIO_WritePin
 455              	.LVL43:
  67:Core/Src/nrf905.c **** }
 456              		.loc 1 67 1 is_stmt 0 view .LVU76
 457              		@ sp needed
 458 000e 10BD     		pop	{r4, pc}
 459              	.L21:
 460              		.align	2
 461              	.L20:
 462 0010 00080050 		.word	1342179328
 463              		.cfi_endproc
 464              	.LFE39:
 466              		.section	.text.NRF905_INIT,"ax",%progbits
 467              		.align	1
 468              		.global	NRF905_INIT
 469              		.syntax unified
 470              		.code	16
 471              		.thumb_func
 472              		.fpu softvfp
 474              	NRF905_INIT:
 475              	.LVL44:
 476              	.LFB40:
  68:Core/Src/nrf905.c **** uint8_t NRF905_INIT(struct NRF905_Conf *Conf)
  69:Core/Src/nrf905.c **** {
 477              		.loc 1 69 1 is_stmt 1 view -0
 478              		.cfi_startproc
 479              		@ args = 0, pretend = 0, frame = 24
 480              		@ frame_needed = 0, uses_anonymous_args = 0
 481              		.loc 1 69 1 is_stmt 0 view .LVU78
 482 0000 30B5     		push	{r4, r5, lr}
 483              	.LCFI10:
 484              		.cfi_def_cfa_offset 12
 485              		.cfi_offset 4, -12
 486              		.cfi_offset 5, -8
 487              		.cfi_offset 14, -4
 488 0002 87B0     		sub	sp, sp, #28
 489              	.LCFI11:
 490              		.cfi_def_cfa_offset 40
 491 0004 0400     		movs	r4, r0
  70:Core/Src/nrf905.c ****  struct NRF905_Conf tmp;   
 492              		.loc 1 70 2 is_stmt 1 view .LVU79
  71:Core/Src/nrf905.c **** 
  72:Core/Src/nrf905.c ****  NRF905_ReadBuf(0,&tmp,sizeof(tmp));
 493              		.loc 1 72 2 view .LVU80
 494 0006 0A22     		movs	r2, #10
 495 0008 03A9     		add	r1, sp, #12
 496 000a 0020     		movs	r0, #0
 497              	.LVL45:
 498              		.loc 1 72 2 is_stmt 0 view .LVU81
 499 000c FFF7FEFF 		bl	NRF905_ReadBuf
 500              	.LVL46:
  73:Core/Src/nrf905.c ****  tmp.RX_ADDRESS=0xE7E7E7E7;
ARM GAS  /tmp/ccJolXmM.s 			page 11


 501              		.loc 1 73 2 is_stmt 1 view .LVU82
 502              		.loc 1 73 16 is_stmt 0 view .LVU83
 503 0010 049B     		ldr	r3, [sp, #16]
 504 0012 0193     		str	r3, [sp, #4]
 505 0014 FF25     		movs	r5, #255
 506 0016 1A00     		movs	r2, r3
 507 0018 2A40     		ands	r2, r5
 508 001a 164B     		ldr	r3, .L26
 509 001c 1343     		orrs	r3, r2
 510 001e 0493     		str	r3, [sp, #16]
 511 0020 1923     		movs	r3, #25
 512 0022 5B42     		rsbs	r3, r3, #0
 513 0024 02AA     		add	r2, sp, #8
 514 0026 1373     		strb	r3, [r2, #12]
  74:Core/Src/nrf905.c ****  NRF905_WriteBuf(0,&tmp,sizeof(tmp));
 515              		.loc 1 74 2 is_stmt 1 view .LVU84
 516 0028 0A22     		movs	r2, #10
 517 002a 03A9     		add	r1, sp, #12
 518 002c 0020     		movs	r0, #0
 519 002e FFF7FEFF 		bl	NRF905_WriteBuf
 520              	.LVL47:
  75:Core/Src/nrf905.c ****  tmp.RX_ADDRESS = 0;
 521              		.loc 1 75 2 view .LVU85
 522              		.loc 1 75 17 is_stmt 0 view .LVU86
 523 0032 049B     		ldr	r3, [sp, #16]
 524 0034 0193     		str	r3, [sp, #4]
 525 0036 1D40     		ands	r5, r3
 526 0038 0495     		str	r5, [sp, #16]
 527 003a 0023     		movs	r3, #0
 528 003c 02AA     		add	r2, sp, #8
 529 003e 1373     		strb	r3, [r2, #12]
  76:Core/Src/nrf905.c ****  NRF905_ReadBuf(0,&tmp,sizeof(tmp));
 530              		.loc 1 76 2 is_stmt 1 view .LVU87
 531 0040 0A22     		movs	r2, #10
 532 0042 03A9     		add	r1, sp, #12
 533 0044 0020     		movs	r0, #0
 534 0046 FFF7FEFF 		bl	NRF905_ReadBuf
 535              	.LVL48:
  77:Core/Src/nrf905.c ****  if ((tmp.RX_ADDRESS != 0xE7E7E7E7)) 
 536              		.loc 1 77 2 view .LVU88
 537              		.loc 1 77 10 is_stmt 0 view .LVU89
 538 004a 049B     		ldr	r3, [sp, #16]
 539 004c 0193     		str	r3, [sp, #4]
 540 004e 1A0A     		lsrs	r2, r3, #8
 541 0050 02AB     		add	r3, sp, #8
 542 0052 1B7B     		ldrb	r3, [r3, #12]
 543 0054 1B06     		lsls	r3, r3, #24
 544 0056 1343     		orrs	r3, r2
 545              		.loc 1 77 5 view .LVU90
 546 0058 074A     		ldr	r2, .L26+4
 547 005a 9342     		cmp	r3, r2
 548 005c 02D0     		beq	.L25
  78:Core/Src/nrf905.c ****    {
  79:Core/Src/nrf905.c ****      return 0;
 549              		.loc 1 79 13 view .LVU91
 550 005e 0020     		movs	r0, #0
 551              	.L23:
ARM GAS  /tmp/ccJolXmM.s 			page 12


  80:Core/Src/nrf905.c ****    } else
  81:Core/Src/nrf905.c ****       {
  82:Core/Src/nrf905.c ****      /* code */
  83:Core/Src/nrf905.c ****        NRF905_WriteBuf(0,Conf,10);
  84:Core/Src/nrf905.c ****        return 1;
  85:Core/Src/nrf905.c ****       }
  86:Core/Src/nrf905.c ****   
  87:Core/Src/nrf905.c **** }
 552              		.loc 1 87 1 view .LVU92
 553 0060 07B0     		add	sp, sp, #28
 554              		@ sp needed
 555              	.LVL49:
 556              		.loc 1 87 1 view .LVU93
 557 0062 30BD     		pop	{r4, r5, pc}
 558              	.LVL50:
 559              	.L25:
  83:Core/Src/nrf905.c ****        return 1;
 560              		.loc 1 83 8 is_stmt 1 view .LVU94
 561 0064 0A22     		movs	r2, #10
 562 0066 2100     		movs	r1, r4
 563 0068 0020     		movs	r0, #0
 564 006a FFF7FEFF 		bl	NRF905_WriteBuf
 565              	.LVL51:
  84:Core/Src/nrf905.c ****       }
 566              		.loc 1 84 8 view .LVU95
  84:Core/Src/nrf905.c ****       }
 567              		.loc 1 84 15 is_stmt 0 view .LVU96
 568 006e 0120     		movs	r0, #1
 569 0070 F6E7     		b	.L23
 570              	.L27:
 571 0072 C046     		.align	2
 572              	.L26:
 573 0074 00E7E7E7 		.word	-404232448
 574 0078 E7E7E7E7 		.word	-404232217
 575              		.cfi_endproc
 576              	.LFE40:
 578              		.section	.text.WriteDataToSend,"ax",%progbits
 579              		.align	1
 580              		.global	WriteDataToSend
 581              		.syntax unified
 582              		.code	16
 583              		.thumb_func
 584              		.fpu softvfp
 586              	WriteDataToSend:
 587              	.LVL52:
 588              	.LFB41:
  88:Core/Src/nrf905.c **** void WriteDataToSend(uint32_t addr, uint8_t *pBuf, uint8_t size)
  89:Core/Src/nrf905.c **** {
 589              		.loc 1 89 1 is_stmt 1 view -0
 590              		.cfi_startproc
 591              		@ args = 0, pretend = 0, frame = 8
 592              		@ frame_needed = 0, uses_anonymous_args = 0
 593              		.loc 1 89 1 is_stmt 0 view .LVU98
 594 0000 F0B5     		push	{r4, r5, r6, r7, lr}
 595              	.LCFI12:
 596              		.cfi_def_cfa_offset 20
 597              		.cfi_offset 4, -20
ARM GAS  /tmp/ccJolXmM.s 			page 13


 598              		.cfi_offset 5, -16
 599              		.cfi_offset 6, -12
 600              		.cfi_offset 7, -8
 601              		.cfi_offset 14, -4
 602 0002 CE46     		mov	lr, r9
 603 0004 4746     		mov	r7, r8
 604 0006 80B5     		push	{r7, lr}
 605              	.LCFI13:
 606              		.cfi_def_cfa_offset 28
 607              		.cfi_offset 8, -28
 608              		.cfi_offset 9, -24
 609 0008 85B0     		sub	sp, sp, #20
 610              	.LCFI14:
 611              		.cfi_def_cfa_offset 48
 612 000a 8146     		mov	r9, r0
 613 000c 0D00     		movs	r5, r1
 614 000e 1600     		movs	r6, r2
  90:Core/Src/nrf905.c ****   uint8_t i,y, tmp;
 615              		.loc 1 90 3 is_stmt 1 view .LVU99
  91:Core/Src/nrf905.c ****   tmp = W_TX_ADDRESS; 
 616              		.loc 1 91 3 view .LVU100
 617              		.loc 1 91 7 is_stmt 0 view .LVU101
 618 0010 2223     		movs	r3, #34
 619 0012 6A46     		mov	r2, sp
 620              	.LVL53:
 621              		.loc 1 91 7 view .LVU102
 622 0014 9373     		strb	r3, [r2, #14]
  92:Core/Src/nrf905.c ****   NRF905_CS_LO;
 623              		.loc 1 92 3 is_stmt 1 view .LVU103
 624 0016 284B     		ldr	r3, .L32
 625 0018 9846     		mov	r8, r3
 626 001a 0022     		movs	r2, #0
 627 001c 0221     		movs	r1, #2
 628              	.LVL54:
 629              		.loc 1 92 3 is_stmt 0 view .LVU104
 630 001e 1800     		movs	r0, r3
 631              	.LVL55:
 632              		.loc 1 92 3 view .LVU105
 633 0020 FFF7FEFF 		bl	HAL_GPIO_WritePin
 634              	.LVL56:
  93:Core/Src/nrf905.c ****   HAL_SPI_TransmitReceive(&hspi1,&tmp, &y, 1, 1000);
 635              		.loc 1 93 3 is_stmt 1 view .LVU106
 636 0024 254C     		ldr	r4, .L32+4
 637 0026 FA27     		movs	r7, #250
 638 0028 BF00     		lsls	r7, r7, #2
 639 002a 0097     		str	r7, [sp]
 640 002c 0123     		movs	r3, #1
 641 002e 0F22     		movs	r2, #15
 642 0030 6A44     		add	r2, r2, sp
 643 0032 0E21     		movs	r1, #14
 644 0034 6944     		add	r1, r1, sp
 645 0036 2000     		movs	r0, r4
 646 0038 FFF7FEFF 		bl	HAL_SPI_TransmitReceive
 647              	.LVL57:
  94:Core/Src/nrf905.c ****   tmp = addr;
 648              		.loc 1 94 3 view .LVU107
 649              		.loc 1 94 7 is_stmt 0 view .LVU108
ARM GAS  /tmp/ccJolXmM.s 			page 14


 650 003c 6B46     		mov	r3, sp
 651 003e 4A46     		mov	r2, r9
 652 0040 9A73     		strb	r2, [r3, #14]
  95:Core/Src/nrf905.c ****   HAL_SPI_TransmitReceive(&hspi1,&tmp, &y, 1, 1000); 
 653              		.loc 1 95 3 is_stmt 1 view .LVU109
 654 0042 0097     		str	r7, [sp]
 655 0044 0123     		movs	r3, #1
 656 0046 0F22     		movs	r2, #15
 657 0048 6A44     		add	r2, r2, sp
 658 004a 0E21     		movs	r1, #14
 659 004c 6944     		add	r1, r1, sp
 660 004e 2000     		movs	r0, r4
 661 0050 FFF7FEFF 		bl	HAL_SPI_TransmitReceive
 662              	.LVL58:
  96:Core/Src/nrf905.c ****   NRF905_CS_HI;
 663              		.loc 1 96 3 view .LVU110
 664 0054 0122     		movs	r2, #1
 665 0056 0221     		movs	r1, #2
 666 0058 4046     		mov	r0, r8
 667 005a FFF7FEFF 		bl	HAL_GPIO_WritePin
 668              	.LVL59:
  97:Core/Src/nrf905.c ****   NRF905_CS_LO;
 669              		.loc 1 97 3 view .LVU111
 670 005e 0022     		movs	r2, #0
 671 0060 0221     		movs	r1, #2
 672 0062 4046     		mov	r0, r8
 673 0064 FFF7FEFF 		bl	HAL_GPIO_WritePin
 674              	.LVL60:
  98:Core/Src/nrf905.c ****   tmp = W_TX_PAYLOAD;
 675              		.loc 1 98 3 view .LVU112
 676              		.loc 1 98 7 is_stmt 0 view .LVU113
 677 0068 2023     		movs	r3, #32
 678 006a 6A46     		mov	r2, sp
 679 006c 9373     		strb	r3, [r2, #14]
  99:Core/Src/nrf905.c ****   HAL_SPI_TransmitReceive(&hspi1,&tmp, &y, 1, 1000);
 680              		.loc 1 99 3 is_stmt 1 view .LVU114
 681 006e 0097     		str	r7, [sp]
 682 0070 1F3B     		subs	r3, r3, #31
 683 0072 0F22     		movs	r2, #15
 684 0074 6A44     		add	r2, r2, sp
 685 0076 0E21     		movs	r1, #14
 686 0078 6944     		add	r1, r1, sp
 687 007a 2000     		movs	r0, r4
 688 007c FFF7FEFF 		bl	HAL_SPI_TransmitReceive
 689              	.LVL61:
 100:Core/Src/nrf905.c ****   for (i=0;i<size;i++) 
 690              		.loc 1 100 3 view .LVU115
 691              		.loc 1 100 9 is_stmt 0 view .LVU116
 692 0080 0024     		movs	r4, #0
 693              	.LVL62:
 694              	.L29:
 695              		.loc 1 100 12 is_stmt 1 discriminator 1 view .LVU117
 696              		.loc 1 100 3 is_stmt 0 discriminator 1 view .LVU118
 697 0082 B442     		cmp	r4, r6
 698 0084 0DD2     		bcs	.L31
 101:Core/Src/nrf905.c ****    {
 102:Core/Src/nrf905.c ****      HAL_SPI_TransmitReceive(&hspi1,pBuf,&y,1,1000);
ARM GAS  /tmp/ccJolXmM.s 			page 15


 699              		.loc 1 102 6 is_stmt 1 discriminator 3 view .LVU119
 700 0086 FA23     		movs	r3, #250
 701 0088 9B00     		lsls	r3, r3, #2
 702 008a 0093     		str	r3, [sp]
 703 008c 0123     		movs	r3, #1
 704 008e 0F22     		movs	r2, #15
 705 0090 6A44     		add	r2, r2, sp
 706 0092 2900     		movs	r1, r5
 707 0094 0948     		ldr	r0, .L32+4
 708 0096 FFF7FEFF 		bl	HAL_SPI_TransmitReceive
 709              	.LVL63:
 103:Core/Src/nrf905.c ****      pBuf++;
 710              		.loc 1 103 6 discriminator 3 view .LVU120
 711              		.loc 1 103 10 is_stmt 0 discriminator 3 view .LVU121
 712 009a 0135     		adds	r5, r5, #1
 713              	.LVL64:
 100:Core/Src/nrf905.c ****   for (i=0;i<size;i++) 
 714              		.loc 1 100 19 is_stmt 1 discriminator 3 view .LVU122
 100:Core/Src/nrf905.c ****   for (i=0;i<size;i++) 
 715              		.loc 1 100 20 is_stmt 0 discriminator 3 view .LVU123
 716 009c 0134     		adds	r4, r4, #1
 717              	.LVL65:
 100:Core/Src/nrf905.c ****   for (i=0;i<size;i++) 
 718              		.loc 1 100 20 discriminator 3 view .LVU124
 719 009e E4B2     		uxtb	r4, r4
 720              	.LVL66:
 100:Core/Src/nrf905.c ****   for (i=0;i<size;i++) 
 721              		.loc 1 100 20 discriminator 3 view .LVU125
 722 00a0 EFE7     		b	.L29
 723              	.L31:
 104:Core/Src/nrf905.c ****    }
 105:Core/Src/nrf905.c ****  NRF905_CS_HI;
 724              		.loc 1 105 2 is_stmt 1 view .LVU126
 725 00a2 0122     		movs	r2, #1
 726 00a4 0221     		movs	r1, #2
 727 00a6 0448     		ldr	r0, .L32
 728 00a8 FFF7FEFF 		bl	HAL_GPIO_WritePin
 729              	.LVL67:
 106:Core/Src/nrf905.c **** }
 730              		.loc 1 106 1 is_stmt 0 view .LVU127
 731 00ac 05B0     		add	sp, sp, #20
 732              		@ sp needed
 733              	.LVL68:
 734              	.LVL69:
 735              	.LVL70:
 736              		.loc 1 106 1 view .LVU128
 737 00ae 0CBC     		pop	{r2, r3}
 738 00b0 9046     		mov	r8, r2
 739 00b2 9946     		mov	r9, r3
 740 00b4 F0BD     		pop	{r4, r5, r6, r7, pc}
 741              	.L33:
 742 00b6 C046     		.align	2
 743              	.L32:
 744 00b8 00040050 		.word	1342178304
 745 00bc 00000000 		.word	hspi1
 746              		.cfi_endproc
 747              	.LFE41:
ARM GAS  /tmp/ccJolXmM.s 			page 16


 749              		.section	.text.ReadReciveData,"ax",%progbits
 750              		.align	1
 751              		.global	ReadReciveData
 752              		.syntax unified
 753              		.code	16
 754              		.thumb_func
 755              		.fpu softvfp
 757              	ReadReciveData:
 758              	.LVL71:
 759              	.LFB42:
 107:Core/Src/nrf905.c **** void ReadReciveData(uint8_t *pBuf, uint8_t size)
 108:Core/Src/nrf905.c **** {
 760              		.loc 1 108 1 is_stmt 1 view -0
 761              		.cfi_startproc
 762              		@ args = 0, pretend = 0, frame = 8
 763              		@ frame_needed = 0, uses_anonymous_args = 0
 764              		.loc 1 108 1 is_stmt 0 view .LVU130
 765 0000 F0B5     		push	{r4, r5, r6, r7, lr}
 766              	.LCFI15:
 767              		.cfi_def_cfa_offset 20
 768              		.cfi_offset 4, -20
 769              		.cfi_offset 5, -16
 770              		.cfi_offset 6, -12
 771              		.cfi_offset 7, -8
 772              		.cfi_offset 14, -4
 773 0002 85B0     		sub	sp, sp, #20
 774              	.LCFI16:
 775              		.cfi_def_cfa_offset 40
 776 0004 0500     		movs	r5, r0
 777 0006 0E00     		movs	r6, r1
 109:Core/Src/nrf905.c ****    uint8_t i=0, tmp, tmp1;
 778              		.loc 1 109 4 is_stmt 1 view .LVU131
 779              	.LVL72:
 110:Core/Src/nrf905.c ****    tmp1 = R_RX_PAYLOAD;
 780              		.loc 1 110 4 view .LVU132
 781              		.loc 1 110 9 is_stmt 0 view .LVU133
 782 0008 0E27     		movs	r7, #14
 783 000a 6F44     		add	r7, r7, sp
 784 000c 2423     		movs	r3, #36
 785 000e 3B70     		strb	r3, [r7]
 111:Core/Src/nrf905.c ****   
 112:Core/Src/nrf905.c ****  NRF905_CS_LO;
 786              		.loc 1 112 2 is_stmt 1 view .LVU134
 787 0010 0022     		movs	r2, #0
 788 0012 0221     		movs	r1, #2
 789              	.LVL73:
 790              		.loc 1 112 2 is_stmt 0 view .LVU135
 791 0014 1348     		ldr	r0, .L38
 792              	.LVL74:
 793              		.loc 1 112 2 view .LVU136
 794 0016 FFF7FEFF 		bl	HAL_GPIO_WritePin
 795              	.LVL75:
 113:Core/Src/nrf905.c ****  HAL_SPI_TransmitReceive(&hspi1,&tmp1,&tmp,1,1000);
 796              		.loc 1 113 2 is_stmt 1 view .LVU137
 797 001a 0F24     		movs	r4, #15
 798 001c 6C44     		add	r4, r4, sp
 799 001e FA23     		movs	r3, #250
ARM GAS  /tmp/ccJolXmM.s 			page 17


 800 0020 9B00     		lsls	r3, r3, #2
 801 0022 0093     		str	r3, [sp]
 802 0024 0123     		movs	r3, #1
 803 0026 2200     		movs	r2, r4
 804 0028 3900     		movs	r1, r7
 805 002a 0F48     		ldr	r0, .L38+4
 806 002c FFF7FEFF 		bl	HAL_SPI_TransmitReceive
 807              	.LVL76:
 114:Core/Src/nrf905.c ****  tmp = NOP;
 808              		.loc 1 114 2 view .LVU138
 809              		.loc 1 114 6 is_stmt 0 view .LVU139
 810 0030 FF23     		movs	r3, #255
 811 0032 2370     		strb	r3, [r4]
 115:Core/Src/nrf905.c **** for (i=0; i<size; i++)
 812              		.loc 1 115 1 is_stmt 1 view .LVU140
 813              		.loc 1 115 7 is_stmt 0 view .LVU141
 814 0034 0024     		movs	r4, #0
 815              	.LVL77:
 816              	.L35:
 817              		.loc 1 115 11 is_stmt 1 discriminator 1 view .LVU142
 818              		.loc 1 115 1 is_stmt 0 discriminator 1 view .LVU143
 819 0036 B442     		cmp	r4, r6
 820 0038 0DD2     		bcs	.L37
 116:Core/Src/nrf905.c ****   {
 117:Core/Src/nrf905.c ****    HAL_SPI_TransmitReceive(&hspi1,&tmp,pBuf,1,1000);
 821              		.loc 1 117 4 is_stmt 1 discriminator 3 view .LVU144
 822 003a FA23     		movs	r3, #250
 823 003c 9B00     		lsls	r3, r3, #2
 824 003e 0093     		str	r3, [sp]
 825 0040 0123     		movs	r3, #1
 826 0042 2A00     		movs	r2, r5
 827 0044 0F21     		movs	r1, #15
 828 0046 6944     		add	r1, r1, sp
 829 0048 0748     		ldr	r0, .L38+4
 830 004a FFF7FEFF 		bl	HAL_SPI_TransmitReceive
 831              	.LVL78:
 118:Core/Src/nrf905.c ****     pBuf++;
 832              		.loc 1 118 5 discriminator 3 view .LVU145
 833              		.loc 1 118 9 is_stmt 0 discriminator 3 view .LVU146
 834 004e 0135     		adds	r5, r5, #1
 835              	.LVL79:
 115:Core/Src/nrf905.c **** for (i=0; i<size; i++)
 836              		.loc 1 115 19 is_stmt 1 discriminator 3 view .LVU147
 115:Core/Src/nrf905.c **** for (i=0; i<size; i++)
 837              		.loc 1 115 20 is_stmt 0 discriminator 3 view .LVU148
 838 0050 0134     		adds	r4, r4, #1
 839              	.LVL80:
 115:Core/Src/nrf905.c **** for (i=0; i<size; i++)
 840              		.loc 1 115 20 discriminator 3 view .LVU149
 841 0052 E4B2     		uxtb	r4, r4
 842              	.LVL81:
 115:Core/Src/nrf905.c **** for (i=0; i<size; i++)
 843              		.loc 1 115 20 discriminator 3 view .LVU150
 844 0054 EFE7     		b	.L35
 845              	.L37:
 119:Core/Src/nrf905.c ****   }
 120:Core/Src/nrf905.c ****  NRF905_CS_HI;
ARM GAS  /tmp/ccJolXmM.s 			page 18


 846              		.loc 1 120 2 is_stmt 1 view .LVU151
 847 0056 0122     		movs	r2, #1
 848 0058 0221     		movs	r1, #2
 849 005a 0248     		ldr	r0, .L38
 850 005c FFF7FEFF 		bl	HAL_GPIO_WritePin
 851              	.LVL82:
 121:Core/Src/nrf905.c **** }
 852              		.loc 1 121 1 is_stmt 0 view .LVU152
 853 0060 05B0     		add	sp, sp, #20
 854              		@ sp needed
 855              	.LVL83:
 856              	.LVL84:
 857              		.loc 1 121 1 view .LVU153
 858 0062 F0BD     		pop	{r4, r5, r6, r7, pc}
 859              	.L39:
 860              		.align	2
 861              	.L38:
 862 0064 00040050 		.word	1342178304
 863 0068 00000000 		.word	hspi1
 864              		.cfi_endproc
 865              	.LFE42:
 867              		.section	.text.StartSend,"ax",%progbits
 868              		.align	1
 869              		.global	StartSend
 870              		.syntax unified
 871              		.code	16
 872              		.thumb_func
 873              		.fpu softvfp
 875              	StartSend:
 876              	.LFB43:
 122:Core/Src/nrf905.c **** void StartSend( void )
 123:Core/Src/nrf905.c **** {
 877              		.loc 1 123 1 is_stmt 1 view -0
 878              		.cfi_startproc
 879              		@ args = 0, pretend = 0, frame = 0
 880              		@ frame_needed = 0, uses_anonymous_args = 0
 881 0000 10B5     		push	{r4, lr}
 882              	.LCFI17:
 883              		.cfi_def_cfa_offset 8
 884              		.cfi_offset 4, -8
 885              		.cfi_offset 14, -4
 124:Core/Src/nrf905.c ****    HAL_GPIO_WritePin(CE_GPIO_Port, CE_Pin, GPIO_PIN_SET);
 886              		.loc 1 124 4 view .LVU155
 887 0002 8021     		movs	r1, #128
 888 0004 A020     		movs	r0, #160
 889 0006 0122     		movs	r2, #1
 890 0008 C900     		lsls	r1, r1, #3
 891 000a C005     		lsls	r0, r0, #23
 892 000c FFF7FEFF 		bl	HAL_GPIO_WritePin
 893              	.LVL85:
 125:Core/Src/nrf905.c ****    while (HAL_GPIO_ReadPin(DR_GPIO_Port, DR_Pin) != 1)
 894              		.loc 1 125 4 view .LVU156
 895              	.L41:
 126:Core/Src/nrf905.c ****    {}
 896              		.loc 1 126 5 discriminator 1 view .LVU157
 125:Core/Src/nrf905.c ****    while (HAL_GPIO_ReadPin(DR_GPIO_Port, DR_Pin) != 1)
 897              		.loc 1 125 10 discriminator 1 view .LVU158
ARM GAS  /tmp/ccJolXmM.s 			page 19


 125:Core/Src/nrf905.c ****    while (HAL_GPIO_ReadPin(DR_GPIO_Port, DR_Pin) != 1)
 898              		.loc 1 125 11 is_stmt 0 discriminator 1 view .LVU159
 899 0010 A020     		movs	r0, #160
 900 0012 1021     		movs	r1, #16
 901 0014 C005     		lsls	r0, r0, #23
 902 0016 FFF7FEFF 		bl	HAL_GPIO_ReadPin
 903              	.LVL86:
 125:Core/Src/nrf905.c ****    while (HAL_GPIO_ReadPin(DR_GPIO_Port, DR_Pin) != 1)
 904              		.loc 1 125 10 discriminator 1 view .LVU160
 905 001a 0128     		cmp	r0, #1
 906 001c F8D1     		bne	.L41
 127:Core/Src/nrf905.c ****    HAL_GPIO_WritePin(CE_GPIO_Port, CE_Pin, GPIO_PIN_RESET);
 907              		.loc 1 127 4 is_stmt 1 view .LVU161
 908 001e 8021     		movs	r1, #128
 909 0020 9F30     		adds	r0, r0, #159
 910 0022 0022     		movs	r2, #0
 911 0024 C900     		lsls	r1, r1, #3
 912 0026 C005     		lsls	r0, r0, #23
 913 0028 FFF7FEFF 		bl	HAL_GPIO_WritePin
 914              	.LVL87:
 128:Core/Src/nrf905.c **** }
 915              		.loc 1 128 1 is_stmt 0 view .LVU162
 916              		@ sp needed
 917 002c 10BD     		pop	{r4, pc}
 918              		.cfi_endproc
 919              	.LFE43:
 921              		.section	.text.ReciveOn,"ax",%progbits
 922              		.align	1
 923              		.global	ReciveOn
 924              		.syntax unified
 925              		.code	16
 926              		.thumb_func
 927              		.fpu softvfp
 929              	ReciveOn:
 930              	.LFB44:
 129:Core/Src/nrf905.c **** void ReciveOn ( void )
 130:Core/Src/nrf905.c **** {
 931              		.loc 1 130 1 is_stmt 1 view -0
 932              		.cfi_startproc
 933              		@ args = 0, pretend = 0, frame = 0
 934              		@ frame_needed = 0, uses_anonymous_args = 0
 935 0000 10B5     		push	{r4, lr}
 936              	.LCFI18:
 937              		.cfi_def_cfa_offset 8
 938              		.cfi_offset 4, -8
 939              		.cfi_offset 14, -4
 131:Core/Src/nrf905.c ****   HAL_GPIO_WritePin(TXE_GPIO_Port, TXE_Pin, GPIO_PIN_SET);
 940              		.loc 1 131 3 view .LVU164
 941 0002 8021     		movs	r1, #128
 942 0004 0122     		movs	r2, #1
 943 0006 0902     		lsls	r1, r1, #8
 944 0008 0148     		ldr	r0, .L43
 945 000a FFF7FEFF 		bl	HAL_GPIO_WritePin
 946              	.LVL88:
 132:Core/Src/nrf905.c **** }
 947              		.loc 1 132 1 is_stmt 0 view .LVU165
 948              		@ sp needed
ARM GAS  /tmp/ccJolXmM.s 			page 20


 949 000e 10BD     		pop	{r4, pc}
 950              	.L44:
 951              		.align	2
 952              	.L43:
 953 0010 00080050 		.word	1342179328
 954              		.cfi_endproc
 955              	.LFE44:
 957              		.section	.text.NRF905_POWER_ON,"ax",%progbits
 958              		.align	1
 959              		.global	NRF905_POWER_ON
 960              		.syntax unified
 961              		.code	16
 962              		.thumb_func
 963              		.fpu softvfp
 965              	NRF905_POWER_ON:
 966              	.LFB38:
  58:Core/Src/nrf905.c ****  HAL_GPIO_WritePin(PWR_GPIO_Port, PWR_Pin, GPIO_PIN_SET);
 967              		.loc 1 58 1 is_stmt 1 view -0
 968              		.cfi_startproc
 969              		@ args = 0, pretend = 0, frame = 0
 970              		@ frame_needed = 0, uses_anonymous_args = 0
 971 0000 10B5     		push	{r4, lr}
 972              	.LCFI19:
 973              		.cfi_def_cfa_offset 8
 974              		.cfi_offset 4, -8
 975              		.cfi_offset 14, -4
  59:Core/Src/nrf905.c ****  HAL_Delay(1);
 976              		.loc 1 59 2 view .LVU167
 977 0002 8021     		movs	r1, #128
 978 0004 0122     		movs	r2, #1
 979 0006 C901     		lsls	r1, r1, #7
 980 0008 0548     		ldr	r0, .L46
 981 000a FFF7FEFF 		bl	HAL_GPIO_WritePin
 982              	.LVL89:
  60:Core/Src/nrf905.c ****  ReciveOn ();
 983              		.loc 1 60 2 view .LVU168
 984 000e 0120     		movs	r0, #1
 985 0010 FFF7FEFF 		bl	HAL_Delay
 986              	.LVL90:
  61:Core/Src/nrf905.c ****  HAL_Delay(2);
 987              		.loc 1 61 2 view .LVU169
 988 0014 FFF7FEFF 		bl	ReciveOn
 989              	.LVL91:
  62:Core/Src/nrf905.c **** }
 990              		.loc 1 62 2 view .LVU170
 991 0018 0220     		movs	r0, #2
 992 001a FFF7FEFF 		bl	HAL_Delay
 993              	.LVL92:
  63:Core/Src/nrf905.c **** void NRF905_POWER_OFF (void)
 994              		.loc 1 63 1 is_stmt 0 view .LVU171
 995              		@ sp needed
 996 001e 10BD     		pop	{r4, pc}
 997              	.L47:
 998              		.align	2
 999              	.L46:
 1000 0020 00080050 		.word	1342179328
 1001              		.cfi_endproc
ARM GAS  /tmp/ccJolXmM.s 			page 21


 1002              	.LFE38:
 1004              		.section	.text.ReciveOff,"ax",%progbits
 1005              		.align	1
 1006              		.global	ReciveOff
 1007              		.syntax unified
 1008              		.code	16
 1009              		.thumb_func
 1010              		.fpu softvfp
 1012              	ReciveOff:
 1013              	.LFB45:
 133:Core/Src/nrf905.c **** void ReciveOff ( void )
 134:Core/Src/nrf905.c **** {
 1014              		.loc 1 134 1 is_stmt 1 view -0
 1015              		.cfi_startproc
 1016              		@ args = 0, pretend = 0, frame = 0
 1017              		@ frame_needed = 0, uses_anonymous_args = 0
 1018 0000 10B5     		push	{r4, lr}
 1019              	.LCFI20:
 1020              		.cfi_def_cfa_offset 8
 1021              		.cfi_offset 4, -8
 1022              		.cfi_offset 14, -4
 135:Core/Src/nrf905.c ****   HAL_GPIO_WritePin(TXE_GPIO_Port, TXE_Pin, GPIO_PIN_RESET);
 1023              		.loc 1 135 3 view .LVU173
 1024 0002 8021     		movs	r1, #128
 1025 0004 0022     		movs	r2, #0
 1026 0006 0902     		lsls	r1, r1, #8
 1027 0008 0148     		ldr	r0, .L49
 1028 000a FFF7FEFF 		bl	HAL_GPIO_WritePin
 1029              	.LVL93:
 136:Core/Src/nrf905.c **** }...
 1030              		.loc 1 136 1 is_stmt 0 view .LVU174
 1031              		@ sp needed
 1032 000e 10BD     		pop	{r4, pc}
 1033              	.L50:
 1034              		.align	2
 1035              	.L49:
 1036 0010 00080050 		.word	1342179328
 1037              		.cfi_endproc
 1038              	.LFE45:
 1040              		.comm	NRF905_Config_t,10,4
 1041              		.text
 1042              	.Letext0:
 1043              		.file 2 "/usr/lib/gcc/arm-none-eabi/9.2.1/include/stdint.h"
 1044              		.file 3 "Drivers/CMSIS/Device/ST/STM32L0xx/Include/system_stm32l0xx.h"
 1045              		.file 4 "Drivers/CMSIS/Device/ST/STM32L0xx/Include/stm32l031xx.h"
 1046              		.file 5 "Drivers/STM32L0xx_HAL_Driver/Inc/stm32l0xx_hal_def.h"
 1047              		.file 6 "Drivers/STM32L0xx_HAL_Driver/Inc/stm32l0xx_hal_gpio.h"
 1048              		.file 7 "Drivers/STM32L0xx_HAL_Driver/Inc/stm32l0xx_hal_dma.h"
 1049              		.file 8 "Drivers/STM32L0xx_HAL_Driver/Inc/stm32l0xx_hal_spi.h"
 1050              		.file 9 "Drivers/STM32L0xx_HAL_Driver/Inc/stm32l0xx_hal.h"
 1051              		.file 10 "Core/Inc/nrf905.h"
 1052              		.file 11 "Core/Inc/spi.h"
ARM GAS  /tmp/ccJolXmM.s 			page 22

