ARM GAS  /tmp/cc60Bu91.s 			page 1


   1              		.cpu cortex-m0plus
   2              		.eabi_attribute 20, 1
   3              		.eabi_attribute 21, 1
   4              		.eabi_attribute 23, 3
   5              		.eabi_attribute 24, 1
   6              		.eabi_attribute 25, 1
   7              		.eabi_attribute 26, 1
   8              		.eabi_attribute 30, 2
   9              		.eabi_attribute 34, 0
  10              		.eabi_attribute 18, 4
  11              		.file	"stm32l0xx_hal.c"
  12              		.text
  13              	.Ltext0:
  14              		.cfi_sections	.debug_frame
  15              		.section	.text.HAL_MspInit,"ax",%progbits
  16              		.align	1
  17              		.p2align 2,,3
  18              		.weak	HAL_MspInit
  19              		.arch armv6s-m
  20              		.syntax unified
  21              		.code	16
  22              		.thumb_func
  23              		.fpu softvfp
  25              	HAL_MspInit:
  26              	.LFB36:
  27              		.file 1 "Drivers/STM32L0xx_HAL_Driver/Src/stm32l0xx_hal.c"
   1:Drivers/STM32L0xx_HAL_Driver/Src/stm32l0xx_hal.c **** /**
   2:Drivers/STM32L0xx_HAL_Driver/Src/stm32l0xx_hal.c ****   ******************************************************************************
   3:Drivers/STM32L0xx_HAL_Driver/Src/stm32l0xx_hal.c ****   * @file    stm32l0xx_hal.c
   4:Drivers/STM32L0xx_HAL_Driver/Src/stm32l0xx_hal.c ****   * @author  MCD Application Team
   5:Drivers/STM32L0xx_HAL_Driver/Src/stm32l0xx_hal.c ****   * @brief   HAL module driver.
   6:Drivers/STM32L0xx_HAL_Driver/Src/stm32l0xx_hal.c ****   *          This is the common part of the HAL initialization
   7:Drivers/STM32L0xx_HAL_Driver/Src/stm32l0xx_hal.c ****   *
   8:Drivers/STM32L0xx_HAL_Driver/Src/stm32l0xx_hal.c ****   @verbatim
   9:Drivers/STM32L0xx_HAL_Driver/Src/stm32l0xx_hal.c ****   ==============================================================================
  10:Drivers/STM32L0xx_HAL_Driver/Src/stm32l0xx_hal.c ****                      ##### How to use this driver #####
  11:Drivers/STM32L0xx_HAL_Driver/Src/stm32l0xx_hal.c ****   ==============================================================================
  12:Drivers/STM32L0xx_HAL_Driver/Src/stm32l0xx_hal.c ****     [..]
  13:Drivers/STM32L0xx_HAL_Driver/Src/stm32l0xx_hal.c ****     The common HAL driver contains a set of generic and common APIs that can be
  14:Drivers/STM32L0xx_HAL_Driver/Src/stm32l0xx_hal.c ****     used by the PPP peripheral drivers and the user to start using the HAL.
  15:Drivers/STM32L0xx_HAL_Driver/Src/stm32l0xx_hal.c ****     [..]
  16:Drivers/STM32L0xx_HAL_Driver/Src/stm32l0xx_hal.c ****     The HAL contains two APIs categories:
  17:Drivers/STM32L0xx_HAL_Driver/Src/stm32l0xx_hal.c ****          (+) Common HAL APIs
  18:Drivers/STM32L0xx_HAL_Driver/Src/stm32l0xx_hal.c ****          (+) Services HAL APIs
  19:Drivers/STM32L0xx_HAL_Driver/Src/stm32l0xx_hal.c **** 
  20:Drivers/STM32L0xx_HAL_Driver/Src/stm32l0xx_hal.c ****   @endverbatim
  21:Drivers/STM32L0xx_HAL_Driver/Src/stm32l0xx_hal.c ****   ******************************************************************************
  22:Drivers/STM32L0xx_HAL_Driver/Src/stm32l0xx_hal.c ****   * @attention
  23:Drivers/STM32L0xx_HAL_Driver/Src/stm32l0xx_hal.c ****   *
  24:Drivers/STM32L0xx_HAL_Driver/Src/stm32l0xx_hal.c ****   * <h2><center>&copy; Copyright (c) 2016 STMicroelectronics.
  25:Drivers/STM32L0xx_HAL_Driver/Src/stm32l0xx_hal.c ****   * All rights reserved.</center></h2>
  26:Drivers/STM32L0xx_HAL_Driver/Src/stm32l0xx_hal.c ****   *
  27:Drivers/STM32L0xx_HAL_Driver/Src/stm32l0xx_hal.c ****   * This software component is licensed by ST under BSD 3-Clause license,
  28:Drivers/STM32L0xx_HAL_Driver/Src/stm32l0xx_hal.c ****   * the "License"; You may not use this file except in compliance with the
  29:Drivers/STM32L0xx_HAL_Driver/Src/stm32l0xx_hal.c ****   * License. You may obtain a copy of the License at:
  30:Drivers/STM32L0xx_HAL_Driver/Src/stm32l0xx_hal.c ****   *                        opensource.org/licenses/BSD-3-Clause
  31:Drivers/STM32L0xx_HAL_Driver/Src/stm32l0xx_hal.c ****   *
ARM GAS  /tmp/cc60Bu91.s 			page 2


  32:Drivers/STM32L0xx_HAL_Driver/Src/stm32l0xx_hal.c ****   ******************************************************************************
  33:Drivers/STM32L0xx_HAL_Driver/Src/stm32l0xx_hal.c ****   */
  34:Drivers/STM32L0xx_HAL_Driver/Src/stm32l0xx_hal.c **** 
  35:Drivers/STM32L0xx_HAL_Driver/Src/stm32l0xx_hal.c **** /* Includes ------------------------------------------------------------------*/
  36:Drivers/STM32L0xx_HAL_Driver/Src/stm32l0xx_hal.c **** #include "stm32l0xx_hal.h"
  37:Drivers/STM32L0xx_HAL_Driver/Src/stm32l0xx_hal.c **** 
  38:Drivers/STM32L0xx_HAL_Driver/Src/stm32l0xx_hal.c **** /** @addtogroup STM32L0xx_HAL_Driver
  39:Drivers/STM32L0xx_HAL_Driver/Src/stm32l0xx_hal.c ****   * @{
  40:Drivers/STM32L0xx_HAL_Driver/Src/stm32l0xx_hal.c ****   */
  41:Drivers/STM32L0xx_HAL_Driver/Src/stm32l0xx_hal.c **** 
  42:Drivers/STM32L0xx_HAL_Driver/Src/stm32l0xx_hal.c **** #ifdef HAL_MODULE_ENABLED
  43:Drivers/STM32L0xx_HAL_Driver/Src/stm32l0xx_hal.c **** 
  44:Drivers/STM32L0xx_HAL_Driver/Src/stm32l0xx_hal.c **** /** @addtogroup HAL
  45:Drivers/STM32L0xx_HAL_Driver/Src/stm32l0xx_hal.c ****   * @brief HAL module driver.
  46:Drivers/STM32L0xx_HAL_Driver/Src/stm32l0xx_hal.c ****   * @{
  47:Drivers/STM32L0xx_HAL_Driver/Src/stm32l0xx_hal.c ****   */
  48:Drivers/STM32L0xx_HAL_Driver/Src/stm32l0xx_hal.c **** 
  49:Drivers/STM32L0xx_HAL_Driver/Src/stm32l0xx_hal.c **** /** @addtogroup HAL_Exported_Constants
  50:Drivers/STM32L0xx_HAL_Driver/Src/stm32l0xx_hal.c ****   * @{
  51:Drivers/STM32L0xx_HAL_Driver/Src/stm32l0xx_hal.c ****   */
  52:Drivers/STM32L0xx_HAL_Driver/Src/stm32l0xx_hal.c **** 
  53:Drivers/STM32L0xx_HAL_Driver/Src/stm32l0xx_hal.c **** /** @defgroup HAL_Version HAL Version
  54:Drivers/STM32L0xx_HAL_Driver/Src/stm32l0xx_hal.c ****   * @{
  55:Drivers/STM32L0xx_HAL_Driver/Src/stm32l0xx_hal.c ****   */
  56:Drivers/STM32L0xx_HAL_Driver/Src/stm32l0xx_hal.c **** 
  57:Drivers/STM32L0xx_HAL_Driver/Src/stm32l0xx_hal.c **** /**
  58:Drivers/STM32L0xx_HAL_Driver/Src/stm32l0xx_hal.c ****  * @brief STM32L0xx HAL Driver version number
  59:Drivers/STM32L0xx_HAL_Driver/Src/stm32l0xx_hal.c ****  */
  60:Drivers/STM32L0xx_HAL_Driver/Src/stm32l0xx_hal.c **** #define __STM32L0xx_HAL_VERSION_MAIN   (0x01U) /*!< [31:24] main version */
  61:Drivers/STM32L0xx_HAL_Driver/Src/stm32l0xx_hal.c **** #define __STM32L0xx_HAL_VERSION_SUB1   (0x0AU) /*!< [23:16] sub1 version */
  62:Drivers/STM32L0xx_HAL_Driver/Src/stm32l0xx_hal.c **** #define __STM32L0xx_HAL_VERSION_SUB2   (0x03U) /*!< [15:8]  sub2 version */
  63:Drivers/STM32L0xx_HAL_Driver/Src/stm32l0xx_hal.c **** #define __STM32L0xx_HAL_VERSION_RC     (0x00U) /*!< [7:0]  release candidate */
  64:Drivers/STM32L0xx_HAL_Driver/Src/stm32l0xx_hal.c **** #define __STM32L0xx_HAL_VERSION         ((__STM32L0xx_HAL_VERSION_MAIN << 24U)\
  65:Drivers/STM32L0xx_HAL_Driver/Src/stm32l0xx_hal.c ****                                         |(__STM32L0xx_HAL_VERSION_SUB1 << 16U)\
  66:Drivers/STM32L0xx_HAL_Driver/Src/stm32l0xx_hal.c ****                                         |(__STM32L0xx_HAL_VERSION_SUB2 << 8U )\
  67:Drivers/STM32L0xx_HAL_Driver/Src/stm32l0xx_hal.c ****                                         |(__STM32L0xx_HAL_VERSION_RC))
  68:Drivers/STM32L0xx_HAL_Driver/Src/stm32l0xx_hal.c **** 
  69:Drivers/STM32L0xx_HAL_Driver/Src/stm32l0xx_hal.c **** #define IDCODE_DEVID_MASK    ((uint32_t)0x00000FFFU)
  70:Drivers/STM32L0xx_HAL_Driver/Src/stm32l0xx_hal.c **** 
  71:Drivers/STM32L0xx_HAL_Driver/Src/stm32l0xx_hal.c **** /**
  72:Drivers/STM32L0xx_HAL_Driver/Src/stm32l0xx_hal.c ****   * @}
  73:Drivers/STM32L0xx_HAL_Driver/Src/stm32l0xx_hal.c ****   */
  74:Drivers/STM32L0xx_HAL_Driver/Src/stm32l0xx_hal.c **** 
  75:Drivers/STM32L0xx_HAL_Driver/Src/stm32l0xx_hal.c **** /**
  76:Drivers/STM32L0xx_HAL_Driver/Src/stm32l0xx_hal.c ****   * @}
  77:Drivers/STM32L0xx_HAL_Driver/Src/stm32l0xx_hal.c ****   */
  78:Drivers/STM32L0xx_HAL_Driver/Src/stm32l0xx_hal.c **** 
  79:Drivers/STM32L0xx_HAL_Driver/Src/stm32l0xx_hal.c **** /* Exported variables --------------------------------------------------------*/
  80:Drivers/STM32L0xx_HAL_Driver/Src/stm32l0xx_hal.c **** /** @addtogroup HAL_Exported_Variables
  81:Drivers/STM32L0xx_HAL_Driver/Src/stm32l0xx_hal.c ****   * @{
  82:Drivers/STM32L0xx_HAL_Driver/Src/stm32l0xx_hal.c ****   */
  83:Drivers/STM32L0xx_HAL_Driver/Src/stm32l0xx_hal.c **** __IO uint32_t uwTick;
  84:Drivers/STM32L0xx_HAL_Driver/Src/stm32l0xx_hal.c **** uint32_t uwTickPrio   = (1UL << __NVIC_PRIO_BITS); /* Invalid PRIO */
  85:Drivers/STM32L0xx_HAL_Driver/Src/stm32l0xx_hal.c **** HAL_TickFreqTypeDef uwTickFreq = HAL_TICK_FREQ_DEFAULT;  /* 1KHz */
  86:Drivers/STM32L0xx_HAL_Driver/Src/stm32l0xx_hal.c **** /**
  87:Drivers/STM32L0xx_HAL_Driver/Src/stm32l0xx_hal.c ****   * @}
  88:Drivers/STM32L0xx_HAL_Driver/Src/stm32l0xx_hal.c ****   */
ARM GAS  /tmp/cc60Bu91.s 			page 3


  89:Drivers/STM32L0xx_HAL_Driver/Src/stm32l0xx_hal.c **** 
  90:Drivers/STM32L0xx_HAL_Driver/Src/stm32l0xx_hal.c **** /* Exported functions --------------------------------------------------------*/
  91:Drivers/STM32L0xx_HAL_Driver/Src/stm32l0xx_hal.c **** /** @addtogroup HAL_Exported_Functions
  92:Drivers/STM32L0xx_HAL_Driver/Src/stm32l0xx_hal.c ****   * @{
  93:Drivers/STM32L0xx_HAL_Driver/Src/stm32l0xx_hal.c ****   */
  94:Drivers/STM32L0xx_HAL_Driver/Src/stm32l0xx_hal.c **** 
  95:Drivers/STM32L0xx_HAL_Driver/Src/stm32l0xx_hal.c **** /** @addtogroup HAL_Exported_Functions_Group1
  96:Drivers/STM32L0xx_HAL_Driver/Src/stm32l0xx_hal.c ****  *  @brief    Initialization and de-initialization functions
  97:Drivers/STM32L0xx_HAL_Driver/Src/stm32l0xx_hal.c ****  *
  98:Drivers/STM32L0xx_HAL_Driver/Src/stm32l0xx_hal.c **** @verbatim
  99:Drivers/STM32L0xx_HAL_Driver/Src/stm32l0xx_hal.c ****  ===============================================================================
 100:Drivers/STM32L0xx_HAL_Driver/Src/stm32l0xx_hal.c ****               ##### Initialization and de-initialization functions #####
 101:Drivers/STM32L0xx_HAL_Driver/Src/stm32l0xx_hal.c ****  ===============================================================================
 102:Drivers/STM32L0xx_HAL_Driver/Src/stm32l0xx_hal.c ****    [..]  This section provides functions allowing to:
 103:Drivers/STM32L0xx_HAL_Driver/Src/stm32l0xx_hal.c ****       (+) Initialize the Flash interface, the NVIC allocation and initial clock
 104:Drivers/STM32L0xx_HAL_Driver/Src/stm32l0xx_hal.c ****           configuration. It initializes the source of time base also when timeout
 105:Drivers/STM32L0xx_HAL_Driver/Src/stm32l0xx_hal.c ****           is needed and the backup domain when enabled.
 106:Drivers/STM32L0xx_HAL_Driver/Src/stm32l0xx_hal.c ****       (+) De-initialize common part of the HAL.
 107:Drivers/STM32L0xx_HAL_Driver/Src/stm32l0xx_hal.c ****       (+) Configure the time base source to have 1ms time base with a dedicated
 108:Drivers/STM32L0xx_HAL_Driver/Src/stm32l0xx_hal.c ****           Tick interrupt priority.
 109:Drivers/STM32L0xx_HAL_Driver/Src/stm32l0xx_hal.c ****         (++) SysTick timer is used by default as source of time base, but user
 110:Drivers/STM32L0xx_HAL_Driver/Src/stm32l0xx_hal.c ****              can eventually implement his proper time base source (a general purpose
 111:Drivers/STM32L0xx_HAL_Driver/Src/stm32l0xx_hal.c ****              timer for example or other time source), keeping in mind that Time base
 112:Drivers/STM32L0xx_HAL_Driver/Src/stm32l0xx_hal.c ****              duration should be kept 1ms since PPP_TIMEOUT_VALUEs are defined and
 113:Drivers/STM32L0xx_HAL_Driver/Src/stm32l0xx_hal.c ****              handled in milliseconds basis.
 114:Drivers/STM32L0xx_HAL_Driver/Src/stm32l0xx_hal.c ****         (++) Time base configuration function (HAL_InitTick ()) is called automatically
 115:Drivers/STM32L0xx_HAL_Driver/Src/stm32l0xx_hal.c ****              at the beginning of the program after reset by HAL_Init() or at any time
 116:Drivers/STM32L0xx_HAL_Driver/Src/stm32l0xx_hal.c ****              when clock is configured, by HAL_RCC_ClockConfig().
 117:Drivers/STM32L0xx_HAL_Driver/Src/stm32l0xx_hal.c ****         (++) Source of time base is configured  to generate interrupts at regular
 118:Drivers/STM32L0xx_HAL_Driver/Src/stm32l0xx_hal.c ****              time intervals. Care must be taken if HAL_Delay() is called from a
 119:Drivers/STM32L0xx_HAL_Driver/Src/stm32l0xx_hal.c ****              peripheral ISR process, the Tick interrupt line must have higher priority
 120:Drivers/STM32L0xx_HAL_Driver/Src/stm32l0xx_hal.c ****             (numerically lower) than the peripheral interrupt. Otherwise the caller
 121:Drivers/STM32L0xx_HAL_Driver/Src/stm32l0xx_hal.c ****             ISR process will be blocked.
 122:Drivers/STM32L0xx_HAL_Driver/Src/stm32l0xx_hal.c ****        (++) functions affecting time base configurations are declared as __weak
 123:Drivers/STM32L0xx_HAL_Driver/Src/stm32l0xx_hal.c ****              to make  override possible  in case of other  implementations in user file.
 124:Drivers/STM32L0xx_HAL_Driver/Src/stm32l0xx_hal.c **** 
 125:Drivers/STM32L0xx_HAL_Driver/Src/stm32l0xx_hal.c **** @endverbatim
 126:Drivers/STM32L0xx_HAL_Driver/Src/stm32l0xx_hal.c ****   * @{
 127:Drivers/STM32L0xx_HAL_Driver/Src/stm32l0xx_hal.c ****   */
 128:Drivers/STM32L0xx_HAL_Driver/Src/stm32l0xx_hal.c **** 
 129:Drivers/STM32L0xx_HAL_Driver/Src/stm32l0xx_hal.c **** /**
 130:Drivers/STM32L0xx_HAL_Driver/Src/stm32l0xx_hal.c ****   * @brief This function configures the Flash prefetch, Flash preread and Buffer cache,
 131:Drivers/STM32L0xx_HAL_Driver/Src/stm32l0xx_hal.c ****   *        Configures time base source, NVIC and Low level hardware
 132:Drivers/STM32L0xx_HAL_Driver/Src/stm32l0xx_hal.c ****   * @note This function is called at the beginning of program after reset and before
 133:Drivers/STM32L0xx_HAL_Driver/Src/stm32l0xx_hal.c ****   *       the clock configuration
 134:Drivers/STM32L0xx_HAL_Driver/Src/stm32l0xx_hal.c ****   * @note The time base configuration is based on MSI clock when exiting from Reset.
 135:Drivers/STM32L0xx_HAL_Driver/Src/stm32l0xx_hal.c ****   *       Once done, time base tick start incrementing.
 136:Drivers/STM32L0xx_HAL_Driver/Src/stm32l0xx_hal.c ****   *        In the default implementation,Systick is used as source of time base.
 137:Drivers/STM32L0xx_HAL_Driver/Src/stm32l0xx_hal.c ****   *        the tick variable is incremented each 1ms in its ISR.
 138:Drivers/STM32L0xx_HAL_Driver/Src/stm32l0xx_hal.c ****   * @retval HAL status
 139:Drivers/STM32L0xx_HAL_Driver/Src/stm32l0xx_hal.c ****   */
 140:Drivers/STM32L0xx_HAL_Driver/Src/stm32l0xx_hal.c **** HAL_StatusTypeDef HAL_Init(void)
 141:Drivers/STM32L0xx_HAL_Driver/Src/stm32l0xx_hal.c **** {
 142:Drivers/STM32L0xx_HAL_Driver/Src/stm32l0xx_hal.c ****   HAL_StatusTypeDef  status = HAL_OK;
 143:Drivers/STM32L0xx_HAL_Driver/Src/stm32l0xx_hal.c **** 
 144:Drivers/STM32L0xx_HAL_Driver/Src/stm32l0xx_hal.c ****   /* Configure Buffer cache, Flash prefetch,  Flash preread */
 145:Drivers/STM32L0xx_HAL_Driver/Src/stm32l0xx_hal.c **** #if (BUFFER_CACHE_DISABLE != 0)
ARM GAS  /tmp/cc60Bu91.s 			page 4


 146:Drivers/STM32L0xx_HAL_Driver/Src/stm32l0xx_hal.c ****   __HAL_FLASH_BUFFER_CACHE_DISABLE();
 147:Drivers/STM32L0xx_HAL_Driver/Src/stm32l0xx_hal.c **** #endif /* BUFFER_CACHE_DISABLE */
 148:Drivers/STM32L0xx_HAL_Driver/Src/stm32l0xx_hal.c **** 
 149:Drivers/STM32L0xx_HAL_Driver/Src/stm32l0xx_hal.c **** #if (PREREAD_ENABLE != 0)
 150:Drivers/STM32L0xx_HAL_Driver/Src/stm32l0xx_hal.c ****   __HAL_FLASH_PREREAD_BUFFER_ENABLE();
 151:Drivers/STM32L0xx_HAL_Driver/Src/stm32l0xx_hal.c **** #endif /* PREREAD_ENABLE */
 152:Drivers/STM32L0xx_HAL_Driver/Src/stm32l0xx_hal.c **** 
 153:Drivers/STM32L0xx_HAL_Driver/Src/stm32l0xx_hal.c **** #if (PREFETCH_ENABLE != 0)
 154:Drivers/STM32L0xx_HAL_Driver/Src/stm32l0xx_hal.c ****   __HAL_FLASH_PREFETCH_BUFFER_ENABLE();
 155:Drivers/STM32L0xx_HAL_Driver/Src/stm32l0xx_hal.c **** #endif /* PREFETCH_ENABLE */
 156:Drivers/STM32L0xx_HAL_Driver/Src/stm32l0xx_hal.c **** 
 157:Drivers/STM32L0xx_HAL_Driver/Src/stm32l0xx_hal.c ****   /* Use SysTick as time base source and configure 1ms tick (default clock after Reset is MSI) */
 158:Drivers/STM32L0xx_HAL_Driver/Src/stm32l0xx_hal.c ****   if (HAL_InitTick(TICK_INT_PRIORITY) != HAL_OK)
 159:Drivers/STM32L0xx_HAL_Driver/Src/stm32l0xx_hal.c ****   {
 160:Drivers/STM32L0xx_HAL_Driver/Src/stm32l0xx_hal.c ****     status = HAL_ERROR;
 161:Drivers/STM32L0xx_HAL_Driver/Src/stm32l0xx_hal.c ****   }
 162:Drivers/STM32L0xx_HAL_Driver/Src/stm32l0xx_hal.c ****   else
 163:Drivers/STM32L0xx_HAL_Driver/Src/stm32l0xx_hal.c ****   {
 164:Drivers/STM32L0xx_HAL_Driver/Src/stm32l0xx_hal.c ****     /* Init the low level hardware */
 165:Drivers/STM32L0xx_HAL_Driver/Src/stm32l0xx_hal.c ****     HAL_MspInit();
 166:Drivers/STM32L0xx_HAL_Driver/Src/stm32l0xx_hal.c ****   }
 167:Drivers/STM32L0xx_HAL_Driver/Src/stm32l0xx_hal.c **** 
 168:Drivers/STM32L0xx_HAL_Driver/Src/stm32l0xx_hal.c ****   /* Return function status */
 169:Drivers/STM32L0xx_HAL_Driver/Src/stm32l0xx_hal.c ****   return status;
 170:Drivers/STM32L0xx_HAL_Driver/Src/stm32l0xx_hal.c **** }
 171:Drivers/STM32L0xx_HAL_Driver/Src/stm32l0xx_hal.c **** 
 172:Drivers/STM32L0xx_HAL_Driver/Src/stm32l0xx_hal.c **** /**
 173:Drivers/STM32L0xx_HAL_Driver/Src/stm32l0xx_hal.c ****   * @brief This function de-initializes common part of the HAL and stops the source
 174:Drivers/STM32L0xx_HAL_Driver/Src/stm32l0xx_hal.c ****   *        of time base.
 175:Drivers/STM32L0xx_HAL_Driver/Src/stm32l0xx_hal.c ****   * @note This function is optional.
 176:Drivers/STM32L0xx_HAL_Driver/Src/stm32l0xx_hal.c ****   * @retval HAL status
 177:Drivers/STM32L0xx_HAL_Driver/Src/stm32l0xx_hal.c ****   */
 178:Drivers/STM32L0xx_HAL_Driver/Src/stm32l0xx_hal.c **** HAL_StatusTypeDef HAL_DeInit(void)
 179:Drivers/STM32L0xx_HAL_Driver/Src/stm32l0xx_hal.c **** {
 180:Drivers/STM32L0xx_HAL_Driver/Src/stm32l0xx_hal.c ****   /* Reset of all peripherals */
 181:Drivers/STM32L0xx_HAL_Driver/Src/stm32l0xx_hal.c ****   __HAL_RCC_APB1_FORCE_RESET();
 182:Drivers/STM32L0xx_HAL_Driver/Src/stm32l0xx_hal.c ****   __HAL_RCC_APB1_RELEASE_RESET();
 183:Drivers/STM32L0xx_HAL_Driver/Src/stm32l0xx_hal.c **** 
 184:Drivers/STM32L0xx_HAL_Driver/Src/stm32l0xx_hal.c ****   __HAL_RCC_APB2_FORCE_RESET();
 185:Drivers/STM32L0xx_HAL_Driver/Src/stm32l0xx_hal.c ****   __HAL_RCC_APB2_RELEASE_RESET();
 186:Drivers/STM32L0xx_HAL_Driver/Src/stm32l0xx_hal.c **** 
 187:Drivers/STM32L0xx_HAL_Driver/Src/stm32l0xx_hal.c ****   __HAL_RCC_AHB_FORCE_RESET();
 188:Drivers/STM32L0xx_HAL_Driver/Src/stm32l0xx_hal.c ****   __HAL_RCC_AHB_RELEASE_RESET();
 189:Drivers/STM32L0xx_HAL_Driver/Src/stm32l0xx_hal.c **** 
 190:Drivers/STM32L0xx_HAL_Driver/Src/stm32l0xx_hal.c ****   __HAL_RCC_IOP_FORCE_RESET();
 191:Drivers/STM32L0xx_HAL_Driver/Src/stm32l0xx_hal.c ****   __HAL_RCC_IOP_RELEASE_RESET();
 192:Drivers/STM32L0xx_HAL_Driver/Src/stm32l0xx_hal.c **** 
 193:Drivers/STM32L0xx_HAL_Driver/Src/stm32l0xx_hal.c ****   /* De-Init the low level hardware */
 194:Drivers/STM32L0xx_HAL_Driver/Src/stm32l0xx_hal.c ****   HAL_MspDeInit();
 195:Drivers/STM32L0xx_HAL_Driver/Src/stm32l0xx_hal.c **** 
 196:Drivers/STM32L0xx_HAL_Driver/Src/stm32l0xx_hal.c ****   /* Return function status */
 197:Drivers/STM32L0xx_HAL_Driver/Src/stm32l0xx_hal.c ****   return HAL_OK;
 198:Drivers/STM32L0xx_HAL_Driver/Src/stm32l0xx_hal.c **** }
 199:Drivers/STM32L0xx_HAL_Driver/Src/stm32l0xx_hal.c **** 
 200:Drivers/STM32L0xx_HAL_Driver/Src/stm32l0xx_hal.c **** /**
 201:Drivers/STM32L0xx_HAL_Driver/Src/stm32l0xx_hal.c ****   * @brief  Initializes the MSP.
 202:Drivers/STM32L0xx_HAL_Driver/Src/stm32l0xx_hal.c ****   * @retval None
ARM GAS  /tmp/cc60Bu91.s 			page 5


 203:Drivers/STM32L0xx_HAL_Driver/Src/stm32l0xx_hal.c ****   */
 204:Drivers/STM32L0xx_HAL_Driver/Src/stm32l0xx_hal.c **** __weak void HAL_MspInit(void)
 205:Drivers/STM32L0xx_HAL_Driver/Src/stm32l0xx_hal.c **** {
  28              		.loc 1 205 1 view -0
  29              		.cfi_startproc
  30              		@ args = 0, pretend = 0, frame = 0
  31              		@ frame_needed = 0, uses_anonymous_args = 0
  32              		@ link register save eliminated.
 206:Drivers/STM32L0xx_HAL_Driver/Src/stm32l0xx_hal.c ****   /* NOTE : This function should not be modified, when the callback is needed,
 207:Drivers/STM32L0xx_HAL_Driver/Src/stm32l0xx_hal.c ****             the HAL_MspInit could be implemented in the user file
 208:Drivers/STM32L0xx_HAL_Driver/Src/stm32l0xx_hal.c ****    */
 209:Drivers/STM32L0xx_HAL_Driver/Src/stm32l0xx_hal.c **** }
  33              		.loc 1 209 1 view .LVU1
  34              		@ sp needed
  35 0000 7047     		bx	lr
  36              		.cfi_endproc
  37              	.LFE36:
  39 0002 C046     		.section	.text.HAL_MspDeInit,"ax",%progbits
  40              		.align	1
  41              		.p2align 2,,3
  42              		.weak	HAL_MspDeInit
  43              		.syntax unified
  44              		.code	16
  45              		.thumb_func
  46              		.fpu softvfp
  48              	HAL_MspDeInit:
  49              	.LFB67:
  50              		.cfi_startproc
  51              		@ args = 0, pretend = 0, frame = 0
  52              		@ frame_needed = 0, uses_anonymous_args = 0
  53              		@ link register save eliminated.
  54              		@ sp needed
  55 0000 7047     		bx	lr
  56              		.cfi_endproc
  57              	.LFE67:
  59 0002 C046     		.section	.text.HAL_DeInit,"ax",%progbits
  60              		.align	1
  61              		.p2align 2,,3
  62              		.global	HAL_DeInit
  63              		.syntax unified
  64              		.code	16
  65              		.thumb_func
  66              		.fpu softvfp
  68              	HAL_DeInit:
  69              	.LFB35:
 179:Drivers/STM32L0xx_HAL_Driver/Src/stm32l0xx_hal.c ****   /* Reset of all peripherals */
  70              		.loc 1 179 1 view -0
  71              		.cfi_startproc
  72              		@ args = 0, pretend = 0, frame = 0
  73              		@ frame_needed = 0, uses_anonymous_args = 0
 181:Drivers/STM32L0xx_HAL_Driver/Src/stm32l0xx_hal.c ****   __HAL_RCC_APB1_RELEASE_RESET();
  74              		.loc 1 181 3 view .LVU3
  75 0000 0121     		movs	r1, #1
 182:Drivers/STM32L0xx_HAL_Driver/Src/stm32l0xx_hal.c **** 
  76              		.loc 1 182 3 is_stmt 0 view .LVU4
  77 0002 0022     		movs	r2, #0
 179:Drivers/STM32L0xx_HAL_Driver/Src/stm32l0xx_hal.c ****   /* Reset of all peripherals */
ARM GAS  /tmp/cc60Bu91.s 			page 6


  78              		.loc 1 179 1 view .LVU5
  79 0004 10B5     		push	{r4, lr}
  80              	.LCFI0:
  81              		.cfi_def_cfa_offset 8
  82              		.cfi_offset 4, -8
  83              		.cfi_offset 14, -4
 181:Drivers/STM32L0xx_HAL_Driver/Src/stm32l0xx_hal.c ****   __HAL_RCC_APB1_RELEASE_RESET();
  84              		.loc 1 181 3 view .LVU6
  85 0006 074B     		ldr	r3, .L5
  86 0008 4942     		rsbs	r1, r1, #0
  87 000a 9962     		str	r1, [r3, #40]
 182:Drivers/STM32L0xx_HAL_Driver/Src/stm32l0xx_hal.c **** 
  88              		.loc 1 182 3 is_stmt 1 view .LVU7
  89 000c 9A62     		str	r2, [r3, #40]
 184:Drivers/STM32L0xx_HAL_Driver/Src/stm32l0xx_hal.c ****   __HAL_RCC_APB2_RELEASE_RESET();
  90              		.loc 1 184 3 view .LVU8
  91 000e 5962     		str	r1, [r3, #36]
 185:Drivers/STM32L0xx_HAL_Driver/Src/stm32l0xx_hal.c **** 
  92              		.loc 1 185 3 view .LVU9
  93 0010 5A62     		str	r2, [r3, #36]
 187:Drivers/STM32L0xx_HAL_Driver/Src/stm32l0xx_hal.c ****   __HAL_RCC_AHB_RELEASE_RESET();
  94              		.loc 1 187 3 view .LVU10
  95 0012 1962     		str	r1, [r3, #32]
 188:Drivers/STM32L0xx_HAL_Driver/Src/stm32l0xx_hal.c **** 
  96              		.loc 1 188 3 view .LVU11
  97 0014 1A62     		str	r2, [r3, #32]
 190:Drivers/STM32L0xx_HAL_Driver/Src/stm32l0xx_hal.c ****   __HAL_RCC_IOP_RELEASE_RESET();
  98              		.loc 1 190 3 view .LVU12
  99 0016 D961     		str	r1, [r3, #28]
 191:Drivers/STM32L0xx_HAL_Driver/Src/stm32l0xx_hal.c **** 
 100              		.loc 1 191 3 view .LVU13
 101 0018 DA61     		str	r2, [r3, #28]
 194:Drivers/STM32L0xx_HAL_Driver/Src/stm32l0xx_hal.c **** 
 102              		.loc 1 194 3 view .LVU14
 103 001a FFF7FEFF 		bl	HAL_MspDeInit
 104              	.LVL0:
 197:Drivers/STM32L0xx_HAL_Driver/Src/stm32l0xx_hal.c **** }
 105              		.loc 1 197 3 view .LVU15
 198:Drivers/STM32L0xx_HAL_Driver/Src/stm32l0xx_hal.c **** 
 106              		.loc 1 198 1 is_stmt 0 view .LVU16
 107              		@ sp needed
 108 001e 0020     		movs	r0, #0
 109 0020 10BD     		pop	{r4, pc}
 110              	.L6:
 111 0022 C046     		.align	2
 112              	.L5:
 113 0024 00100240 		.word	1073876992
 114              		.cfi_endproc
 115              	.LFE35:
 117              		.global	__aeabi_uidiv
 118              		.global	__aeabi_idiv
 119              		.section	.text.HAL_InitTick,"ax",%progbits
 120              		.align	1
 121              		.p2align 2,,3
 122              		.weak	HAL_InitTick
 123              		.syntax unified
 124              		.code	16
ARM GAS  /tmp/cc60Bu91.s 			page 7


 125              		.thumb_func
 126              		.fpu softvfp
 128              	HAL_InitTick:
 129              	.LVL1:
 130              	.LFB38:
 210:Drivers/STM32L0xx_HAL_Driver/Src/stm32l0xx_hal.c **** 
 211:Drivers/STM32L0xx_HAL_Driver/Src/stm32l0xx_hal.c **** /**
 212:Drivers/STM32L0xx_HAL_Driver/Src/stm32l0xx_hal.c ****   * @brief  DeInitializes the MSP.
 213:Drivers/STM32L0xx_HAL_Driver/Src/stm32l0xx_hal.c ****   * @retval None
 214:Drivers/STM32L0xx_HAL_Driver/Src/stm32l0xx_hal.c ****   */
 215:Drivers/STM32L0xx_HAL_Driver/Src/stm32l0xx_hal.c **** __weak void HAL_MspDeInit(void)
 216:Drivers/STM32L0xx_HAL_Driver/Src/stm32l0xx_hal.c **** {
 217:Drivers/STM32L0xx_HAL_Driver/Src/stm32l0xx_hal.c ****   /* NOTE : This function should not be modified, when the callback is needed,
 218:Drivers/STM32L0xx_HAL_Driver/Src/stm32l0xx_hal.c ****             the HAL_MspDeInit could be implemented in the user file
 219:Drivers/STM32L0xx_HAL_Driver/Src/stm32l0xx_hal.c ****    */
 220:Drivers/STM32L0xx_HAL_Driver/Src/stm32l0xx_hal.c **** }
 221:Drivers/STM32L0xx_HAL_Driver/Src/stm32l0xx_hal.c **** 
 222:Drivers/STM32L0xx_HAL_Driver/Src/stm32l0xx_hal.c **** /**
 223:Drivers/STM32L0xx_HAL_Driver/Src/stm32l0xx_hal.c ****   * @brief This function configures the source of the time base:
 224:Drivers/STM32L0xx_HAL_Driver/Src/stm32l0xx_hal.c ****   *        The time source is configured  to have 1ms time base with a dedicated 
 225:Drivers/STM32L0xx_HAL_Driver/Src/stm32l0xx_hal.c ****   *        Tick interrupt priority.
 226:Drivers/STM32L0xx_HAL_Driver/Src/stm32l0xx_hal.c ****   * @note This function is called  automatically at the beginning of program after
 227:Drivers/STM32L0xx_HAL_Driver/Src/stm32l0xx_hal.c ****   *       reset by HAL_Init() or at any time when clock is reconfigured  by HAL_RCC_ClockConfig().
 228:Drivers/STM32L0xx_HAL_Driver/Src/stm32l0xx_hal.c ****   * @note In the default implementation, SysTick timer is the source of time base. 
 229:Drivers/STM32L0xx_HAL_Driver/Src/stm32l0xx_hal.c ****   *       It is used to generate interrupts at regular time intervals. 
 230:Drivers/STM32L0xx_HAL_Driver/Src/stm32l0xx_hal.c ****   *       Care must be taken if HAL_Delay() is called from a peripheral ISR process, 
 231:Drivers/STM32L0xx_HAL_Driver/Src/stm32l0xx_hal.c ****   *       The SysTick interrupt must have higher priority (numerically lower)
 232:Drivers/STM32L0xx_HAL_Driver/Src/stm32l0xx_hal.c ****   *       than the peripheral interrupt. Otherwise the caller ISR process will be blocked.
 233:Drivers/STM32L0xx_HAL_Driver/Src/stm32l0xx_hal.c ****   *       The function is declared as __weak  to be overwritten  in case of other
 234:Drivers/STM32L0xx_HAL_Driver/Src/stm32l0xx_hal.c ****   *       implementation  in user file.
 235:Drivers/STM32L0xx_HAL_Driver/Src/stm32l0xx_hal.c ****   * @param TickPriority Tick interrupt priority.
 236:Drivers/STM32L0xx_HAL_Driver/Src/stm32l0xx_hal.c ****   * @retval HAL status
 237:Drivers/STM32L0xx_HAL_Driver/Src/stm32l0xx_hal.c ****   */
 238:Drivers/STM32L0xx_HAL_Driver/Src/stm32l0xx_hal.c **** __weak HAL_StatusTypeDef HAL_InitTick(uint32_t TickPriority)
 239:Drivers/STM32L0xx_HAL_Driver/Src/stm32l0xx_hal.c **** {
 131              		.loc 1 239 1 is_stmt 1 view -0
 132              		.cfi_startproc
 133              		@ args = 0, pretend = 0, frame = 0
 134              		@ frame_needed = 0, uses_anonymous_args = 0
 240:Drivers/STM32L0xx_HAL_Driver/Src/stm32l0xx_hal.c ****   /* Configure the SysTick to have interrupt in 1ms time basis*/
 241:Drivers/STM32L0xx_HAL_Driver/Src/stm32l0xx_hal.c ****   if (HAL_SYSTICK_Config(SystemCoreClock / (1000U / uwTickFreq)) > 0U)
 135              		.loc 1 241 3 view .LVU18
 239:Drivers/STM32L0xx_HAL_Driver/Src/stm32l0xx_hal.c ****   /* Configure the SysTick to have interrupt in 1ms time basis*/
 136              		.loc 1 239 1 is_stmt 0 view .LVU19
 137 0000 10B5     		push	{r4, lr}
 138              	.LCFI1:
 139              		.cfi_def_cfa_offset 8
 140              		.cfi_offset 4, -8
 141              		.cfi_offset 14, -4
 239:Drivers/STM32L0xx_HAL_Driver/Src/stm32l0xx_hal.c ****   /* Configure the SysTick to have interrupt in 1ms time basis*/
 142              		.loc 1 239 1 view .LVU20
 143 0002 0400     		movs	r4, r0
 144              		.loc 1 241 51 view .LVU21
 145 0004 FA20     		movs	r0, #250
 146              	.LVL2:
 147              		.loc 1 241 51 view .LVU22
 148 0006 0E4B     		ldr	r3, .L12
ARM GAS  /tmp/cc60Bu91.s 			page 8


 149 0008 8000     		lsls	r0, r0, #2
 150 000a 1978     		ldrb	r1, [r3]
 151 000c FFF7FEFF 		bl	__aeabi_uidiv
 152              	.LVL3:
 153              		.loc 1 241 7 view .LVU23
 154 0010 0C4B     		ldr	r3, .L12+4
 155              		.loc 1 241 51 view .LVU24
 156 0012 0100     		movs	r1, r0
 157              		.loc 1 241 7 view .LVU25
 158 0014 1868     		ldr	r0, [r3]
 159 0016 FFF7FEFF 		bl	__aeabi_uidiv
 160              	.LVL4:
 161 001a FFF7FEFF 		bl	HAL_SYSTICK_Config
 162              	.LVL5:
 163              		.loc 1 241 6 view .LVU26
 164 001e 0028     		cmp	r0, #0
 165 0020 0CD1     		bne	.L9
 242:Drivers/STM32L0xx_HAL_Driver/Src/stm32l0xx_hal.c ****   {
 243:Drivers/STM32L0xx_HAL_Driver/Src/stm32l0xx_hal.c ****     return HAL_ERROR;
 244:Drivers/STM32L0xx_HAL_Driver/Src/stm32l0xx_hal.c ****   }
 245:Drivers/STM32L0xx_HAL_Driver/Src/stm32l0xx_hal.c **** 
 246:Drivers/STM32L0xx_HAL_Driver/Src/stm32l0xx_hal.c ****   /* Configure the SysTick IRQ priority */
 247:Drivers/STM32L0xx_HAL_Driver/Src/stm32l0xx_hal.c ****   if (TickPriority < (1UL << __NVIC_PRIO_BITS))
 166              		.loc 1 247 3 is_stmt 1 view .LVU27
 243:Drivers/STM32L0xx_HAL_Driver/Src/stm32l0xx_hal.c ****   }
 167              		.loc 1 243 12 is_stmt 0 view .LVU28
 168 0022 0130     		adds	r0, r0, #1
 169              		.loc 1 247 6 view .LVU29
 170 0024 032C     		cmp	r4, #3
 171 0026 00D9     		bls	.L11
 172              	.L8:
 248:Drivers/STM32L0xx_HAL_Driver/Src/stm32l0xx_hal.c ****   {
 249:Drivers/STM32L0xx_HAL_Driver/Src/stm32l0xx_hal.c ****     HAL_NVIC_SetPriority(SysTick_IRQn, TickPriority, 0U);
 250:Drivers/STM32L0xx_HAL_Driver/Src/stm32l0xx_hal.c ****     uwTickPrio = TickPriority;
 251:Drivers/STM32L0xx_HAL_Driver/Src/stm32l0xx_hal.c ****   }
 252:Drivers/STM32L0xx_HAL_Driver/Src/stm32l0xx_hal.c ****   else
 253:Drivers/STM32L0xx_HAL_Driver/Src/stm32l0xx_hal.c ****   {
 254:Drivers/STM32L0xx_HAL_Driver/Src/stm32l0xx_hal.c ****     return HAL_ERROR;
 255:Drivers/STM32L0xx_HAL_Driver/Src/stm32l0xx_hal.c ****   }
 256:Drivers/STM32L0xx_HAL_Driver/Src/stm32l0xx_hal.c **** 
 257:Drivers/STM32L0xx_HAL_Driver/Src/stm32l0xx_hal.c ****   /* Return function status */
 258:Drivers/STM32L0xx_HAL_Driver/Src/stm32l0xx_hal.c ****   return HAL_OK;
 259:Drivers/STM32L0xx_HAL_Driver/Src/stm32l0xx_hal.c **** }
 173              		.loc 1 259 1 view .LVU30
 174              		@ sp needed
 175              	.LVL6:
 176              		.loc 1 259 1 view .LVU31
 177 0028 10BD     		pop	{r4, pc}
 178              	.LVL7:
 179              	.L11:
 180              	.LBB4:
 181              	.LBI4:
 238:Drivers/STM32L0xx_HAL_Driver/Src/stm32l0xx_hal.c **** {
 182              		.loc 1 238 26 is_stmt 1 view .LVU32
 183              	.LBB5:
 249:Drivers/STM32L0xx_HAL_Driver/Src/stm32l0xx_hal.c ****     uwTickPrio = TickPriority;
 184              		.loc 1 249 5 view .LVU33
ARM GAS  /tmp/cc60Bu91.s 			page 9


 185 002a 0238     		subs	r0, r0, #2
 186 002c 0022     		movs	r2, #0
 187 002e 2100     		movs	r1, r4
 188 0030 FFF7FEFF 		bl	HAL_NVIC_SetPriority
 189              	.LVL8:
 250:Drivers/STM32L0xx_HAL_Driver/Src/stm32l0xx_hal.c ****   }
 190              		.loc 1 250 5 view .LVU34
 250:Drivers/STM32L0xx_HAL_Driver/Src/stm32l0xx_hal.c ****   }
 191              		.loc 1 250 16 is_stmt 0 view .LVU35
 192 0034 044B     		ldr	r3, .L12+8
 193 0036 0020     		movs	r0, #0
 194 0038 1C60     		str	r4, [r3]
 258:Drivers/STM32L0xx_HAL_Driver/Src/stm32l0xx_hal.c **** }
 195              		.loc 1 258 3 is_stmt 1 view .LVU36
 196              	.LVL9:
 258:Drivers/STM32L0xx_HAL_Driver/Src/stm32l0xx_hal.c **** }
 197              		.loc 1 258 3 is_stmt 0 view .LVU37
 198 003a F5E7     		b	.L8
 199              	.L9:
 258:Drivers/STM32L0xx_HAL_Driver/Src/stm32l0xx_hal.c **** }
 200              		.loc 1 258 3 view .LVU38
 201              	.LBE5:
 202              	.LBE4:
 243:Drivers/STM32L0xx_HAL_Driver/Src/stm32l0xx_hal.c ****   }
 203              		.loc 1 243 12 view .LVU39
 204 003c 0120     		movs	r0, #1
 205 003e F3E7     		b	.L8
 206              	.L13:
 207              		.align	2
 208              	.L12:
 209 0040 00000000 		.word	.LANCHOR0
 210 0044 00000000 		.word	SystemCoreClock
 211 0048 00000000 		.word	.LANCHOR1
 212              		.cfi_endproc
 213              	.LFE38:
 215              		.section	.text.HAL_Init,"ax",%progbits
 216              		.align	1
 217              		.p2align 2,,3
 218              		.global	HAL_Init
 219              		.syntax unified
 220              		.code	16
 221              		.thumb_func
 222              		.fpu softvfp
 224              	HAL_Init:
 225              	.LFB34:
 141:Drivers/STM32L0xx_HAL_Driver/Src/stm32l0xx_hal.c ****   HAL_StatusTypeDef  status = HAL_OK;
 226              		.loc 1 141 1 is_stmt 1 view -0
 227              		.cfi_startproc
 228              		@ args = 0, pretend = 0, frame = 0
 229              		@ frame_needed = 0, uses_anonymous_args = 0
 142:Drivers/STM32L0xx_HAL_Driver/Src/stm32l0xx_hal.c **** 
 230              		.loc 1 142 3 view .LVU41
 231              	.LVL10:
 150:Drivers/STM32L0xx_HAL_Driver/Src/stm32l0xx_hal.c **** #endif /* PREREAD_ENABLE */
 232              		.loc 1 150 3 view .LVU42
 233 0000 4021     		movs	r1, #64
 234 0002 084A     		ldr	r2, .L18
ARM GAS  /tmp/cc60Bu91.s 			page 10


 141:Drivers/STM32L0xx_HAL_Driver/Src/stm32l0xx_hal.c ****   HAL_StatusTypeDef  status = HAL_OK;
 235              		.loc 1 141 1 is_stmt 0 view .LVU43
 236 0004 10B5     		push	{r4, lr}
 237              	.LCFI2:
 238              		.cfi_def_cfa_offset 8
 239              		.cfi_offset 4, -8
 240              		.cfi_offset 14, -4
 150:Drivers/STM32L0xx_HAL_Driver/Src/stm32l0xx_hal.c **** #endif /* PREREAD_ENABLE */
 241              		.loc 1 150 3 view .LVU44
 242 0006 1368     		ldr	r3, [r2]
 158:Drivers/STM32L0xx_HAL_Driver/Src/stm32l0xx_hal.c ****   {
 243              		.loc 1 158 7 view .LVU45
 244 0008 0020     		movs	r0, #0
 150:Drivers/STM32L0xx_HAL_Driver/Src/stm32l0xx_hal.c **** #endif /* PREREAD_ENABLE */
 245              		.loc 1 150 3 view .LVU46
 246 000a 0B43     		orrs	r3, r1
 247 000c 1360     		str	r3, [r2]
 158:Drivers/STM32L0xx_HAL_Driver/Src/stm32l0xx_hal.c ****   {
 248              		.loc 1 158 3 is_stmt 1 view .LVU47
 158:Drivers/STM32L0xx_HAL_Driver/Src/stm32l0xx_hal.c ****   {
 249              		.loc 1 158 7 is_stmt 0 view .LVU48
 250 000e FFF7FEFF 		bl	HAL_InitTick
 251              	.LVL11:
 252 0012 041E     		subs	r4, r0, #0
 158:Drivers/STM32L0xx_HAL_Driver/Src/stm32l0xx_hal.c ****   {
 253              		.loc 1 158 6 view .LVU49
 254 0014 02D0     		beq	.L17
 160:Drivers/STM32L0xx_HAL_Driver/Src/stm32l0xx_hal.c ****   }
 255              		.loc 1 160 12 view .LVU50
 256 0016 0124     		movs	r4, #1
 257              	.L15:
 258              	.LVL12:
 169:Drivers/STM32L0xx_HAL_Driver/Src/stm32l0xx_hal.c **** }
 259              		.loc 1 169 3 is_stmt 1 view .LVU51
 170:Drivers/STM32L0xx_HAL_Driver/Src/stm32l0xx_hal.c **** 
 260              		.loc 1 170 1 is_stmt 0 view .LVU52
 261 0018 2000     		movs	r0, r4
 262              		@ sp needed
 263              	.LVL13:
 170:Drivers/STM32L0xx_HAL_Driver/Src/stm32l0xx_hal.c **** 
 264              		.loc 1 170 1 view .LVU53
 265 001a 10BD     		pop	{r4, pc}
 266              	.LVL14:
 267              	.L17:
 165:Drivers/STM32L0xx_HAL_Driver/Src/stm32l0xx_hal.c ****   }
 268              		.loc 1 165 5 is_stmt 1 view .LVU54
 269 001c FFF7FEFF 		bl	HAL_MspInit
 270              	.LVL15:
 271 0020 FAE7     		b	.L15
 272              	.L19:
 273 0022 C046     		.align	2
 274              	.L18:
 275 0024 00200240 		.word	1073881088
 276              		.cfi_endproc
 277              	.LFE34:
 279              		.section	.text.HAL_IncTick,"ax",%progbits
 280              		.align	1
ARM GAS  /tmp/cc60Bu91.s 			page 11


 281              		.p2align 2,,3
 282              		.weak	HAL_IncTick
 283              		.syntax unified
 284              		.code	16
 285              		.thumb_func
 286              		.fpu softvfp
 288              	HAL_IncTick:
 289              	.LFB39:
 260:Drivers/STM32L0xx_HAL_Driver/Src/stm32l0xx_hal.c **** 
 261:Drivers/STM32L0xx_HAL_Driver/Src/stm32l0xx_hal.c **** /**
 262:Drivers/STM32L0xx_HAL_Driver/Src/stm32l0xx_hal.c ****   * @}
 263:Drivers/STM32L0xx_HAL_Driver/Src/stm32l0xx_hal.c ****   */
 264:Drivers/STM32L0xx_HAL_Driver/Src/stm32l0xx_hal.c **** 
 265:Drivers/STM32L0xx_HAL_Driver/Src/stm32l0xx_hal.c **** /** @addtogroup HAL_Exported_Functions_Group2
 266:Drivers/STM32L0xx_HAL_Driver/Src/stm32l0xx_hal.c ****  *  @brief    HAL Control functions
 267:Drivers/STM32L0xx_HAL_Driver/Src/stm32l0xx_hal.c ****  *
 268:Drivers/STM32L0xx_HAL_Driver/Src/stm32l0xx_hal.c **** @verbatim
 269:Drivers/STM32L0xx_HAL_Driver/Src/stm32l0xx_hal.c ****  ===============================================================================
 270:Drivers/STM32L0xx_HAL_Driver/Src/stm32l0xx_hal.c ****                       ##### HAL Control functions #####
 271:Drivers/STM32L0xx_HAL_Driver/Src/stm32l0xx_hal.c ****  ===============================================================================
 272:Drivers/STM32L0xx_HAL_Driver/Src/stm32l0xx_hal.c ****     [..]  This section provides functions allowing to:
 273:Drivers/STM32L0xx_HAL_Driver/Src/stm32l0xx_hal.c ****       (+) Provide a tick value in millisecond
 274:Drivers/STM32L0xx_HAL_Driver/Src/stm32l0xx_hal.c ****       (+) Provide a blocking delay in millisecond
 275:Drivers/STM32L0xx_HAL_Driver/Src/stm32l0xx_hal.c ****       (+) Suspend the time base source interrupt
 276:Drivers/STM32L0xx_HAL_Driver/Src/stm32l0xx_hal.c ****       (+) Resume the time base source interrupt
 277:Drivers/STM32L0xx_HAL_Driver/Src/stm32l0xx_hal.c ****       (+) Get the HAL API driver version
 278:Drivers/STM32L0xx_HAL_Driver/Src/stm32l0xx_hal.c ****       (+) Get the device identifier
 279:Drivers/STM32L0xx_HAL_Driver/Src/stm32l0xx_hal.c ****       (+) Get the device revision identifier
 280:Drivers/STM32L0xx_HAL_Driver/Src/stm32l0xx_hal.c **** 
 281:Drivers/STM32L0xx_HAL_Driver/Src/stm32l0xx_hal.c **** @endverbatim
 282:Drivers/STM32L0xx_HAL_Driver/Src/stm32l0xx_hal.c ****   * @{
 283:Drivers/STM32L0xx_HAL_Driver/Src/stm32l0xx_hal.c ****   */
 284:Drivers/STM32L0xx_HAL_Driver/Src/stm32l0xx_hal.c **** 
 285:Drivers/STM32L0xx_HAL_Driver/Src/stm32l0xx_hal.c **** /**
 286:Drivers/STM32L0xx_HAL_Driver/Src/stm32l0xx_hal.c ****   * @brief This function is called to increment a global variable "uwTick"
 287:Drivers/STM32L0xx_HAL_Driver/Src/stm32l0xx_hal.c ****   *        used as application time base.
 288:Drivers/STM32L0xx_HAL_Driver/Src/stm32l0xx_hal.c ****   * @note In the default implementation, this variable is incremented each 1ms
 289:Drivers/STM32L0xx_HAL_Driver/Src/stm32l0xx_hal.c ****   *       in SysTick ISR.
 290:Drivers/STM32L0xx_HAL_Driver/Src/stm32l0xx_hal.c ****  * @note This function is declared as __weak to be overwritten in case of other
 291:Drivers/STM32L0xx_HAL_Driver/Src/stm32l0xx_hal.c ****   *      implementations in user file.
 292:Drivers/STM32L0xx_HAL_Driver/Src/stm32l0xx_hal.c ****   * @retval None
 293:Drivers/STM32L0xx_HAL_Driver/Src/stm32l0xx_hal.c ****   */
 294:Drivers/STM32L0xx_HAL_Driver/Src/stm32l0xx_hal.c **** __weak void HAL_IncTick(void)
 295:Drivers/STM32L0xx_HAL_Driver/Src/stm32l0xx_hal.c **** {
 290              		.loc 1 295 1 view -0
 291              		.cfi_startproc
 292              		@ args = 0, pretend = 0, frame = 0
 293              		@ frame_needed = 0, uses_anonymous_args = 0
 294              		@ link register save eliminated.
 296:Drivers/STM32L0xx_HAL_Driver/Src/stm32l0xx_hal.c ****   uwTick += uwTickFreq;
 295              		.loc 1 296 3 view .LVU56
 296              		.loc 1 296 10 is_stmt 0 view .LVU57
 297 0000 034A     		ldr	r2, .L21
 298 0002 044B     		ldr	r3, .L21+4
 299 0004 1168     		ldr	r1, [r2]
 300 0006 1B78     		ldrb	r3, [r3]
 297:Drivers/STM32L0xx_HAL_Driver/Src/stm32l0xx_hal.c **** }
ARM GAS  /tmp/cc60Bu91.s 			page 12


 301              		.loc 1 297 1 view .LVU58
 302              		@ sp needed
 296:Drivers/STM32L0xx_HAL_Driver/Src/stm32l0xx_hal.c ****   uwTick += uwTickFreq;
 303              		.loc 1 296 10 view .LVU59
 304 0008 5B18     		adds	r3, r3, r1
 305 000a 1360     		str	r3, [r2]
 306              		.loc 1 297 1 view .LVU60
 307 000c 7047     		bx	lr
 308              	.L22:
 309 000e C046     		.align	2
 310              	.L21:
 311 0010 00000000 		.word	uwTick
 312 0014 00000000 		.word	.LANCHOR0
 313              		.cfi_endproc
 314              	.LFE39:
 316              		.section	.text.HAL_GetTick,"ax",%progbits
 317              		.align	1
 318              		.p2align 2,,3
 319              		.weak	HAL_GetTick
 320              		.syntax unified
 321              		.code	16
 322              		.thumb_func
 323              		.fpu softvfp
 325              	HAL_GetTick:
 326              	.LFB40:
 298:Drivers/STM32L0xx_HAL_Driver/Src/stm32l0xx_hal.c **** 
 299:Drivers/STM32L0xx_HAL_Driver/Src/stm32l0xx_hal.c **** /**
 300:Drivers/STM32L0xx_HAL_Driver/Src/stm32l0xx_hal.c ****   * @brief Provides a tick value in millisecond.
 301:Drivers/STM32L0xx_HAL_Driver/Src/stm32l0xx_hal.c ****   * @note This function is declared as __weak to be overwritten in case of other
 302:Drivers/STM32L0xx_HAL_Driver/Src/stm32l0xx_hal.c ****   *       implementations in user file.
 303:Drivers/STM32L0xx_HAL_Driver/Src/stm32l0xx_hal.c ****   * @retval tick value
 304:Drivers/STM32L0xx_HAL_Driver/Src/stm32l0xx_hal.c ****   */
 305:Drivers/STM32L0xx_HAL_Driver/Src/stm32l0xx_hal.c **** __weak uint32_t HAL_GetTick(void)
 306:Drivers/STM32L0xx_HAL_Driver/Src/stm32l0xx_hal.c **** {
 327              		.loc 1 306 1 is_stmt 1 view -0
 328              		.cfi_startproc
 329              		@ args = 0, pretend = 0, frame = 0
 330              		@ frame_needed = 0, uses_anonymous_args = 0
 331              		@ link register save eliminated.
 307:Drivers/STM32L0xx_HAL_Driver/Src/stm32l0xx_hal.c ****   return uwTick;
 332              		.loc 1 307 3 view .LVU62
 333              		.loc 1 307 10 is_stmt 0 view .LVU63
 334 0000 014B     		ldr	r3, .L24
 308:Drivers/STM32L0xx_HAL_Driver/Src/stm32l0xx_hal.c **** }
 335              		.loc 1 308 1 view .LVU64
 336              		@ sp needed
 307:Drivers/STM32L0xx_HAL_Driver/Src/stm32l0xx_hal.c ****   return uwTick;
 337              		.loc 1 307 10 view .LVU65
 338 0002 1868     		ldr	r0, [r3]
 339              		.loc 1 308 1 view .LVU66
 340 0004 7047     		bx	lr
 341              	.L25:
 342 0006 C046     		.align	2
 343              	.L24:
 344 0008 00000000 		.word	uwTick
 345              		.cfi_endproc
 346              	.LFE40:
ARM GAS  /tmp/cc60Bu91.s 			page 13


 348              		.section	.text.HAL_GetTickPrio,"ax",%progbits
 349              		.align	1
 350              		.p2align 2,,3
 351              		.global	HAL_GetTickPrio
 352              		.syntax unified
 353              		.code	16
 354              		.thumb_func
 355              		.fpu softvfp
 357              	HAL_GetTickPrio:
 358              	.LFB41:
 309:Drivers/STM32L0xx_HAL_Driver/Src/stm32l0xx_hal.c **** 
 310:Drivers/STM32L0xx_HAL_Driver/Src/stm32l0xx_hal.c **** /**
 311:Drivers/STM32L0xx_HAL_Driver/Src/stm32l0xx_hal.c ****   * @brief This function returns a tick priority.
 312:Drivers/STM32L0xx_HAL_Driver/Src/stm32l0xx_hal.c ****   * @retval tick priority
 313:Drivers/STM32L0xx_HAL_Driver/Src/stm32l0xx_hal.c ****   */
 314:Drivers/STM32L0xx_HAL_Driver/Src/stm32l0xx_hal.c **** uint32_t HAL_GetTickPrio(void)
 315:Drivers/STM32L0xx_HAL_Driver/Src/stm32l0xx_hal.c **** {
 359              		.loc 1 315 1 is_stmt 1 view -0
 360              		.cfi_startproc
 361              		@ args = 0, pretend = 0, frame = 0
 362              		@ frame_needed = 0, uses_anonymous_args = 0
 363              		@ link register save eliminated.
 316:Drivers/STM32L0xx_HAL_Driver/Src/stm32l0xx_hal.c ****   return uwTickPrio;
 364              		.loc 1 316 3 view .LVU68
 365              		.loc 1 316 10 is_stmt 0 view .LVU69
 366 0000 014B     		ldr	r3, .L27
 317:Drivers/STM32L0xx_HAL_Driver/Src/stm32l0xx_hal.c **** }
 367              		.loc 1 317 1 view .LVU70
 368              		@ sp needed
 316:Drivers/STM32L0xx_HAL_Driver/Src/stm32l0xx_hal.c ****   return uwTickPrio;
 369              		.loc 1 316 10 view .LVU71
 370 0002 1868     		ldr	r0, [r3]
 371              		.loc 1 317 1 view .LVU72
 372 0004 7047     		bx	lr
 373              	.L28:
 374 0006 C046     		.align	2
 375              	.L27:
 376 0008 00000000 		.word	.LANCHOR1
 377              		.cfi_endproc
 378              	.LFE41:
 380              		.section	.text.HAL_SetTickFreq,"ax",%progbits
 381              		.align	1
 382              		.p2align 2,,3
 383              		.global	HAL_SetTickFreq
 384              		.syntax unified
 385              		.code	16
 386              		.thumb_func
 387              		.fpu softvfp
 389              	HAL_SetTickFreq:
 390              	.LVL16:
 391              	.LFB42:
 318:Drivers/STM32L0xx_HAL_Driver/Src/stm32l0xx_hal.c **** 
 319:Drivers/STM32L0xx_HAL_Driver/Src/stm32l0xx_hal.c **** /**
 320:Drivers/STM32L0xx_HAL_Driver/Src/stm32l0xx_hal.c ****   * @brief Set new tick Freq.
 321:Drivers/STM32L0xx_HAL_Driver/Src/stm32l0xx_hal.c ****   * @retval Status
 322:Drivers/STM32L0xx_HAL_Driver/Src/stm32l0xx_hal.c ****   */
 323:Drivers/STM32L0xx_HAL_Driver/Src/stm32l0xx_hal.c **** HAL_StatusTypeDef HAL_SetTickFreq(HAL_TickFreqTypeDef Freq)
ARM GAS  /tmp/cc60Bu91.s 			page 14


 324:Drivers/STM32L0xx_HAL_Driver/Src/stm32l0xx_hal.c **** {
 392              		.loc 1 324 1 is_stmt 1 view -0
 393              		.cfi_startproc
 394              		@ args = 0, pretend = 0, frame = 0
 395              		@ frame_needed = 0, uses_anonymous_args = 0
 325:Drivers/STM32L0xx_HAL_Driver/Src/stm32l0xx_hal.c ****   HAL_StatusTypeDef status  = HAL_OK;
 396              		.loc 1 325 3 view .LVU74
 326:Drivers/STM32L0xx_HAL_Driver/Src/stm32l0xx_hal.c ****   HAL_TickFreqTypeDef prevTickFreq;
 397              		.loc 1 326 3 view .LVU75
 327:Drivers/STM32L0xx_HAL_Driver/Src/stm32l0xx_hal.c **** 
 328:Drivers/STM32L0xx_HAL_Driver/Src/stm32l0xx_hal.c ****   assert_param(IS_TICKFREQ(Freq));
 398              		.loc 1 328 3 view .LVU76
 329:Drivers/STM32L0xx_HAL_Driver/Src/stm32l0xx_hal.c **** 
 330:Drivers/STM32L0xx_HAL_Driver/Src/stm32l0xx_hal.c ****   if (uwTickFreq != Freq)
 399              		.loc 1 330 3 view .LVU77
 324:Drivers/STM32L0xx_HAL_Driver/Src/stm32l0xx_hal.c ****   HAL_StatusTypeDef status  = HAL_OK;
 400              		.loc 1 324 1 is_stmt 0 view .LVU78
 401 0000 70B5     		push	{r4, r5, r6, lr}
 402              	.LCFI3:
 403              		.cfi_def_cfa_offset 16
 404              		.cfi_offset 4, -16
 405              		.cfi_offset 5, -12
 406              		.cfi_offset 6, -8
 407              		.cfi_offset 14, -4
 408              		.loc 1 330 18 view .LVU79
 409 0002 084C     		ldr	r4, .L36
 324:Drivers/STM32L0xx_HAL_Driver/Src/stm32l0xx_hal.c ****   HAL_StatusTypeDef status  = HAL_OK;
 410              		.loc 1 324 1 view .LVU80
 411 0004 0300     		movs	r3, r0
 412              		.loc 1 330 18 view .LVU81
 413 0006 2578     		ldrb	r5, [r4]
 325:Drivers/STM32L0xx_HAL_Driver/Src/stm32l0xx_hal.c ****   HAL_TickFreqTypeDef prevTickFreq;
 414              		.loc 1 325 21 view .LVU82
 415 0008 0020     		movs	r0, #0
 416              	.LVL17:
 417              		.loc 1 330 6 view .LVU83
 418 000a 9D42     		cmp	r5, r3
 419 000c 00D1     		bne	.L35
 420              	.LVL18:
 421              	.L30:
 331:Drivers/STM32L0xx_HAL_Driver/Src/stm32l0xx_hal.c ****   {
 332:Drivers/STM32L0xx_HAL_Driver/Src/stm32l0xx_hal.c ****     /* Back up uwTickFreq frequency */
 333:Drivers/STM32L0xx_HAL_Driver/Src/stm32l0xx_hal.c ****     prevTickFreq = uwTickFreq;
 334:Drivers/STM32L0xx_HAL_Driver/Src/stm32l0xx_hal.c **** 
 335:Drivers/STM32L0xx_HAL_Driver/Src/stm32l0xx_hal.c ****     /* Update uwTickFreq global variable used by HAL_InitTick() */
 336:Drivers/STM32L0xx_HAL_Driver/Src/stm32l0xx_hal.c ****     uwTickFreq = Freq;
 337:Drivers/STM32L0xx_HAL_Driver/Src/stm32l0xx_hal.c **** 
 338:Drivers/STM32L0xx_HAL_Driver/Src/stm32l0xx_hal.c ****     /* Apply the new tick Freq  */
 339:Drivers/STM32L0xx_HAL_Driver/Src/stm32l0xx_hal.c ****     status = HAL_InitTick(uwTickPrio);
 340:Drivers/STM32L0xx_HAL_Driver/Src/stm32l0xx_hal.c **** 
 341:Drivers/STM32L0xx_HAL_Driver/Src/stm32l0xx_hal.c ****     if (status != HAL_OK)
 342:Drivers/STM32L0xx_HAL_Driver/Src/stm32l0xx_hal.c ****     {
 343:Drivers/STM32L0xx_HAL_Driver/Src/stm32l0xx_hal.c ****       /* Restore previous tick frequency */
 344:Drivers/STM32L0xx_HAL_Driver/Src/stm32l0xx_hal.c ****       uwTickFreq = prevTickFreq;
 345:Drivers/STM32L0xx_HAL_Driver/Src/stm32l0xx_hal.c ****     }
 346:Drivers/STM32L0xx_HAL_Driver/Src/stm32l0xx_hal.c ****   }
 347:Drivers/STM32L0xx_HAL_Driver/Src/stm32l0xx_hal.c **** 
ARM GAS  /tmp/cc60Bu91.s 			page 15


 348:Drivers/STM32L0xx_HAL_Driver/Src/stm32l0xx_hal.c ****   return status;
 422              		.loc 1 348 3 is_stmt 1 view .LVU84
 349:Drivers/STM32L0xx_HAL_Driver/Src/stm32l0xx_hal.c **** }
 423              		.loc 1 349 1 is_stmt 0 view .LVU85
 424              		@ sp needed
 425 000e 70BD     		pop	{r4, r5, r6, pc}
 426              	.LVL19:
 427              	.L35:
 333:Drivers/STM32L0xx_HAL_Driver/Src/stm32l0xx_hal.c **** 
 428              		.loc 1 333 5 is_stmt 1 view .LVU86
 336:Drivers/STM32L0xx_HAL_Driver/Src/stm32l0xx_hal.c **** 
 429              		.loc 1 336 5 view .LVU87
 336:Drivers/STM32L0xx_HAL_Driver/Src/stm32l0xx_hal.c **** 
 430              		.loc 1 336 16 is_stmt 0 view .LVU88
 431 0010 2370     		strb	r3, [r4]
 339:Drivers/STM32L0xx_HAL_Driver/Src/stm32l0xx_hal.c **** 
 432              		.loc 1 339 5 is_stmt 1 view .LVU89
 339:Drivers/STM32L0xx_HAL_Driver/Src/stm32l0xx_hal.c **** 
 433              		.loc 1 339 14 is_stmt 0 view .LVU90
 434 0012 054B     		ldr	r3, .L36+4
 435 0014 1868     		ldr	r0, [r3]
 436 0016 FFF7FEFF 		bl	HAL_InitTick
 437              	.LVL20:
 341:Drivers/STM32L0xx_HAL_Driver/Src/stm32l0xx_hal.c ****     {
 438              		.loc 1 341 5 is_stmt 1 view .LVU91
 341:Drivers/STM32L0xx_HAL_Driver/Src/stm32l0xx_hal.c ****     {
 439              		.loc 1 341 8 is_stmt 0 view .LVU92
 440 001a 0028     		cmp	r0, #0
 441 001c F7D0     		beq	.L30
 344:Drivers/STM32L0xx_HAL_Driver/Src/stm32l0xx_hal.c ****     }
 442              		.loc 1 344 7 is_stmt 1 view .LVU93
 344:Drivers/STM32L0xx_HAL_Driver/Src/stm32l0xx_hal.c ****     }
 443              		.loc 1 344 18 is_stmt 0 view .LVU94
 444 001e 2570     		strb	r5, [r4]
 445 0020 F5E7     		b	.L30
 446              	.L37:
 447 0022 C046     		.align	2
 448              	.L36:
 449 0024 00000000 		.word	.LANCHOR0
 450 0028 00000000 		.word	.LANCHOR1
 451              		.cfi_endproc
 452              	.LFE42:
 454              		.section	.text.HAL_GetTickFreq,"ax",%progbits
 455              		.align	1
 456              		.p2align 2,,3
 457              		.global	HAL_GetTickFreq
 458              		.syntax unified
 459              		.code	16
 460              		.thumb_func
 461              		.fpu softvfp
 463              	HAL_GetTickFreq:
 464              	.LFB43:
 350:Drivers/STM32L0xx_HAL_Driver/Src/stm32l0xx_hal.c **** 
 351:Drivers/STM32L0xx_HAL_Driver/Src/stm32l0xx_hal.c **** /**
 352:Drivers/STM32L0xx_HAL_Driver/Src/stm32l0xx_hal.c ****   * @brief Return tick frequency.
 353:Drivers/STM32L0xx_HAL_Driver/Src/stm32l0xx_hal.c ****   * @retval tick period in Hz
 354:Drivers/STM32L0xx_HAL_Driver/Src/stm32l0xx_hal.c ****   */
ARM GAS  /tmp/cc60Bu91.s 			page 16


 355:Drivers/STM32L0xx_HAL_Driver/Src/stm32l0xx_hal.c **** HAL_TickFreqTypeDef HAL_GetTickFreq(void)
 356:Drivers/STM32L0xx_HAL_Driver/Src/stm32l0xx_hal.c **** {
 465              		.loc 1 356 1 is_stmt 1 view -0
 466              		.cfi_startproc
 467              		@ args = 0, pretend = 0, frame = 0
 468              		@ frame_needed = 0, uses_anonymous_args = 0
 469              		@ link register save eliminated.
 357:Drivers/STM32L0xx_HAL_Driver/Src/stm32l0xx_hal.c ****   return uwTickFreq;
 470              		.loc 1 357 3 view .LVU96
 471              		.loc 1 357 10 is_stmt 0 view .LVU97
 472 0000 014B     		ldr	r3, .L39
 358:Drivers/STM32L0xx_HAL_Driver/Src/stm32l0xx_hal.c **** }
 473              		.loc 1 358 1 view .LVU98
 474              		@ sp needed
 357:Drivers/STM32L0xx_HAL_Driver/Src/stm32l0xx_hal.c ****   return uwTickFreq;
 475              		.loc 1 357 10 view .LVU99
 476 0002 1878     		ldrb	r0, [r3]
 477              		.loc 1 358 1 view .LVU100
 478 0004 7047     		bx	lr
 479              	.L40:
 480 0006 C046     		.align	2
 481              	.L39:
 482 0008 00000000 		.word	.LANCHOR0
 483              		.cfi_endproc
 484              	.LFE43:
 486              		.section	.text.HAL_Delay,"ax",%progbits
 487              		.align	1
 488              		.p2align 2,,3
 489              		.weak	HAL_Delay
 490              		.syntax unified
 491              		.code	16
 492              		.thumb_func
 493              		.fpu softvfp
 495              	HAL_Delay:
 496              	.LVL21:
 497              	.LFB44:
 359:Drivers/STM32L0xx_HAL_Driver/Src/stm32l0xx_hal.c **** 
 360:Drivers/STM32L0xx_HAL_Driver/Src/stm32l0xx_hal.c **** /**
 361:Drivers/STM32L0xx_HAL_Driver/Src/stm32l0xx_hal.c ****   * @brief This function provides minimum delay (in milliseconds) based
 362:Drivers/STM32L0xx_HAL_Driver/Src/stm32l0xx_hal.c ****   *        on variable incremented.
 363:Drivers/STM32L0xx_HAL_Driver/Src/stm32l0xx_hal.c ****   * @note In the default implementation , SysTick timer is the source of time base.
 364:Drivers/STM32L0xx_HAL_Driver/Src/stm32l0xx_hal.c ****   *       It is used to generate interrupts at regular time intervals where uwTick
 365:Drivers/STM32L0xx_HAL_Driver/Src/stm32l0xx_hal.c ****   *       is incremented.
 366:Drivers/STM32L0xx_HAL_Driver/Src/stm32l0xx_hal.c ****   * @note This function is declared as __weak to be overwritten in case of other
 367:Drivers/STM32L0xx_HAL_Driver/Src/stm32l0xx_hal.c ****   *       implementations in user file.
 368:Drivers/STM32L0xx_HAL_Driver/Src/stm32l0xx_hal.c ****   * @param Delay specifies the delay time length, in milliseconds.
 369:Drivers/STM32L0xx_HAL_Driver/Src/stm32l0xx_hal.c ****   * @retval None
 370:Drivers/STM32L0xx_HAL_Driver/Src/stm32l0xx_hal.c ****   */
 371:Drivers/STM32L0xx_HAL_Driver/Src/stm32l0xx_hal.c **** __weak void HAL_Delay(uint32_t Delay)
 372:Drivers/STM32L0xx_HAL_Driver/Src/stm32l0xx_hal.c **** {
 498              		.loc 1 372 1 is_stmt 1 view -0
 499              		.cfi_startproc
 500              		@ args = 0, pretend = 0, frame = 0
 501              		@ frame_needed = 0, uses_anonymous_args = 0
 373:Drivers/STM32L0xx_HAL_Driver/Src/stm32l0xx_hal.c ****   uint32_t tickstart = HAL_GetTick();
 502              		.loc 1 373 3 view .LVU102
 372:Drivers/STM32L0xx_HAL_Driver/Src/stm32l0xx_hal.c ****   uint32_t tickstart = HAL_GetTick();
ARM GAS  /tmp/cc60Bu91.s 			page 17


 503              		.loc 1 372 1 is_stmt 0 view .LVU103
 504 0000 70B5     		push	{r4, r5, r6, lr}
 505              	.LCFI4:
 506              		.cfi_def_cfa_offset 16
 507              		.cfi_offset 4, -16
 508              		.cfi_offset 5, -12
 509              		.cfi_offset 6, -8
 510              		.cfi_offset 14, -4
 372:Drivers/STM32L0xx_HAL_Driver/Src/stm32l0xx_hal.c ****   uint32_t tickstart = HAL_GetTick();
 511              		.loc 1 372 1 view .LVU104
 512 0002 0400     		movs	r4, r0
 513              		.loc 1 373 24 view .LVU105
 514 0004 FFF7FEFF 		bl	HAL_GetTick
 515              	.LVL22:
 516              		.loc 1 373 24 view .LVU106
 517 0008 0500     		movs	r5, r0
 518              	.LVL23:
 374:Drivers/STM32L0xx_HAL_Driver/Src/stm32l0xx_hal.c ****   uint32_t wait = Delay;
 519              		.loc 1 374 3 is_stmt 1 view .LVU107
 375:Drivers/STM32L0xx_HAL_Driver/Src/stm32l0xx_hal.c **** 
 376:Drivers/STM32L0xx_HAL_Driver/Src/stm32l0xx_hal.c ****   /* Add a freq to guarantee minimum wait */
 377:Drivers/STM32L0xx_HAL_Driver/Src/stm32l0xx_hal.c ****   if (wait < HAL_MAX_DELAY)
 520              		.loc 1 377 3 view .LVU108
 521              		.loc 1 377 6 is_stmt 0 view .LVU109
 522 000a 631C     		adds	r3, r4, #1
 523 000c 02D0     		beq	.L43
 378:Drivers/STM32L0xx_HAL_Driver/Src/stm32l0xx_hal.c ****   {
 379:Drivers/STM32L0xx_HAL_Driver/Src/stm32l0xx_hal.c ****     wait += (uint32_t)(uwTickFreq);
 524              		.loc 1 379 5 is_stmt 1 view .LVU110
 525              		.loc 1 379 13 is_stmt 0 view .LVU111
 526 000e 044B     		ldr	r3, .L48
 527 0010 1B78     		ldrb	r3, [r3]
 528              		.loc 1 379 10 view .LVU112
 529 0012 E418     		adds	r4, r4, r3
 530              	.LVL24:
 531              	.L43:
 380:Drivers/STM32L0xx_HAL_Driver/Src/stm32l0xx_hal.c ****   }
 381:Drivers/STM32L0xx_HAL_Driver/Src/stm32l0xx_hal.c **** 
 382:Drivers/STM32L0xx_HAL_Driver/Src/stm32l0xx_hal.c ****   while((HAL_GetTick() - tickstart) < wait)
 383:Drivers/STM32L0xx_HAL_Driver/Src/stm32l0xx_hal.c ****   {
 384:Drivers/STM32L0xx_HAL_Driver/Src/stm32l0xx_hal.c ****   }
 532              		.loc 1 384 3 is_stmt 1 discriminator 1 view .LVU113
 382:Drivers/STM32L0xx_HAL_Driver/Src/stm32l0xx_hal.c ****   {
 533              		.loc 1 382 8 discriminator 1 view .LVU114
 382:Drivers/STM32L0xx_HAL_Driver/Src/stm32l0xx_hal.c ****   {
 534              		.loc 1 382 10 is_stmt 0 discriminator 1 view .LVU115
 535 0014 FFF7FEFF 		bl	HAL_GetTick
 536              	.LVL25:
 382:Drivers/STM32L0xx_HAL_Driver/Src/stm32l0xx_hal.c ****   {
 537              		.loc 1 382 24 discriminator 1 view .LVU116
 538 0018 401B     		subs	r0, r0, r5
 382:Drivers/STM32L0xx_HAL_Driver/Src/stm32l0xx_hal.c ****   {
 539              		.loc 1 382 8 discriminator 1 view .LVU117
 540 001a A042     		cmp	r0, r4
 541 001c FAD3     		bcc	.L43
 385:Drivers/STM32L0xx_HAL_Driver/Src/stm32l0xx_hal.c **** }
 542              		.loc 1 385 1 view .LVU118
ARM GAS  /tmp/cc60Bu91.s 			page 18


 543              		@ sp needed
 544              	.LVL26:
 545              	.LVL27:
 546              		.loc 1 385 1 view .LVU119
 547 001e 70BD     		pop	{r4, r5, r6, pc}
 548              	.L49:
 549              		.align	2
 550              	.L48:
 551 0020 00000000 		.word	.LANCHOR0
 552              		.cfi_endproc
 553              	.LFE44:
 555              		.section	.text.HAL_SuspendTick,"ax",%progbits
 556              		.align	1
 557              		.p2align 2,,3
 558              		.weak	HAL_SuspendTick
 559              		.syntax unified
 560              		.code	16
 561              		.thumb_func
 562              		.fpu softvfp
 564              	HAL_SuspendTick:
 565              	.LFB45:
 386:Drivers/STM32L0xx_HAL_Driver/Src/stm32l0xx_hal.c **** 
 387:Drivers/STM32L0xx_HAL_Driver/Src/stm32l0xx_hal.c **** /**
 388:Drivers/STM32L0xx_HAL_Driver/Src/stm32l0xx_hal.c ****   * @brief Suspends the Tick increment.
 389:Drivers/STM32L0xx_HAL_Driver/Src/stm32l0xx_hal.c ****   * @note In the default implementation , SysTick timer is the source of time base. It is
 390:Drivers/STM32L0xx_HAL_Driver/Src/stm32l0xx_hal.c ****   *       used to generate interrupts at regular time intervals. Once HAL_SuspendTick()
 391:Drivers/STM32L0xx_HAL_Driver/Src/stm32l0xx_hal.c ****   *       is called, the SysTick interrupt will be disabled and so Tick increment
 392:Drivers/STM32L0xx_HAL_Driver/Src/stm32l0xx_hal.c ****   *       is suspended.
 393:Drivers/STM32L0xx_HAL_Driver/Src/stm32l0xx_hal.c ****   * @note This function is declared as __weak to be overwritten in case of other
 394:Drivers/STM32L0xx_HAL_Driver/Src/stm32l0xx_hal.c ****   *       implementations in user file.
 395:Drivers/STM32L0xx_HAL_Driver/Src/stm32l0xx_hal.c ****   * @retval None
 396:Drivers/STM32L0xx_HAL_Driver/Src/stm32l0xx_hal.c ****   */
 397:Drivers/STM32L0xx_HAL_Driver/Src/stm32l0xx_hal.c **** __weak void HAL_SuspendTick(void)
 398:Drivers/STM32L0xx_HAL_Driver/Src/stm32l0xx_hal.c **** {
 566              		.loc 1 398 1 is_stmt 1 view -0
 567              		.cfi_startproc
 568              		@ args = 0, pretend = 0, frame = 0
 569              		@ frame_needed = 0, uses_anonymous_args = 0
 570              		@ link register save eliminated.
 399:Drivers/STM32L0xx_HAL_Driver/Src/stm32l0xx_hal.c ****   /* Disable SysTick Interrupt */
 400:Drivers/STM32L0xx_HAL_Driver/Src/stm32l0xx_hal.c ****   SysTick->CTRL &= ~SysTick_CTRL_TICKINT_Msk;
 571              		.loc 1 400 3 view .LVU121
 572              		.loc 1 400 17 is_stmt 0 view .LVU122
 573 0000 0221     		movs	r1, #2
 574 0002 024A     		ldr	r2, .L51
 401:Drivers/STM32L0xx_HAL_Driver/Src/stm32l0xx_hal.c **** }
 575              		.loc 1 401 1 view .LVU123
 576              		@ sp needed
 400:Drivers/STM32L0xx_HAL_Driver/Src/stm32l0xx_hal.c **** }
 577              		.loc 1 400 17 view .LVU124
 578 0004 1368     		ldr	r3, [r2]
 579 0006 8B43     		bics	r3, r1
 580 0008 1360     		str	r3, [r2]
 581              		.loc 1 401 1 view .LVU125
 582 000a 7047     		bx	lr
 583              	.L52:
 584              		.align	2
ARM GAS  /tmp/cc60Bu91.s 			page 19


 585              	.L51:
 586 000c 10E000E0 		.word	-536813552
 587              		.cfi_endproc
 588              	.LFE45:
 590              		.section	.text.HAL_ResumeTick,"ax",%progbits
 591              		.align	1
 592              		.p2align 2,,3
 593              		.weak	HAL_ResumeTick
 594              		.syntax unified
 595              		.code	16
 596              		.thumb_func
 597              		.fpu softvfp
 599              	HAL_ResumeTick:
 600              	.LFB46:
 402:Drivers/STM32L0xx_HAL_Driver/Src/stm32l0xx_hal.c **** 
 403:Drivers/STM32L0xx_HAL_Driver/Src/stm32l0xx_hal.c **** /**
 404:Drivers/STM32L0xx_HAL_Driver/Src/stm32l0xx_hal.c ****   * @brief Resumes the Tick increment.
 405:Drivers/STM32L0xx_HAL_Driver/Src/stm32l0xx_hal.c ****   * @note In the default implementation , SysTick timer is the source of time base. It is
 406:Drivers/STM32L0xx_HAL_Driver/Src/stm32l0xx_hal.c ****   *       used to generate interrupts at regular time intervals. Once HAL_ResumeTick()
 407:Drivers/STM32L0xx_HAL_Driver/Src/stm32l0xx_hal.c ****   *       is called, the SysTick interrupt will be enabled and so Tick increment
 408:Drivers/STM32L0xx_HAL_Driver/Src/stm32l0xx_hal.c ****   *       is resumed.
 409:Drivers/STM32L0xx_HAL_Driver/Src/stm32l0xx_hal.c ****   * @note This function is declared as __weak to be overwritten in case of other
 410:Drivers/STM32L0xx_HAL_Driver/Src/stm32l0xx_hal.c ****   *       implementations in user file.
 411:Drivers/STM32L0xx_HAL_Driver/Src/stm32l0xx_hal.c ****   * @retval None
 412:Drivers/STM32L0xx_HAL_Driver/Src/stm32l0xx_hal.c ****   */
 413:Drivers/STM32L0xx_HAL_Driver/Src/stm32l0xx_hal.c **** __weak void HAL_ResumeTick(void)
 414:Drivers/STM32L0xx_HAL_Driver/Src/stm32l0xx_hal.c **** {
 601              		.loc 1 414 1 is_stmt 1 view -0
 602              		.cfi_startproc
 603              		@ args = 0, pretend = 0, frame = 0
 604              		@ frame_needed = 0, uses_anonymous_args = 0
 605              		@ link register save eliminated.
 415:Drivers/STM32L0xx_HAL_Driver/Src/stm32l0xx_hal.c ****   /* Enable SysTick Interrupt */
 416:Drivers/STM32L0xx_HAL_Driver/Src/stm32l0xx_hal.c ****   SysTick->CTRL  |= SysTick_CTRL_TICKINT_Msk;
 606              		.loc 1 416 3 view .LVU127
 607              		.loc 1 416 18 is_stmt 0 view .LVU128
 608 0000 0221     		movs	r1, #2
 609 0002 024A     		ldr	r2, .L54
 417:Drivers/STM32L0xx_HAL_Driver/Src/stm32l0xx_hal.c **** }
 610              		.loc 1 417 1 view .LVU129
 611              		@ sp needed
 416:Drivers/STM32L0xx_HAL_Driver/Src/stm32l0xx_hal.c **** }
 612              		.loc 1 416 18 view .LVU130
 613 0004 1368     		ldr	r3, [r2]
 614 0006 0B43     		orrs	r3, r1
 615 0008 1360     		str	r3, [r2]
 616              		.loc 1 417 1 view .LVU131
 617 000a 7047     		bx	lr
 618              	.L55:
 619              		.align	2
 620              	.L54:
 621 000c 10E000E0 		.word	-536813552
 622              		.cfi_endproc
 623              	.LFE46:
 625              		.section	.text.HAL_GetHalVersion,"ax",%progbits
 626              		.align	1
 627              		.p2align 2,,3
ARM GAS  /tmp/cc60Bu91.s 			page 20


 628              		.global	HAL_GetHalVersion
 629              		.syntax unified
 630              		.code	16
 631              		.thumb_func
 632              		.fpu softvfp
 634              	HAL_GetHalVersion:
 635              	.LFB47:
 418:Drivers/STM32L0xx_HAL_Driver/Src/stm32l0xx_hal.c **** 
 419:Drivers/STM32L0xx_HAL_Driver/Src/stm32l0xx_hal.c **** /**
 420:Drivers/STM32L0xx_HAL_Driver/Src/stm32l0xx_hal.c ****   * @brief Returns the HAL revision
 421:Drivers/STM32L0xx_HAL_Driver/Src/stm32l0xx_hal.c ****   * @retval version: 0xXYZR (8bits for each decimal, R for RC)
 422:Drivers/STM32L0xx_HAL_Driver/Src/stm32l0xx_hal.c ****   */
 423:Drivers/STM32L0xx_HAL_Driver/Src/stm32l0xx_hal.c **** uint32_t HAL_GetHalVersion(void)
 424:Drivers/STM32L0xx_HAL_Driver/Src/stm32l0xx_hal.c **** {
 636              		.loc 1 424 1 is_stmt 1 view -0
 637              		.cfi_startproc
 638              		@ args = 0, pretend = 0, frame = 0
 639              		@ frame_needed = 0, uses_anonymous_args = 0
 640              		@ link register save eliminated.
 425:Drivers/STM32L0xx_HAL_Driver/Src/stm32l0xx_hal.c ****   return __STM32L0xx_HAL_VERSION;
 641              		.loc 1 425 3 view .LVU133
 426:Drivers/STM32L0xx_HAL_Driver/Src/stm32l0xx_hal.c **** }
 642              		.loc 1 426 1 is_stmt 0 view .LVU134
 643 0000 0048     		ldr	r0, .L57
 644              		@ sp needed
 645 0002 7047     		bx	lr
 646              	.L58:
 647              		.align	2
 648              	.L57:
 649 0004 00030A01 		.word	17433344
 650              		.cfi_endproc
 651              	.LFE47:
 653              		.section	.text.HAL_GetREVID,"ax",%progbits
 654              		.align	1
 655              		.p2align 2,,3
 656              		.global	HAL_GetREVID
 657              		.syntax unified
 658              		.code	16
 659              		.thumb_func
 660              		.fpu softvfp
 662              	HAL_GetREVID:
 663              	.LFB48:
 427:Drivers/STM32L0xx_HAL_Driver/Src/stm32l0xx_hal.c **** 
 428:Drivers/STM32L0xx_HAL_Driver/Src/stm32l0xx_hal.c **** /**
 429:Drivers/STM32L0xx_HAL_Driver/Src/stm32l0xx_hal.c ****   * @brief Returns the device revision identifier.
 430:Drivers/STM32L0xx_HAL_Driver/Src/stm32l0xx_hal.c ****   * @retval Device revision identifier
 431:Drivers/STM32L0xx_HAL_Driver/Src/stm32l0xx_hal.c ****   */
 432:Drivers/STM32L0xx_HAL_Driver/Src/stm32l0xx_hal.c **** uint32_t HAL_GetREVID(void)
 433:Drivers/STM32L0xx_HAL_Driver/Src/stm32l0xx_hal.c **** {
 664              		.loc 1 433 1 is_stmt 1 view -0
 665              		.cfi_startproc
 666              		@ args = 0, pretend = 0, frame = 0
 667              		@ frame_needed = 0, uses_anonymous_args = 0
 668              		@ link register save eliminated.
 434:Drivers/STM32L0xx_HAL_Driver/Src/stm32l0xx_hal.c ****   return((DBGMCU->IDCODE) >> 16U);
 669              		.loc 1 434 3 view .LVU136
 670              		.loc 1 434 17 is_stmt 0 view .LVU137
ARM GAS  /tmp/cc60Bu91.s 			page 21


 671 0000 014B     		ldr	r3, .L60
 435:Drivers/STM32L0xx_HAL_Driver/Src/stm32l0xx_hal.c **** }
 672              		.loc 1 435 1 view .LVU138
 673              		@ sp needed
 434:Drivers/STM32L0xx_HAL_Driver/Src/stm32l0xx_hal.c ****   return((DBGMCU->IDCODE) >> 16U);
 674              		.loc 1 434 17 view .LVU139
 675 0002 1868     		ldr	r0, [r3]
 434:Drivers/STM32L0xx_HAL_Driver/Src/stm32l0xx_hal.c ****   return((DBGMCU->IDCODE) >> 16U);
 676              		.loc 1 434 27 view .LVU140
 677 0004 000C     		lsrs	r0, r0, #16
 678              		.loc 1 435 1 view .LVU141
 679 0006 7047     		bx	lr
 680              	.L61:
 681              		.align	2
 682              	.L60:
 683 0008 00580140 		.word	1073829888
 684              		.cfi_endproc
 685              	.LFE48:
 687              		.section	.text.HAL_GetDEVID,"ax",%progbits
 688              		.align	1
 689              		.p2align 2,,3
 690              		.global	HAL_GetDEVID
 691              		.syntax unified
 692              		.code	16
 693              		.thumb_func
 694              		.fpu softvfp
 696              	HAL_GetDEVID:
 697              	.LFB49:
 436:Drivers/STM32L0xx_HAL_Driver/Src/stm32l0xx_hal.c **** 
 437:Drivers/STM32L0xx_HAL_Driver/Src/stm32l0xx_hal.c **** /**
 438:Drivers/STM32L0xx_HAL_Driver/Src/stm32l0xx_hal.c ****   * @brief  Returns the device identifier.
 439:Drivers/STM32L0xx_HAL_Driver/Src/stm32l0xx_hal.c ****   * @retval Device identifier
 440:Drivers/STM32L0xx_HAL_Driver/Src/stm32l0xx_hal.c ****   */
 441:Drivers/STM32L0xx_HAL_Driver/Src/stm32l0xx_hal.c **** uint32_t HAL_GetDEVID(void)
 442:Drivers/STM32L0xx_HAL_Driver/Src/stm32l0xx_hal.c **** {
 698              		.loc 1 442 1 is_stmt 1 view -0
 699              		.cfi_startproc
 700              		@ args = 0, pretend = 0, frame = 0
 701              		@ frame_needed = 0, uses_anonymous_args = 0
 702              		@ link register save eliminated.
 443:Drivers/STM32L0xx_HAL_Driver/Src/stm32l0xx_hal.c ****    return((DBGMCU->IDCODE) & IDCODE_DEVID_MASK);
 703              		.loc 1 443 4 view .LVU143
 704              		.loc 1 443 18 is_stmt 0 view .LVU144
 705 0000 024B     		ldr	r3, .L63
 444:Drivers/STM32L0xx_HAL_Driver/Src/stm32l0xx_hal.c **** }
 706              		.loc 1 444 1 view .LVU145
 707              		@ sp needed
 443:Drivers/STM32L0xx_HAL_Driver/Src/stm32l0xx_hal.c ****    return((DBGMCU->IDCODE) & IDCODE_DEVID_MASK);
 708              		.loc 1 443 18 view .LVU146
 709 0002 1868     		ldr	r0, [r3]
 443:Drivers/STM32L0xx_HAL_Driver/Src/stm32l0xx_hal.c ****    return((DBGMCU->IDCODE) & IDCODE_DEVID_MASK);
 710              		.loc 1 443 28 view .LVU147
 711 0004 0005     		lsls	r0, r0, #20
 712 0006 000D     		lsrs	r0, r0, #20
 713              		.loc 1 444 1 view .LVU148
 714 0008 7047     		bx	lr
 715              	.L64:
ARM GAS  /tmp/cc60Bu91.s 			page 22


 716 000a C046     		.align	2
 717              	.L63:
 718 000c 00580140 		.word	1073829888
 719              		.cfi_endproc
 720              	.LFE49:
 722              		.section	.text.HAL_GetUIDw0,"ax",%progbits
 723              		.align	1
 724              		.p2align 2,,3
 725              		.global	HAL_GetUIDw0
 726              		.syntax unified
 727              		.code	16
 728              		.thumb_func
 729              		.fpu softvfp
 731              	HAL_GetUIDw0:
 732              	.LFB50:
 445:Drivers/STM32L0xx_HAL_Driver/Src/stm32l0xx_hal.c **** 
 446:Drivers/STM32L0xx_HAL_Driver/Src/stm32l0xx_hal.c **** /**
 447:Drivers/STM32L0xx_HAL_Driver/Src/stm32l0xx_hal.c ****   * @brief  Returns the first word of the unique device identifier (UID based on 96 bits)
 448:Drivers/STM32L0xx_HAL_Driver/Src/stm32l0xx_hal.c ****   * @retval Device identifier
 449:Drivers/STM32L0xx_HAL_Driver/Src/stm32l0xx_hal.c ****   */
 450:Drivers/STM32L0xx_HAL_Driver/Src/stm32l0xx_hal.c **** uint32_t HAL_GetUIDw0(void)
 451:Drivers/STM32L0xx_HAL_Driver/Src/stm32l0xx_hal.c **** {
 733              		.loc 1 451 1 is_stmt 1 view -0
 734              		.cfi_startproc
 735              		@ args = 0, pretend = 0, frame = 0
 736              		@ frame_needed = 0, uses_anonymous_args = 0
 737              		@ link register save eliminated.
 452:Drivers/STM32L0xx_HAL_Driver/Src/stm32l0xx_hal.c ****   return(READ_REG(*((uint32_t *)UID_BASE)));
 738              		.loc 1 452 3 view .LVU150
 739              		.loc 1 452 10 is_stmt 0 view .LVU151
 740 0000 014B     		ldr	r3, .L66
 453:Drivers/STM32L0xx_HAL_Driver/Src/stm32l0xx_hal.c **** }
 741              		.loc 1 453 1 view .LVU152
 742              		@ sp needed
 452:Drivers/STM32L0xx_HAL_Driver/Src/stm32l0xx_hal.c ****   return(READ_REG(*((uint32_t *)UID_BASE)));
 743              		.loc 1 452 10 view .LVU153
 744 0002 1868     		ldr	r0, [r3]
 745              		.loc 1 453 1 view .LVU154
 746 0004 7047     		bx	lr
 747              	.L67:
 748 0006 C046     		.align	2
 749              	.L66:
 750 0008 5000F81F 		.word	536346704
 751              		.cfi_endproc
 752              	.LFE50:
 754              		.section	.text.HAL_GetUIDw1,"ax",%progbits
 755              		.align	1
 756              		.p2align 2,,3
 757              		.global	HAL_GetUIDw1
 758              		.syntax unified
 759              		.code	16
 760              		.thumb_func
 761              		.fpu softvfp
 763              	HAL_GetUIDw1:
 764              	.LFB51:
 454:Drivers/STM32L0xx_HAL_Driver/Src/stm32l0xx_hal.c **** 
 455:Drivers/STM32L0xx_HAL_Driver/Src/stm32l0xx_hal.c **** /**
ARM GAS  /tmp/cc60Bu91.s 			page 23


 456:Drivers/STM32L0xx_HAL_Driver/Src/stm32l0xx_hal.c ****   * @brief  Returns the second word of the unique device identifier (UID based on 96 bits)
 457:Drivers/STM32L0xx_HAL_Driver/Src/stm32l0xx_hal.c ****   * @retval Device identifier
 458:Drivers/STM32L0xx_HAL_Driver/Src/stm32l0xx_hal.c ****   */
 459:Drivers/STM32L0xx_HAL_Driver/Src/stm32l0xx_hal.c **** uint32_t HAL_GetUIDw1(void)
 460:Drivers/STM32L0xx_HAL_Driver/Src/stm32l0xx_hal.c **** {
 765              		.loc 1 460 1 is_stmt 1 view -0
 766              		.cfi_startproc
 767              		@ args = 0, pretend = 0, frame = 0
 768              		@ frame_needed = 0, uses_anonymous_args = 0
 769              		@ link register save eliminated.
 461:Drivers/STM32L0xx_HAL_Driver/Src/stm32l0xx_hal.c ****   return(READ_REG(*((uint32_t *)(UID_BASE + 0x04U))));
 770              		.loc 1 461 3 view .LVU156
 771              		.loc 1 461 10 is_stmt 0 view .LVU157
 772 0000 014B     		ldr	r3, .L69
 462:Drivers/STM32L0xx_HAL_Driver/Src/stm32l0xx_hal.c **** }
 773              		.loc 1 462 1 view .LVU158
 774              		@ sp needed
 461:Drivers/STM32L0xx_HAL_Driver/Src/stm32l0xx_hal.c ****   return(READ_REG(*((uint32_t *)(UID_BASE + 0x04U))));
 775              		.loc 1 461 10 view .LVU159
 776 0002 1868     		ldr	r0, [r3]
 777              		.loc 1 462 1 view .LVU160
 778 0004 7047     		bx	lr
 779              	.L70:
 780 0006 C046     		.align	2
 781              	.L69:
 782 0008 5400F81F 		.word	536346708
 783              		.cfi_endproc
 784              	.LFE51:
 786              		.section	.text.HAL_GetUIDw2,"ax",%progbits
 787              		.align	1
 788              		.p2align 2,,3
 789              		.global	HAL_GetUIDw2
 790              		.syntax unified
 791              		.code	16
 792              		.thumb_func
 793              		.fpu softvfp
 795              	HAL_GetUIDw2:
 796              	.LFB52:
 463:Drivers/STM32L0xx_HAL_Driver/Src/stm32l0xx_hal.c **** 
 464:Drivers/STM32L0xx_HAL_Driver/Src/stm32l0xx_hal.c **** /**
 465:Drivers/STM32L0xx_HAL_Driver/Src/stm32l0xx_hal.c ****   * @brief  Returns the third word of the unique device identifier (UID based on 96 bits)
 466:Drivers/STM32L0xx_HAL_Driver/Src/stm32l0xx_hal.c ****   * @retval Device identifier
 467:Drivers/STM32L0xx_HAL_Driver/Src/stm32l0xx_hal.c ****   */
 468:Drivers/STM32L0xx_HAL_Driver/Src/stm32l0xx_hal.c **** uint32_t HAL_GetUIDw2(void)
 469:Drivers/STM32L0xx_HAL_Driver/Src/stm32l0xx_hal.c **** {
 797              		.loc 1 469 1 is_stmt 1 view -0
 798              		.cfi_startproc
 799              		@ args = 0, pretend = 0, frame = 0
 800              		@ frame_needed = 0, uses_anonymous_args = 0
 801              		@ link register save eliminated.
 470:Drivers/STM32L0xx_HAL_Driver/Src/stm32l0xx_hal.c ****   return(READ_REG(*((uint32_t *)(UID_BASE + 0x14U))));
 802              		.loc 1 470 3 view .LVU162
 803              		.loc 1 470 10 is_stmt 0 view .LVU163
 804 0000 014B     		ldr	r3, .L72
 471:Drivers/STM32L0xx_HAL_Driver/Src/stm32l0xx_hal.c **** }
 805              		.loc 1 471 1 view .LVU164
 806              		@ sp needed
ARM GAS  /tmp/cc60Bu91.s 			page 24


 470:Drivers/STM32L0xx_HAL_Driver/Src/stm32l0xx_hal.c ****   return(READ_REG(*((uint32_t *)(UID_BASE + 0x14U))));
 807              		.loc 1 470 10 view .LVU165
 808 0002 1868     		ldr	r0, [r3]
 809              		.loc 1 471 1 view .LVU166
 810 0004 7047     		bx	lr
 811              	.L73:
 812 0006 C046     		.align	2
 813              	.L72:
 814 0008 6400F81F 		.word	536346724
 815              		.cfi_endproc
 816              	.LFE52:
 818              		.section	.text.HAL_DBGMCU_EnableDBGSleepMode,"ax",%progbits
 819              		.align	1
 820              		.p2align 2,,3
 821              		.global	HAL_DBGMCU_EnableDBGSleepMode
 822              		.syntax unified
 823              		.code	16
 824              		.thumb_func
 825              		.fpu softvfp
 827              	HAL_DBGMCU_EnableDBGSleepMode:
 828              	.LFB53:
 472:Drivers/STM32L0xx_HAL_Driver/Src/stm32l0xx_hal.c **** 
 473:Drivers/STM32L0xx_HAL_Driver/Src/stm32l0xx_hal.c **** /**
 474:Drivers/STM32L0xx_HAL_Driver/Src/stm32l0xx_hal.c ****   * @}
 475:Drivers/STM32L0xx_HAL_Driver/Src/stm32l0xx_hal.c ****   */
 476:Drivers/STM32L0xx_HAL_Driver/Src/stm32l0xx_hal.c **** 
 477:Drivers/STM32L0xx_HAL_Driver/Src/stm32l0xx_hal.c **** /** @addtogroup HAL_Exported_Functions_Group2
 478:Drivers/STM32L0xx_HAL_Driver/Src/stm32l0xx_hal.c ****  *  @brief    HAL Debug functions
 479:Drivers/STM32L0xx_HAL_Driver/Src/stm32l0xx_hal.c ****  *
 480:Drivers/STM32L0xx_HAL_Driver/Src/stm32l0xx_hal.c **** @verbatim
 481:Drivers/STM32L0xx_HAL_Driver/Src/stm32l0xx_hal.c ****  ===============================================================================
 482:Drivers/STM32L0xx_HAL_Driver/Src/stm32l0xx_hal.c ****                       ##### HAL Debug functions #####
 483:Drivers/STM32L0xx_HAL_Driver/Src/stm32l0xx_hal.c ****  ===============================================================================
 484:Drivers/STM32L0xx_HAL_Driver/Src/stm32l0xx_hal.c ****     [..]  This section provides functions allowing to:
 485:Drivers/STM32L0xx_HAL_Driver/Src/stm32l0xx_hal.c ****       (+) Enable/Disable Debug module during SLEEP mode
 486:Drivers/STM32L0xx_HAL_Driver/Src/stm32l0xx_hal.c ****       (+) Enable/Disable Debug module during STOP mode
 487:Drivers/STM32L0xx_HAL_Driver/Src/stm32l0xx_hal.c ****       (+) Enable/Disable Debug module during STANDBY mode
 488:Drivers/STM32L0xx_HAL_Driver/Src/stm32l0xx_hal.c **** 
 489:Drivers/STM32L0xx_HAL_Driver/Src/stm32l0xx_hal.c **** @endverbatim
 490:Drivers/STM32L0xx_HAL_Driver/Src/stm32l0xx_hal.c ****   * @{
 491:Drivers/STM32L0xx_HAL_Driver/Src/stm32l0xx_hal.c ****   */
 492:Drivers/STM32L0xx_HAL_Driver/Src/stm32l0xx_hal.c **** 
 493:Drivers/STM32L0xx_HAL_Driver/Src/stm32l0xx_hal.c **** /**
 494:Drivers/STM32L0xx_HAL_Driver/Src/stm32l0xx_hal.c ****   * @brief  Enables the Debug Module during SLEEP mode
 495:Drivers/STM32L0xx_HAL_Driver/Src/stm32l0xx_hal.c ****   * @retval None
 496:Drivers/STM32L0xx_HAL_Driver/Src/stm32l0xx_hal.c ****   */
 497:Drivers/STM32L0xx_HAL_Driver/Src/stm32l0xx_hal.c **** void HAL_DBGMCU_EnableDBGSleepMode(void)
 498:Drivers/STM32L0xx_HAL_Driver/Src/stm32l0xx_hal.c **** {
 829              		.loc 1 498 1 is_stmt 1 view -0
 830              		.cfi_startproc
 831              		@ args = 0, pretend = 0, frame = 0
 832              		@ frame_needed = 0, uses_anonymous_args = 0
 833              		@ link register save eliminated.
 499:Drivers/STM32L0xx_HAL_Driver/Src/stm32l0xx_hal.c ****   SET_BIT(DBGMCU->CR, DBGMCU_CR_DBG_SLEEP);
 834              		.loc 1 499 3 view .LVU168
 835 0000 0121     		movs	r1, #1
 836 0002 024A     		ldr	r2, .L75
ARM GAS  /tmp/cc60Bu91.s 			page 25


 500:Drivers/STM32L0xx_HAL_Driver/Src/stm32l0xx_hal.c **** }
 837              		.loc 1 500 1 is_stmt 0 view .LVU169
 838              		@ sp needed
 499:Drivers/STM32L0xx_HAL_Driver/Src/stm32l0xx_hal.c ****   SET_BIT(DBGMCU->CR, DBGMCU_CR_DBG_SLEEP);
 839              		.loc 1 499 3 view .LVU170
 840 0004 5368     		ldr	r3, [r2, #4]
 841 0006 0B43     		orrs	r3, r1
 842 0008 5360     		str	r3, [r2, #4]
 843              		.loc 1 500 1 view .LVU171
 844 000a 7047     		bx	lr
 845              	.L76:
 846              		.align	2
 847              	.L75:
 848 000c 00580140 		.word	1073829888
 849              		.cfi_endproc
 850              	.LFE53:
 852              		.section	.text.HAL_DBGMCU_DisableDBGSleepMode,"ax",%progbits
 853              		.align	1
 854              		.p2align 2,,3
 855              		.global	HAL_DBGMCU_DisableDBGSleepMode
 856              		.syntax unified
 857              		.code	16
 858              		.thumb_func
 859              		.fpu softvfp
 861              	HAL_DBGMCU_DisableDBGSleepMode:
 862              	.LFB54:
 501:Drivers/STM32L0xx_HAL_Driver/Src/stm32l0xx_hal.c **** 
 502:Drivers/STM32L0xx_HAL_Driver/Src/stm32l0xx_hal.c **** /**
 503:Drivers/STM32L0xx_HAL_Driver/Src/stm32l0xx_hal.c ****   * @brief  Disables the Debug Module during SLEEP mode
 504:Drivers/STM32L0xx_HAL_Driver/Src/stm32l0xx_hal.c ****   * @retval None
 505:Drivers/STM32L0xx_HAL_Driver/Src/stm32l0xx_hal.c ****   */
 506:Drivers/STM32L0xx_HAL_Driver/Src/stm32l0xx_hal.c **** void HAL_DBGMCU_DisableDBGSleepMode(void)
 507:Drivers/STM32L0xx_HAL_Driver/Src/stm32l0xx_hal.c **** {
 863              		.loc 1 507 1 is_stmt 1 view -0
 864              		.cfi_startproc
 865              		@ args = 0, pretend = 0, frame = 0
 866              		@ frame_needed = 0, uses_anonymous_args = 0
 867              		@ link register save eliminated.
 508:Drivers/STM32L0xx_HAL_Driver/Src/stm32l0xx_hal.c ****   CLEAR_BIT(DBGMCU->CR, DBGMCU_CR_DBG_SLEEP);
 868              		.loc 1 508 3 view .LVU173
 869 0000 0121     		movs	r1, #1
 870 0002 024A     		ldr	r2, .L78
 509:Drivers/STM32L0xx_HAL_Driver/Src/stm32l0xx_hal.c **** }
 871              		.loc 1 509 1 is_stmt 0 view .LVU174
 872              		@ sp needed
 508:Drivers/STM32L0xx_HAL_Driver/Src/stm32l0xx_hal.c ****   CLEAR_BIT(DBGMCU->CR, DBGMCU_CR_DBG_SLEEP);
 873              		.loc 1 508 3 view .LVU175
 874 0004 5368     		ldr	r3, [r2, #4]
 875 0006 8B43     		bics	r3, r1
 876 0008 5360     		str	r3, [r2, #4]
 877              		.loc 1 509 1 view .LVU176
 878 000a 7047     		bx	lr
 879              	.L79:
 880              		.align	2
 881              	.L78:
 882 000c 00580140 		.word	1073829888
 883              		.cfi_endproc
ARM GAS  /tmp/cc60Bu91.s 			page 26


 884              	.LFE54:
 886              		.section	.text.HAL_DBGMCU_EnableDBGStopMode,"ax",%progbits
 887              		.align	1
 888              		.p2align 2,,3
 889              		.global	HAL_DBGMCU_EnableDBGStopMode
 890              		.syntax unified
 891              		.code	16
 892              		.thumb_func
 893              		.fpu softvfp
 895              	HAL_DBGMCU_EnableDBGStopMode:
 896              	.LFB55:
 510:Drivers/STM32L0xx_HAL_Driver/Src/stm32l0xx_hal.c **** 
 511:Drivers/STM32L0xx_HAL_Driver/Src/stm32l0xx_hal.c **** /**
 512:Drivers/STM32L0xx_HAL_Driver/Src/stm32l0xx_hal.c ****   * @brief  Enables the Debug Module during STOP mode
 513:Drivers/STM32L0xx_HAL_Driver/Src/stm32l0xx_hal.c ****   * @retval None
 514:Drivers/STM32L0xx_HAL_Driver/Src/stm32l0xx_hal.c ****   */
 515:Drivers/STM32L0xx_HAL_Driver/Src/stm32l0xx_hal.c **** void HAL_DBGMCU_EnableDBGStopMode(void)
 516:Drivers/STM32L0xx_HAL_Driver/Src/stm32l0xx_hal.c **** {
 897              		.loc 1 516 1 is_stmt 1 view -0
 898              		.cfi_startproc
 899              		@ args = 0, pretend = 0, frame = 0
 900              		@ frame_needed = 0, uses_anonymous_args = 0
 901              		@ link register save eliminated.
 517:Drivers/STM32L0xx_HAL_Driver/Src/stm32l0xx_hal.c ****   SET_BIT(DBGMCU->CR, DBGMCU_CR_DBG_STOP);
 902              		.loc 1 517 3 view .LVU178
 903 0000 0221     		movs	r1, #2
 904 0002 024A     		ldr	r2, .L81
 518:Drivers/STM32L0xx_HAL_Driver/Src/stm32l0xx_hal.c **** }
 905              		.loc 1 518 1 is_stmt 0 view .LVU179
 906              		@ sp needed
 517:Drivers/STM32L0xx_HAL_Driver/Src/stm32l0xx_hal.c ****   SET_BIT(DBGMCU->CR, DBGMCU_CR_DBG_STOP);
 907              		.loc 1 517 3 view .LVU180
 908 0004 5368     		ldr	r3, [r2, #4]
 909 0006 0B43     		orrs	r3, r1
 910 0008 5360     		str	r3, [r2, #4]
 911              		.loc 1 518 1 view .LVU181
 912 000a 7047     		bx	lr
 913              	.L82:
 914              		.align	2
 915              	.L81:
 916 000c 00580140 		.word	1073829888
 917              		.cfi_endproc
 918              	.LFE55:
 920              		.section	.text.HAL_DBGMCU_DisableDBGStopMode,"ax",%progbits
 921              		.align	1
 922              		.p2align 2,,3
 923              		.global	HAL_DBGMCU_DisableDBGStopMode
 924              		.syntax unified
 925              		.code	16
 926              		.thumb_func
 927              		.fpu softvfp
 929              	HAL_DBGMCU_DisableDBGStopMode:
 930              	.LFB56:
 519:Drivers/STM32L0xx_HAL_Driver/Src/stm32l0xx_hal.c **** 
 520:Drivers/STM32L0xx_HAL_Driver/Src/stm32l0xx_hal.c **** /**
 521:Drivers/STM32L0xx_HAL_Driver/Src/stm32l0xx_hal.c ****   * @brief  Disables the Debug Module during STOP mode
 522:Drivers/STM32L0xx_HAL_Driver/Src/stm32l0xx_hal.c ****   * @retval None
ARM GAS  /tmp/cc60Bu91.s 			page 27


 523:Drivers/STM32L0xx_HAL_Driver/Src/stm32l0xx_hal.c ****   */
 524:Drivers/STM32L0xx_HAL_Driver/Src/stm32l0xx_hal.c **** void HAL_DBGMCU_DisableDBGStopMode(void)
 525:Drivers/STM32L0xx_HAL_Driver/Src/stm32l0xx_hal.c **** {
 931              		.loc 1 525 1 is_stmt 1 view -0
 932              		.cfi_startproc
 933              		@ args = 0, pretend = 0, frame = 0
 934              		@ frame_needed = 0, uses_anonymous_args = 0
 935              		@ link register save eliminated.
 526:Drivers/STM32L0xx_HAL_Driver/Src/stm32l0xx_hal.c ****   CLEAR_BIT(DBGMCU->CR, DBGMCU_CR_DBG_STOP);
 936              		.loc 1 526 3 view .LVU183
 937 0000 0221     		movs	r1, #2
 938 0002 024A     		ldr	r2, .L84
 527:Drivers/STM32L0xx_HAL_Driver/Src/stm32l0xx_hal.c **** }
 939              		.loc 1 527 1 is_stmt 0 view .LVU184
 940              		@ sp needed
 526:Drivers/STM32L0xx_HAL_Driver/Src/stm32l0xx_hal.c ****   CLEAR_BIT(DBGMCU->CR, DBGMCU_CR_DBG_STOP);
 941              		.loc 1 526 3 view .LVU185
 942 0004 5368     		ldr	r3, [r2, #4]
 943 0006 8B43     		bics	r3, r1
 944 0008 5360     		str	r3, [r2, #4]
 945              		.loc 1 527 1 view .LVU186
 946 000a 7047     		bx	lr
 947              	.L85:
 948              		.align	2
 949              	.L84:
 950 000c 00580140 		.word	1073829888
 951              		.cfi_endproc
 952              	.LFE56:
 954              		.section	.text.HAL_DBGMCU_EnableDBGStandbyMode,"ax",%progbits
 955              		.align	1
 956              		.p2align 2,,3
 957              		.global	HAL_DBGMCU_EnableDBGStandbyMode
 958              		.syntax unified
 959              		.code	16
 960              		.thumb_func
 961              		.fpu softvfp
 963              	HAL_DBGMCU_EnableDBGStandbyMode:
 964              	.LFB57:
 528:Drivers/STM32L0xx_HAL_Driver/Src/stm32l0xx_hal.c **** 
 529:Drivers/STM32L0xx_HAL_Driver/Src/stm32l0xx_hal.c **** /**
 530:Drivers/STM32L0xx_HAL_Driver/Src/stm32l0xx_hal.c ****   * @brief  Enables the Debug Module during STANDBY mode
 531:Drivers/STM32L0xx_HAL_Driver/Src/stm32l0xx_hal.c ****   * @retval None
 532:Drivers/STM32L0xx_HAL_Driver/Src/stm32l0xx_hal.c ****   */
 533:Drivers/STM32L0xx_HAL_Driver/Src/stm32l0xx_hal.c **** void HAL_DBGMCU_EnableDBGStandbyMode(void)
 534:Drivers/STM32L0xx_HAL_Driver/Src/stm32l0xx_hal.c **** {
 965              		.loc 1 534 1 is_stmt 1 view -0
 966              		.cfi_startproc
 967              		@ args = 0, pretend = 0, frame = 0
 968              		@ frame_needed = 0, uses_anonymous_args = 0
 969              		@ link register save eliminated.
 535:Drivers/STM32L0xx_HAL_Driver/Src/stm32l0xx_hal.c ****   SET_BIT(DBGMCU->CR, DBGMCU_CR_DBG_STANDBY);
 970              		.loc 1 535 3 view .LVU188
 971 0000 0421     		movs	r1, #4
 972 0002 024A     		ldr	r2, .L87
 536:Drivers/STM32L0xx_HAL_Driver/Src/stm32l0xx_hal.c **** }
 973              		.loc 1 536 1 is_stmt 0 view .LVU189
 974              		@ sp needed
ARM GAS  /tmp/cc60Bu91.s 			page 28


 535:Drivers/STM32L0xx_HAL_Driver/Src/stm32l0xx_hal.c ****   SET_BIT(DBGMCU->CR, DBGMCU_CR_DBG_STANDBY);
 975              		.loc 1 535 3 view .LVU190
 976 0004 5368     		ldr	r3, [r2, #4]
 977 0006 0B43     		orrs	r3, r1
 978 0008 5360     		str	r3, [r2, #4]
 979              		.loc 1 536 1 view .LVU191
 980 000a 7047     		bx	lr
 981              	.L88:
 982              		.align	2
 983              	.L87:
 984 000c 00580140 		.word	1073829888
 985              		.cfi_endproc
 986              	.LFE57:
 988              		.section	.text.HAL_DBGMCU_DisableDBGStandbyMode,"ax",%progbits
 989              		.align	1
 990              		.p2align 2,,3
 991              		.global	HAL_DBGMCU_DisableDBGStandbyMode
 992              		.syntax unified
 993              		.code	16
 994              		.thumb_func
 995              		.fpu softvfp
 997              	HAL_DBGMCU_DisableDBGStandbyMode:
 998              	.LFB58:
 537:Drivers/STM32L0xx_HAL_Driver/Src/stm32l0xx_hal.c **** 
 538:Drivers/STM32L0xx_HAL_Driver/Src/stm32l0xx_hal.c **** /**
 539:Drivers/STM32L0xx_HAL_Driver/Src/stm32l0xx_hal.c ****   * @brief  Disables the Debug Module during STANDBY mode
 540:Drivers/STM32L0xx_HAL_Driver/Src/stm32l0xx_hal.c ****   * @retval None
 541:Drivers/STM32L0xx_HAL_Driver/Src/stm32l0xx_hal.c ****   */
 542:Drivers/STM32L0xx_HAL_Driver/Src/stm32l0xx_hal.c **** void HAL_DBGMCU_DisableDBGStandbyMode(void)
 543:Drivers/STM32L0xx_HAL_Driver/Src/stm32l0xx_hal.c **** {
 999              		.loc 1 543 1 is_stmt 1 view -0
 1000              		.cfi_startproc
 1001              		@ args = 0, pretend = 0, frame = 0
 1002              		@ frame_needed = 0, uses_anonymous_args = 0
 1003              		@ link register save eliminated.
 544:Drivers/STM32L0xx_HAL_Driver/Src/stm32l0xx_hal.c ****   CLEAR_BIT(DBGMCU->CR, DBGMCU_CR_DBG_STANDBY);
 1004              		.loc 1 544 3 view .LVU193
 1005 0000 0421     		movs	r1, #4
 1006 0002 024A     		ldr	r2, .L90
 545:Drivers/STM32L0xx_HAL_Driver/Src/stm32l0xx_hal.c **** }
 1007              		.loc 1 545 1 is_stmt 0 view .LVU194
 1008              		@ sp needed
 544:Drivers/STM32L0xx_HAL_Driver/Src/stm32l0xx_hal.c ****   CLEAR_BIT(DBGMCU->CR, DBGMCU_CR_DBG_STANDBY);
 1009              		.loc 1 544 3 view .LVU195
 1010 0004 5368     		ldr	r3, [r2, #4]
 1011 0006 8B43     		bics	r3, r1
 1012 0008 5360     		str	r3, [r2, #4]
 1013              		.loc 1 545 1 view .LVU196
 1014 000a 7047     		bx	lr
 1015              	.L91:
 1016              		.align	2
 1017              	.L90:
 1018 000c 00580140 		.word	1073829888
 1019              		.cfi_endproc
 1020              	.LFE58:
 1022              		.section	.text.HAL_DBGMCU_DBG_EnableLowPowerConfig,"ax",%progbits
 1023              		.align	1
ARM GAS  /tmp/cc60Bu91.s 			page 29


 1024              		.p2align 2,,3
 1025              		.global	HAL_DBGMCU_DBG_EnableLowPowerConfig
 1026              		.syntax unified
 1027              		.code	16
 1028              		.thumb_func
 1029              		.fpu softvfp
 1031              	HAL_DBGMCU_DBG_EnableLowPowerConfig:
 1032              	.LVL28:
 1033              	.LFB59:
 546:Drivers/STM32L0xx_HAL_Driver/Src/stm32l0xx_hal.c **** 
 547:Drivers/STM32L0xx_HAL_Driver/Src/stm32l0xx_hal.c **** /**
 548:Drivers/STM32L0xx_HAL_Driver/Src/stm32l0xx_hal.c ****   * @brief  Enable low power mode behavior when the MCU is in Debug mode.
 549:Drivers/STM32L0xx_HAL_Driver/Src/stm32l0xx_hal.c ****   * @param Periph: specifies the low power mode.
 550:Drivers/STM32L0xx_HAL_Driver/Src/stm32l0xx_hal.c ****   *   This parameter can be any combination of the following values:
 551:Drivers/STM32L0xx_HAL_Driver/Src/stm32l0xx_hal.c ****   *     @arg DBGMCU_SLEEP: Keep debugger connection during SLEEP mode
 552:Drivers/STM32L0xx_HAL_Driver/Src/stm32l0xx_hal.c ****   *     @arg DBGMCU_STOP: Keep debugger connection during STOP mode
 553:Drivers/STM32L0xx_HAL_Driver/Src/stm32l0xx_hal.c ****   *     @arg DBGMCU_STANDBY: Keep debugger connection during STANDBY mode
 554:Drivers/STM32L0xx_HAL_Driver/Src/stm32l0xx_hal.c ****   * @retval None
 555:Drivers/STM32L0xx_HAL_Driver/Src/stm32l0xx_hal.c ****   */
 556:Drivers/STM32L0xx_HAL_Driver/Src/stm32l0xx_hal.c **** void HAL_DBGMCU_DBG_EnableLowPowerConfig(uint32_t Periph)
 557:Drivers/STM32L0xx_HAL_Driver/Src/stm32l0xx_hal.c **** {
 1034              		.loc 1 557 1 is_stmt 1 view -0
 1035              		.cfi_startproc
 1036              		@ args = 0, pretend = 0, frame = 0
 1037              		@ frame_needed = 0, uses_anonymous_args = 0
 1038              		@ link register save eliminated.
 558:Drivers/STM32L0xx_HAL_Driver/Src/stm32l0xx_hal.c ****   /* Check the parameters */
 559:Drivers/STM32L0xx_HAL_Driver/Src/stm32l0xx_hal.c ****   assert_param(IS_DBGMCU_PERIPH(Periph));
 1039              		.loc 1 559 3 view .LVU198
 560:Drivers/STM32L0xx_HAL_Driver/Src/stm32l0xx_hal.c **** 
 561:Drivers/STM32L0xx_HAL_Driver/Src/stm32l0xx_hal.c ****   DBGMCU->CR |= Periph;
 1040              		.loc 1 561 3 view .LVU199
 1041              		.loc 1 561 14 is_stmt 0 view .LVU200
 1042 0000 024A     		ldr	r2, .L93
 562:Drivers/STM32L0xx_HAL_Driver/Src/stm32l0xx_hal.c **** 
 563:Drivers/STM32L0xx_HAL_Driver/Src/stm32l0xx_hal.c **** }
 1043              		.loc 1 563 1 view .LVU201
 1044              		@ sp needed
 561:Drivers/STM32L0xx_HAL_Driver/Src/stm32l0xx_hal.c **** 
 1045              		.loc 1 561 14 view .LVU202
 1046 0002 5368     		ldr	r3, [r2, #4]
 1047 0004 0343     		orrs	r3, r0
 1048 0006 5360     		str	r3, [r2, #4]
 1049              		.loc 1 563 1 view .LVU203
 1050 0008 7047     		bx	lr
 1051              	.L94:
 1052 000a C046     		.align	2
 1053              	.L93:
 1054 000c 00580140 		.word	1073829888
 1055              		.cfi_endproc
 1056              	.LFE59:
 1058              		.section	.text.HAL_DBGMCU_DBG_DisableLowPowerConfig,"ax",%progbits
 1059              		.align	1
 1060              		.p2align 2,,3
 1061              		.global	HAL_DBGMCU_DBG_DisableLowPowerConfig
 1062              		.syntax unified
 1063              		.code	16
ARM GAS  /tmp/cc60Bu91.s 			page 30


 1064              		.thumb_func
 1065              		.fpu softvfp
 1067              	HAL_DBGMCU_DBG_DisableLowPowerConfig:
 1068              	.LVL29:
 1069              	.LFB60:
 564:Drivers/STM32L0xx_HAL_Driver/Src/stm32l0xx_hal.c **** /**
 565:Drivers/STM32L0xx_HAL_Driver/Src/stm32l0xx_hal.c ****   * @brief  Disable low power mode behavior when the MCU is in Debug mode.
 566:Drivers/STM32L0xx_HAL_Driver/Src/stm32l0xx_hal.c ****   * @param Periph: specifies the low power mode.
 567:Drivers/STM32L0xx_HAL_Driver/Src/stm32l0xx_hal.c ****   *   This parameter can be any combination of the following values:
 568:Drivers/STM32L0xx_HAL_Driver/Src/stm32l0xx_hal.c ****   *     @arg DBGMCU_SLEEP: Keep debugger connection during SLEEP mode
 569:Drivers/STM32L0xx_HAL_Driver/Src/stm32l0xx_hal.c ****   *     @arg DBGMCU_STOP: Keep debugger connection during STOP mode
 570:Drivers/STM32L0xx_HAL_Driver/Src/stm32l0xx_hal.c ****   *     @arg DBGMCU_STANDBY: Keep debugger connection during STANDBY mode
 571:Drivers/STM32L0xx_HAL_Driver/Src/stm32l0xx_hal.c ****   * @retval None
 572:Drivers/STM32L0xx_HAL_Driver/Src/stm32l0xx_hal.c ****   */
 573:Drivers/STM32L0xx_HAL_Driver/Src/stm32l0xx_hal.c **** void HAL_DBGMCU_DBG_DisableLowPowerConfig(uint32_t Periph)
 574:Drivers/STM32L0xx_HAL_Driver/Src/stm32l0xx_hal.c **** {
 1070              		.loc 1 574 1 is_stmt 1 view -0
 1071              		.cfi_startproc
 1072              		@ args = 0, pretend = 0, frame = 0
 1073              		@ frame_needed = 0, uses_anonymous_args = 0
 1074              		@ link register save eliminated.
 575:Drivers/STM32L0xx_HAL_Driver/Src/stm32l0xx_hal.c ****   /* Check the parameters */
 576:Drivers/STM32L0xx_HAL_Driver/Src/stm32l0xx_hal.c ****   assert_param(IS_DBGMCU_PERIPH(Periph));
 1075              		.loc 1 576 3 view .LVU205
 577:Drivers/STM32L0xx_HAL_Driver/Src/stm32l0xx_hal.c ****   {
 578:Drivers/STM32L0xx_HAL_Driver/Src/stm32l0xx_hal.c ****     DBGMCU->CR &= ~Periph;
 1076              		.loc 1 578 5 view .LVU206
 1077              		.loc 1 578 16 is_stmt 0 view .LVU207
 1078 0000 024A     		ldr	r2, .L96
 579:Drivers/STM32L0xx_HAL_Driver/Src/stm32l0xx_hal.c ****   }
 580:Drivers/STM32L0xx_HAL_Driver/Src/stm32l0xx_hal.c **** }
 1079              		.loc 1 580 1 view .LVU208
 1080              		@ sp needed
 578:Drivers/STM32L0xx_HAL_Driver/Src/stm32l0xx_hal.c ****   }
 1081              		.loc 1 578 16 view .LVU209
 1082 0002 5368     		ldr	r3, [r2, #4]
 1083 0004 8343     		bics	r3, r0
 1084 0006 5360     		str	r3, [r2, #4]
 1085              		.loc 1 580 1 view .LVU210
 1086 0008 7047     		bx	lr
 1087              	.L97:
 1088 000a C046     		.align	2
 1089              	.L96:
 1090 000c 00580140 		.word	1073829888
 1091              		.cfi_endproc
 1092              	.LFE60:
 1094              		.section	.text.HAL_SYSCFG_GetBootMode,"ax",%progbits
 1095              		.align	1
 1096              		.p2align 2,,3
 1097              		.global	HAL_SYSCFG_GetBootMode
 1098              		.syntax unified
 1099              		.code	16
 1100              		.thumb_func
 1101              		.fpu softvfp
 1103              	HAL_SYSCFG_GetBootMode:
 1104              	.LFB61:
 581:Drivers/STM32L0xx_HAL_Driver/Src/stm32l0xx_hal.c **** 
ARM GAS  /tmp/cc60Bu91.s 			page 31


 582:Drivers/STM32L0xx_HAL_Driver/Src/stm32l0xx_hal.c **** /**
 583:Drivers/STM32L0xx_HAL_Driver/Src/stm32l0xx_hal.c ****   * @}
 584:Drivers/STM32L0xx_HAL_Driver/Src/stm32l0xx_hal.c ****   */
 585:Drivers/STM32L0xx_HAL_Driver/Src/stm32l0xx_hal.c **** 
 586:Drivers/STM32L0xx_HAL_Driver/Src/stm32l0xx_hal.c **** /** @addtogroup HAL_Exported_Functions_Group3
 587:Drivers/STM32L0xx_HAL_Driver/Src/stm32l0xx_hal.c ****  *  @brief    HAL SYSCFG configuration functions
 588:Drivers/STM32L0xx_HAL_Driver/Src/stm32l0xx_hal.c ****  *
 589:Drivers/STM32L0xx_HAL_Driver/Src/stm32l0xx_hal.c **** @verbatim
 590:Drivers/STM32L0xx_HAL_Driver/Src/stm32l0xx_hal.c ****  ===============================================================================
 591:Drivers/STM32L0xx_HAL_Driver/Src/stm32l0xx_hal.c ****                       ##### HAL SYSCFG configuration functions #####
 592:Drivers/STM32L0xx_HAL_Driver/Src/stm32l0xx_hal.c ****  ===============================================================================
 593:Drivers/STM32L0xx_HAL_Driver/Src/stm32l0xx_hal.c ****     [..]  This section provides functions allowing to:
 594:Drivers/STM32L0xx_HAL_Driver/Src/stm32l0xx_hal.c ****       (+) Return the boot mode
 595:Drivers/STM32L0xx_HAL_Driver/Src/stm32l0xx_hal.c ****       (+) Select the output of internal reference voltage (VREFINT)
 596:Drivers/STM32L0xx_HAL_Driver/Src/stm32l0xx_hal.c ****       (+) Lock/Unlock the SYSCFG VREF register values
 597:Drivers/STM32L0xx_HAL_Driver/Src/stm32l0xx_hal.c **** 
 598:Drivers/STM32L0xx_HAL_Driver/Src/stm32l0xx_hal.c **** @endverbatim
 599:Drivers/STM32L0xx_HAL_Driver/Src/stm32l0xx_hal.c ****   * @{
 600:Drivers/STM32L0xx_HAL_Driver/Src/stm32l0xx_hal.c ****   */
 601:Drivers/STM32L0xx_HAL_Driver/Src/stm32l0xx_hal.c **** 
 602:Drivers/STM32L0xx_HAL_Driver/Src/stm32l0xx_hal.c **** /**
 603:Drivers/STM32L0xx_HAL_Driver/Src/stm32l0xx_hal.c ****   * @brief  Returns the boot mode as configured by user.
 604:Drivers/STM32L0xx_HAL_Driver/Src/stm32l0xx_hal.c ****   * @retval The boot mode as configured by user. The returned value can be one
 605:Drivers/STM32L0xx_HAL_Driver/Src/stm32l0xx_hal.c ****   *         of the following values:
 606:Drivers/STM32L0xx_HAL_Driver/Src/stm32l0xx_hal.c ****   *              - 0x00000000 : Boot is configured in Main Flash memory
 607:Drivers/STM32L0xx_HAL_Driver/Src/stm32l0xx_hal.c ****   *              - 0x00000100 : Boot is configured in System Flash memory
 608:Drivers/STM32L0xx_HAL_Driver/Src/stm32l0xx_hal.c ****   *              - 0x00000300 : Boot is configured in Embedded SRAM memory
 609:Drivers/STM32L0xx_HAL_Driver/Src/stm32l0xx_hal.c ****   */
 610:Drivers/STM32L0xx_HAL_Driver/Src/stm32l0xx_hal.c **** uint32_t  HAL_SYSCFG_GetBootMode(void)
 611:Drivers/STM32L0xx_HAL_Driver/Src/stm32l0xx_hal.c **** {
 1105              		.loc 1 611 1 is_stmt 1 view -0
 1106              		.cfi_startproc
 1107              		@ args = 0, pretend = 0, frame = 0
 1108              		@ frame_needed = 0, uses_anonymous_args = 0
 1109              		@ link register save eliminated.
 612:Drivers/STM32L0xx_HAL_Driver/Src/stm32l0xx_hal.c ****   return (SYSCFG->CFGR1 & SYSCFG_CFGR1_BOOT_MODE);
 1110              		.loc 1 612 3 view .LVU212
 1111              		.loc 1 612 17 is_stmt 0 view .LVU213
 1112 0000 024B     		ldr	r3, .L99
 613:Drivers/STM32L0xx_HAL_Driver/Src/stm32l0xx_hal.c **** }
 1113              		.loc 1 613 1 view .LVU214
 1114              		@ sp needed
 612:Drivers/STM32L0xx_HAL_Driver/Src/stm32l0xx_hal.c ****   return (SYSCFG->CFGR1 & SYSCFG_CFGR1_BOOT_MODE);
 1115              		.loc 1 612 17 view .LVU215
 1116 0002 1868     		ldr	r0, [r3]
 612:Drivers/STM32L0xx_HAL_Driver/Src/stm32l0xx_hal.c ****   return (SYSCFG->CFGR1 & SYSCFG_CFGR1_BOOT_MODE);
 1117              		.loc 1 612 25 view .LVU216
 1118 0004 C023     		movs	r3, #192
 1119 0006 9B00     		lsls	r3, r3, #2
 1120 0008 1840     		ands	r0, r3
 1121              		.loc 1 613 1 view .LVU217
 1122 000a 7047     		bx	lr
 1123              	.L100:
 1124              		.align	2
 1125              	.L99:
 1126 000c 00000140 		.word	1073807360
 1127              		.cfi_endproc
ARM GAS  /tmp/cc60Bu91.s 			page 32


 1128              	.LFE61:
 1130              		.section	.text.HAL_SYSCFG_VREFINT_OutputSelect,"ax",%progbits
 1131              		.align	1
 1132              		.p2align 2,,3
 1133              		.global	HAL_SYSCFG_VREFINT_OutputSelect
 1134              		.syntax unified
 1135              		.code	16
 1136              		.thumb_func
 1137              		.fpu softvfp
 1139              	HAL_SYSCFG_VREFINT_OutputSelect:
 1140              	.LVL30:
 1141              	.LFB62:
 614:Drivers/STM32L0xx_HAL_Driver/Src/stm32l0xx_hal.c **** 
 615:Drivers/STM32L0xx_HAL_Driver/Src/stm32l0xx_hal.c **** /**
 616:Drivers/STM32L0xx_HAL_Driver/Src/stm32l0xx_hal.c ****   * @brief Selects the output of internal reference voltage (VREFINT).
 617:Drivers/STM32L0xx_HAL_Driver/Src/stm32l0xx_hal.c ****   *        The VREFINT output can be routed to(PB0) or
 618:Drivers/STM32L0xx_HAL_Driver/Src/stm32l0xx_hal.c ****   *        (PB1) or both.
 619:Drivers/STM32L0xx_HAL_Driver/Src/stm32l0xx_hal.c ****   * @param SYSCFG_Vrefint_OUTPUT: new state of the Vrefint output.
 620:Drivers/STM32L0xx_HAL_Driver/Src/stm32l0xx_hal.c ****   *        This parameter can be one of the following values:
 621:Drivers/STM32L0xx_HAL_Driver/Src/stm32l0xx_hal.c ****   *     @arg SYSCFG_VREFINT_OUT_NONE
 622:Drivers/STM32L0xx_HAL_Driver/Src/stm32l0xx_hal.c ****   *     @arg SYSCFG_VREFINT_OUT_PB0
 623:Drivers/STM32L0xx_HAL_Driver/Src/stm32l0xx_hal.c ****   *     @arg SYSCFG_VREFINT_OUT_PB1
 624:Drivers/STM32L0xx_HAL_Driver/Src/stm32l0xx_hal.c ****   *     @arg SYSCFG_VREFINT_OUT_PB0_PB1
 625:Drivers/STM32L0xx_HAL_Driver/Src/stm32l0xx_hal.c ****   * @retval None
 626:Drivers/STM32L0xx_HAL_Driver/Src/stm32l0xx_hal.c ****   */
 627:Drivers/STM32L0xx_HAL_Driver/Src/stm32l0xx_hal.c **** void HAL_SYSCFG_VREFINT_OutputSelect(uint32_t SYSCFG_Vrefint_OUTPUT)
 628:Drivers/STM32L0xx_HAL_Driver/Src/stm32l0xx_hal.c **** {
 1142              		.loc 1 628 1 is_stmt 1 view -0
 1143              		.cfi_startproc
 1144              		@ args = 0, pretend = 0, frame = 0
 1145              		@ frame_needed = 0, uses_anonymous_args = 0
 1146              		@ link register save eliminated.
 629:Drivers/STM32L0xx_HAL_Driver/Src/stm32l0xx_hal.c ****   /* Check the parameters */
 630:Drivers/STM32L0xx_HAL_Driver/Src/stm32l0xx_hal.c ****   assert_param(IS_SYSCFG_VREFINT_OUT_SELECT(SYSCFG_Vrefint_OUTPUT));
 1147              		.loc 1 630 3 view .LVU219
 631:Drivers/STM32L0xx_HAL_Driver/Src/stm32l0xx_hal.c **** 
 632:Drivers/STM32L0xx_HAL_Driver/Src/stm32l0xx_hal.c ****   /* Set the output Vrefint pin */
 633:Drivers/STM32L0xx_HAL_Driver/Src/stm32l0xx_hal.c ****   SYSCFG->CFGR3 &= ~(SYSCFG_CFGR3_VREF_OUT);
 1148              		.loc 1 633 3 view .LVU220
 1149              		.loc 1 633 17 is_stmt 0 view .LVU221
 1150 0000 3022     		movs	r2, #48
 1151 0002 044B     		ldr	r3, .L102
 634:Drivers/STM32L0xx_HAL_Driver/Src/stm32l0xx_hal.c ****   SYSCFG->CFGR3 |= (uint32_t)(SYSCFG_Vrefint_OUTPUT);
 635:Drivers/STM32L0xx_HAL_Driver/Src/stm32l0xx_hal.c **** }
 1152              		.loc 1 635 1 view .LVU222
 1153              		@ sp needed
 633:Drivers/STM32L0xx_HAL_Driver/Src/stm32l0xx_hal.c ****   SYSCFG->CFGR3 |= (uint32_t)(SYSCFG_Vrefint_OUTPUT);
 1154              		.loc 1 633 17 view .LVU223
 1155 0004 196A     		ldr	r1, [r3, #32]
 1156 0006 9143     		bics	r1, r2
 1157 0008 1962     		str	r1, [r3, #32]
 634:Drivers/STM32L0xx_HAL_Driver/Src/stm32l0xx_hal.c ****   SYSCFG->CFGR3 |= (uint32_t)(SYSCFG_Vrefint_OUTPUT);
 1158              		.loc 1 634 3 is_stmt 1 view .LVU224
 634:Drivers/STM32L0xx_HAL_Driver/Src/stm32l0xx_hal.c ****   SYSCFG->CFGR3 |= (uint32_t)(SYSCFG_Vrefint_OUTPUT);
 1159              		.loc 1 634 17 is_stmt 0 view .LVU225
 1160 000a 1A6A     		ldr	r2, [r3, #32]
 1161 000c 0243     		orrs	r2, r0
ARM GAS  /tmp/cc60Bu91.s 			page 33


 1162 000e 1A62     		str	r2, [r3, #32]
 1163              		.loc 1 635 1 view .LVU226
 1164 0010 7047     		bx	lr
 1165              	.L103:
 1166 0012 C046     		.align	2
 1167              	.L102:
 1168 0014 00000140 		.word	1073807360
 1169              		.cfi_endproc
 1170              	.LFE62:
 1172              		.section	.text.HAL_SYSCFG_Enable_Lock_VREFINT,"ax",%progbits
 1173              		.align	1
 1174              		.p2align 2,,3
 1175              		.global	HAL_SYSCFG_Enable_Lock_VREFINT
 1176              		.syntax unified
 1177              		.code	16
 1178              		.thumb_func
 1179              		.fpu softvfp
 1181              	HAL_SYSCFG_Enable_Lock_VREFINT:
 1182              	.LFB63:
 636:Drivers/STM32L0xx_HAL_Driver/Src/stm32l0xx_hal.c **** 
 637:Drivers/STM32L0xx_HAL_Driver/Src/stm32l0xx_hal.c **** /**
 638:Drivers/STM32L0xx_HAL_Driver/Src/stm32l0xx_hal.c ****   * @brief  Lock the SYSCFG VREF register values
 639:Drivers/STM32L0xx_HAL_Driver/Src/stm32l0xx_hal.c ****   * @retval None
 640:Drivers/STM32L0xx_HAL_Driver/Src/stm32l0xx_hal.c ****   */
 641:Drivers/STM32L0xx_HAL_Driver/Src/stm32l0xx_hal.c **** void HAL_SYSCFG_Enable_Lock_VREFINT(void)
 642:Drivers/STM32L0xx_HAL_Driver/Src/stm32l0xx_hal.c **** {
 1183              		.loc 1 642 1 is_stmt 1 view -0
 1184              		.cfi_startproc
 1185              		@ args = 0, pretend = 0, frame = 0
 1186              		@ frame_needed = 0, uses_anonymous_args = 0
 1187              		@ link register save eliminated.
 643:Drivers/STM32L0xx_HAL_Driver/Src/stm32l0xx_hal.c ****     /* Enable the LOCK by setting REF_LOCK bit in the CFGR3 register */
 644:Drivers/STM32L0xx_HAL_Driver/Src/stm32l0xx_hal.c ****     SET_BIT(SYSCFG->CFGR3, SYSCFG_CFGR3_REF_LOCK);
 1188              		.loc 1 644 5 view .LVU228
 1189 0000 8023     		movs	r3, #128
 1190 0002 034A     		ldr	r2, .L105
 1191 0004 1B06     		lsls	r3, r3, #24
 1192 0006 116A     		ldr	r1, [r2, #32]
 645:Drivers/STM32L0xx_HAL_Driver/Src/stm32l0xx_hal.c **** }
 1193              		.loc 1 645 1 is_stmt 0 view .LVU229
 1194              		@ sp needed
 644:Drivers/STM32L0xx_HAL_Driver/Src/stm32l0xx_hal.c **** }
 1195              		.loc 1 644 5 view .LVU230
 1196 0008 0B43     		orrs	r3, r1
 1197 000a 1362     		str	r3, [r2, #32]
 1198              		.loc 1 645 1 view .LVU231
 1199 000c 7047     		bx	lr
 1200              	.L106:
 1201 000e C046     		.align	2
 1202              	.L105:
 1203 0010 00000140 		.word	1073807360
 1204              		.cfi_endproc
 1205              	.LFE63:
 1207              		.section	.text.HAL_SYSCFG_Disable_Lock_VREFINT,"ax",%progbits
 1208              		.align	1
 1209              		.p2align 2,,3
 1210              		.global	HAL_SYSCFG_Disable_Lock_VREFINT
ARM GAS  /tmp/cc60Bu91.s 			page 34


 1211              		.syntax unified
 1212              		.code	16
 1213              		.thumb_func
 1214              		.fpu softvfp
 1216              	HAL_SYSCFG_Disable_Lock_VREFINT:
 1217              	.LFB64:
 646:Drivers/STM32L0xx_HAL_Driver/Src/stm32l0xx_hal.c **** 
 647:Drivers/STM32L0xx_HAL_Driver/Src/stm32l0xx_hal.c **** /**
 648:Drivers/STM32L0xx_HAL_Driver/Src/stm32l0xx_hal.c ****   * @brief  Unlock the overall SYSCFG VREF register values
 649:Drivers/STM32L0xx_HAL_Driver/Src/stm32l0xx_hal.c ****   * @retval None
 650:Drivers/STM32L0xx_HAL_Driver/Src/stm32l0xx_hal.c ****   */
 651:Drivers/STM32L0xx_HAL_Driver/Src/stm32l0xx_hal.c **** void HAL_SYSCFG_Disable_Lock_VREFINT(void)
 652:Drivers/STM32L0xx_HAL_Driver/Src/stm32l0xx_hal.c **** {
 1218              		.loc 1 652 1 is_stmt 1 view -0
 1219              		.cfi_startproc
 1220              		@ args = 0, pretend = 0, frame = 0
 1221              		@ frame_needed = 0, uses_anonymous_args = 0
 1222              		@ link register save eliminated.
 653:Drivers/STM32L0xx_HAL_Driver/Src/stm32l0xx_hal.c ****     /* Disable the LOCK by setting REF_LOCK bit in the CFGR3 register */
 654:Drivers/STM32L0xx_HAL_Driver/Src/stm32l0xx_hal.c ****     CLEAR_BIT(SYSCFG->CFGR3, SYSCFG_CFGR3_REF_LOCK);
 1223              		.loc 1 654 5 view .LVU233
 1224 0000 024A     		ldr	r2, .L108
 655:Drivers/STM32L0xx_HAL_Driver/Src/stm32l0xx_hal.c **** }
 1225              		.loc 1 655 1 is_stmt 0 view .LVU234
 1226              		@ sp needed
 654:Drivers/STM32L0xx_HAL_Driver/Src/stm32l0xx_hal.c **** }
 1227              		.loc 1 654 5 view .LVU235
 1228 0002 136A     		ldr	r3, [r2, #32]
 1229 0004 5B00     		lsls	r3, r3, #1
 1230 0006 5B08     		lsrs	r3, r3, #1
 1231 0008 1362     		str	r3, [r2, #32]
 1232              		.loc 1 655 1 view .LVU236
 1233 000a 7047     		bx	lr
 1234              	.L109:
 1235              		.align	2
 1236              	.L108:
 1237 000c 00000140 		.word	1073807360
 1238              		.cfi_endproc
 1239              	.LFE64:
 1241              		.global	uwTickFreq
 1242              		.global	uwTickPrio
 1243              		.comm	uwTick,4,4
 1244              		.section	.data.uwTickFreq,"aw"
 1245              		.set	.LANCHOR0,. + 0
 1248              	uwTickFreq:
 1249 0000 01       		.byte	1
 1250              		.section	.data.uwTickPrio,"aw"
 1251              		.align	2
 1252              		.set	.LANCHOR1,. + 0
 1255              	uwTickPrio:
 1256 0000 04000000 		.word	4
 1257              		.text
 1258              	.Letext0:
 1259              		.file 2 "/usr/lib/gcc/arm-none-eabi/9.2.1/include/stdint.h"
 1260              		.file 3 "Drivers/CMSIS/Include/core_cm0plus.h"
 1261              		.file 4 "Drivers/CMSIS/Device/ST/STM32L0xx/Include/system_stm32l0xx.h"
 1262              		.file 5 "Drivers/CMSIS/Device/ST/STM32L0xx/Include/stm32l031xx.h"
ARM GAS  /tmp/cc60Bu91.s 			page 35


 1263              		.file 6 "Drivers/STM32L0xx_HAL_Driver/Inc/stm32l0xx_hal_def.h"
 1264              		.file 7 "Drivers/STM32L0xx_HAL_Driver/Inc/stm32l0xx_hal.h"
 1265              		.file 8 "Drivers/STM32L0xx_HAL_Driver/Inc/stm32l0xx_hal_cortex.h"
ARM GAS  /tmp/cc60Bu91.s 			page 36


DEFINED SYMBOLS
                            *ABS*:0000000000000000 stm32l0xx_hal.c
     /tmp/cc60Bu91.s:16     .text.HAL_MspInit:0000000000000000 $t
     /tmp/cc60Bu91.s:25     .text.HAL_MspInit:0000000000000000 HAL_MspInit
     /tmp/cc60Bu91.s:40     .text.HAL_MspDeInit:0000000000000000 $t
     /tmp/cc60Bu91.s:48     .text.HAL_MspDeInit:0000000000000000 HAL_MspDeInit
     /tmp/cc60Bu91.s:60     .text.HAL_DeInit:0000000000000000 $t
     /tmp/cc60Bu91.s:68     .text.HAL_DeInit:0000000000000000 HAL_DeInit
     /tmp/cc60Bu91.s:113    .text.HAL_DeInit:0000000000000024 $d
     /tmp/cc60Bu91.s:120    .text.HAL_InitTick:0000000000000000 $t
     /tmp/cc60Bu91.s:128    .text.HAL_InitTick:0000000000000000 HAL_InitTick
     /tmp/cc60Bu91.s:209    .text.HAL_InitTick:0000000000000040 $d
     /tmp/cc60Bu91.s:216    .text.HAL_Init:0000000000000000 $t
     /tmp/cc60Bu91.s:224    .text.HAL_Init:0000000000000000 HAL_Init
     /tmp/cc60Bu91.s:275    .text.HAL_Init:0000000000000024 $d
     /tmp/cc60Bu91.s:280    .text.HAL_IncTick:0000000000000000 $t
     /tmp/cc60Bu91.s:288    .text.HAL_IncTick:0000000000000000 HAL_IncTick
     /tmp/cc60Bu91.s:311    .text.HAL_IncTick:0000000000000010 $d
                            *COM*:0000000000000004 uwTick
     /tmp/cc60Bu91.s:317    .text.HAL_GetTick:0000000000000000 $t
     /tmp/cc60Bu91.s:325    .text.HAL_GetTick:0000000000000000 HAL_GetTick
     /tmp/cc60Bu91.s:344    .text.HAL_GetTick:0000000000000008 $d
     /tmp/cc60Bu91.s:349    .text.HAL_GetTickPrio:0000000000000000 $t
     /tmp/cc60Bu91.s:357    .text.HAL_GetTickPrio:0000000000000000 HAL_GetTickPrio
     /tmp/cc60Bu91.s:376    .text.HAL_GetTickPrio:0000000000000008 $d
     /tmp/cc60Bu91.s:381    .text.HAL_SetTickFreq:0000000000000000 $t
     /tmp/cc60Bu91.s:389    .text.HAL_SetTickFreq:0000000000000000 HAL_SetTickFreq
     /tmp/cc60Bu91.s:449    .text.HAL_SetTickFreq:0000000000000024 $d
     /tmp/cc60Bu91.s:455    .text.HAL_GetTickFreq:0000000000000000 $t
     /tmp/cc60Bu91.s:463    .text.HAL_GetTickFreq:0000000000000000 HAL_GetTickFreq
     /tmp/cc60Bu91.s:482    .text.HAL_GetTickFreq:0000000000000008 $d
     /tmp/cc60Bu91.s:487    .text.HAL_Delay:0000000000000000 $t
     /tmp/cc60Bu91.s:495    .text.HAL_Delay:0000000000000000 HAL_Delay
     /tmp/cc60Bu91.s:551    .text.HAL_Delay:0000000000000020 $d
     /tmp/cc60Bu91.s:556    .text.HAL_SuspendTick:0000000000000000 $t
     /tmp/cc60Bu91.s:564    .text.HAL_SuspendTick:0000000000000000 HAL_SuspendTick
     /tmp/cc60Bu91.s:586    .text.HAL_SuspendTick:000000000000000c $d
     /tmp/cc60Bu91.s:591    .text.HAL_ResumeTick:0000000000000000 $t
     /tmp/cc60Bu91.s:599    .text.HAL_ResumeTick:0000000000000000 HAL_ResumeTick
     /tmp/cc60Bu91.s:621    .text.HAL_ResumeTick:000000000000000c $d
     /tmp/cc60Bu91.s:626    .text.HAL_GetHalVersion:0000000000000000 $t
     /tmp/cc60Bu91.s:634    .text.HAL_GetHalVersion:0000000000000000 HAL_GetHalVersion
     /tmp/cc60Bu91.s:649    .text.HAL_GetHalVersion:0000000000000004 $d
     /tmp/cc60Bu91.s:654    .text.HAL_GetREVID:0000000000000000 $t
     /tmp/cc60Bu91.s:662    .text.HAL_GetREVID:0000000000000000 HAL_GetREVID
     /tmp/cc60Bu91.s:683    .text.HAL_GetREVID:0000000000000008 $d
     /tmp/cc60Bu91.s:688    .text.HAL_GetDEVID:0000000000000000 $t
     /tmp/cc60Bu91.s:696    .text.HAL_GetDEVID:0000000000000000 HAL_GetDEVID
     /tmp/cc60Bu91.s:718    .text.HAL_GetDEVID:000000000000000c $d
     /tmp/cc60Bu91.s:723    .text.HAL_GetUIDw0:0000000000000000 $t
     /tmp/cc60Bu91.s:731    .text.HAL_GetUIDw0:0000000000000000 HAL_GetUIDw0
     /tmp/cc60Bu91.s:750    .text.HAL_GetUIDw0:0000000000000008 $d
     /tmp/cc60Bu91.s:755    .text.HAL_GetUIDw1:0000000000000000 $t
     /tmp/cc60Bu91.s:763    .text.HAL_GetUIDw1:0000000000000000 HAL_GetUIDw1
     /tmp/cc60Bu91.s:782    .text.HAL_GetUIDw1:0000000000000008 $d
     /tmp/cc60Bu91.s:787    .text.HAL_GetUIDw2:0000000000000000 $t
     /tmp/cc60Bu91.s:795    .text.HAL_GetUIDw2:0000000000000000 HAL_GetUIDw2
ARM GAS  /tmp/cc60Bu91.s 			page 37


     /tmp/cc60Bu91.s:814    .text.HAL_GetUIDw2:0000000000000008 $d
     /tmp/cc60Bu91.s:819    .text.HAL_DBGMCU_EnableDBGSleepMode:0000000000000000 $t
     /tmp/cc60Bu91.s:827    .text.HAL_DBGMCU_EnableDBGSleepMode:0000000000000000 HAL_DBGMCU_EnableDBGSleepMode
     /tmp/cc60Bu91.s:848    .text.HAL_DBGMCU_EnableDBGSleepMode:000000000000000c $d
     /tmp/cc60Bu91.s:853    .text.HAL_DBGMCU_DisableDBGSleepMode:0000000000000000 $t
     /tmp/cc60Bu91.s:861    .text.HAL_DBGMCU_DisableDBGSleepMode:0000000000000000 HAL_DBGMCU_DisableDBGSleepMode
     /tmp/cc60Bu91.s:882    .text.HAL_DBGMCU_DisableDBGSleepMode:000000000000000c $d
     /tmp/cc60Bu91.s:887    .text.HAL_DBGMCU_EnableDBGStopMode:0000000000000000 $t
     /tmp/cc60Bu91.s:895    .text.HAL_DBGMCU_EnableDBGStopMode:0000000000000000 HAL_DBGMCU_EnableDBGStopMode
     /tmp/cc60Bu91.s:916    .text.HAL_DBGMCU_EnableDBGStopMode:000000000000000c $d
     /tmp/cc60Bu91.s:921    .text.HAL_DBGMCU_DisableDBGStopMode:0000000000000000 $t
     /tmp/cc60Bu91.s:929    .text.HAL_DBGMCU_DisableDBGStopMode:0000000000000000 HAL_DBGMCU_DisableDBGStopMode
     /tmp/cc60Bu91.s:950    .text.HAL_DBGMCU_DisableDBGStopMode:000000000000000c $d
     /tmp/cc60Bu91.s:955    .text.HAL_DBGMCU_EnableDBGStandbyMode:0000000000000000 $t
     /tmp/cc60Bu91.s:963    .text.HAL_DBGMCU_EnableDBGStandbyMode:0000000000000000 HAL_DBGMCU_EnableDBGStandbyMode
     /tmp/cc60Bu91.s:984    .text.HAL_DBGMCU_EnableDBGStandbyMode:000000000000000c $d
     /tmp/cc60Bu91.s:989    .text.HAL_DBGMCU_DisableDBGStandbyMode:0000000000000000 $t
     /tmp/cc60Bu91.s:997    .text.HAL_DBGMCU_DisableDBGStandbyMode:0000000000000000 HAL_DBGMCU_DisableDBGStandbyMode
     /tmp/cc60Bu91.s:1018   .text.HAL_DBGMCU_DisableDBGStandbyMode:000000000000000c $d
     /tmp/cc60Bu91.s:1023   .text.HAL_DBGMCU_DBG_EnableLowPowerConfig:0000000000000000 $t
     /tmp/cc60Bu91.s:1031   .text.HAL_DBGMCU_DBG_EnableLowPowerConfig:0000000000000000 HAL_DBGMCU_DBG_EnableLowPowerConfig
     /tmp/cc60Bu91.s:1054   .text.HAL_DBGMCU_DBG_EnableLowPowerConfig:000000000000000c $d
     /tmp/cc60Bu91.s:1059   .text.HAL_DBGMCU_DBG_DisableLowPowerConfig:0000000000000000 $t
     /tmp/cc60Bu91.s:1067   .text.HAL_DBGMCU_DBG_DisableLowPowerConfig:0000000000000000 HAL_DBGMCU_DBG_DisableLowPowerConfig
     /tmp/cc60Bu91.s:1090   .text.HAL_DBGMCU_DBG_DisableLowPowerConfig:000000000000000c $d
     /tmp/cc60Bu91.s:1095   .text.HAL_SYSCFG_GetBootMode:0000000000000000 $t
     /tmp/cc60Bu91.s:1103   .text.HAL_SYSCFG_GetBootMode:0000000000000000 HAL_SYSCFG_GetBootMode
     /tmp/cc60Bu91.s:1126   .text.HAL_SYSCFG_GetBootMode:000000000000000c $d
     /tmp/cc60Bu91.s:1131   .text.HAL_SYSCFG_VREFINT_OutputSelect:0000000000000000 $t
     /tmp/cc60Bu91.s:1139   .text.HAL_SYSCFG_VREFINT_OutputSelect:0000000000000000 HAL_SYSCFG_VREFINT_OutputSelect
     /tmp/cc60Bu91.s:1168   .text.HAL_SYSCFG_VREFINT_OutputSelect:0000000000000014 $d
     /tmp/cc60Bu91.s:1173   .text.HAL_SYSCFG_Enable_Lock_VREFINT:0000000000000000 $t
     /tmp/cc60Bu91.s:1181   .text.HAL_SYSCFG_Enable_Lock_VREFINT:0000000000000000 HAL_SYSCFG_Enable_Lock_VREFINT
     /tmp/cc60Bu91.s:1203   .text.HAL_SYSCFG_Enable_Lock_VREFINT:0000000000000010 $d
     /tmp/cc60Bu91.s:1208   .text.HAL_SYSCFG_Disable_Lock_VREFINT:0000000000000000 $t
     /tmp/cc60Bu91.s:1216   .text.HAL_SYSCFG_Disable_Lock_VREFINT:0000000000000000 HAL_SYSCFG_Disable_Lock_VREFINT
     /tmp/cc60Bu91.s:1237   .text.HAL_SYSCFG_Disable_Lock_VREFINT:000000000000000c $d
     /tmp/cc60Bu91.s:1248   .data.uwTickFreq:0000000000000000 uwTickFreq
     /tmp/cc60Bu91.s:1255   .data.uwTickPrio:0000000000000000 uwTickPrio
     /tmp/cc60Bu91.s:1251   .data.uwTickPrio:0000000000000000 $d

UNDEFINED SYMBOLS
__aeabi_uidiv
__aeabi_idiv
HAL_SYSTICK_Config
HAL_NVIC_SetPriority
SystemCoreClock
