ARM GAS  /tmp/ccp6wyhs.s 			page 1


   1              		.cpu cortex-m0plus
   2              		.eabi_attribute 20, 1
   3              		.eabi_attribute 21, 1
   4              		.eabi_attribute 23, 3
   5              		.eabi_attribute 24, 1
   6              		.eabi_attribute 25, 1
   7              		.eabi_attribute 26, 1
   8              		.eabi_attribute 30, 2
   9              		.eabi_attribute 34, 0
  10              		.eabi_attribute 18, 4
  11              		.file	"stm32l0xx_hal_gpio.c"
  12              		.text
  13              	.Ltext0:
  14              		.cfi_sections	.debug_frame
  15              		.section	.text.HAL_GPIO_Init,"ax",%progbits
  16              		.align	1
  17              		.p2align 2,,3
  18              		.global	HAL_GPIO_Init
  19              		.arch armv6s-m
  20              		.syntax unified
  21              		.code	16
  22              		.thumb_func
  23              		.fpu softvfp
  25              	HAL_GPIO_Init:
  26              	.LVL0:
  27              	.LFB34:
  28              		.file 1 "Drivers/STM32L0xx_HAL_Driver/Src/stm32l0xx_hal_gpio.c"
   1:Drivers/STM32L0xx_HAL_Driver/Src/stm32l0xx_hal_gpio.c **** /**
   2:Drivers/STM32L0xx_HAL_Driver/Src/stm32l0xx_hal_gpio.c ****   ******************************************************************************
   3:Drivers/STM32L0xx_HAL_Driver/Src/stm32l0xx_hal_gpio.c ****   * @file    stm32l0xx_hal_gpio.c
   4:Drivers/STM32L0xx_HAL_Driver/Src/stm32l0xx_hal_gpio.c ****   * @author  MCD Application Team
   5:Drivers/STM32L0xx_HAL_Driver/Src/stm32l0xx_hal_gpio.c ****   * @brief   GPIO HAL module driver.
   6:Drivers/STM32L0xx_HAL_Driver/Src/stm32l0xx_hal_gpio.c ****   *          This file provides firmware functions to manage the following
   7:Drivers/STM32L0xx_HAL_Driver/Src/stm32l0xx_hal_gpio.c ****   *          functionalities of the General Purpose Input/Output (GPIO) peripheral:
   8:Drivers/STM32L0xx_HAL_Driver/Src/stm32l0xx_hal_gpio.c ****   *           + Initialization and de-initialization functions
   9:Drivers/STM32L0xx_HAL_Driver/Src/stm32l0xx_hal_gpio.c ****   *           + IO operation functions
  10:Drivers/STM32L0xx_HAL_Driver/Src/stm32l0xx_hal_gpio.c ****   *
  11:Drivers/STM32L0xx_HAL_Driver/Src/stm32l0xx_hal_gpio.c ****   @verbatim
  12:Drivers/STM32L0xx_HAL_Driver/Src/stm32l0xx_hal_gpio.c ****   ==============================================================================
  13:Drivers/STM32L0xx_HAL_Driver/Src/stm32l0xx_hal_gpio.c ****                     ##### GPIO Peripheral features #####
  14:Drivers/STM32L0xx_HAL_Driver/Src/stm32l0xx_hal_gpio.c ****   ==============================================================================
  15:Drivers/STM32L0xx_HAL_Driver/Src/stm32l0xx_hal_gpio.c ****   [..]
  16:Drivers/STM32L0xx_HAL_Driver/Src/stm32l0xx_hal_gpio.c ****     (+) Each port bit of the general-purpose I/O (GPIO) ports can be individually
  17:Drivers/STM32L0xx_HAL_Driver/Src/stm32l0xx_hal_gpio.c ****   configured by software in several modes:
  18:Drivers/STM32L0xx_HAL_Driver/Src/stm32l0xx_hal_gpio.c ****         (++) Input mode
  19:Drivers/STM32L0xx_HAL_Driver/Src/stm32l0xx_hal_gpio.c ****         (++) Analog mode
  20:Drivers/STM32L0xx_HAL_Driver/Src/stm32l0xx_hal_gpio.c ****         (++) Output mode
  21:Drivers/STM32L0xx_HAL_Driver/Src/stm32l0xx_hal_gpio.c ****         (++) Alternate function mode
  22:Drivers/STM32L0xx_HAL_Driver/Src/stm32l0xx_hal_gpio.c ****         (++) External interrupt/event lines
  23:Drivers/STM32L0xx_HAL_Driver/Src/stm32l0xx_hal_gpio.c **** 
  24:Drivers/STM32L0xx_HAL_Driver/Src/stm32l0xx_hal_gpio.c ****     (+) During and just after reset, the alternate functions and external interrupt
  25:Drivers/STM32L0xx_HAL_Driver/Src/stm32l0xx_hal_gpio.c ****   lines are not active and the I/O ports are configured in input floating mode.
  26:Drivers/STM32L0xx_HAL_Driver/Src/stm32l0xx_hal_gpio.c **** 
  27:Drivers/STM32L0xx_HAL_Driver/Src/stm32l0xx_hal_gpio.c ****     (+) All GPIO pins have weak internal pull-up and pull-down resistors, which can be
  28:Drivers/STM32L0xx_HAL_Driver/Src/stm32l0xx_hal_gpio.c ****   activated or not.
  29:Drivers/STM32L0xx_HAL_Driver/Src/stm32l0xx_hal_gpio.c **** 
  30:Drivers/STM32L0xx_HAL_Driver/Src/stm32l0xx_hal_gpio.c ****     (+) In Output or Alternate mode, each IO can be configured on open-drain or push-pull
ARM GAS  /tmp/ccp6wyhs.s 			page 2


  31:Drivers/STM32L0xx_HAL_Driver/Src/stm32l0xx_hal_gpio.c ****   type and the IO speed can be selected depending on the VDD value.
  32:Drivers/STM32L0xx_HAL_Driver/Src/stm32l0xx_hal_gpio.c **** 
  33:Drivers/STM32L0xx_HAL_Driver/Src/stm32l0xx_hal_gpio.c ****     (+) The microcontroller IO pins are connected to onboard peripherals/modules through a
  34:Drivers/STM32L0xx_HAL_Driver/Src/stm32l0xx_hal_gpio.c ****         multiplexer that allows only one peripheral alternate function (AF) connected
  35:Drivers/STM32L0xx_HAL_Driver/Src/stm32l0xx_hal_gpio.c ****   to an IO pin at a time. In this way, there can be no conflict between peripherals
  36:Drivers/STM32L0xx_HAL_Driver/Src/stm32l0xx_hal_gpio.c ****   sharing the same IO pin.
  37:Drivers/STM32L0xx_HAL_Driver/Src/stm32l0xx_hal_gpio.c **** 
  38:Drivers/STM32L0xx_HAL_Driver/Src/stm32l0xx_hal_gpio.c ****     (+) All ports have external interrupt/event capability. To use external interrupt
  39:Drivers/STM32L0xx_HAL_Driver/Src/stm32l0xx_hal_gpio.c ****   lines, the port must be configured in input mode. All available GPIO pins are
  40:Drivers/STM32L0xx_HAL_Driver/Src/stm32l0xx_hal_gpio.c ****   connected to the 16 external interrupt/event lines from EXTI0 to EXTI15.
  41:Drivers/STM32L0xx_HAL_Driver/Src/stm32l0xx_hal_gpio.c **** 
  42:Drivers/STM32L0xx_HAL_Driver/Src/stm32l0xx_hal_gpio.c ****     (+) The external interrupt/event controller consists of up to 28 edge detectors
  43:Drivers/STM32L0xx_HAL_Driver/Src/stm32l0xx_hal_gpio.c ****   (16 lines are connected to GPIO) for generating event/interrupt requests (each
  44:Drivers/STM32L0xx_HAL_Driver/Src/stm32l0xx_hal_gpio.c ****   input line can be independently configured to select the type (interrupt or event)
  45:Drivers/STM32L0xx_HAL_Driver/Src/stm32l0xx_hal_gpio.c ****   and the corresponding trigger event (rising or falling or both). Each line can
  46:Drivers/STM32L0xx_HAL_Driver/Src/stm32l0xx_hal_gpio.c ****   also be masked independently.
  47:Drivers/STM32L0xx_HAL_Driver/Src/stm32l0xx_hal_gpio.c **** 
  48:Drivers/STM32L0xx_HAL_Driver/Src/stm32l0xx_hal_gpio.c ****                      ##### How to use this driver #####
  49:Drivers/STM32L0xx_HAL_Driver/Src/stm32l0xx_hal_gpio.c ****   ==============================================================================
  50:Drivers/STM32L0xx_HAL_Driver/Src/stm32l0xx_hal_gpio.c ****   [..]
  51:Drivers/STM32L0xx_HAL_Driver/Src/stm32l0xx_hal_gpio.c ****     (#) Enable the GPIO IOPORT clock using the following function: __HAL_RCC_GPIOx_CLK_ENABLE().
  52:Drivers/STM32L0xx_HAL_Driver/Src/stm32l0xx_hal_gpio.c **** 
  53:Drivers/STM32L0xx_HAL_Driver/Src/stm32l0xx_hal_gpio.c ****     (#) Configure the GPIO pin(s) using HAL_GPIO_Init().
  54:Drivers/STM32L0xx_HAL_Driver/Src/stm32l0xx_hal_gpio.c ****         (++) Configure the IO mode using "Mode" member from GPIO_InitTypeDef structure
  55:Drivers/STM32L0xx_HAL_Driver/Src/stm32l0xx_hal_gpio.c ****         (++) Activate Pull-up, Pull-down resistor using "Pull" member from GPIO_InitTypeDef
  56:Drivers/STM32L0xx_HAL_Driver/Src/stm32l0xx_hal_gpio.c ****              structure.
  57:Drivers/STM32L0xx_HAL_Driver/Src/stm32l0xx_hal_gpio.c ****         (++) In case of Output or alternate function mode selection: the speed is
  58:Drivers/STM32L0xx_HAL_Driver/Src/stm32l0xx_hal_gpio.c ****              configured through "Speed" member from GPIO_InitTypeDef structure.
  59:Drivers/STM32L0xx_HAL_Driver/Src/stm32l0xx_hal_gpio.c ****         (++) In alternate mode is selection, the alternate function connected to the IO
  60:Drivers/STM32L0xx_HAL_Driver/Src/stm32l0xx_hal_gpio.c ****              is configured through "Alternate" member from GPIO_InitTypeDef structure.
  61:Drivers/STM32L0xx_HAL_Driver/Src/stm32l0xx_hal_gpio.c ****         (++) Analog mode is required when a pin is to be used as ADC channel
  62:Drivers/STM32L0xx_HAL_Driver/Src/stm32l0xx_hal_gpio.c ****              or DAC output.
  63:Drivers/STM32L0xx_HAL_Driver/Src/stm32l0xx_hal_gpio.c ****         (++) In case of external interrupt/event selection the "Mode" member from
  64:Drivers/STM32L0xx_HAL_Driver/Src/stm32l0xx_hal_gpio.c ****              GPIO_InitTypeDef structure select the type (interrupt or event) and
  65:Drivers/STM32L0xx_HAL_Driver/Src/stm32l0xx_hal_gpio.c ****              the corresponding trigger event (rising or falling or both).
  66:Drivers/STM32L0xx_HAL_Driver/Src/stm32l0xx_hal_gpio.c **** 
  67:Drivers/STM32L0xx_HAL_Driver/Src/stm32l0xx_hal_gpio.c ****     (#) In case of external interrupt/event mode selection, configure NVIC IRQ priority
  68:Drivers/STM32L0xx_HAL_Driver/Src/stm32l0xx_hal_gpio.c ****         mapped to the EXTI line using HAL_NVIC_SetPriority() and enable it using
  69:Drivers/STM32L0xx_HAL_Driver/Src/stm32l0xx_hal_gpio.c ****         HAL_NVIC_EnableIRQ().
  70:Drivers/STM32L0xx_HAL_Driver/Src/stm32l0xx_hal_gpio.c **** 
  71:Drivers/STM32L0xx_HAL_Driver/Src/stm32l0xx_hal_gpio.c ****    (#) HAL_GPIO_DeInit allows to set register values to their reset value. This function
  72:Drivers/STM32L0xx_HAL_Driver/Src/stm32l0xx_hal_gpio.c ****        is also to be used when unconfiguring pin which was used as an external interrupt
  73:Drivers/STM32L0xx_HAL_Driver/Src/stm32l0xx_hal_gpio.c ****        or in event mode. That is the only way to reset the corresponding bit in
  74:Drivers/STM32L0xx_HAL_Driver/Src/stm32l0xx_hal_gpio.c ****        EXTI & SYSCFG registers.
  75:Drivers/STM32L0xx_HAL_Driver/Src/stm32l0xx_hal_gpio.c **** 
  76:Drivers/STM32L0xx_HAL_Driver/Src/stm32l0xx_hal_gpio.c ****     (#) To get the level of a pin configured in input mode use HAL_GPIO_ReadPin().
  77:Drivers/STM32L0xx_HAL_Driver/Src/stm32l0xx_hal_gpio.c **** 
  78:Drivers/STM32L0xx_HAL_Driver/Src/stm32l0xx_hal_gpio.c ****     (#) To set/reset the level of a pin configured in output mode use
  79:Drivers/STM32L0xx_HAL_Driver/Src/stm32l0xx_hal_gpio.c ****         HAL_GPIO_WritePin()/HAL_GPIO_TogglePin().
  80:Drivers/STM32L0xx_HAL_Driver/Src/stm32l0xx_hal_gpio.c **** 
  81:Drivers/STM32L0xx_HAL_Driver/Src/stm32l0xx_hal_gpio.c ****     (#) To lock pin configuration until next reset use HAL_GPIO_LockPin().
  82:Drivers/STM32L0xx_HAL_Driver/Src/stm32l0xx_hal_gpio.c **** 
  83:Drivers/STM32L0xx_HAL_Driver/Src/stm32l0xx_hal_gpio.c ****     (#) During and just after reset, the alternate functions are not
  84:Drivers/STM32L0xx_HAL_Driver/Src/stm32l0xx_hal_gpio.c ****         active and the GPIO pins are configured in input floating mode (except JTAG
  85:Drivers/STM32L0xx_HAL_Driver/Src/stm32l0xx_hal_gpio.c ****         pins).
  86:Drivers/STM32L0xx_HAL_Driver/Src/stm32l0xx_hal_gpio.c **** 
  87:Drivers/STM32L0xx_HAL_Driver/Src/stm32l0xx_hal_gpio.c ****     (#) The LSE oscillator pins OSC32_IN and OSC32_OUT can be used as general purpose
ARM GAS  /tmp/ccp6wyhs.s 			page 3


  88:Drivers/STM32L0xx_HAL_Driver/Src/stm32l0xx_hal_gpio.c ****         (PC14 and PC15, respectively) when the LSE oscillator is off. The LSE has
  89:Drivers/STM32L0xx_HAL_Driver/Src/stm32l0xx_hal_gpio.c ****         priority over the GPIO function.
  90:Drivers/STM32L0xx_HAL_Driver/Src/stm32l0xx_hal_gpio.c **** 
  91:Drivers/STM32L0xx_HAL_Driver/Src/stm32l0xx_hal_gpio.c ****     (#) The HSE oscillator pins OSC_IN/OSC_OUT can be used as
  92:Drivers/STM32L0xx_HAL_Driver/Src/stm32l0xx_hal_gpio.c ****         general purpose PH0 and PH1, respectively, when the HSE oscillator is off.
  93:Drivers/STM32L0xx_HAL_Driver/Src/stm32l0xx_hal_gpio.c ****         The HSE has priority over the GPIO function.
  94:Drivers/STM32L0xx_HAL_Driver/Src/stm32l0xx_hal_gpio.c **** 
  95:Drivers/STM32L0xx_HAL_Driver/Src/stm32l0xx_hal_gpio.c ****   @endverbatim
  96:Drivers/STM32L0xx_HAL_Driver/Src/stm32l0xx_hal_gpio.c ****   ******************************************************************************
  97:Drivers/STM32L0xx_HAL_Driver/Src/stm32l0xx_hal_gpio.c ****   * @attention
  98:Drivers/STM32L0xx_HAL_Driver/Src/stm32l0xx_hal_gpio.c ****   *
  99:Drivers/STM32L0xx_HAL_Driver/Src/stm32l0xx_hal_gpio.c ****   * <h2><center>&copy; Copyright(c) 2016 STMicroelectronics.
 100:Drivers/STM32L0xx_HAL_Driver/Src/stm32l0xx_hal_gpio.c ****   * All rights reserved.</center></h2>
 101:Drivers/STM32L0xx_HAL_Driver/Src/stm32l0xx_hal_gpio.c ****   *
 102:Drivers/STM32L0xx_HAL_Driver/Src/stm32l0xx_hal_gpio.c ****   * This software component is licensed by ST under BSD 3-Clause license,
 103:Drivers/STM32L0xx_HAL_Driver/Src/stm32l0xx_hal_gpio.c ****   * the "License"; You may not use this file except in compliance with the
 104:Drivers/STM32L0xx_HAL_Driver/Src/stm32l0xx_hal_gpio.c ****   * License. You may obtain a copy of the License at:
 105:Drivers/STM32L0xx_HAL_Driver/Src/stm32l0xx_hal_gpio.c ****   *                        opensource.org/licenses/BSD-3-Clause
 106:Drivers/STM32L0xx_HAL_Driver/Src/stm32l0xx_hal_gpio.c ****   *
 107:Drivers/STM32L0xx_HAL_Driver/Src/stm32l0xx_hal_gpio.c ****   ******************************************************************************
 108:Drivers/STM32L0xx_HAL_Driver/Src/stm32l0xx_hal_gpio.c ****   */
 109:Drivers/STM32L0xx_HAL_Driver/Src/stm32l0xx_hal_gpio.c **** 
 110:Drivers/STM32L0xx_HAL_Driver/Src/stm32l0xx_hal_gpio.c **** /* Includes ------------------------------------------------------------------*/
 111:Drivers/STM32L0xx_HAL_Driver/Src/stm32l0xx_hal_gpio.c **** #include "stm32l0xx_hal.h"
 112:Drivers/STM32L0xx_HAL_Driver/Src/stm32l0xx_hal_gpio.c **** 
 113:Drivers/STM32L0xx_HAL_Driver/Src/stm32l0xx_hal_gpio.c **** /** @addtogroup STM32L0xx_HAL_Driver
 114:Drivers/STM32L0xx_HAL_Driver/Src/stm32l0xx_hal_gpio.c ****   * @{
 115:Drivers/STM32L0xx_HAL_Driver/Src/stm32l0xx_hal_gpio.c ****   */
 116:Drivers/STM32L0xx_HAL_Driver/Src/stm32l0xx_hal_gpio.c **** 
 117:Drivers/STM32L0xx_HAL_Driver/Src/stm32l0xx_hal_gpio.c **** #ifdef HAL_GPIO_MODULE_ENABLED
 118:Drivers/STM32L0xx_HAL_Driver/Src/stm32l0xx_hal_gpio.c **** 
 119:Drivers/STM32L0xx_HAL_Driver/Src/stm32l0xx_hal_gpio.c **** /** @addtogroup GPIO
 120:Drivers/STM32L0xx_HAL_Driver/Src/stm32l0xx_hal_gpio.c ****   * @brief GPIO HAL module driver
 121:Drivers/STM32L0xx_HAL_Driver/Src/stm32l0xx_hal_gpio.c ****   * @{
 122:Drivers/STM32L0xx_HAL_Driver/Src/stm32l0xx_hal_gpio.c ****   */
 123:Drivers/STM32L0xx_HAL_Driver/Src/stm32l0xx_hal_gpio.c **** 
 124:Drivers/STM32L0xx_HAL_Driver/Src/stm32l0xx_hal_gpio.c **** /** @addtogroup GPIO_Private
 125:Drivers/STM32L0xx_HAL_Driver/Src/stm32l0xx_hal_gpio.c ****   * @{
 126:Drivers/STM32L0xx_HAL_Driver/Src/stm32l0xx_hal_gpio.c ****   */
 127:Drivers/STM32L0xx_HAL_Driver/Src/stm32l0xx_hal_gpio.c **** /* Private define ------------------------------------------------------------*/
 128:Drivers/STM32L0xx_HAL_Driver/Src/stm32l0xx_hal_gpio.c **** 
 129:Drivers/STM32L0xx_HAL_Driver/Src/stm32l0xx_hal_gpio.c **** 
 130:Drivers/STM32L0xx_HAL_Driver/Src/stm32l0xx_hal_gpio.c **** #define GPIO_MODE             ((uint32_t)0x00000003U)
 131:Drivers/STM32L0xx_HAL_Driver/Src/stm32l0xx_hal_gpio.c **** #define EXTI_MODE             ((uint32_t)0x10000000U)
 132:Drivers/STM32L0xx_HAL_Driver/Src/stm32l0xx_hal_gpio.c **** #define GPIO_MODE_IT          ((uint32_t)0x00010000U)
 133:Drivers/STM32L0xx_HAL_Driver/Src/stm32l0xx_hal_gpio.c **** #define GPIO_MODE_EVT         ((uint32_t)0x00020000U)
 134:Drivers/STM32L0xx_HAL_Driver/Src/stm32l0xx_hal_gpio.c **** #define RISING_EDGE           ((uint32_t)0x00100000U)
 135:Drivers/STM32L0xx_HAL_Driver/Src/stm32l0xx_hal_gpio.c **** #define FALLING_EDGE          ((uint32_t)0x00200000U)
 136:Drivers/STM32L0xx_HAL_Driver/Src/stm32l0xx_hal_gpio.c **** #define GPIO_OUTPUT_TYPE      ((uint32_t)0x00000010U)
 137:Drivers/STM32L0xx_HAL_Driver/Src/stm32l0xx_hal_gpio.c **** 
 138:Drivers/STM32L0xx_HAL_Driver/Src/stm32l0xx_hal_gpio.c **** #define GPIO_NUMBER           ((uint32_t)16U)
 139:Drivers/STM32L0xx_HAL_Driver/Src/stm32l0xx_hal_gpio.c **** 
 140:Drivers/STM32L0xx_HAL_Driver/Src/stm32l0xx_hal_gpio.c **** /**
 141:Drivers/STM32L0xx_HAL_Driver/Src/stm32l0xx_hal_gpio.c ****   * @}
 142:Drivers/STM32L0xx_HAL_Driver/Src/stm32l0xx_hal_gpio.c ****   */
 143:Drivers/STM32L0xx_HAL_Driver/Src/stm32l0xx_hal_gpio.c **** /** @addtogroup GPIO_Exported_Functions
 144:Drivers/STM32L0xx_HAL_Driver/Src/stm32l0xx_hal_gpio.c ****   * @{
ARM GAS  /tmp/ccp6wyhs.s 			page 4


 145:Drivers/STM32L0xx_HAL_Driver/Src/stm32l0xx_hal_gpio.c ****   */
 146:Drivers/STM32L0xx_HAL_Driver/Src/stm32l0xx_hal_gpio.c **** 
 147:Drivers/STM32L0xx_HAL_Driver/Src/stm32l0xx_hal_gpio.c **** /** @addtogroup GPIO_Exported_Functions_Group1
 148:Drivers/STM32L0xx_HAL_Driver/Src/stm32l0xx_hal_gpio.c ****  *  @brief    Initialization and de-initialization functions
 149:Drivers/STM32L0xx_HAL_Driver/Src/stm32l0xx_hal_gpio.c ****  *
 150:Drivers/STM32L0xx_HAL_Driver/Src/stm32l0xx_hal_gpio.c **** @verbatim
 151:Drivers/STM32L0xx_HAL_Driver/Src/stm32l0xx_hal_gpio.c ****  ===============================================================================
 152:Drivers/STM32L0xx_HAL_Driver/Src/stm32l0xx_hal_gpio.c ****               ##### Initialization and de-initialization functions #####
 153:Drivers/STM32L0xx_HAL_Driver/Src/stm32l0xx_hal_gpio.c ****  ===============================================================================
 154:Drivers/STM32L0xx_HAL_Driver/Src/stm32l0xx_hal_gpio.c **** 
 155:Drivers/STM32L0xx_HAL_Driver/Src/stm32l0xx_hal_gpio.c **** @endverbatim
 156:Drivers/STM32L0xx_HAL_Driver/Src/stm32l0xx_hal_gpio.c ****   * @{
 157:Drivers/STM32L0xx_HAL_Driver/Src/stm32l0xx_hal_gpio.c ****   */
 158:Drivers/STM32L0xx_HAL_Driver/Src/stm32l0xx_hal_gpio.c **** 
 159:Drivers/STM32L0xx_HAL_Driver/Src/stm32l0xx_hal_gpio.c **** /**
 160:Drivers/STM32L0xx_HAL_Driver/Src/stm32l0xx_hal_gpio.c ****   * @brief  Initializes the GPIOx peripheral according to the specified parameters in the GPIO_Init
 161:Drivers/STM32L0xx_HAL_Driver/Src/stm32l0xx_hal_gpio.c ****   * @param  GPIOx where x can be (A..E and H) to select the GPIO peripheral for STM32L0XX family de
 162:Drivers/STM32L0xx_HAL_Driver/Src/stm32l0xx_hal_gpio.c ****   *                Note that GPIOE is not available on all devices.
 163:Drivers/STM32L0xx_HAL_Driver/Src/stm32l0xx_hal_gpio.c ****   * @param  GPIO_Init pointer to a GPIO_InitTypeDef structure that contains
 164:Drivers/STM32L0xx_HAL_Driver/Src/stm32l0xx_hal_gpio.c ****   *                    the configuration information for the specified GPIO peripheral.
 165:Drivers/STM32L0xx_HAL_Driver/Src/stm32l0xx_hal_gpio.c ****   * @retval None
 166:Drivers/STM32L0xx_HAL_Driver/Src/stm32l0xx_hal_gpio.c ****   */
 167:Drivers/STM32L0xx_HAL_Driver/Src/stm32l0xx_hal_gpio.c **** void HAL_GPIO_Init(GPIO_TypeDef  *GPIOx, GPIO_InitTypeDef *GPIO_Init)
 168:Drivers/STM32L0xx_HAL_Driver/Src/stm32l0xx_hal_gpio.c **** {
  29              		.loc 1 168 1 view -0
  30              		.cfi_startproc
  31              		@ args = 0, pretend = 0, frame = 16
  32              		@ frame_needed = 0, uses_anonymous_args = 0
 169:Drivers/STM32L0xx_HAL_Driver/Src/stm32l0xx_hal_gpio.c ****   uint32_t position = 0x00U;
  33              		.loc 1 169 3 view .LVU1
 170:Drivers/STM32L0xx_HAL_Driver/Src/stm32l0xx_hal_gpio.c ****   uint32_t iocurrent = 0x00U;
  34              		.loc 1 170 3 view .LVU2
 171:Drivers/STM32L0xx_HAL_Driver/Src/stm32l0xx_hal_gpio.c ****   uint32_t temp = 0x00U;
  35              		.loc 1 171 3 view .LVU3
 172:Drivers/STM32L0xx_HAL_Driver/Src/stm32l0xx_hal_gpio.c **** 
 173:Drivers/STM32L0xx_HAL_Driver/Src/stm32l0xx_hal_gpio.c ****   /* Check the parameters */
 174:Drivers/STM32L0xx_HAL_Driver/Src/stm32l0xx_hal_gpio.c ****   assert_param(IS_GPIO_MODE(GPIO_Init->Mode));
  36              		.loc 1 174 3 view .LVU4
 175:Drivers/STM32L0xx_HAL_Driver/Src/stm32l0xx_hal_gpio.c ****   assert_param(IS_GPIO_PULL(GPIO_Init->Pull));
  37              		.loc 1 175 3 view .LVU5
 176:Drivers/STM32L0xx_HAL_Driver/Src/stm32l0xx_hal_gpio.c ****   assert_param(IS_GPIO_PIN_AVAILABLE(GPIOx, (GPIO_Init->Pin)));
  38              		.loc 1 176 3 view .LVU6
 177:Drivers/STM32L0xx_HAL_Driver/Src/stm32l0xx_hal_gpio.c **** 
 178:Drivers/STM32L0xx_HAL_Driver/Src/stm32l0xx_hal_gpio.c ****   /* Configure the port pins */
 179:Drivers/STM32L0xx_HAL_Driver/Src/stm32l0xx_hal_gpio.c ****   while (((GPIO_Init->Pin) >> position) != 0)
  39              		.loc 1 179 3 view .LVU7
  40              		.loc 1 179 9 view .LVU8
  41              		.loc 1 179 21 is_stmt 0 view .LVU9
  42 0000 0B68     		ldr	r3, [r1]
 168:Drivers/STM32L0xx_HAL_Driver/Src/stm32l0xx_hal_gpio.c ****   uint32_t position = 0x00U;
  43              		.loc 1 168 1 view .LVU10
  44 0002 F0B5     		push	{r4, r5, r6, r7, lr}
  45              	.LCFI0:
  46              		.cfi_def_cfa_offset 20
  47              		.cfi_offset 4, -20
  48              		.cfi_offset 5, -16
  49              		.cfi_offset 6, -12
ARM GAS  /tmp/ccp6wyhs.s 			page 5


  50              		.cfi_offset 7, -8
  51              		.cfi_offset 14, -4
  52 0004 4E46     		mov	r6, r9
  53              		.loc 1 179 21 view .LVU11
  54 0006 9946     		mov	r9, r3
 168:Drivers/STM32L0xx_HAL_Driver/Src/stm32l0xx_hal_gpio.c ****   uint32_t position = 0x00U;
  55              		.loc 1 168 1 view .LVU12
  56 0008 DE46     		mov	lr, fp
  57 000a 5746     		mov	r7, r10
  58 000c 4546     		mov	r5, r8
  59              		.loc 1 179 9 view .LVU13
  60 000e 4A46     		mov	r2, r9
 168:Drivers/STM32L0xx_HAL_Driver/Src/stm32l0xx_hal_gpio.c ****   uint32_t position = 0x00U;
  61              		.loc 1 168 1 view .LVU14
  62 0010 E0B5     		push	{r5, r6, r7, lr}
  63              	.LCFI1:
  64              		.cfi_def_cfa_offset 36
  65              		.cfi_offset 8, -36
  66              		.cfi_offset 9, -32
  67              		.cfi_offset 10, -28
  68              		.cfi_offset 11, -24
 169:Drivers/STM32L0xx_HAL_Driver/Src/stm32l0xx_hal_gpio.c ****   uint32_t iocurrent = 0x00U;
  69              		.loc 1 169 12 view .LVU15
  70 0012 0023     		movs	r3, #0
 168:Drivers/STM32L0xx_HAL_Driver/Src/stm32l0xx_hal_gpio.c ****   uint32_t position = 0x00U;
  71              		.loc 1 168 1 view .LVU16
  72 0014 85B0     		sub	sp, sp, #20
  73              	.LCFI2:
  74              		.cfi_def_cfa_offset 56
  75              		.loc 1 179 9 view .LVU17
  76 0016 002A     		cmp	r2, #0
  77 0018 70D0     		beq	.L1
 180:Drivers/STM32L0xx_HAL_Driver/Src/stm32l0xx_hal_gpio.c ****   {
 181:Drivers/STM32L0xx_HAL_Driver/Src/stm32l0xx_hal_gpio.c ****     /* Get the IO position */
 182:Drivers/STM32L0xx_HAL_Driver/Src/stm32l0xx_hal_gpio.c ****     iocurrent = (GPIO_Init->Pin) & (1U << position);
  78              		.loc 1 182 40 view .LVU18
  79 001a 0122     		movs	r2, #1
  80 001c 9246     		mov	r10, r2
 183:Drivers/STM32L0xx_HAL_Driver/Src/stm32l0xx_hal_gpio.c **** 
 184:Drivers/STM32L0xx_HAL_Driver/Src/stm32l0xx_hal_gpio.c ****     if (iocurrent)
 185:Drivers/STM32L0xx_HAL_Driver/Src/stm32l0xx_hal_gpio.c ****     {
 186:Drivers/STM32L0xx_HAL_Driver/Src/stm32l0xx_hal_gpio.c ****       /*--------------------- GPIO Mode Configuration ------------------------*/
 187:Drivers/STM32L0xx_HAL_Driver/Src/stm32l0xx_hal_gpio.c ****       /* In case of Output or Alternate function mode selection */
 188:Drivers/STM32L0xx_HAL_Driver/Src/stm32l0xx_hal_gpio.c ****       if ((GPIO_Init->Mode == GPIO_MODE_OUTPUT_PP) || (GPIO_Init->Mode == GPIO_MODE_AF_PP) ||
 189:Drivers/STM32L0xx_HAL_Driver/Src/stm32l0xx_hal_gpio.c ****           (GPIO_Init->Mode == GPIO_MODE_OUTPUT_OD) || (GPIO_Init->Mode == GPIO_MODE_AF_OD))
 190:Drivers/STM32L0xx_HAL_Driver/Src/stm32l0xx_hal_gpio.c ****       {
 191:Drivers/STM32L0xx_HAL_Driver/Src/stm32l0xx_hal_gpio.c ****         /* Check the Speed parameter */
 192:Drivers/STM32L0xx_HAL_Driver/Src/stm32l0xx_hal_gpio.c ****         assert_param(IS_GPIO_SPEED(GPIO_Init->Speed));
 193:Drivers/STM32L0xx_HAL_Driver/Src/stm32l0xx_hal_gpio.c ****         /* Configure the IO Speed */
 194:Drivers/STM32L0xx_HAL_Driver/Src/stm32l0xx_hal_gpio.c ****         temp = GPIOx->OSPEEDR;
 195:Drivers/STM32L0xx_HAL_Driver/Src/stm32l0xx_hal_gpio.c ****         temp &= ~(GPIO_OSPEEDER_OSPEED0 << (position * 2U));
 196:Drivers/STM32L0xx_HAL_Driver/Src/stm32l0xx_hal_gpio.c ****         temp |= (GPIO_Init->Speed << (position * 2U));
 197:Drivers/STM32L0xx_HAL_Driver/Src/stm32l0xx_hal_gpio.c ****         GPIOx->OSPEEDR = temp;
 198:Drivers/STM32L0xx_HAL_Driver/Src/stm32l0xx_hal_gpio.c **** 
 199:Drivers/STM32L0xx_HAL_Driver/Src/stm32l0xx_hal_gpio.c ****         /* Configure the IO Output Type */
 200:Drivers/STM32L0xx_HAL_Driver/Src/stm32l0xx_hal_gpio.c ****         temp = GPIOx->OTYPER;
 201:Drivers/STM32L0xx_HAL_Driver/Src/stm32l0xx_hal_gpio.c ****         temp &= ~(GPIO_OTYPER_OT_0 << position) ;
ARM GAS  /tmp/ccp6wyhs.s 			page 6


 202:Drivers/STM32L0xx_HAL_Driver/Src/stm32l0xx_hal_gpio.c ****         temp |= (((GPIO_Init->Mode & GPIO_OUTPUT_TYPE) >> 4U) << position);
 203:Drivers/STM32L0xx_HAL_Driver/Src/stm32l0xx_hal_gpio.c ****         GPIOx->OTYPER = temp;
 204:Drivers/STM32L0xx_HAL_Driver/Src/stm32l0xx_hal_gpio.c ****       }
 205:Drivers/STM32L0xx_HAL_Driver/Src/stm32l0xx_hal_gpio.c **** 
 206:Drivers/STM32L0xx_HAL_Driver/Src/stm32l0xx_hal_gpio.c ****       /* Activate the Pull-up or Pull down resistor for the current IO */
 207:Drivers/STM32L0xx_HAL_Driver/Src/stm32l0xx_hal_gpio.c ****       temp = GPIOx->PUPDR;
 208:Drivers/STM32L0xx_HAL_Driver/Src/stm32l0xx_hal_gpio.c ****       temp &= ~(GPIO_PUPDR_PUPD0 << (position * 2U));
 209:Drivers/STM32L0xx_HAL_Driver/Src/stm32l0xx_hal_gpio.c ****       temp |= ((GPIO_Init->Pull) << (position * 2U));
 210:Drivers/STM32L0xx_HAL_Driver/Src/stm32l0xx_hal_gpio.c ****       GPIOx->PUPDR = temp;
 211:Drivers/STM32L0xx_HAL_Driver/Src/stm32l0xx_hal_gpio.c **** 
 212:Drivers/STM32L0xx_HAL_Driver/Src/stm32l0xx_hal_gpio.c ****       /* In case of Alternate function mode selection */
 213:Drivers/STM32L0xx_HAL_Driver/Src/stm32l0xx_hal_gpio.c ****       if ((GPIO_Init->Mode == GPIO_MODE_AF_PP) || (GPIO_Init->Mode == GPIO_MODE_AF_OD))
 214:Drivers/STM32L0xx_HAL_Driver/Src/stm32l0xx_hal_gpio.c ****       {
 215:Drivers/STM32L0xx_HAL_Driver/Src/stm32l0xx_hal_gpio.c ****         /* Check the Alternate function parameters */
 216:Drivers/STM32L0xx_HAL_Driver/Src/stm32l0xx_hal_gpio.c ****         assert_param(IS_GPIO_AF_INSTANCE(GPIOx));
 217:Drivers/STM32L0xx_HAL_Driver/Src/stm32l0xx_hal_gpio.c ****         assert_param(IS_GPIO_AF(GPIO_Init->Alternate));
 218:Drivers/STM32L0xx_HAL_Driver/Src/stm32l0xx_hal_gpio.c **** 
 219:Drivers/STM32L0xx_HAL_Driver/Src/stm32l0xx_hal_gpio.c ****         /* Configure Alternate function mapped with the current IO */
 220:Drivers/STM32L0xx_HAL_Driver/Src/stm32l0xx_hal_gpio.c ****         temp = GPIOx->AFR[position >> 3U];
 221:Drivers/STM32L0xx_HAL_Driver/Src/stm32l0xx_hal_gpio.c ****         temp &= ~((uint32_t)0xFU << ((uint32_t)(position & (uint32_t)0x07U) * 4U));
 222:Drivers/STM32L0xx_HAL_Driver/Src/stm32l0xx_hal_gpio.c ****         temp |= ((uint32_t)(GPIO_Init->Alternate) << (((uint32_t)position & (uint32_t)0x07U) * 4U))
 223:Drivers/STM32L0xx_HAL_Driver/Src/stm32l0xx_hal_gpio.c ****         GPIOx->AFR[position >> 3U] = temp;
 224:Drivers/STM32L0xx_HAL_Driver/Src/stm32l0xx_hal_gpio.c ****       }
 225:Drivers/STM32L0xx_HAL_Driver/Src/stm32l0xx_hal_gpio.c **** 
 226:Drivers/STM32L0xx_HAL_Driver/Src/stm32l0xx_hal_gpio.c ****       /* Configure IO Direction mode (Input, Output, Alternate or Analog) */
 227:Drivers/STM32L0xx_HAL_Driver/Src/stm32l0xx_hal_gpio.c ****       temp = GPIOx->MODER;
 228:Drivers/STM32L0xx_HAL_Driver/Src/stm32l0xx_hal_gpio.c ****       temp &= ~(GPIO_MODER_MODE0 << (position * 2U));
 229:Drivers/STM32L0xx_HAL_Driver/Src/stm32l0xx_hal_gpio.c ****       temp |= ((GPIO_Init->Mode & GPIO_MODE) << (position * 2U));
 230:Drivers/STM32L0xx_HAL_Driver/Src/stm32l0xx_hal_gpio.c ****       GPIOx->MODER = temp;
 231:Drivers/STM32L0xx_HAL_Driver/Src/stm32l0xx_hal_gpio.c **** 
 232:Drivers/STM32L0xx_HAL_Driver/Src/stm32l0xx_hal_gpio.c ****       /*--------------------- EXTI Mode Configuration ------------------------*/
 233:Drivers/STM32L0xx_HAL_Driver/Src/stm32l0xx_hal_gpio.c ****       /* Configure the External Interrupt or event for the current IO */
 234:Drivers/STM32L0xx_HAL_Driver/Src/stm32l0xx_hal_gpio.c ****       if ((GPIO_Init->Mode & EXTI_MODE) == EXTI_MODE)
 235:Drivers/STM32L0xx_HAL_Driver/Src/stm32l0xx_hal_gpio.c ****       {
 236:Drivers/STM32L0xx_HAL_Driver/Src/stm32l0xx_hal_gpio.c ****         /* Enable SYSCFG Clock */
 237:Drivers/STM32L0xx_HAL_Driver/Src/stm32l0xx_hal_gpio.c ****         __HAL_RCC_SYSCFG_CLK_ENABLE();
  81              		.loc 1 237 9 view .LVU19
  82 001e 634A     		ldr	r2, .L31
 238:Drivers/STM32L0xx_HAL_Driver/Src/stm32l0xx_hal_gpio.c **** 
 239:Drivers/STM32L0xx_HAL_Driver/Src/stm32l0xx_hal_gpio.c ****         temp = SYSCFG->EXTICR[position >> 2U];
 240:Drivers/STM32L0xx_HAL_Driver/Src/stm32l0xx_hal_gpio.c ****         CLEAR_BIT(temp, ((uint32_t)0x0FU) << (4U * (position & 0x03U)));
 241:Drivers/STM32L0xx_HAL_Driver/Src/stm32l0xx_hal_gpio.c ****         SET_BIT(temp, (GPIO_GET_INDEX(GPIOx)) << (4 * (position & 0x03U)));
 242:Drivers/STM32L0xx_HAL_Driver/Src/stm32l0xx_hal_gpio.c ****         SYSCFG->EXTICR[position >> 2U] = temp;
 243:Drivers/STM32L0xx_HAL_Driver/Src/stm32l0xx_hal_gpio.c **** 
 244:Drivers/STM32L0xx_HAL_Driver/Src/stm32l0xx_hal_gpio.c ****         /* Clear EXTI line configuration */
 245:Drivers/STM32L0xx_HAL_Driver/Src/stm32l0xx_hal_gpio.c ****         temp = EXTI->IMR;
  83              		.loc 1 245 14 view .LVU20
  84 0020 C846     		mov	r8, r9
 237:Drivers/STM32L0xx_HAL_Driver/Src/stm32l0xx_hal_gpio.c **** 
  85              		.loc 1 237 9 view .LVU21
  86 0022 9346     		mov	fp, r2
  87              		.loc 1 245 14 view .LVU22
  88 0024 624F     		ldr	r7, .L31+4
  89 0026 0191     		str	r1, [sp, #4]
  90              	.LVL1:
  91              	.L2:
 182:Drivers/STM32L0xx_HAL_Driver/Src/stm32l0xx_hal_gpio.c **** 
ARM GAS  /tmp/ccp6wyhs.s 			page 7


  92              		.loc 1 182 5 is_stmt 1 view .LVU23
 182:Drivers/STM32L0xx_HAL_Driver/Src/stm32l0xx_hal_gpio.c **** 
  93              		.loc 1 182 40 is_stmt 0 view .LVU24
  94 0028 5246     		mov	r2, r10
 182:Drivers/STM32L0xx_HAL_Driver/Src/stm32l0xx_hal_gpio.c **** 
  95              		.loc 1 182 15 view .LVU25
  96 002a 4446     		mov	r4, r8
 182:Drivers/STM32L0xx_HAL_Driver/Src/stm32l0xx_hal_gpio.c **** 
  97              		.loc 1 182 40 view .LVU26
  98 002c 9A40     		lsls	r2, r2, r3
 182:Drivers/STM32L0xx_HAL_Driver/Src/stm32l0xx_hal_gpio.c **** 
  99              		.loc 1 182 15 view .LVU27
 100 002e 1440     		ands	r4, r2
 101 0030 A146     		mov	r9, r4
 102              	.LVL2:
 184:Drivers/STM32L0xx_HAL_Driver/Src/stm32l0xx_hal_gpio.c ****     {
 103              		.loc 1 184 5 is_stmt 1 view .LVU28
 184:Drivers/STM32L0xx_HAL_Driver/Src/stm32l0xx_hal_gpio.c ****     {
 104              		.loc 1 184 8 is_stmt 0 view .LVU29
 105 0032 4446     		mov	r4, r8
 106              	.LVL3:
 184:Drivers/STM32L0xx_HAL_Driver/Src/stm32l0xx_hal_gpio.c ****     {
 107              		.loc 1 184 8 view .LVU30
 108 0034 1442     		tst	r4, r2
 109 0036 5DD0     		beq	.L4
 188:Drivers/STM32L0xx_HAL_Driver/Src/stm32l0xx_hal_gpio.c ****           (GPIO_Init->Mode == GPIO_MODE_OUTPUT_OD) || (GPIO_Init->Mode == GPIO_MODE_AF_OD))
 110              		.loc 1 188 7 is_stmt 1 view .LVU31
 188:Drivers/STM32L0xx_HAL_Driver/Src/stm32l0xx_hal_gpio.c ****           (GPIO_Init->Mode == GPIO_MODE_OUTPUT_OD) || (GPIO_Init->Mode == GPIO_MODE_AF_OD))
 111              		.loc 1 188 21 is_stmt 0 view .LVU32
 112 0038 0199     		ldr	r1, [sp, #4]
 113 003a 4C68     		ldr	r4, [r1, #4]
 188:Drivers/STM32L0xx_HAL_Driver/Src/stm32l0xx_hal_gpio.c ****           (GPIO_Init->Mode == GPIO_MODE_OUTPUT_OD) || (GPIO_Init->Mode == GPIO_MODE_AF_OD))
 114              		.loc 1 188 10 view .LVU33
 115 003c 1021     		movs	r1, #16
 116 003e 2500     		movs	r5, r4
 117 0040 8D43     		bics	r5, r1
 118 0042 0395     		str	r5, [sp, #12]
 119 0044 013D     		subs	r5, r5, #1
 120 0046 012D     		cmp	r5, #1
 121 0048 5FD9     		bls	.L5
 207:Drivers/STM32L0xx_HAL_Driver/Src/stm32l0xx_hal_gpio.c ****       temp &= ~(GPIO_PUPDR_PUPD0 << (position * 2U));
 122              		.loc 1 207 7 is_stmt 1 discriminator 1 view .LVU34
 208:Drivers/STM32L0xx_HAL_Driver/Src/stm32l0xx_hal_gpio.c ****       temp |= ((GPIO_Init->Pull) << (position * 2U));
 123              		.loc 1 208 34 is_stmt 0 discriminator 1 view .LVU35
 124 004a 0326     		movs	r6, #3
 125 004c 5D00     		lsls	r5, r3, #1
 126 004e AE40     		lsls	r6, r6, r5
 207:Drivers/STM32L0xx_HAL_Driver/Src/stm32l0xx_hal_gpio.c ****       temp &= ~(GPIO_PUPDR_PUPD0 << (position * 2U));
 127              		.loc 1 207 12 discriminator 1 view .LVU36
 128 0050 C268     		ldr	r2, [r0, #12]
 129              	.LVL4:
 208:Drivers/STM32L0xx_HAL_Driver/Src/stm32l0xx_hal_gpio.c ****       temp |= ((GPIO_Init->Pull) << (position * 2U));
 130              		.loc 1 208 7 is_stmt 1 discriminator 1 view .LVU37
 208:Drivers/STM32L0xx_HAL_Driver/Src/stm32l0xx_hal_gpio.c ****       temp |= ((GPIO_Init->Pull) << (position * 2U));
 131              		.loc 1 208 15 is_stmt 0 discriminator 1 view .LVU38
 132 0052 F143     		mvns	r1, r6
 208:Drivers/STM32L0xx_HAL_Driver/Src/stm32l0xx_hal_gpio.c ****       temp |= ((GPIO_Init->Pull) << (position * 2U));
ARM GAS  /tmp/ccp6wyhs.s 			page 8


 133              		.loc 1 208 12 discriminator 1 view .LVU39
 134 0054 B243     		bics	r2, r6
 135              	.LVL5:
 208:Drivers/STM32L0xx_HAL_Driver/Src/stm32l0xx_hal_gpio.c ****       temp |= ((GPIO_Init->Pull) << (position * 2U));
 136              		.loc 1 208 12 discriminator 1 view .LVU40
 137 0056 1600     		movs	r6, r2
 138              	.LVL6:
 209:Drivers/STM32L0xx_HAL_Driver/Src/stm32l0xx_hal_gpio.c ****       GPIOx->PUPDR = temp;
 139              		.loc 1 209 7 is_stmt 1 discriminator 1 view .LVU41
 209:Drivers/STM32L0xx_HAL_Driver/Src/stm32l0xx_hal_gpio.c ****       GPIOx->PUPDR = temp;
 140              		.loc 1 209 34 is_stmt 0 discriminator 1 view .LVU42
 141 0058 019A     		ldr	r2, [sp, #4]
 142              	.LVL7:
 208:Drivers/STM32L0xx_HAL_Driver/Src/stm32l0xx_hal_gpio.c ****       temp |= ((GPIO_Init->Pull) << (position * 2U));
 143              		.loc 1 208 15 discriminator 1 view .LVU43
 144 005a 0291     		str	r1, [sp, #8]
 209:Drivers/STM32L0xx_HAL_Driver/Src/stm32l0xx_hal_gpio.c ****       GPIOx->PUPDR = temp;
 145              		.loc 1 209 34 discriminator 1 view .LVU44
 146 005c 9268     		ldr	r2, [r2, #8]
 147 005e AA40     		lsls	r2, r2, r5
 209:Drivers/STM32L0xx_HAL_Driver/Src/stm32l0xx_hal_gpio.c ****       GPIOx->PUPDR = temp;
 148              		.loc 1 209 12 discriminator 1 view .LVU45
 149 0060 3243     		orrs	r2, r6
 150              	.LVL8:
 210:Drivers/STM32L0xx_HAL_Driver/Src/stm32l0xx_hal_gpio.c **** 
 151              		.loc 1 210 7 is_stmt 1 discriminator 1 view .LVU46
 210:Drivers/STM32L0xx_HAL_Driver/Src/stm32l0xx_hal_gpio.c **** 
 152              		.loc 1 210 20 is_stmt 0 discriminator 1 view .LVU47
 153 0062 C260     		str	r2, [r0, #12]
 213:Drivers/STM32L0xx_HAL_Driver/Src/stm32l0xx_hal_gpio.c ****       {
 154              		.loc 1 213 7 is_stmt 1 discriminator 1 view .LVU48
 155              	.LVL9:
 156              	.L6:
 227:Drivers/STM32L0xx_HAL_Driver/Src/stm32l0xx_hal_gpio.c ****       temp &= ~(GPIO_MODER_MODE0 << (position * 2U));
 157              		.loc 1 227 7 view .LVU49
 227:Drivers/STM32L0xx_HAL_Driver/Src/stm32l0xx_hal_gpio.c ****       temp &= ~(GPIO_MODER_MODE0 << (position * 2U));
 158              		.loc 1 227 12 is_stmt 0 view .LVU50
 159 0064 0668     		ldr	r6, [r0]
 160              	.LVL10:
 228:Drivers/STM32L0xx_HAL_Driver/Src/stm32l0xx_hal_gpio.c ****       temp |= ((GPIO_Init->Mode & GPIO_MODE) << (position * 2U));
 161              		.loc 1 228 7 is_stmt 1 view .LVU51
 228:Drivers/STM32L0xx_HAL_Driver/Src/stm32l0xx_hal_gpio.c ****       temp |= ((GPIO_Init->Mode & GPIO_MODE) << (position * 2U));
 162              		.loc 1 228 12 is_stmt 0 view .LVU52
 163 0066 029A     		ldr	r2, [sp, #8]
 164 0068 3240     		ands	r2, r6
 165 006a 1600     		movs	r6, r2
 166              	.LVL11:
 229:Drivers/STM32L0xx_HAL_Driver/Src/stm32l0xx_hal_gpio.c ****       GPIOx->MODER = temp;
 167              		.loc 1 229 7 is_stmt 1 view .LVU53
 229:Drivers/STM32L0xx_HAL_Driver/Src/stm32l0xx_hal_gpio.c ****       GPIOx->MODER = temp;
 168              		.loc 1 229 33 is_stmt 0 view .LVU54
 169 006c 0322     		movs	r2, #3
 170              	.LVL12:
 229:Drivers/STM32L0xx_HAL_Driver/Src/stm32l0xx_hal_gpio.c ****       GPIOx->MODER = temp;
 171              		.loc 1 229 33 view .LVU55
 172 006e 2240     		ands	r2, r4
 229:Drivers/STM32L0xx_HAL_Driver/Src/stm32l0xx_hal_gpio.c ****       GPIOx->MODER = temp;
ARM GAS  /tmp/ccp6wyhs.s 			page 9


 173              		.loc 1 229 46 view .LVU56
 174 0070 AA40     		lsls	r2, r2, r5
 229:Drivers/STM32L0xx_HAL_Driver/Src/stm32l0xx_hal_gpio.c ****       GPIOx->MODER = temp;
 175              		.loc 1 229 12 view .LVU57
 176 0072 3243     		orrs	r2, r6
 177              	.LVL13:
 230:Drivers/STM32L0xx_HAL_Driver/Src/stm32l0xx_hal_gpio.c **** 
 178              		.loc 1 230 7 is_stmt 1 view .LVU58
 230:Drivers/STM32L0xx_HAL_Driver/Src/stm32l0xx_hal_gpio.c **** 
 179              		.loc 1 230 20 is_stmt 0 view .LVU59
 180 0074 0260     		str	r2, [r0]
 234:Drivers/STM32L0xx_HAL_Driver/Src/stm32l0xx_hal_gpio.c ****       {
 181              		.loc 1 234 7 is_stmt 1 view .LVU60
 234:Drivers/STM32L0xx_HAL_Driver/Src/stm32l0xx_hal_gpio.c ****       {
 182              		.loc 1 234 10 is_stmt 0 view .LVU61
 183 0076 8022     		movs	r2, #128
 184              	.LVL14:
 234:Drivers/STM32L0xx_HAL_Driver/Src/stm32l0xx_hal_gpio.c ****       {
 185              		.loc 1 234 10 view .LVU62
 186 0078 5205     		lsls	r2, r2, #21
 187 007a 1442     		tst	r4, r2
 188 007c 3AD0     		beq	.L4
 237:Drivers/STM32L0xx_HAL_Driver/Src/stm32l0xx_hal_gpio.c **** 
 189              		.loc 1 237 9 is_stmt 1 view .LVU63
 190 007e 5A46     		mov	r2, fp
 191 0080 5146     		mov	r1, r10
 192 0082 526B     		ldr	r2, [r2, #52]
 240:Drivers/STM32L0xx_HAL_Driver/Src/stm32l0xx_hal_gpio.c ****         SET_BIT(temp, (GPIO_GET_INDEX(GPIOx)) << (4 * (position & 0x03U)));
 193              		.loc 1 240 9 is_stmt 0 view .LVU64
 194 0084 0326     		movs	r6, #3
 237:Drivers/STM32L0xx_HAL_Driver/Src/stm32l0xx_hal_gpio.c **** 
 195              		.loc 1 237 9 view .LVU65
 196 0086 0A43     		orrs	r2, r1
 197 0088 5946     		mov	r1, fp
 198 008a 4A63     		str	r2, [r1, #52]
 199              	.LVL15:
 239:Drivers/STM32L0xx_HAL_Driver/Src/stm32l0xx_hal_gpio.c ****         CLEAR_BIT(temp, ((uint32_t)0x0FU) << (4U * (position & 0x03U)));
 200              		.loc 1 239 9 is_stmt 1 view .LVU66
 201 008c 4949     		ldr	r1, .L31+8
 240:Drivers/STM32L0xx_HAL_Driver/Src/stm32l0xx_hal_gpio.c ****         SET_BIT(temp, (GPIO_GET_INDEX(GPIOx)) << (4 * (position & 0x03U)));
 202              		.loc 1 240 9 is_stmt 0 view .LVU67
 203 008e 1E40     		ands	r6, r3
 240:Drivers/STM32L0xx_HAL_Driver/Src/stm32l0xx_hal_gpio.c ****         SET_BIT(temp, (GPIO_GET_INDEX(GPIOx)) << (4 * (position & 0x03U)));
 204              		.loc 1 240 9 view .LVU68
 205 0090 8C46     		mov	ip, r1
 206 0092 0F21     		movs	r1, #15
 207 0094 B600     		lsls	r6, r6, #2
 208 0096 B140     		lsls	r1, r1, r6
 239:Drivers/STM32L0xx_HAL_Driver/Src/stm32l0xx_hal_gpio.c ****         CLEAR_BIT(temp, ((uint32_t)0x0FU) << (4U * (position & 0x03U)));
 209              		.loc 1 239 40 view .LVU69
 210 0098 9A08     		lsrs	r2, r3, #2
 211 009a 9200     		lsls	r2, r2, #2
 212 009c 6244     		add	r2, r2, ip
 239:Drivers/STM32L0xx_HAL_Driver/Src/stm32l0xx_hal_gpio.c ****         CLEAR_BIT(temp, ((uint32_t)0x0FU) << (4U * (position & 0x03U)));
 213              		.loc 1 239 14 view .LVU70
 214 009e 9568     		ldr	r5, [r2, #8]
 215              	.LVL16:
ARM GAS  /tmp/ccp6wyhs.s 			page 10


 240:Drivers/STM32L0xx_HAL_Driver/Src/stm32l0xx_hal_gpio.c ****         SET_BIT(temp, (GPIO_GET_INDEX(GPIOx)) << (4 * (position & 0x03U)));
 216              		.loc 1 240 9 is_stmt 1 view .LVU71
 217 00a0 8D43     		bics	r5, r1
 218              	.LVL17:
 241:Drivers/STM32L0xx_HAL_Driver/Src/stm32l0xx_hal_gpio.c ****         SYSCFG->EXTICR[position >> 2U] = temp;
 219              		.loc 1 241 9 view .LVU72
 220 00a2 A021     		movs	r1, #160
 221 00a4 C905     		lsls	r1, r1, #23
 222 00a6 8842     		cmp	r0, r1
 223 00a8 0DD0     		beq	.L8
 241:Drivers/STM32L0xx_HAL_Driver/Src/stm32l0xx_hal_gpio.c ****         SYSCFG->EXTICR[position >> 2U] = temp;
 224              		.loc 1 241 9 is_stmt 0 discriminator 1 view .LVU73
 225 00aa 4349     		ldr	r1, .L31+12
 226 00ac 8842     		cmp	r0, r1
 227 00ae 00D1     		bne	.LCB176
 228 00b0 74E0     		b	.L28	@long jump
 229              	.LCB176:
 241:Drivers/STM32L0xx_HAL_Driver/Src/stm32l0xx_hal_gpio.c ****         SYSCFG->EXTICR[position >> 2U] = temp;
 230              		.loc 1 241 9 discriminator 3 view .LVU74
 231 00b2 4249     		ldr	r1, .L31+16
 232 00b4 8842     		cmp	r0, r1
 233 00b6 00D1     		bne	.LCB179
 234 00b8 74E0     		b	.L29	@long jump
 235              	.LCB179:
 241:Drivers/STM32L0xx_HAL_Driver/Src/stm32l0xx_hal_gpio.c ****         SYSCFG->EXTICR[position >> 2U] = temp;
 236              		.loc 1 241 9 discriminator 5 view .LVU75
 237 00ba 4149     		ldr	r1, .L31+20
 238 00bc 8842     		cmp	r0, r1
 239 00be 69D0     		beq	.L30
 240 00c0 0621     		movs	r1, #6
 241 00c2 B140     		lsls	r1, r1, r6
 242 00c4 0D43     		orrs	r5, r1
 243              	.LVL18:
 244              	.L8:
 242:Drivers/STM32L0xx_HAL_Driver/Src/stm32l0xx_hal_gpio.c **** 
 245              		.loc 1 242 9 is_stmt 1 discriminator 16 view .LVU76
 246:Drivers/STM32L0xx_HAL_Driver/Src/stm32l0xx_hal_gpio.c ****         temp &= ~((uint32_t)iocurrent);
 246              		.loc 1 246 17 is_stmt 0 discriminator 16 view .LVU77
 247 00c6 4946     		mov	r1, r9
 242:Drivers/STM32L0xx_HAL_Driver/Src/stm32l0xx_hal_gpio.c **** 
 248              		.loc 1 242 40 discriminator 16 view .LVU78
 249 00c8 9560     		str	r5, [r2, #8]
 245:Drivers/STM32L0xx_HAL_Driver/Src/stm32l0xx_hal_gpio.c ****         temp &= ~((uint32_t)iocurrent);
 250              		.loc 1 245 9 is_stmt 1 discriminator 16 view .LVU79
 251              		.loc 1 246 17 is_stmt 0 discriminator 16 view .LVU80
 252 00ca CE43     		mvns	r6, r1
 245:Drivers/STM32L0xx_HAL_Driver/Src/stm32l0xx_hal_gpio.c ****         temp &= ~((uint32_t)iocurrent);
 253              		.loc 1 245 14 discriminator 16 view .LVU81
 254 00cc 3A68     		ldr	r2, [r7]
 255              	.LVL19:
 256              		.loc 1 246 9 is_stmt 1 discriminator 16 view .LVU82
 247:Drivers/STM32L0xx_HAL_Driver/Src/stm32l0xx_hal_gpio.c ****         if ((GPIO_Init->Mode & GPIO_MODE_IT) == GPIO_MODE_IT)
 257              		.loc 1 247 9 discriminator 16 view .LVU83
 258              		.loc 1 247 12 is_stmt 0 discriminator 16 view .LVU84
 259 00ce E103     		lsls	r1, r4, #15
 260 00d0 5DD4     		bmi	.L12
 246:Drivers/STM32L0xx_HAL_Driver/Src/stm32l0xx_hal_gpio.c ****         temp &= ~((uint32_t)iocurrent);
ARM GAS  /tmp/ccp6wyhs.s 			page 11


 261              		.loc 1 246 14 view .LVU85
 262 00d2 3240     		ands	r2, r6
 263              	.LVL20:
 264              	.L13:
 248:Drivers/STM32L0xx_HAL_Driver/Src/stm32l0xx_hal_gpio.c ****         {
 249:Drivers/STM32L0xx_HAL_Driver/Src/stm32l0xx_hal_gpio.c ****           temp |= iocurrent;
 250:Drivers/STM32L0xx_HAL_Driver/Src/stm32l0xx_hal_gpio.c ****         }
 251:Drivers/STM32L0xx_HAL_Driver/Src/stm32l0xx_hal_gpio.c ****         EXTI->IMR = temp;
 265              		.loc 1 251 9 is_stmt 1 view .LVU86
 266              		.loc 1 251 19 is_stmt 0 view .LVU87
 267 00d4 3A60     		str	r2, [r7]
 252:Drivers/STM32L0xx_HAL_Driver/Src/stm32l0xx_hal_gpio.c **** 
 253:Drivers/STM32L0xx_HAL_Driver/Src/stm32l0xx_hal_gpio.c ****         temp = EXTI->EMR;
 268              		.loc 1 253 9 is_stmt 1 view .LVU88
 269              		.loc 1 253 14 is_stmt 0 view .LVU89
 270 00d6 7A68     		ldr	r2, [r7, #4]
 271              	.LVL21:
 254:Drivers/STM32L0xx_HAL_Driver/Src/stm32l0xx_hal_gpio.c ****         temp &= ~((uint32_t)iocurrent);
 272              		.loc 1 254 9 is_stmt 1 view .LVU90
 255:Drivers/STM32L0xx_HAL_Driver/Src/stm32l0xx_hal_gpio.c ****         if ((GPIO_Init->Mode & GPIO_MODE_EVT) == GPIO_MODE_EVT)
 273              		.loc 1 255 9 view .LVU91
 274              		.loc 1 255 12 is_stmt 0 view .LVU92
 275 00d8 A103     		lsls	r1, r4, #14
 276 00da 55D4     		bmi	.L14
 254:Drivers/STM32L0xx_HAL_Driver/Src/stm32l0xx_hal_gpio.c ****         temp &= ~((uint32_t)iocurrent);
 277              		.loc 1 254 14 view .LVU93
 278 00dc 3240     		ands	r2, r6
 279              	.LVL22:
 280              	.L15:
 256:Drivers/STM32L0xx_HAL_Driver/Src/stm32l0xx_hal_gpio.c ****         {
 257:Drivers/STM32L0xx_HAL_Driver/Src/stm32l0xx_hal_gpio.c ****           temp |= iocurrent;
 258:Drivers/STM32L0xx_HAL_Driver/Src/stm32l0xx_hal_gpio.c ****         }
 259:Drivers/STM32L0xx_HAL_Driver/Src/stm32l0xx_hal_gpio.c ****         EXTI->EMR = temp;
 281              		.loc 1 259 9 is_stmt 1 view .LVU94
 282              		.loc 1 259 19 is_stmt 0 view .LVU95
 283 00de 7A60     		str	r2, [r7, #4]
 260:Drivers/STM32L0xx_HAL_Driver/Src/stm32l0xx_hal_gpio.c **** 
 261:Drivers/STM32L0xx_HAL_Driver/Src/stm32l0xx_hal_gpio.c ****         /* Clear Rising Falling edge configuration */
 262:Drivers/STM32L0xx_HAL_Driver/Src/stm32l0xx_hal_gpio.c ****         temp = EXTI->RTSR;
 284              		.loc 1 262 9 is_stmt 1 view .LVU96
 285              		.loc 1 262 14 is_stmt 0 view .LVU97
 286 00e0 BD68     		ldr	r5, [r7, #8]
 287              	.LVL23:
 263:Drivers/STM32L0xx_HAL_Driver/Src/stm32l0xx_hal_gpio.c ****         temp &= ~((uint32_t)iocurrent);
 288              		.loc 1 263 9 is_stmt 1 view .LVU98
 264:Drivers/STM32L0xx_HAL_Driver/Src/stm32l0xx_hal_gpio.c ****         if ((GPIO_Init->Mode & RISING_EDGE) == RISING_EDGE)
 289              		.loc 1 264 9 view .LVU99
 290              		.loc 1 264 12 is_stmt 0 view .LVU100
 291 00e2 E202     		lsls	r2, r4, #11
 292 00e4 4DD4     		bmi	.L16
 263:Drivers/STM32L0xx_HAL_Driver/Src/stm32l0xx_hal_gpio.c ****         temp &= ~((uint32_t)iocurrent);
 293              		.loc 1 263 14 view .LVU101
 294 00e6 3540     		ands	r5, r6
 295              	.LVL24:
 296              	.L17:
 265:Drivers/STM32L0xx_HAL_Driver/Src/stm32l0xx_hal_gpio.c ****         {
 266:Drivers/STM32L0xx_HAL_Driver/Src/stm32l0xx_hal_gpio.c ****           temp |= iocurrent;
ARM GAS  /tmp/ccp6wyhs.s 			page 12


 267:Drivers/STM32L0xx_HAL_Driver/Src/stm32l0xx_hal_gpio.c ****         }
 268:Drivers/STM32L0xx_HAL_Driver/Src/stm32l0xx_hal_gpio.c ****         EXTI->RTSR = temp;
 297              		.loc 1 268 9 is_stmt 1 view .LVU102
 298              		.loc 1 268 20 is_stmt 0 view .LVU103
 299 00e8 BD60     		str	r5, [r7, #8]
 269:Drivers/STM32L0xx_HAL_Driver/Src/stm32l0xx_hal_gpio.c **** 
 270:Drivers/STM32L0xx_HAL_Driver/Src/stm32l0xx_hal_gpio.c ****         temp = EXTI->FTSR;
 300              		.loc 1 270 9 is_stmt 1 view .LVU104
 301              		.loc 1 270 14 is_stmt 0 view .LVU105
 302 00ea FA68     		ldr	r2, [r7, #12]
 303              	.LVL25:
 271:Drivers/STM32L0xx_HAL_Driver/Src/stm32l0xx_hal_gpio.c ****         temp &= ~((uint32_t)iocurrent);
 304              		.loc 1 271 9 is_stmt 1 view .LVU106
 272:Drivers/STM32L0xx_HAL_Driver/Src/stm32l0xx_hal_gpio.c ****         if ((GPIO_Init->Mode & FALLING_EDGE) == FALLING_EDGE)
 305              		.loc 1 272 9 view .LVU107
 306              		.loc 1 272 12 is_stmt 0 view .LVU108
 307 00ec A102     		lsls	r1, r4, #10
 308 00ee 43D4     		bmi	.L18
 271:Drivers/STM32L0xx_HAL_Driver/Src/stm32l0xx_hal_gpio.c ****         temp &= ~((uint32_t)iocurrent);
 309              		.loc 1 271 14 view .LVU109
 310 00f0 3240     		ands	r2, r6
 311              	.LVL26:
 273:Drivers/STM32L0xx_HAL_Driver/Src/stm32l0xx_hal_gpio.c ****         {
 274:Drivers/STM32L0xx_HAL_Driver/Src/stm32l0xx_hal_gpio.c ****           temp |= iocurrent;
 275:Drivers/STM32L0xx_HAL_Driver/Src/stm32l0xx_hal_gpio.c ****         }
 276:Drivers/STM32L0xx_HAL_Driver/Src/stm32l0xx_hal_gpio.c ****         EXTI->FTSR = temp;
 312              		.loc 1 276 9 is_stmt 1 view .LVU110
 313              		.loc 1 276 20 is_stmt 0 view .LVU111
 314 00f2 FA60     		str	r2, [r7, #12]
 315              	.LVL27:
 316              	.L4:
 277:Drivers/STM32L0xx_HAL_Driver/Src/stm32l0xx_hal_gpio.c ****       }
 278:Drivers/STM32L0xx_HAL_Driver/Src/stm32l0xx_hal_gpio.c ****     }
 279:Drivers/STM32L0xx_HAL_Driver/Src/stm32l0xx_hal_gpio.c ****     position++;
 317              		.loc 1 279 5 is_stmt 1 view .LVU112
 179:Drivers/STM32L0xx_HAL_Driver/Src/stm32l0xx_hal_gpio.c ****   {
 318              		.loc 1 179 28 is_stmt 0 view .LVU113
 319 00f4 4246     		mov	r2, r8
 320              		.loc 1 279 13 view .LVU114
 321 00f6 0133     		adds	r3, r3, #1
 322              	.LVL28:
 179:Drivers/STM32L0xx_HAL_Driver/Src/stm32l0xx_hal_gpio.c ****   {
 323              		.loc 1 179 9 is_stmt 1 view .LVU115
 179:Drivers/STM32L0xx_HAL_Driver/Src/stm32l0xx_hal_gpio.c ****   {
 324              		.loc 1 179 28 is_stmt 0 view .LVU116
 325 00f8 DA40     		lsrs	r2, r2, r3
 179:Drivers/STM32L0xx_HAL_Driver/Src/stm32l0xx_hal_gpio.c ****   {
 326              		.loc 1 179 9 view .LVU117
 327 00fa 95D1     		bne	.L2
 328              	.LVL29:
 329              	.L1:
 280:Drivers/STM32L0xx_HAL_Driver/Src/stm32l0xx_hal_gpio.c ****   }
 281:Drivers/STM32L0xx_HAL_Driver/Src/stm32l0xx_hal_gpio.c **** }
 330              		.loc 1 281 1 view .LVU118
 331 00fc 05B0     		add	sp, sp, #20
 332              		@ sp needed
 333 00fe 3CBC     		pop	{r2, r3, r4, r5}
ARM GAS  /tmp/ccp6wyhs.s 			page 13


 334 0100 9046     		mov	r8, r2
 335 0102 9946     		mov	r9, r3
 336 0104 A246     		mov	r10, r4
 337 0106 AB46     		mov	fp, r5
 338 0108 F0BD     		pop	{r4, r5, r6, r7, pc}
 339              	.LVL30:
 340              	.L5:
 192:Drivers/STM32L0xx_HAL_Driver/Src/stm32l0xx_hal_gpio.c ****         /* Configure the IO Speed */
 341              		.loc 1 192 9 is_stmt 1 view .LVU119
 194:Drivers/STM32L0xx_HAL_Driver/Src/stm32l0xx_hal_gpio.c ****         temp &= ~(GPIO_OSPEEDER_OSPEED0 << (position * 2U));
 342              		.loc 1 194 9 view .LVU120
 195:Drivers/STM32L0xx_HAL_Driver/Src/stm32l0xx_hal_gpio.c ****         temp |= (GPIO_Init->Speed << (position * 2U));
 343              		.loc 1 195 41 is_stmt 0 view .LVU121
 344 010a 0321     		movs	r1, #3
 345 010c 5D00     		lsls	r5, r3, #1
 346 010e A940     		lsls	r1, r1, r5
 347 0110 8C46     		mov	ip, r1
 195:Drivers/STM32L0xx_HAL_Driver/Src/stm32l0xx_hal_gpio.c ****         temp |= (GPIO_Init->Speed << (position * 2U));
 348              		.loc 1 195 17 view .LVU122
 349 0112 C943     		mvns	r1, r1
 350 0114 0291     		str	r1, [sp, #8]
 195:Drivers/STM32L0xx_HAL_Driver/Src/stm32l0xx_hal_gpio.c ****         temp |= (GPIO_Init->Speed << (position * 2U));
 351              		.loc 1 195 14 view .LVU123
 352 0116 6146     		mov	r1, ip
 194:Drivers/STM32L0xx_HAL_Driver/Src/stm32l0xx_hal_gpio.c ****         temp &= ~(GPIO_OSPEEDER_OSPEED0 << (position * 2U));
 353              		.loc 1 194 14 view .LVU124
 354 0118 8668     		ldr	r6, [r0, #8]
 355              	.LVL31:
 195:Drivers/STM32L0xx_HAL_Driver/Src/stm32l0xx_hal_gpio.c ****         temp |= (GPIO_Init->Speed << (position * 2U));
 356              		.loc 1 195 9 is_stmt 1 view .LVU125
 195:Drivers/STM32L0xx_HAL_Driver/Src/stm32l0xx_hal_gpio.c ****         temp |= (GPIO_Init->Speed << (position * 2U));
 357              		.loc 1 195 14 is_stmt 0 view .LVU126
 358 011a 8E43     		bics	r6, r1
 359              	.LVL32:
 196:Drivers/STM32L0xx_HAL_Driver/Src/stm32l0xx_hal_gpio.c ****         GPIOx->OSPEEDR = temp;
 360              		.loc 1 196 9 is_stmt 1 view .LVU127
 196:Drivers/STM32L0xx_HAL_Driver/Src/stm32l0xx_hal_gpio.c ****         GPIOx->OSPEEDR = temp;
 361              		.loc 1 196 35 is_stmt 0 view .LVU128
 362 011c 0199     		ldr	r1, [sp, #4]
 363 011e C968     		ldr	r1, [r1, #12]
 364 0120 A940     		lsls	r1, r1, r5
 196:Drivers/STM32L0xx_HAL_Driver/Src/stm32l0xx_hal_gpio.c ****         GPIOx->OSPEEDR = temp;
 365              		.loc 1 196 14 view .LVU129
 366 0122 0E43     		orrs	r6, r1
 367              	.LVL33:
 197:Drivers/STM32L0xx_HAL_Driver/Src/stm32l0xx_hal_gpio.c **** 
 368              		.loc 1 197 9 is_stmt 1 view .LVU130
 202:Drivers/STM32L0xx_HAL_Driver/Src/stm32l0xx_hal_gpio.c ****         GPIOx->OTYPER = temp;
 369              		.loc 1 202 56 is_stmt 0 view .LVU131
 370 0124 5146     		mov	r1, r10
 197:Drivers/STM32L0xx_HAL_Driver/Src/stm32l0xx_hal_gpio.c **** 
 371              		.loc 1 197 24 view .LVU132
 372 0126 8660     		str	r6, [r0, #8]
 200:Drivers/STM32L0xx_HAL_Driver/Src/stm32l0xx_hal_gpio.c ****         temp &= ~(GPIO_OTYPER_OT_0 << position) ;
 373              		.loc 1 200 9 is_stmt 1 view .LVU133
 200:Drivers/STM32L0xx_HAL_Driver/Src/stm32l0xx_hal_gpio.c ****         temp &= ~(GPIO_OTYPER_OT_0 << position) ;
 374              		.loc 1 200 14 is_stmt 0 view .LVU134
ARM GAS  /tmp/ccp6wyhs.s 			page 14


 375 0128 4668     		ldr	r6, [r0, #4]
 376              	.LVL34:
 201:Drivers/STM32L0xx_HAL_Driver/Src/stm32l0xx_hal_gpio.c ****         temp |= (((GPIO_Init->Mode & GPIO_OUTPUT_TYPE) >> 4U) << position);
 377              		.loc 1 201 9 is_stmt 1 view .LVU135
 201:Drivers/STM32L0xx_HAL_Driver/Src/stm32l0xx_hal_gpio.c ****         temp |= (((GPIO_Init->Mode & GPIO_OUTPUT_TYPE) >> 4U) << position);
 378              		.loc 1 201 14 is_stmt 0 view .LVU136
 379 012a 9643     		bics	r6, r2
 380              	.LVL35:
 202:Drivers/STM32L0xx_HAL_Driver/Src/stm32l0xx_hal_gpio.c ****         GPIOx->OTYPER = temp;
 381              		.loc 1 202 9 is_stmt 1 view .LVU137
 202:Drivers/STM32L0xx_HAL_Driver/Src/stm32l0xx_hal_gpio.c ****         GPIOx->OTYPER = temp;
 382              		.loc 1 202 56 is_stmt 0 view .LVU138
 383 012c 2209     		lsrs	r2, r4, #4
 384 012e 0A40     		ands	r2, r1
 202:Drivers/STM32L0xx_HAL_Driver/Src/stm32l0xx_hal_gpio.c ****         GPIOx->OTYPER = temp;
 385              		.loc 1 202 63 view .LVU139
 386 0130 9A40     		lsls	r2, r2, r3
 202:Drivers/STM32L0xx_HAL_Driver/Src/stm32l0xx_hal_gpio.c ****         GPIOx->OTYPER = temp;
 387              		.loc 1 202 14 view .LVU140
 388 0132 3243     		orrs	r2, r6
 389              	.LVL36:
 203:Drivers/STM32L0xx_HAL_Driver/Src/stm32l0xx_hal_gpio.c ****       }
 390              		.loc 1 203 9 is_stmt 1 view .LVU141
 203:Drivers/STM32L0xx_HAL_Driver/Src/stm32l0xx_hal_gpio.c ****       }
 391              		.loc 1 203 23 is_stmt 0 view .LVU142
 392 0134 4260     		str	r2, [r0, #4]
 207:Drivers/STM32L0xx_HAL_Driver/Src/stm32l0xx_hal_gpio.c ****       temp &= ~(GPIO_PUPDR_PUPD0 << (position * 2U));
 393              		.loc 1 207 7 is_stmt 1 view .LVU143
 208:Drivers/STM32L0xx_HAL_Driver/Src/stm32l0xx_hal_gpio.c ****       temp |= ((GPIO_Init->Pull) << (position * 2U));
 394              		.loc 1 208 12 is_stmt 0 view .LVU144
 395 0136 6246     		mov	r2, ip
 396              	.LVL37:
 207:Drivers/STM32L0xx_HAL_Driver/Src/stm32l0xx_hal_gpio.c ****       temp &= ~(GPIO_PUPDR_PUPD0 << (position * 2U));
 397              		.loc 1 207 12 view .LVU145
 398 0138 C668     		ldr	r6, [r0, #12]
 399              	.LVL38:
 208:Drivers/STM32L0xx_HAL_Driver/Src/stm32l0xx_hal_gpio.c ****       temp |= ((GPIO_Init->Pull) << (position * 2U));
 400              		.loc 1 208 7 is_stmt 1 view .LVU146
 208:Drivers/STM32L0xx_HAL_Driver/Src/stm32l0xx_hal_gpio.c ****       temp |= ((GPIO_Init->Pull) << (position * 2U));
 401              		.loc 1 208 12 is_stmt 0 view .LVU147
 402 013a 9643     		bics	r6, r2
 403              	.LVL39:
 209:Drivers/STM32L0xx_HAL_Driver/Src/stm32l0xx_hal_gpio.c ****       GPIOx->PUPDR = temp;
 404              		.loc 1 209 7 is_stmt 1 view .LVU148
 209:Drivers/STM32L0xx_HAL_Driver/Src/stm32l0xx_hal_gpio.c ****       GPIOx->PUPDR = temp;
 405              		.loc 1 209 34 is_stmt 0 view .LVU149
 406 013c 019A     		ldr	r2, [sp, #4]
 407 013e 9268     		ldr	r2, [r2, #8]
 408 0140 AA40     		lsls	r2, r2, r5
 209:Drivers/STM32L0xx_HAL_Driver/Src/stm32l0xx_hal_gpio.c ****       GPIOx->PUPDR = temp;
 409              		.loc 1 209 12 view .LVU150
 410 0142 3243     		orrs	r2, r6
 411              	.LVL40:
 210:Drivers/STM32L0xx_HAL_Driver/Src/stm32l0xx_hal_gpio.c **** 
 412              		.loc 1 210 7 is_stmt 1 view .LVU151
 210:Drivers/STM32L0xx_HAL_Driver/Src/stm32l0xx_hal_gpio.c **** 
 413              		.loc 1 210 20 is_stmt 0 view .LVU152
ARM GAS  /tmp/ccp6wyhs.s 			page 15


 414 0144 C260     		str	r2, [r0, #12]
 213:Drivers/STM32L0xx_HAL_Driver/Src/stm32l0xx_hal_gpio.c ****       {
 415              		.loc 1 213 7 is_stmt 1 view .LVU153
 213:Drivers/STM32L0xx_HAL_Driver/Src/stm32l0xx_hal_gpio.c ****       {
 416              		.loc 1 213 10 is_stmt 0 view .LVU154
 417 0146 039A     		ldr	r2, [sp, #12]
 418              	.LVL41:
 213:Drivers/STM32L0xx_HAL_Driver/Src/stm32l0xx_hal_gpio.c ****       {
 419              		.loc 1 213 10 view .LVU155
 420 0148 022A     		cmp	r2, #2
 421 014a 00D0     		beq	.LCB375
 422 014c 8AE7     		b	.L6	@long jump
 423              	.LCB375:
 216:Drivers/STM32L0xx_HAL_Driver/Src/stm32l0xx_hal_gpio.c ****         assert_param(IS_GPIO_AF(GPIO_Init->Alternate));
 424              		.loc 1 216 9 is_stmt 1 view .LVU156
 217:Drivers/STM32L0xx_HAL_Driver/Src/stm32l0xx_hal_gpio.c **** 
 425              		.loc 1 217 9 view .LVU157
 220:Drivers/STM32L0xx_HAL_Driver/Src/stm32l0xx_hal_gpio.c ****         temp &= ~((uint32_t)0xFU << ((uint32_t)(position & (uint32_t)0x07U) * 4U));
 426              		.loc 1 220 9 view .LVU158
 220:Drivers/STM32L0xx_HAL_Driver/Src/stm32l0xx_hal_gpio.c ****         temp &= ~((uint32_t)0xFU << ((uint32_t)(position & (uint32_t)0x07U) * 4U));
 427              		.loc 1 220 36 is_stmt 0 view .LVU159
 428 014e DA08     		lsrs	r2, r3, #3
 429 0150 9200     		lsls	r2, r2, #2
 430 0152 8618     		adds	r6, r0, r2
 220:Drivers/STM32L0xx_HAL_Driver/Src/stm32l0xx_hal_gpio.c ****         temp &= ~((uint32_t)0xFU << ((uint32_t)(position & (uint32_t)0x07U) * 4U));
 431              		.loc 1 220 14 view .LVU160
 432 0154 326A     		ldr	r2, [r6, #32]
 433              	.LVL42:
 221:Drivers/STM32L0xx_HAL_Driver/Src/stm32l0xx_hal_gpio.c ****         temp |= ((uint32_t)(GPIO_Init->Alternate) << (((uint32_t)position & (uint32_t)0x07U) * 4U))
 434              		.loc 1 221 9 is_stmt 1 view .LVU161
 220:Drivers/STM32L0xx_HAL_Driver/Src/stm32l0xx_hal_gpio.c ****         temp &= ~((uint32_t)0xFU << ((uint32_t)(position & (uint32_t)0x07U) * 4U));
 435              		.loc 1 220 14 is_stmt 0 view .LVU162
 436 0156 0396     		str	r6, [sp, #12]
 221:Drivers/STM32L0xx_HAL_Driver/Src/stm32l0xx_hal_gpio.c ****         temp |= ((uint32_t)(GPIO_Init->Alternate) << (((uint32_t)position & (uint32_t)0x07U) * 4U))
 437              		.loc 1 221 38 view .LVU163
 438 0158 0726     		movs	r6, #7
 221:Drivers/STM32L0xx_HAL_Driver/Src/stm32l0xx_hal_gpio.c ****         temp |= ((uint32_t)(GPIO_Init->Alternate) << (((uint32_t)position & (uint32_t)0x07U) * 4U))
 439              		.loc 1 221 34 view .LVU164
 440 015a 0F21     		movs	r1, #15
 221:Drivers/STM32L0xx_HAL_Driver/Src/stm32l0xx_hal_gpio.c ****         temp |= ((uint32_t)(GPIO_Init->Alternate) << (((uint32_t)position & (uint32_t)0x07U) * 4U))
 441              		.loc 1 221 38 view .LVU165
 442 015c 1E40     		ands	r6, r3
 221:Drivers/STM32L0xx_HAL_Driver/Src/stm32l0xx_hal_gpio.c ****         temp |= ((uint32_t)(GPIO_Init->Alternate) << (((uint32_t)position & (uint32_t)0x07U) * 4U))
 443              		.loc 1 221 77 view .LVU166
 444 015e B600     		lsls	r6, r6, #2
 221:Drivers/STM32L0xx_HAL_Driver/Src/stm32l0xx_hal_gpio.c ****         temp |= ((uint32_t)(GPIO_Init->Alternate) << (((uint32_t)position & (uint32_t)0x07U) * 4U))
 445              		.loc 1 221 34 view .LVU167
 446 0160 B140     		lsls	r1, r1, r6
 221:Drivers/STM32L0xx_HAL_Driver/Src/stm32l0xx_hal_gpio.c ****         temp |= ((uint32_t)(GPIO_Init->Alternate) << (((uint32_t)position & (uint32_t)0x07U) * 4U))
 447              		.loc 1 221 14 view .LVU168
 448 0162 8A43     		bics	r2, r1
 449              	.LVL43:
 221:Drivers/STM32L0xx_HAL_Driver/Src/stm32l0xx_hal_gpio.c ****         temp |= ((uint32_t)(GPIO_Init->Alternate) << (((uint32_t)position & (uint32_t)0x07U) * 4U))
 450              		.loc 1 221 14 view .LVU169
 451 0164 9446     		mov	ip, r2
 452              	.LVL44:
 222:Drivers/STM32L0xx_HAL_Driver/Src/stm32l0xx_hal_gpio.c ****         GPIOx->AFR[position >> 3U] = temp;
ARM GAS  /tmp/ccp6wyhs.s 			page 16


 453              		.loc 1 222 9 is_stmt 1 view .LVU170
 222:Drivers/STM32L0xx_HAL_Driver/Src/stm32l0xx_hal_gpio.c ****         GPIOx->AFR[position >> 3U] = temp;
 454              		.loc 1 222 51 is_stmt 0 view .LVU171
 455 0166 019A     		ldr	r2, [sp, #4]
 456              	.LVL45:
 222:Drivers/STM32L0xx_HAL_Driver/Src/stm32l0xx_hal_gpio.c ****         GPIOx->AFR[position >> 3U] = temp;
 457              		.loc 1 222 51 view .LVU172
 458 0168 1269     		ldr	r2, [r2, #16]
 459 016a B240     		lsls	r2, r2, r6
 460 016c 1600     		movs	r6, r2
 222:Drivers/STM32L0xx_HAL_Driver/Src/stm32l0xx_hal_gpio.c ****         GPIOx->AFR[position >> 3U] = temp;
 461              		.loc 1 222 14 view .LVU173
 462 016e 6246     		mov	r2, ip
 463 0170 1643     		orrs	r6, r2
 464              	.LVL46:
 223:Drivers/STM32L0xx_HAL_Driver/Src/stm32l0xx_hal_gpio.c ****       }
 465              		.loc 1 223 9 is_stmt 1 view .LVU174
 223:Drivers/STM32L0xx_HAL_Driver/Src/stm32l0xx_hal_gpio.c ****       }
 466              		.loc 1 223 36 is_stmt 0 view .LVU175
 467 0172 039A     		ldr	r2, [sp, #12]
 468 0174 1662     		str	r6, [r2, #32]
 469 0176 75E7     		b	.L6
 470              	.LVL47:
 471              	.L18:
 274:Drivers/STM32L0xx_HAL_Driver/Src/stm32l0xx_hal_gpio.c ****         }
 472              		.loc 1 274 11 is_stmt 1 view .LVU176
 274:Drivers/STM32L0xx_HAL_Driver/Src/stm32l0xx_hal_gpio.c ****         }
 473              		.loc 1 274 16 is_stmt 0 view .LVU177
 474 0178 4946     		mov	r1, r9
 475 017a 1143     		orrs	r1, r2
 476 017c 0A00     		movs	r2, r1
 477              	.LVL48:
 276:Drivers/STM32L0xx_HAL_Driver/Src/stm32l0xx_hal_gpio.c ****       }
 478              		.loc 1 276 9 is_stmt 1 view .LVU178
 276:Drivers/STM32L0xx_HAL_Driver/Src/stm32l0xx_hal_gpio.c ****       }
 479              		.loc 1 276 20 is_stmt 0 view .LVU179
 480 017e FA60     		str	r2, [r7, #12]
 481 0180 B8E7     		b	.L4
 482              	.LVL49:
 483              	.L16:
 266:Drivers/STM32L0xx_HAL_Driver/Src/stm32l0xx_hal_gpio.c ****         }
 484              		.loc 1 266 11 is_stmt 1 view .LVU180
 266:Drivers/STM32L0xx_HAL_Driver/Src/stm32l0xx_hal_gpio.c ****         }
 485              		.loc 1 266 16 is_stmt 0 view .LVU181
 486 0182 4A46     		mov	r2, r9
 487 0184 1543     		orrs	r5, r2
 488              	.LVL50:
 266:Drivers/STM32L0xx_HAL_Driver/Src/stm32l0xx_hal_gpio.c ****         }
 489              		.loc 1 266 16 view .LVU182
 490 0186 AFE7     		b	.L17
 491              	.LVL51:
 492              	.L14:
 257:Drivers/STM32L0xx_HAL_Driver/Src/stm32l0xx_hal_gpio.c ****         }
 493              		.loc 1 257 11 is_stmt 1 view .LVU183
 257:Drivers/STM32L0xx_HAL_Driver/Src/stm32l0xx_hal_gpio.c ****         }
 494              		.loc 1 257 16 is_stmt 0 view .LVU184
 495 0188 4946     		mov	r1, r9
ARM GAS  /tmp/ccp6wyhs.s 			page 17


 496 018a 0A43     		orrs	r2, r1
 497              	.LVL52:
 257:Drivers/STM32L0xx_HAL_Driver/Src/stm32l0xx_hal_gpio.c ****         }
 498              		.loc 1 257 16 view .LVU185
 499 018c A7E7     		b	.L15
 500              	.LVL53:
 501              	.L12:
 249:Drivers/STM32L0xx_HAL_Driver/Src/stm32l0xx_hal_gpio.c ****         }
 502              		.loc 1 249 11 is_stmt 1 view .LVU186
 249:Drivers/STM32L0xx_HAL_Driver/Src/stm32l0xx_hal_gpio.c ****         }
 503              		.loc 1 249 16 is_stmt 0 view .LVU187
 504 018e 4946     		mov	r1, r9
 505 0190 0A43     		orrs	r2, r1
 506              	.LVL54:
 249:Drivers/STM32L0xx_HAL_Driver/Src/stm32l0xx_hal_gpio.c ****         }
 507              		.loc 1 249 16 view .LVU188
 508 0192 9FE7     		b	.L13
 509              	.LVL55:
 510              	.L30:
 249:Drivers/STM32L0xx_HAL_Driver/Src/stm32l0xx_hal_gpio.c ****         }
 511              		.loc 1 249 16 view .LVU189
 512 0194 0521     		movs	r1, #5
 513 0196 B140     		lsls	r1, r1, r6
 514 0198 0D43     		orrs	r5, r1
 515              	.LVL56:
 249:Drivers/STM32L0xx_HAL_Driver/Src/stm32l0xx_hal_gpio.c ****         }
 516              		.loc 1 249 16 view .LVU190
 517 019a 94E7     		b	.L8
 518              	.LVL57:
 519              	.L28:
 249:Drivers/STM32L0xx_HAL_Driver/Src/stm32l0xx_hal_gpio.c ****         }
 520              		.loc 1 249 16 view .LVU191
 521 019c 5146     		mov	r1, r10
 522 019e B140     		lsls	r1, r1, r6
 523 01a0 0D43     		orrs	r5, r1
 524              	.LVL58:
 249:Drivers/STM32L0xx_HAL_Driver/Src/stm32l0xx_hal_gpio.c ****         }
 525              		.loc 1 249 16 view .LVU192
 526 01a2 90E7     		b	.L8
 527              	.LVL59:
 528              	.L29:
 249:Drivers/STM32L0xx_HAL_Driver/Src/stm32l0xx_hal_gpio.c ****         }
 529              		.loc 1 249 16 view .LVU193
 530 01a4 0221     		movs	r1, #2
 531 01a6 B140     		lsls	r1, r1, r6
 532 01a8 0D43     		orrs	r5, r1
 533              	.LVL60:
 249:Drivers/STM32L0xx_HAL_Driver/Src/stm32l0xx_hal_gpio.c ****         }
 534              		.loc 1 249 16 view .LVU194
 535 01aa 8CE7     		b	.L8
 536              	.L32:
 537              		.align	2
 538              	.L31:
 539 01ac 00100240 		.word	1073876992
 540 01b0 00040140 		.word	1073808384
 541 01b4 00000140 		.word	1073807360
 542 01b8 00040050 		.word	1342178304
ARM GAS  /tmp/ccp6wyhs.s 			page 18


 543 01bc 00080050 		.word	1342179328
 544 01c0 001C0050 		.word	1342184448
 545              		.cfi_endproc
 546              	.LFE34:
 548              		.section	.text.HAL_GPIO_DeInit,"ax",%progbits
 549              		.align	1
 550              		.p2align 2,,3
 551              		.global	HAL_GPIO_DeInit
 552              		.syntax unified
 553              		.code	16
 554              		.thumb_func
 555              		.fpu softvfp
 557              	HAL_GPIO_DeInit:
 558              	.LVL61:
 559              	.LFB35:
 282:Drivers/STM32L0xx_HAL_Driver/Src/stm32l0xx_hal_gpio.c **** 
 283:Drivers/STM32L0xx_HAL_Driver/Src/stm32l0xx_hal_gpio.c **** /**
 284:Drivers/STM32L0xx_HAL_Driver/Src/stm32l0xx_hal_gpio.c ****   * @brief  De-initializes the GPIOx peripheral registers to their default reset values.
 285:Drivers/STM32L0xx_HAL_Driver/Src/stm32l0xx_hal_gpio.c ****   * @param  GPIOx where x can be (A..E and H) to select the GPIO peripheral for STM32L0XX family de
 286:Drivers/STM32L0xx_HAL_Driver/Src/stm32l0xx_hal_gpio.c ****   *                Note that GPIOE is not available on all devices.
 287:Drivers/STM32L0xx_HAL_Driver/Src/stm32l0xx_hal_gpio.c ****   * @param  GPIO_Pin specifies the port bit to be written.
 288:Drivers/STM32L0xx_HAL_Driver/Src/stm32l0xx_hal_gpio.c ****   *                   This parameter can be one of GPIO_PIN_x where x can be (0..15).
 289:Drivers/STM32L0xx_HAL_Driver/Src/stm32l0xx_hal_gpio.c ****   *                   All port bits are not necessarily available on all GPIOs.
 290:Drivers/STM32L0xx_HAL_Driver/Src/stm32l0xx_hal_gpio.c ****   * @retval None
 291:Drivers/STM32L0xx_HAL_Driver/Src/stm32l0xx_hal_gpio.c ****   */
 292:Drivers/STM32L0xx_HAL_Driver/Src/stm32l0xx_hal_gpio.c **** void HAL_GPIO_DeInit(GPIO_TypeDef  *GPIOx, uint32_t GPIO_Pin)
 293:Drivers/STM32L0xx_HAL_Driver/Src/stm32l0xx_hal_gpio.c **** {
 560              		.loc 1 293 1 is_stmt 1 view -0
 561              		.cfi_startproc
 562              		@ args = 0, pretend = 0, frame = 8
 563              		@ frame_needed = 0, uses_anonymous_args = 0
 294:Drivers/STM32L0xx_HAL_Driver/Src/stm32l0xx_hal_gpio.c ****   uint32_t position = 0x00U;
 564              		.loc 1 294 3 view .LVU196
 295:Drivers/STM32L0xx_HAL_Driver/Src/stm32l0xx_hal_gpio.c ****   uint32_t iocurrent = 0x00U;
 565              		.loc 1 295 3 view .LVU197
 296:Drivers/STM32L0xx_HAL_Driver/Src/stm32l0xx_hal_gpio.c ****   uint32_t tmp = 0x00U;
 566              		.loc 1 296 3 view .LVU198
 297:Drivers/STM32L0xx_HAL_Driver/Src/stm32l0xx_hal_gpio.c **** 
 298:Drivers/STM32L0xx_HAL_Driver/Src/stm32l0xx_hal_gpio.c ****   /* Check the parameters */
 299:Drivers/STM32L0xx_HAL_Driver/Src/stm32l0xx_hal_gpio.c ****   assert_param(IS_GPIO_PIN_AVAILABLE(GPIOx, GPIO_Pin));
 567              		.loc 1 299 3 view .LVU199
 300:Drivers/STM32L0xx_HAL_Driver/Src/stm32l0xx_hal_gpio.c **** 
 301:Drivers/STM32L0xx_HAL_Driver/Src/stm32l0xx_hal_gpio.c ****   /* Configure the port pins */
 302:Drivers/STM32L0xx_HAL_Driver/Src/stm32l0xx_hal_gpio.c ****   while ((GPIO_Pin >> position) != 0)
 568              		.loc 1 302 3 view .LVU200
 569              		.loc 1 302 9 view .LVU201
 293:Drivers/STM32L0xx_HAL_Driver/Src/stm32l0xx_hal_gpio.c ****   uint32_t position = 0x00U;
 570              		.loc 1 293 1 is_stmt 0 view .LVU202
 571 0000 F0B5     		push	{r4, r5, r6, r7, lr}
 572              	.LCFI3:
 573              		.cfi_def_cfa_offset 20
 574              		.cfi_offset 4, -20
 575              		.cfi_offset 5, -16
 576              		.cfi_offset 6, -12
 577              		.cfi_offset 7, -8
 578              		.cfi_offset 14, -4
 579 0002 DE46     		mov	lr, fp
ARM GAS  /tmp/ccp6wyhs.s 			page 19


 580 0004 5746     		mov	r7, r10
 581 0006 4E46     		mov	r6, r9
 582 0008 4546     		mov	r5, r8
 583 000a E0B5     		push	{r5, r6, r7, lr}
 584              	.LCFI4:
 585              		.cfi_def_cfa_offset 36
 586              		.cfi_offset 8, -36
 587              		.cfi_offset 9, -32
 588              		.cfi_offset 10, -28
 589              		.cfi_offset 11, -24
 294:Drivers/STM32L0xx_HAL_Driver/Src/stm32l0xx_hal_gpio.c ****   uint32_t iocurrent = 0x00U;
 590              		.loc 1 294 12 view .LVU203
 591 000c 0023     		movs	r3, #0
 293:Drivers/STM32L0xx_HAL_Driver/Src/stm32l0xx_hal_gpio.c ****   uint32_t position = 0x00U;
 592              		.loc 1 293 1 view .LVU204
 593 000e 83B0     		sub	sp, sp, #12
 594              	.LCFI5:
 595              		.cfi_def_cfa_offset 48
 596              		.loc 1 302 9 view .LVU205
 597 0010 0029     		cmp	r1, #0
 598 0012 62D0     		beq	.L33
 303:Drivers/STM32L0xx_HAL_Driver/Src/stm32l0xx_hal_gpio.c ****   {
 304:Drivers/STM32L0xx_HAL_Driver/Src/stm32l0xx_hal_gpio.c ****     /* Get the IO position */
 305:Drivers/STM32L0xx_HAL_Driver/Src/stm32l0xx_hal_gpio.c ****     iocurrent = (GPIO_Pin) & (1U << position);
 599              		.loc 1 305 34 view .LVU206
 600 0014 0122     		movs	r2, #1
 601 0016 9146     		mov	r9, r2
 306:Drivers/STM32L0xx_HAL_Driver/Src/stm32l0xx_hal_gpio.c **** 
 307:Drivers/STM32L0xx_HAL_Driver/Src/stm32l0xx_hal_gpio.c ****     if (iocurrent)
 308:Drivers/STM32L0xx_HAL_Driver/Src/stm32l0xx_hal_gpio.c ****     {
 309:Drivers/STM32L0xx_HAL_Driver/Src/stm32l0xx_hal_gpio.c ****       /*------------------------- EXTI Mode Configuration --------------------*/
 310:Drivers/STM32L0xx_HAL_Driver/Src/stm32l0xx_hal_gpio.c ****       /* Clear the External Interrupt or Event for the current IO */
 311:Drivers/STM32L0xx_HAL_Driver/Src/stm32l0xx_hal_gpio.c **** 
 312:Drivers/STM32L0xx_HAL_Driver/Src/stm32l0xx_hal_gpio.c ****       tmp = SYSCFG->EXTICR[position >> 2U];
 313:Drivers/STM32L0xx_HAL_Driver/Src/stm32l0xx_hal_gpio.c ****       tmp &= (((uint32_t)0x0FU) << (4U * (position & 0x03U)));
 602              		.loc 1 313 52 view .LVU207
 603 0018 0232     		adds	r2, r2, #2
 604 001a 9346     		mov	fp, r2
 314:Drivers/STM32L0xx_HAL_Driver/Src/stm32l0xx_hal_gpio.c ****       if (tmp == (GPIO_GET_INDEX(GPIOx) << (4U * (position & 0x03U))))
 315:Drivers/STM32L0xx_HAL_Driver/Src/stm32l0xx_hal_gpio.c ****       {
 316:Drivers/STM32L0xx_HAL_Driver/Src/stm32l0xx_hal_gpio.c ****         /* Clear EXTI line configuration */
 317:Drivers/STM32L0xx_HAL_Driver/Src/stm32l0xx_hal_gpio.c ****         EXTI->IMR &= ~((uint32_t)iocurrent);
 605              		.loc 1 317 19 view .LVU208
 606 001c 384A     		ldr	r2, .L52
 607 001e 9046     		mov	r8, r2
 608 0020 41E0     		b	.L34
 609              	.LVL62:
 610              	.L51:
 314:Drivers/STM32L0xx_HAL_Driver/Src/stm32l0xx_hal_gpio.c ****       if (tmp == (GPIO_GET_INDEX(GPIOx) << (4U * (position & 0x03U))))
 611              		.loc 1 314 19 discriminator 1 view .LVU209
 612 0022 384C     		ldr	r4, .L52+4
 613 0024 A042     		cmp	r0, r4
 614 0026 5FD0     		beq	.L49
 314:Drivers/STM32L0xx_HAL_Driver/Src/stm32l0xx_hal_gpio.c ****       if (tmp == (GPIO_GET_INDEX(GPIOx) << (4U * (position & 0x03U))))
 615              		.loc 1 314 19 discriminator 3 view .LVU210
 616 0028 374C     		ldr	r4, .L52+8
 617 002a A042     		cmp	r0, r4
ARM GAS  /tmp/ccp6wyhs.s 			page 20


 618 002c 60D0     		beq	.L50
 314:Drivers/STM32L0xx_HAL_Driver/Src/stm32l0xx_hal_gpio.c ****       if (tmp == (GPIO_GET_INDEX(GPIOx) << (4U * (position & 0x03U))))
 619              		.loc 1 314 19 discriminator 5 view .LVU211
 620 002e 374C     		ldr	r4, .L52+12
 621 0030 A042     		cmp	r0, r4
 622 0032 61D0     		beq	.L39
 623 0034 0624     		movs	r4, #6
 624 0036 AC40     		lsls	r4, r4, r5
 625 0038 2500     		movs	r5, r4
 626              	.L36:
 314:Drivers/STM32L0xx_HAL_Driver/Src/stm32l0xx_hal_gpio.c ****       if (tmp == (GPIO_GET_INDEX(GPIOx) << (4U * (position & 0x03U))))
 627              		.loc 1 314 10 discriminator 16 view .LVU212
 628 003a AE42     		cmp	r6, r5
 629 003c 11D1     		bne	.L40
 630              		.loc 1 317 9 is_stmt 1 view .LVU213
 631              		.loc 1 317 19 is_stmt 0 view .LVU214
 632 003e 4446     		mov	r4, r8
 633 0040 2568     		ldr	r5, [r4]
 318:Drivers/STM32L0xx_HAL_Driver/Src/stm32l0xx_hal_gpio.c ****         EXTI->EMR &= ~((uint32_t)iocurrent);
 319:Drivers/STM32L0xx_HAL_Driver/Src/stm32l0xx_hal_gpio.c **** 
 320:Drivers/STM32L0xx_HAL_Driver/Src/stm32l0xx_hal_gpio.c ****         /* Clear Rising Falling edge configuration */
 321:Drivers/STM32L0xx_HAL_Driver/Src/stm32l0xx_hal_gpio.c ****         EXTI->RTSR &= ~((uint32_t)iocurrent);
 322:Drivers/STM32L0xx_HAL_Driver/Src/stm32l0xx_hal_gpio.c ****         EXTI->FTSR &= ~((uint32_t)iocurrent);
 323:Drivers/STM32L0xx_HAL_Driver/Src/stm32l0xx_hal_gpio.c ****         
 324:Drivers/STM32L0xx_HAL_Driver/Src/stm32l0xx_hal_gpio.c ****         tmp = ((uint32_t)0x0FU) << (4U * (position & 0x03U));
 325:Drivers/STM32L0xx_HAL_Driver/Src/stm32l0xx_hal_gpio.c ****         SYSCFG->EXTICR[position >> 2U] &= ~tmp;
 634              		.loc 1 325 40 view .LVU215
 635 0042 019E     		ldr	r6, [sp, #4]
 636              	.LVL63:
 317:Drivers/STM32L0xx_HAL_Driver/Src/stm32l0xx_hal_gpio.c ****         EXTI->EMR &= ~((uint32_t)iocurrent);
 637              		.loc 1 317 19 view .LVU216
 638 0044 BD43     		bics	r5, r7
 639 0046 2560     		str	r5, [r4]
 318:Drivers/STM32L0xx_HAL_Driver/Src/stm32l0xx_hal_gpio.c ****         EXTI->EMR &= ~((uint32_t)iocurrent);
 640              		.loc 1 318 9 is_stmt 1 view .LVU217
 318:Drivers/STM32L0xx_HAL_Driver/Src/stm32l0xx_hal_gpio.c ****         EXTI->EMR &= ~((uint32_t)iocurrent);
 641              		.loc 1 318 19 is_stmt 0 view .LVU218
 642 0048 6568     		ldr	r5, [r4, #4]
 643 004a BD43     		bics	r5, r7
 644 004c 6560     		str	r5, [r4, #4]
 321:Drivers/STM32L0xx_HAL_Driver/Src/stm32l0xx_hal_gpio.c ****         EXTI->FTSR &= ~((uint32_t)iocurrent);
 645              		.loc 1 321 9 is_stmt 1 view .LVU219
 321:Drivers/STM32L0xx_HAL_Driver/Src/stm32l0xx_hal_gpio.c ****         EXTI->FTSR &= ~((uint32_t)iocurrent);
 646              		.loc 1 321 20 is_stmt 0 view .LVU220
 647 004e A568     		ldr	r5, [r4, #8]
 648 0050 BD43     		bics	r5, r7
 649 0052 A560     		str	r5, [r4, #8]
 322:Drivers/STM32L0xx_HAL_Driver/Src/stm32l0xx_hal_gpio.c ****         
 650              		.loc 1 322 9 is_stmt 1 view .LVU221
 322:Drivers/STM32L0xx_HAL_Driver/Src/stm32l0xx_hal_gpio.c ****         
 651              		.loc 1 322 20 is_stmt 0 view .LVU222
 652 0054 E568     		ldr	r5, [r4, #12]
 653 0056 BD43     		bics	r5, r7
 654 0058 E560     		str	r5, [r4, #12]
 324:Drivers/STM32L0xx_HAL_Driver/Src/stm32l0xx_hal_gpio.c ****         SYSCFG->EXTICR[position >> 2U] &= ~tmp;
 655              		.loc 1 324 9 is_stmt 1 view .LVU223
 656              	.LVL64:
ARM GAS  /tmp/ccp6wyhs.s 			page 21


 657              		.loc 1 325 9 view .LVU224
 658              		.loc 1 325 40 is_stmt 0 view .LVU225
 659 005a 6446     		mov	r4, ip
 660 005c B568     		ldr	r5, [r6, #8]
 661 005e A543     		bics	r5, r4
 662 0060 B560     		str	r5, [r6, #8]
 663              	.LVL65:
 664              	.L40:
 326:Drivers/STM32L0xx_HAL_Driver/Src/stm32l0xx_hal_gpio.c ****       }
 327:Drivers/STM32L0xx_HAL_Driver/Src/stm32l0xx_hal_gpio.c **** 
 328:Drivers/STM32L0xx_HAL_Driver/Src/stm32l0xx_hal_gpio.c ****       /*------------------------- GPIO Mode Configuration --------------------*/
 329:Drivers/STM32L0xx_HAL_Driver/Src/stm32l0xx_hal_gpio.c ****       /* Configure IO Direction in Input Floting Mode */
 330:Drivers/STM32L0xx_HAL_Driver/Src/stm32l0xx_hal_gpio.c ****       GPIOx->MODER |= (GPIO_MODER_MODE0 << (position * 2U));
 665              		.loc 1 330 7 is_stmt 1 view .LVU226
 666              		.loc 1 330 41 is_stmt 0 view .LVU227
 667 0062 5E46     		mov	r6, fp
 668 0064 5D00     		lsls	r5, r3, #1
 669 0066 AE40     		lsls	r6, r6, r5
 670              		.loc 1 330 20 view .LVU228
 671 0068 0468     		ldr	r4, [r0]
 672              		.loc 1 330 41 view .LVU229
 673 006a 3500     		movs	r5, r6
 674              		.loc 1 330 20 view .LVU230
 675 006c 3443     		orrs	r4, r6
 676 006e 0460     		str	r4, [r0]
 331:Drivers/STM32L0xx_HAL_Driver/Src/stm32l0xx_hal_gpio.c **** 
 332:Drivers/STM32L0xx_HAL_Driver/Src/stm32l0xx_hal_gpio.c ****       /* Configure the default Alternate Function in current IO */
 333:Drivers/STM32L0xx_HAL_Driver/Src/stm32l0xx_hal_gpio.c ****       GPIOx->AFR[position >> 3U] &= ~((uint32_t)0xFU << ((uint32_t)(position & (uint32_t)0x07U) * 4
 677              		.loc 1 333 7 is_stmt 1 view .LVU231
 678              		.loc 1 333 34 is_stmt 0 view .LVU232
 679 0070 DC08     		lsrs	r4, r3, #3
 680 0072 A400     		lsls	r4, r4, #2
 681 0074 0419     		adds	r4, r0, r4
 682 0076 266A     		ldr	r6, [r4, #32]
 683              		.loc 1 333 58 view .LVU233
 684 0078 0727     		movs	r7, #7
 685              	.LVL66:
 686              		.loc 1 333 34 view .LVU234
 687 007a B446     		mov	ip, r6
 688              		.loc 1 333 54 view .LVU235
 689 007c 0F26     		movs	r6, #15
 690              		.loc 1 333 58 view .LVU236
 691 007e 1F40     		ands	r7, r3
 692              		.loc 1 333 97 view .LVU237
 693 0080 BF00     		lsls	r7, r7, #2
 694              		.loc 1 333 54 view .LVU238
 695 0082 BE40     		lsls	r6, r6, r7
 696 0084 3700     		movs	r7, r6
 697              		.loc 1 333 34 view .LVU239
 698 0086 6646     		mov	r6, ip
 699 0088 BE43     		bics	r6, r7
 700 008a 2662     		str	r6, [r4, #32]
 334:Drivers/STM32L0xx_HAL_Driver/Src/stm32l0xx_hal_gpio.c **** 
 335:Drivers/STM32L0xx_HAL_Driver/Src/stm32l0xx_hal_gpio.c ****       /* Deactivate the Pull-up oand Pull-down resistor for the current IO */
 336:Drivers/STM32L0xx_HAL_Driver/Src/stm32l0xx_hal_gpio.c ****       GPIOx->PUPDR &= ~(GPIO_PUPDR_PUPD0 << (position * 2U));
 701              		.loc 1 336 7 is_stmt 1 view .LVU240
 702              		.loc 1 336 20 is_stmt 0 view .LVU241
ARM GAS  /tmp/ccp6wyhs.s 			page 22


 703 008c C468     		ldr	r4, [r0, #12]
 704 008e AC43     		bics	r4, r5
 705 0090 C460     		str	r4, [r0, #12]
 337:Drivers/STM32L0xx_HAL_Driver/Src/stm32l0xx_hal_gpio.c **** 
 338:Drivers/STM32L0xx_HAL_Driver/Src/stm32l0xx_hal_gpio.c ****       /* Configure the default value IO Output Type */
 339:Drivers/STM32L0xx_HAL_Driver/Src/stm32l0xx_hal_gpio.c ****       GPIOx->OTYPER  &= ~(GPIO_OTYPER_OT_0 << position);
 706              		.loc 1 339 7 is_stmt 1 view .LVU242
 707              		.loc 1 339 22 is_stmt 0 view .LVU243
 708 0092 4468     		ldr	r4, [r0, #4]
 709 0094 9443     		bics	r4, r2
 710 0096 4460     		str	r4, [r0, #4]
 340:Drivers/STM32L0xx_HAL_Driver/Src/stm32l0xx_hal_gpio.c **** 
 341:Drivers/STM32L0xx_HAL_Driver/Src/stm32l0xx_hal_gpio.c ****       /* Configure the default value for IO Speed */
 342:Drivers/STM32L0xx_HAL_Driver/Src/stm32l0xx_hal_gpio.c ****       GPIOx->OSPEEDR &= ~(GPIO_OSPEEDER_OSPEED0 << (position * 2U));
 711              		.loc 1 342 7 is_stmt 1 view .LVU244
 712              		.loc 1 342 22 is_stmt 0 view .LVU245
 713 0098 8268     		ldr	r2, [r0, #8]
 714              	.LVL67:
 715              		.loc 1 342 22 view .LVU246
 716 009a AA43     		bics	r2, r5
 717 009c 8260     		str	r2, [r0, #8]
 718              	.L35:
 343:Drivers/STM32L0xx_HAL_Driver/Src/stm32l0xx_hal_gpio.c ****     }
 344:Drivers/STM32L0xx_HAL_Driver/Src/stm32l0xx_hal_gpio.c ****     position++;
 719              		.loc 1 344 5 is_stmt 1 view .LVU247
 302:Drivers/STM32L0xx_HAL_Driver/Src/stm32l0xx_hal_gpio.c ****   {
 720              		.loc 1 302 20 is_stmt 0 view .LVU248
 721 009e 0A00     		movs	r2, r1
 722              		.loc 1 344 13 view .LVU249
 723 00a0 0133     		adds	r3, r3, #1
 724              	.LVL68:
 302:Drivers/STM32L0xx_HAL_Driver/Src/stm32l0xx_hal_gpio.c ****   {
 725              		.loc 1 302 9 is_stmt 1 view .LVU250
 302:Drivers/STM32L0xx_HAL_Driver/Src/stm32l0xx_hal_gpio.c ****   {
 726              		.loc 1 302 20 is_stmt 0 view .LVU251
 727 00a2 DA40     		lsrs	r2, r2, r3
 302:Drivers/STM32L0xx_HAL_Driver/Src/stm32l0xx_hal_gpio.c ****   {
 728              		.loc 1 302 9 view .LVU252
 729 00a4 19D0     		beq	.L33
 730              	.LVL69:
 731              	.L34:
 305:Drivers/STM32L0xx_HAL_Driver/Src/stm32l0xx_hal_gpio.c **** 
 732              		.loc 1 305 5 is_stmt 1 view .LVU253
 305:Drivers/STM32L0xx_HAL_Driver/Src/stm32l0xx_hal_gpio.c **** 
 733              		.loc 1 305 34 is_stmt 0 view .LVU254
 734 00a6 4A46     		mov	r2, r9
 305:Drivers/STM32L0xx_HAL_Driver/Src/stm32l0xx_hal_gpio.c **** 
 735              		.loc 1 305 15 view .LVU255
 736 00a8 0F00     		movs	r7, r1
 305:Drivers/STM32L0xx_HAL_Driver/Src/stm32l0xx_hal_gpio.c **** 
 737              		.loc 1 305 34 view .LVU256
 738 00aa 9A40     		lsls	r2, r2, r3
 305:Drivers/STM32L0xx_HAL_Driver/Src/stm32l0xx_hal_gpio.c **** 
 739              		.loc 1 305 15 view .LVU257
 740 00ac 1740     		ands	r7, r2
 741              	.LVL70:
 307:Drivers/STM32L0xx_HAL_Driver/Src/stm32l0xx_hal_gpio.c ****     {
ARM GAS  /tmp/ccp6wyhs.s 			page 23


 742              		.loc 1 307 5 is_stmt 1 view .LVU258
 307:Drivers/STM32L0xx_HAL_Driver/Src/stm32l0xx_hal_gpio.c ****     {
 743              		.loc 1 307 8 is_stmt 0 view .LVU259
 744 00ae 1142     		tst	r1, r2
 745 00b0 F5D0     		beq	.L35
 312:Drivers/STM32L0xx_HAL_Driver/Src/stm32l0xx_hal_gpio.c ****       tmp &= (((uint32_t)0x0FU) << (4U * (position & 0x03U)));
 746              		.loc 1 312 7 is_stmt 1 view .LVU260
 747 00b2 174D     		ldr	r5, .L52+16
 312:Drivers/STM32L0xx_HAL_Driver/Src/stm32l0xx_hal_gpio.c ****       tmp &= (((uint32_t)0x0FU) << (4U * (position & 0x03U)));
 748              		.loc 1 312 37 is_stmt 0 view .LVU261
 749 00b4 9C08     		lsrs	r4, r3, #2
 750 00b6 AC46     		mov	ip, r5
 751 00b8 A400     		lsls	r4, r4, #2
 313:Drivers/STM32L0xx_HAL_Driver/Src/stm32l0xx_hal_gpio.c ****       if (tmp == (GPIO_GET_INDEX(GPIOx) << (4U * (position & 0x03U))))
 752              		.loc 1 313 52 view .LVU262
 753 00ba 5D46     		mov	r5, fp
 754 00bc 6444     		add	r4, r4, ip
 312:Drivers/STM32L0xx_HAL_Driver/Src/stm32l0xx_hal_gpio.c ****       tmp &= (((uint32_t)0x0FU) << (4U * (position & 0x03U)));
 755              		.loc 1 312 11 view .LVU263
 756 00be A668     		ldr	r6, [r4, #8]
 757              	.LVL71:
 313:Drivers/STM32L0xx_HAL_Driver/Src/stm32l0xx_hal_gpio.c ****       if (tmp == (GPIO_GET_INDEX(GPIOx) << (4U * (position & 0x03U))))
 758              		.loc 1 313 7 is_stmt 1 view .LVU264
 759 00c0 0194     		str	r4, [sp, #4]
 313:Drivers/STM32L0xx_HAL_Driver/Src/stm32l0xx_hal_gpio.c ****       if (tmp == (GPIO_GET_INDEX(GPIOx) << (4U * (position & 0x03U))))
 760              		.loc 1 313 33 is_stmt 0 view .LVU265
 761 00c2 0F24     		movs	r4, #15
 313:Drivers/STM32L0xx_HAL_Driver/Src/stm32l0xx_hal_gpio.c ****       if (tmp == (GPIO_GET_INDEX(GPIOx) << (4U * (position & 0x03U))))
 762              		.loc 1 313 52 view .LVU266
 763 00c4 1D40     		ands	r5, r3
 313:Drivers/STM32L0xx_HAL_Driver/Src/stm32l0xx_hal_gpio.c ****       if (tmp == (GPIO_GET_INDEX(GPIOx) << (4U * (position & 0x03U))))
 764              		.loc 1 313 40 view .LVU267
 765 00c6 AD00     		lsls	r5, r5, #2
 313:Drivers/STM32L0xx_HAL_Driver/Src/stm32l0xx_hal_gpio.c ****       if (tmp == (GPIO_GET_INDEX(GPIOx) << (4U * (position & 0x03U))))
 766              		.loc 1 313 33 view .LVU268
 767 00c8 AC40     		lsls	r4, r4, r5
 768 00ca A446     		mov	ip, r4
 313:Drivers/STM32L0xx_HAL_Driver/Src/stm32l0xx_hal_gpio.c ****       if (tmp == (GPIO_GET_INDEX(GPIOx) << (4U * (position & 0x03U))))
 769              		.loc 1 313 11 view .LVU269
 770 00cc 2640     		ands	r6, r4
 771              	.LVL72:
 314:Drivers/STM32L0xx_HAL_Driver/Src/stm32l0xx_hal_gpio.c ****       {
 772              		.loc 1 314 7 is_stmt 1 view .LVU270
 314:Drivers/STM32L0xx_HAL_Driver/Src/stm32l0xx_hal_gpio.c ****       {
 773              		.loc 1 314 19 is_stmt 0 view .LVU271
 774 00ce A024     		movs	r4, #160
 775 00d0 E405     		lsls	r4, r4, #23
 776 00d2 A042     		cmp	r0, r4
 777 00d4 A5D1     		bne	.L51
 778 00d6 0025     		movs	r5, #0
 779 00d8 AFE7     		b	.L36
 780              	.LVL73:
 781              	.L33:
 345:Drivers/STM32L0xx_HAL_Driver/Src/stm32l0xx_hal_gpio.c ****   }
 346:Drivers/STM32L0xx_HAL_Driver/Src/stm32l0xx_hal_gpio.c **** }
 782              		.loc 1 346 1 view .LVU272
 783 00da 03B0     		add	sp, sp, #12
ARM GAS  /tmp/ccp6wyhs.s 			page 24


 784              		@ sp needed
 785 00dc 3CBC     		pop	{r2, r3, r4, r5}
 786 00de 9046     		mov	r8, r2
 787 00e0 9946     		mov	r9, r3
 788 00e2 A246     		mov	r10, r4
 789 00e4 AB46     		mov	fp, r5
 790 00e6 F0BD     		pop	{r4, r5, r6, r7, pc}
 791              	.LVL74:
 792              	.L49:
 793              		.loc 1 346 1 view .LVU273
 794 00e8 4C46     		mov	r4, r9
 795 00ea AC40     		lsls	r4, r4, r5
 796 00ec 2500     		movs	r5, r4
 797 00ee A4E7     		b	.L36
 798              	.L50:
 799 00f0 0224     		movs	r4, #2
 800 00f2 AC40     		lsls	r4, r4, r5
 801 00f4 2500     		movs	r5, r4
 802 00f6 A0E7     		b	.L36
 803              	.L39:
 804 00f8 0524     		movs	r4, #5
 805 00fa AC40     		lsls	r4, r4, r5
 806 00fc 2500     		movs	r5, r4
 807 00fe 9CE7     		b	.L36
 808              	.L53:
 809              		.align	2
 810              	.L52:
 811 0100 00040140 		.word	1073808384
 812 0104 00040050 		.word	1342178304
 813 0108 00080050 		.word	1342179328
 814 010c 001C0050 		.word	1342184448
 815 0110 00000140 		.word	1073807360
 816              		.cfi_endproc
 817              	.LFE35:
 819              		.section	.text.HAL_GPIO_ReadPin,"ax",%progbits
 820              		.align	1
 821              		.p2align 2,,3
 822              		.global	HAL_GPIO_ReadPin
 823              		.syntax unified
 824              		.code	16
 825              		.thumb_func
 826              		.fpu softvfp
 828              	HAL_GPIO_ReadPin:
 829              	.LVL75:
 830              	.LFB36:
 347:Drivers/STM32L0xx_HAL_Driver/Src/stm32l0xx_hal_gpio.c **** 
 348:Drivers/STM32L0xx_HAL_Driver/Src/stm32l0xx_hal_gpio.c **** /**
 349:Drivers/STM32L0xx_HAL_Driver/Src/stm32l0xx_hal_gpio.c ****   * @}
 350:Drivers/STM32L0xx_HAL_Driver/Src/stm32l0xx_hal_gpio.c ****   */
 351:Drivers/STM32L0xx_HAL_Driver/Src/stm32l0xx_hal_gpio.c **** 
 352:Drivers/STM32L0xx_HAL_Driver/Src/stm32l0xx_hal_gpio.c **** /** @addtogroup GPIO_Exported_Functions_Group2
 353:Drivers/STM32L0xx_HAL_Driver/Src/stm32l0xx_hal_gpio.c ****  *  @brief   GPIO Read and Write
 354:Drivers/STM32L0xx_HAL_Driver/Src/stm32l0xx_hal_gpio.c ****  *
 355:Drivers/STM32L0xx_HAL_Driver/Src/stm32l0xx_hal_gpio.c **** @verbatim
 356:Drivers/STM32L0xx_HAL_Driver/Src/stm32l0xx_hal_gpio.c ****  ===============================================================================
 357:Drivers/STM32L0xx_HAL_Driver/Src/stm32l0xx_hal_gpio.c ****                        ##### IO operation functions #####
 358:Drivers/STM32L0xx_HAL_Driver/Src/stm32l0xx_hal_gpio.c ****  ===============================================================================
ARM GAS  /tmp/ccp6wyhs.s 			page 25


 359:Drivers/STM32L0xx_HAL_Driver/Src/stm32l0xx_hal_gpio.c **** 
 360:Drivers/STM32L0xx_HAL_Driver/Src/stm32l0xx_hal_gpio.c **** @endverbatim
 361:Drivers/STM32L0xx_HAL_Driver/Src/stm32l0xx_hal_gpio.c ****   * @{
 362:Drivers/STM32L0xx_HAL_Driver/Src/stm32l0xx_hal_gpio.c ****   */
 363:Drivers/STM32L0xx_HAL_Driver/Src/stm32l0xx_hal_gpio.c **** 
 364:Drivers/STM32L0xx_HAL_Driver/Src/stm32l0xx_hal_gpio.c **** /**
 365:Drivers/STM32L0xx_HAL_Driver/Src/stm32l0xx_hal_gpio.c ****   * @brief  Reads the specified input port pin.
 366:Drivers/STM32L0xx_HAL_Driver/Src/stm32l0xx_hal_gpio.c ****   * @param  GPIOx where x can be (A..E and H) to select the GPIO peripheral for STM32L0xx family de
 367:Drivers/STM32L0xx_HAL_Driver/Src/stm32l0xx_hal_gpio.c ****   *                Note that GPIOE is not available on all devices.
 368:Drivers/STM32L0xx_HAL_Driver/Src/stm32l0xx_hal_gpio.c ****   * @param  GPIO_Pin specifies the port bit to read.
 369:Drivers/STM32L0xx_HAL_Driver/Src/stm32l0xx_hal_gpio.c ****   *                   This parameter can be GPIO_PIN_x where x can be (0..15).
 370:Drivers/STM32L0xx_HAL_Driver/Src/stm32l0xx_hal_gpio.c ****   *                   All port bits are not necessarily available on all GPIOs.
 371:Drivers/STM32L0xx_HAL_Driver/Src/stm32l0xx_hal_gpio.c ****   * @retval The input port pin value.
 372:Drivers/STM32L0xx_HAL_Driver/Src/stm32l0xx_hal_gpio.c ****   */
 373:Drivers/STM32L0xx_HAL_Driver/Src/stm32l0xx_hal_gpio.c **** GPIO_PinState HAL_GPIO_ReadPin(GPIO_TypeDef *GPIOx, uint16_t GPIO_Pin)
 374:Drivers/STM32L0xx_HAL_Driver/Src/stm32l0xx_hal_gpio.c **** {
 831              		.loc 1 374 1 is_stmt 1 view -0
 832              		.cfi_startproc
 833              		@ args = 0, pretend = 0, frame = 0
 834              		@ frame_needed = 0, uses_anonymous_args = 0
 835              		@ link register save eliminated.
 375:Drivers/STM32L0xx_HAL_Driver/Src/stm32l0xx_hal_gpio.c ****   GPIO_PinState bitstatus;
 836              		.loc 1 375 3 view .LVU275
 376:Drivers/STM32L0xx_HAL_Driver/Src/stm32l0xx_hal_gpio.c **** 
 377:Drivers/STM32L0xx_HAL_Driver/Src/stm32l0xx_hal_gpio.c ****   /* Check the parameters */
 378:Drivers/STM32L0xx_HAL_Driver/Src/stm32l0xx_hal_gpio.c ****   assert_param(IS_GPIO_PIN_AVAILABLE(GPIOx, GPIO_Pin));
 837              		.loc 1 378 3 view .LVU276
 379:Drivers/STM32L0xx_HAL_Driver/Src/stm32l0xx_hal_gpio.c **** 
 380:Drivers/STM32L0xx_HAL_Driver/Src/stm32l0xx_hal_gpio.c ****   if ((GPIOx->IDR & GPIO_Pin) != (uint32_t)GPIO_PIN_RESET)
 838              		.loc 1 380 3 view .LVU277
 839              		.loc 1 380 13 is_stmt 0 view .LVU278
 840 0000 0069     		ldr	r0, [r0, #16]
 841              	.LVL76:
 381:Drivers/STM32L0xx_HAL_Driver/Src/stm32l0xx_hal_gpio.c ****   {
 382:Drivers/STM32L0xx_HAL_Driver/Src/stm32l0xx_hal_gpio.c ****     bitstatus = GPIO_PIN_SET;
 383:Drivers/STM32L0xx_HAL_Driver/Src/stm32l0xx_hal_gpio.c ****   }
 384:Drivers/STM32L0xx_HAL_Driver/Src/stm32l0xx_hal_gpio.c ****   else
 385:Drivers/STM32L0xx_HAL_Driver/Src/stm32l0xx_hal_gpio.c ****   {
 386:Drivers/STM32L0xx_HAL_Driver/Src/stm32l0xx_hal_gpio.c ****     bitstatus = GPIO_PIN_RESET;
 387:Drivers/STM32L0xx_HAL_Driver/Src/stm32l0xx_hal_gpio.c ****   }
 388:Drivers/STM32L0xx_HAL_Driver/Src/stm32l0xx_hal_gpio.c ****   return bitstatus;
 842              		.loc 1 388 3 is_stmt 1 view .LVU279
 389:Drivers/STM32L0xx_HAL_Driver/Src/stm32l0xx_hal_gpio.c **** }
 843              		.loc 1 389 1 is_stmt 0 view .LVU280
 844              		@ sp needed
 380:Drivers/STM32L0xx_HAL_Driver/Src/stm32l0xx_hal_gpio.c ****   {
 845              		.loc 1 380 19 view .LVU281
 846 0002 0840     		ands	r0, r1
 847              	.LVL77:
 380:Drivers/STM32L0xx_HAL_Driver/Src/stm32l0xx_hal_gpio.c ****   {
 848              		.loc 1 380 6 view .LVU282
 849 0004 411E     		subs	r1, r0, #1
 850 0006 8841     		sbcs	r0, r0, r1
 851              	.LVL78:
 388:Drivers/STM32L0xx_HAL_Driver/Src/stm32l0xx_hal_gpio.c **** }
 852              		.loc 1 388 10 view .LVU283
 853 0008 C0B2     		uxtb	r0, r0
ARM GAS  /tmp/ccp6wyhs.s 			page 26


 854              		.loc 1 389 1 view .LVU284
 855 000a 7047     		bx	lr
 856              		.cfi_endproc
 857              	.LFE36:
 859              		.section	.text.HAL_GPIO_WritePin,"ax",%progbits
 860              		.align	1
 861              		.p2align 2,,3
 862              		.global	HAL_GPIO_WritePin
 863              		.syntax unified
 864              		.code	16
 865              		.thumb_func
 866              		.fpu softvfp
 868              	HAL_GPIO_WritePin:
 869              	.LVL79:
 870              	.LFB37:
 390:Drivers/STM32L0xx_HAL_Driver/Src/stm32l0xx_hal_gpio.c **** 
 391:Drivers/STM32L0xx_HAL_Driver/Src/stm32l0xx_hal_gpio.c **** /**
 392:Drivers/STM32L0xx_HAL_Driver/Src/stm32l0xx_hal_gpio.c ****   * @brief  Sets or clears the selected data port bit.
 393:Drivers/STM32L0xx_HAL_Driver/Src/stm32l0xx_hal_gpio.c ****   *
 394:Drivers/STM32L0xx_HAL_Driver/Src/stm32l0xx_hal_gpio.c ****   * @note   This function uses GPIOx_BSRR register to allow atomic read/modify
 395:Drivers/STM32L0xx_HAL_Driver/Src/stm32l0xx_hal_gpio.c ****   *         accesses. In this way, there is no risk of an IRQ occurring between
 396:Drivers/STM32L0xx_HAL_Driver/Src/stm32l0xx_hal_gpio.c ****   *         the read and the modify access.
 397:Drivers/STM32L0xx_HAL_Driver/Src/stm32l0xx_hal_gpio.c ****   *
 398:Drivers/STM32L0xx_HAL_Driver/Src/stm32l0xx_hal_gpio.c ****   * @param  GPIOx where x can be (A..E and H) to select the GPIO peripheral for STM32L0xx family de
 399:Drivers/STM32L0xx_HAL_Driver/Src/stm32l0xx_hal_gpio.c ****   *                Note that GPIOE is not available on all devices.
 400:Drivers/STM32L0xx_HAL_Driver/Src/stm32l0xx_hal_gpio.c ****   * @param  GPIO_Pin specifies the port bit to be written.
 401:Drivers/STM32L0xx_HAL_Driver/Src/stm32l0xx_hal_gpio.c ****   *                   This parameter can be one of GPIO_PIN_x where x can be (0..15).
 402:Drivers/STM32L0xx_HAL_Driver/Src/stm32l0xx_hal_gpio.c ****   *                   All port bits are not necessarily available on all GPIOs.
 403:Drivers/STM32L0xx_HAL_Driver/Src/stm32l0xx_hal_gpio.c ****   * @param  PinState specifies the value to be written to the selected bit.
 404:Drivers/STM32L0xx_HAL_Driver/Src/stm32l0xx_hal_gpio.c ****   *                   This parameter can be one of the GPIO_PinState enum values:
 405:Drivers/STM32L0xx_HAL_Driver/Src/stm32l0xx_hal_gpio.c ****   *                        GPIO_PIN_RESET: to clear the port pin
 406:Drivers/STM32L0xx_HAL_Driver/Src/stm32l0xx_hal_gpio.c ****   *                        GPIO_PIN_SET: to set the port pin
 407:Drivers/STM32L0xx_HAL_Driver/Src/stm32l0xx_hal_gpio.c ****   * @retval None
 408:Drivers/STM32L0xx_HAL_Driver/Src/stm32l0xx_hal_gpio.c ****   */
 409:Drivers/STM32L0xx_HAL_Driver/Src/stm32l0xx_hal_gpio.c **** void HAL_GPIO_WritePin(GPIO_TypeDef *GPIOx, uint16_t GPIO_Pin, GPIO_PinState PinState)
 410:Drivers/STM32L0xx_HAL_Driver/Src/stm32l0xx_hal_gpio.c **** {
 871              		.loc 1 410 1 is_stmt 1 view -0
 872              		.cfi_startproc
 873              		@ args = 0, pretend = 0, frame = 0
 874              		@ frame_needed = 0, uses_anonymous_args = 0
 875              		@ link register save eliminated.
 411:Drivers/STM32L0xx_HAL_Driver/Src/stm32l0xx_hal_gpio.c ****   /* Check the parameters */
 412:Drivers/STM32L0xx_HAL_Driver/Src/stm32l0xx_hal_gpio.c ****   assert_param(IS_GPIO_PIN_AVAILABLE(GPIOx, GPIO_Pin));
 876              		.loc 1 412 3 view .LVU286
 413:Drivers/STM32L0xx_HAL_Driver/Src/stm32l0xx_hal_gpio.c ****   assert_param(IS_GPIO_PIN_ACTION(PinState));
 877              		.loc 1 413 3 view .LVU287
 414:Drivers/STM32L0xx_HAL_Driver/Src/stm32l0xx_hal_gpio.c **** 
 415:Drivers/STM32L0xx_HAL_Driver/Src/stm32l0xx_hal_gpio.c ****   if (PinState != GPIO_PIN_RESET)
 878              		.loc 1 415 3 view .LVU288
 879              		.loc 1 415 6 is_stmt 0 view .LVU289
 880 0000 002A     		cmp	r2, #0
 881 0002 01D0     		beq	.L56
 416:Drivers/STM32L0xx_HAL_Driver/Src/stm32l0xx_hal_gpio.c ****   {
 417:Drivers/STM32L0xx_HAL_Driver/Src/stm32l0xx_hal_gpio.c ****     GPIOx->BSRR = GPIO_Pin;
 882              		.loc 1 417 5 is_stmt 1 view .LVU290
 883              		.loc 1 417 17 is_stmt 0 view .LVU291
 884 0004 8161     		str	r1, [r0, #24]
ARM GAS  /tmp/ccp6wyhs.s 			page 27


 885              	.L55:
 418:Drivers/STM32L0xx_HAL_Driver/Src/stm32l0xx_hal_gpio.c ****   }
 419:Drivers/STM32L0xx_HAL_Driver/Src/stm32l0xx_hal_gpio.c ****   else
 420:Drivers/STM32L0xx_HAL_Driver/Src/stm32l0xx_hal_gpio.c ****   {
 421:Drivers/STM32L0xx_HAL_Driver/Src/stm32l0xx_hal_gpio.c ****     GPIOx->BRR = GPIO_Pin ;
 422:Drivers/STM32L0xx_HAL_Driver/Src/stm32l0xx_hal_gpio.c ****   }
 423:Drivers/STM32L0xx_HAL_Driver/Src/stm32l0xx_hal_gpio.c **** }
 886              		.loc 1 423 1 view .LVU292
 887              		@ sp needed
 888 0006 7047     		bx	lr
 889              	.L56:
 421:Drivers/STM32L0xx_HAL_Driver/Src/stm32l0xx_hal_gpio.c ****   }
 890              		.loc 1 421 5 is_stmt 1 view .LVU293
 421:Drivers/STM32L0xx_HAL_Driver/Src/stm32l0xx_hal_gpio.c ****   }
 891              		.loc 1 421 16 is_stmt 0 view .LVU294
 892 0008 8162     		str	r1, [r0, #40]
 893              		.loc 1 423 1 view .LVU295
 894 000a FCE7     		b	.L55
 895              		.cfi_endproc
 896              	.LFE37:
 898              		.section	.text.HAL_GPIO_TogglePin,"ax",%progbits
 899              		.align	1
 900              		.p2align 2,,3
 901              		.global	HAL_GPIO_TogglePin
 902              		.syntax unified
 903              		.code	16
 904              		.thumb_func
 905              		.fpu softvfp
 907              	HAL_GPIO_TogglePin:
 908              	.LVL80:
 909              	.LFB38:
 424:Drivers/STM32L0xx_HAL_Driver/Src/stm32l0xx_hal_gpio.c **** 
 425:Drivers/STM32L0xx_HAL_Driver/Src/stm32l0xx_hal_gpio.c **** /**
 426:Drivers/STM32L0xx_HAL_Driver/Src/stm32l0xx_hal_gpio.c ****   * @brief  Toggles the specified GPIO pins.
 427:Drivers/STM32L0xx_HAL_Driver/Src/stm32l0xx_hal_gpio.c ****   * @param  GPIOx Where x can be (A..E and H) to select the GPIO peripheral for STM32L0xx family de
 428:Drivers/STM32L0xx_HAL_Driver/Src/stm32l0xx_hal_gpio.c ****   *                Note that GPIOE is not available on all devices.
 429:Drivers/STM32L0xx_HAL_Driver/Src/stm32l0xx_hal_gpio.c ****   *                All port bits are not necessarily available on all GPIOs.
 430:Drivers/STM32L0xx_HAL_Driver/Src/stm32l0xx_hal_gpio.c ****   * @param  GPIO_Pin Specifies the pins to be toggled.
 431:Drivers/STM32L0xx_HAL_Driver/Src/stm32l0xx_hal_gpio.c ****   * @retval None
 432:Drivers/STM32L0xx_HAL_Driver/Src/stm32l0xx_hal_gpio.c ****   */
 433:Drivers/STM32L0xx_HAL_Driver/Src/stm32l0xx_hal_gpio.c **** void HAL_GPIO_TogglePin(GPIO_TypeDef *GPIOx, uint16_t GPIO_Pin)
 434:Drivers/STM32L0xx_HAL_Driver/Src/stm32l0xx_hal_gpio.c **** {
 910              		.loc 1 434 1 is_stmt 1 view -0
 911              		.cfi_startproc
 912              		@ args = 0, pretend = 0, frame = 0
 913              		@ frame_needed = 0, uses_anonymous_args = 0
 914              		@ link register save eliminated.
 435:Drivers/STM32L0xx_HAL_Driver/Src/stm32l0xx_hal_gpio.c ****   uint32_t odr;
 915              		.loc 1 435 3 view .LVU297
 436:Drivers/STM32L0xx_HAL_Driver/Src/stm32l0xx_hal_gpio.c **** 
 437:Drivers/STM32L0xx_HAL_Driver/Src/stm32l0xx_hal_gpio.c ****   /* Check the parameters */
 438:Drivers/STM32L0xx_HAL_Driver/Src/stm32l0xx_hal_gpio.c ****   assert_param(IS_GPIO_PIN_AVAILABLE(GPIOx, GPIO_Pin));
 916              		.loc 1 438 3 view .LVU298
 439:Drivers/STM32L0xx_HAL_Driver/Src/stm32l0xx_hal_gpio.c **** 
 440:Drivers/STM32L0xx_HAL_Driver/Src/stm32l0xx_hal_gpio.c ****   /* get current Ouput Data Register value */
 441:Drivers/STM32L0xx_HAL_Driver/Src/stm32l0xx_hal_gpio.c ****   odr = GPIOx->ODR;
 917              		.loc 1 441 3 view .LVU299
ARM GAS  /tmp/ccp6wyhs.s 			page 28


 918              		.loc 1 441 7 is_stmt 0 view .LVU300
 919 0000 4269     		ldr	r2, [r0, #20]
 920              	.LVL81:
 442:Drivers/STM32L0xx_HAL_Driver/Src/stm32l0xx_hal_gpio.c **** 
 443:Drivers/STM32L0xx_HAL_Driver/Src/stm32l0xx_hal_gpio.c ****   /* Set selected pins that were at low level, and reset ones that were high */
 444:Drivers/STM32L0xx_HAL_Driver/Src/stm32l0xx_hal_gpio.c ****   GPIOx->BSRR = ((odr & GPIO_Pin) << GPIO_NUMBER) | (~odr & GPIO_Pin);
 921              		.loc 1 444 3 is_stmt 1 view .LVU301
 445:Drivers/STM32L0xx_HAL_Driver/Src/stm32l0xx_hal_gpio.c **** }
 922              		.loc 1 445 1 is_stmt 0 view .LVU302
 923              		@ sp needed
 444:Drivers/STM32L0xx_HAL_Driver/Src/stm32l0xx_hal_gpio.c **** }
 924              		.loc 1 444 23 view .LVU303
 925 0002 1300     		movs	r3, r2
 926 0004 0B40     		ands	r3, r1
 444:Drivers/STM32L0xx_HAL_Driver/Src/stm32l0xx_hal_gpio.c **** }
 927              		.loc 1 444 35 view .LVU304
 928 0006 1B04     		lsls	r3, r3, #16
 444:Drivers/STM32L0xx_HAL_Driver/Src/stm32l0xx_hal_gpio.c **** }
 929              		.loc 1 444 59 view .LVU305
 930 0008 9143     		bics	r1, r2
 931              	.LVL82:
 444:Drivers/STM32L0xx_HAL_Driver/Src/stm32l0xx_hal_gpio.c **** }
 932              		.loc 1 444 51 view .LVU306
 933 000a 1943     		orrs	r1, r3
 444:Drivers/STM32L0xx_HAL_Driver/Src/stm32l0xx_hal_gpio.c **** }
 934              		.loc 1 444 15 view .LVU307
 935 000c 8161     		str	r1, [r0, #24]
 936              		.loc 1 445 1 view .LVU308
 937 000e 7047     		bx	lr
 938              		.cfi_endproc
 939              	.LFE38:
 941              		.section	.text.HAL_GPIO_LockPin,"ax",%progbits
 942              		.align	1
 943              		.p2align 2,,3
 944              		.global	HAL_GPIO_LockPin
 945              		.syntax unified
 946              		.code	16
 947              		.thumb_func
 948              		.fpu softvfp
 950              	HAL_GPIO_LockPin:
 951              	.LVL83:
 952              	.LFB39:
 446:Drivers/STM32L0xx_HAL_Driver/Src/stm32l0xx_hal_gpio.c **** 
 447:Drivers/STM32L0xx_HAL_Driver/Src/stm32l0xx_hal_gpio.c **** /**
 448:Drivers/STM32L0xx_HAL_Driver/Src/stm32l0xx_hal_gpio.c **** * @brief  Locks GPIO Pins configuration registers.
 449:Drivers/STM32L0xx_HAL_Driver/Src/stm32l0xx_hal_gpio.c **** * @note   The locked registers are GPIOx_MODER, GPIOx_OTYPER, GPIOx_OSPEEDR,
 450:Drivers/STM32L0xx_HAL_Driver/Src/stm32l0xx_hal_gpio.c **** *         GPIOx_PUPDR, GPIOx_AFRL and GPIOx_AFRH.
 451:Drivers/STM32L0xx_HAL_Driver/Src/stm32l0xx_hal_gpio.c **** * @note   The configuration of the locked GPIO pins can no longer be modified
 452:Drivers/STM32L0xx_HAL_Driver/Src/stm32l0xx_hal_gpio.c **** *         until the next reset.
 453:Drivers/STM32L0xx_HAL_Driver/Src/stm32l0xx_hal_gpio.c **** * @param  GPIOx where x can be (A..E and H) to select the GPIO peripheral for STM32L0xx family.
 454:Drivers/STM32L0xx_HAL_Driver/Src/stm32l0xx_hal_gpio.c **** *                Note that GPIOE is not available on all devices.
 455:Drivers/STM32L0xx_HAL_Driver/Src/stm32l0xx_hal_gpio.c **** * @param  GPIO_Pin specifies the port bit to be locked.
 456:Drivers/STM32L0xx_HAL_Driver/Src/stm32l0xx_hal_gpio.c **** *         This parameter can be any combination of GPIO_Pin_x where x can be (0..15).
 457:Drivers/STM32L0xx_HAL_Driver/Src/stm32l0xx_hal_gpio.c **** *         All port bits are not necessarily available on all GPIOs.
 458:Drivers/STM32L0xx_HAL_Driver/Src/stm32l0xx_hal_gpio.c **** * @retval None
 459:Drivers/STM32L0xx_HAL_Driver/Src/stm32l0xx_hal_gpio.c **** */
 460:Drivers/STM32L0xx_HAL_Driver/Src/stm32l0xx_hal_gpio.c **** HAL_StatusTypeDef HAL_GPIO_LockPin(GPIO_TypeDef *GPIOx, uint16_t GPIO_Pin)
ARM GAS  /tmp/ccp6wyhs.s 			page 29


 461:Drivers/STM32L0xx_HAL_Driver/Src/stm32l0xx_hal_gpio.c **** {
 953              		.loc 1 461 1 is_stmt 1 view -0
 954              		.cfi_startproc
 955              		@ args = 0, pretend = 0, frame = 8
 956              		@ frame_needed = 0, uses_anonymous_args = 0
 957              		@ link register save eliminated.
 462:Drivers/STM32L0xx_HAL_Driver/Src/stm32l0xx_hal_gpio.c ****   __IO uint32_t tmp = GPIO_LCKR_LCKK;
 958              		.loc 1 462 3 view .LVU310
 959              		.loc 1 462 17 is_stmt 0 view .LVU311
 960 0000 8023     		movs	r3, #128
 461:Drivers/STM32L0xx_HAL_Driver/Src/stm32l0xx_hal_gpio.c ****   __IO uint32_t tmp = GPIO_LCKR_LCKK;
 961              		.loc 1 461 1 view .LVU312
 962 0002 82B0     		sub	sp, sp, #8
 963              	.LCFI6:
 964              		.cfi_def_cfa_offset 8
 965              		.loc 1 462 17 view .LVU313
 966 0004 5B02     		lsls	r3, r3, #9
 967 0006 0193     		str	r3, [sp, #4]
 463:Drivers/STM32L0xx_HAL_Driver/Src/stm32l0xx_hal_gpio.c **** 
 464:Drivers/STM32L0xx_HAL_Driver/Src/stm32l0xx_hal_gpio.c ****   /* Check the parameters */
 465:Drivers/STM32L0xx_HAL_Driver/Src/stm32l0xx_hal_gpio.c ****   assert_param(IS_GPIO_PIN_AVAILABLE(GPIOx, GPIO_Pin));
 968              		.loc 1 465 3 is_stmt 1 view .LVU314
 466:Drivers/STM32L0xx_HAL_Driver/Src/stm32l0xx_hal_gpio.c **** 
 467:Drivers/STM32L0xx_HAL_Driver/Src/stm32l0xx_hal_gpio.c ****   /* Apply lock key write sequence */
 468:Drivers/STM32L0xx_HAL_Driver/Src/stm32l0xx_hal_gpio.c ****   tmp |= GPIO_Pin;
 969              		.loc 1 468 3 view .LVU315
 970              		.loc 1 468 7 is_stmt 0 view .LVU316
 971 0008 019B     		ldr	r3, [sp, #4]
 972 000a 0B43     		orrs	r3, r1
 973 000c 0193     		str	r3, [sp, #4]
 469:Drivers/STM32L0xx_HAL_Driver/Src/stm32l0xx_hal_gpio.c ****   /* Set LCKx bit(s): LCKK='1' + LCK[15-0] */
 470:Drivers/STM32L0xx_HAL_Driver/Src/stm32l0xx_hal_gpio.c ****   GPIOx->LCKR = tmp;
 974              		.loc 1 470 3 is_stmt 1 view .LVU317
 975              		.loc 1 470 15 is_stmt 0 view .LVU318
 976 000e 019B     		ldr	r3, [sp, #4]
 977 0010 C361     		str	r3, [r0, #28]
 471:Drivers/STM32L0xx_HAL_Driver/Src/stm32l0xx_hal_gpio.c ****   /* Reset LCKx bit(s): LCKK='0' + LCK[15-0] */
 472:Drivers/STM32L0xx_HAL_Driver/Src/stm32l0xx_hal_gpio.c ****   GPIOx->LCKR = GPIO_Pin;
 978              		.loc 1 472 3 is_stmt 1 view .LVU319
 979              		.loc 1 472 15 is_stmt 0 view .LVU320
 980 0012 C161     		str	r1, [r0, #28]
 473:Drivers/STM32L0xx_HAL_Driver/Src/stm32l0xx_hal_gpio.c ****   /* Set LCKx bit(s): LCKK='1' + LCK[15-0] */
 474:Drivers/STM32L0xx_HAL_Driver/Src/stm32l0xx_hal_gpio.c ****   GPIOx->LCKR = tmp;
 981              		.loc 1 474 3 is_stmt 1 view .LVU321
 982              		.loc 1 474 15 is_stmt 0 view .LVU322
 983 0014 019B     		ldr	r3, [sp, #4]
 984 0016 C361     		str	r3, [r0, #28]
 475:Drivers/STM32L0xx_HAL_Driver/Src/stm32l0xx_hal_gpio.c ****   /* Read LCKK register. This read is mandatory to complete key lock sequence */
 476:Drivers/STM32L0xx_HAL_Driver/Src/stm32l0xx_hal_gpio.c ****   tmp = GPIOx->LCKR;
 985              		.loc 1 476 3 is_stmt 1 view .LVU323
 986              		.loc 1 476 14 is_stmt 0 view .LVU324
 987 0018 C369     		ldr	r3, [r0, #28]
 988              		.loc 1 476 7 view .LVU325
 989 001a 0193     		str	r3, [sp, #4]
 477:Drivers/STM32L0xx_HAL_Driver/Src/stm32l0xx_hal_gpio.c **** 
 478:Drivers/STM32L0xx_HAL_Driver/Src/stm32l0xx_hal_gpio.c ****   /* read again in order to confirm lock is active */
 479:Drivers/STM32L0xx_HAL_Driver/Src/stm32l0xx_hal_gpio.c ****   if ((GPIOx->LCKR & GPIO_LCKR_LCKK) != RESET)
ARM GAS  /tmp/ccp6wyhs.s 			page 30


 990              		.loc 1 479 3 is_stmt 1 view .LVU326
 991              		.loc 1 479 13 is_stmt 0 view .LVU327
 992 001c C369     		ldr	r3, [r0, #28]
 993 001e 0120     		movs	r0, #1
 994              	.LVL84:
 995              		.loc 1 479 6 view .LVU328
 996 0020 1B0C     		lsrs	r3, r3, #16
 997 0022 9843     		bics	r0, r3
 480:Drivers/STM32L0xx_HAL_Driver/Src/stm32l0xx_hal_gpio.c ****   {
 481:Drivers/STM32L0xx_HAL_Driver/Src/stm32l0xx_hal_gpio.c ****     return HAL_OK;
 482:Drivers/STM32L0xx_HAL_Driver/Src/stm32l0xx_hal_gpio.c ****   }
 483:Drivers/STM32L0xx_HAL_Driver/Src/stm32l0xx_hal_gpio.c ****   else
 484:Drivers/STM32L0xx_HAL_Driver/Src/stm32l0xx_hal_gpio.c ****   {
 485:Drivers/STM32L0xx_HAL_Driver/Src/stm32l0xx_hal_gpio.c ****     return HAL_ERROR;
 486:Drivers/STM32L0xx_HAL_Driver/Src/stm32l0xx_hal_gpio.c ****   }
 487:Drivers/STM32L0xx_HAL_Driver/Src/stm32l0xx_hal_gpio.c **** }
 998              		.loc 1 487 1 view .LVU329
 999 0024 02B0     		add	sp, sp, #8
 1000              		@ sp needed
 1001 0026 7047     		bx	lr
 1002              		.cfi_endproc
 1003              	.LFE39:
 1005              		.section	.text.HAL_GPIO_EXTI_Callback,"ax",%progbits
 1006              		.align	1
 1007              		.p2align 2,,3
 1008              		.weak	HAL_GPIO_EXTI_Callback
 1009              		.syntax unified
 1010              		.code	16
 1011              		.thumb_func
 1012              		.fpu softvfp
 1014              	HAL_GPIO_EXTI_Callback:
 1015              	.LVL85:
 1016              	.LFB41:
 488:Drivers/STM32L0xx_HAL_Driver/Src/stm32l0xx_hal_gpio.c **** /**
 489:Drivers/STM32L0xx_HAL_Driver/Src/stm32l0xx_hal_gpio.c ****   * @brief  This function handles EXTI interrupt request.
 490:Drivers/STM32L0xx_HAL_Driver/Src/stm32l0xx_hal_gpio.c ****   * @param  GPIO_Pin Specifies the pins connected to the EXTI line.
 491:Drivers/STM32L0xx_HAL_Driver/Src/stm32l0xx_hal_gpio.c ****   * @retval None
 492:Drivers/STM32L0xx_HAL_Driver/Src/stm32l0xx_hal_gpio.c ****   */
 493:Drivers/STM32L0xx_HAL_Driver/Src/stm32l0xx_hal_gpio.c **** void HAL_GPIO_EXTI_IRQHandler(uint16_t GPIO_Pin)
 494:Drivers/STM32L0xx_HAL_Driver/Src/stm32l0xx_hal_gpio.c **** {
 495:Drivers/STM32L0xx_HAL_Driver/Src/stm32l0xx_hal_gpio.c ****   /* EXTI line interrupt detected */
 496:Drivers/STM32L0xx_HAL_Driver/Src/stm32l0xx_hal_gpio.c ****   if (__HAL_GPIO_EXTI_GET_IT(GPIO_Pin) != RESET)
 497:Drivers/STM32L0xx_HAL_Driver/Src/stm32l0xx_hal_gpio.c ****   {
 498:Drivers/STM32L0xx_HAL_Driver/Src/stm32l0xx_hal_gpio.c ****     __HAL_GPIO_EXTI_CLEAR_IT(GPIO_Pin);
 499:Drivers/STM32L0xx_HAL_Driver/Src/stm32l0xx_hal_gpio.c ****     HAL_GPIO_EXTI_Callback(GPIO_Pin);
 500:Drivers/STM32L0xx_HAL_Driver/Src/stm32l0xx_hal_gpio.c ****   }
 501:Drivers/STM32L0xx_HAL_Driver/Src/stm32l0xx_hal_gpio.c **** }
 502:Drivers/STM32L0xx_HAL_Driver/Src/stm32l0xx_hal_gpio.c **** 
 503:Drivers/STM32L0xx_HAL_Driver/Src/stm32l0xx_hal_gpio.c **** /**
 504:Drivers/STM32L0xx_HAL_Driver/Src/stm32l0xx_hal_gpio.c ****   * @brief  EXTI line detection callbacks.
 505:Drivers/STM32L0xx_HAL_Driver/Src/stm32l0xx_hal_gpio.c ****   * @param  GPIO_Pin Specifies the pins connected to the EXTI line.
 506:Drivers/STM32L0xx_HAL_Driver/Src/stm32l0xx_hal_gpio.c ****   * @retval None
 507:Drivers/STM32L0xx_HAL_Driver/Src/stm32l0xx_hal_gpio.c ****   */
 508:Drivers/STM32L0xx_HAL_Driver/Src/stm32l0xx_hal_gpio.c **** __weak void HAL_GPIO_EXTI_Callback(uint16_t GPIO_Pin)
 509:Drivers/STM32L0xx_HAL_Driver/Src/stm32l0xx_hal_gpio.c **** {
 1017              		.loc 1 509 1 is_stmt 1 view -0
 1018              		.cfi_startproc
ARM GAS  /tmp/ccp6wyhs.s 			page 31


 1019              		@ args = 0, pretend = 0, frame = 0
 1020              		@ frame_needed = 0, uses_anonymous_args = 0
 1021              		@ link register save eliminated.
 510:Drivers/STM32L0xx_HAL_Driver/Src/stm32l0xx_hal_gpio.c ****   /* Prevent unused argument(s) compilation warning */
 511:Drivers/STM32L0xx_HAL_Driver/Src/stm32l0xx_hal_gpio.c ****   UNUSED(GPIO_Pin);
 1022              		.loc 1 511 3 view .LVU331
 512:Drivers/STM32L0xx_HAL_Driver/Src/stm32l0xx_hal_gpio.c **** 
 513:Drivers/STM32L0xx_HAL_Driver/Src/stm32l0xx_hal_gpio.c ****   /* NOTE: This function Should not be modified, when the callback is needed,
 514:Drivers/STM32L0xx_HAL_Driver/Src/stm32l0xx_hal_gpio.c ****            the HAL_GPIO_EXTI_Callback could be implemented in the user file
 515:Drivers/STM32L0xx_HAL_Driver/Src/stm32l0xx_hal_gpio.c ****    */
 516:Drivers/STM32L0xx_HAL_Driver/Src/stm32l0xx_hal_gpio.c **** }
 1023              		.loc 1 516 1 is_stmt 0 view .LVU332
 1024              		@ sp needed
 1025 0000 7047     		bx	lr
 1026              		.cfi_endproc
 1027              	.LFE41:
 1029 0002 C046     		.section	.text.HAL_GPIO_EXTI_IRQHandler,"ax",%progbits
 1030              		.align	1
 1031              		.p2align 2,,3
 1032              		.global	HAL_GPIO_EXTI_IRQHandler
 1033              		.syntax unified
 1034              		.code	16
 1035              		.thumb_func
 1036              		.fpu softvfp
 1038              	HAL_GPIO_EXTI_IRQHandler:
 1039              	.LVL86:
 1040              	.LFB40:
 494:Drivers/STM32L0xx_HAL_Driver/Src/stm32l0xx_hal_gpio.c ****   /* EXTI line interrupt detected */
 1041              		.loc 1 494 1 is_stmt 1 view -0
 1042              		.cfi_startproc
 1043              		@ args = 0, pretend = 0, frame = 0
 1044              		@ frame_needed = 0, uses_anonymous_args = 0
 496:Drivers/STM32L0xx_HAL_Driver/Src/stm32l0xx_hal_gpio.c ****   {
 1045              		.loc 1 496 3 view .LVU334
 496:Drivers/STM32L0xx_HAL_Driver/Src/stm32l0xx_hal_gpio.c ****   {
 1046              		.loc 1 496 7 is_stmt 0 view .LVU335
 1047 0000 044B     		ldr	r3, .L67
 494:Drivers/STM32L0xx_HAL_Driver/Src/stm32l0xx_hal_gpio.c ****   /* EXTI line interrupt detected */
 1048              		.loc 1 494 1 view .LVU336
 1049 0002 10B5     		push	{r4, lr}
 1050              	.LCFI7:
 1051              		.cfi_def_cfa_offset 8
 1052              		.cfi_offset 4, -8
 1053              		.cfi_offset 14, -4
 496:Drivers/STM32L0xx_HAL_Driver/Src/stm32l0xx_hal_gpio.c ****   {
 1054              		.loc 1 496 7 view .LVU337
 1055 0004 5A69     		ldr	r2, [r3, #20]
 496:Drivers/STM32L0xx_HAL_Driver/Src/stm32l0xx_hal_gpio.c ****   {
 1056              		.loc 1 496 6 view .LVU338
 1057 0006 1042     		tst	r0, r2
 1058 0008 00D1     		bne	.L66
 1059              	.LVL87:
 1060              	.L61:
 501:Drivers/STM32L0xx_HAL_Driver/Src/stm32l0xx_hal_gpio.c **** 
 1061              		.loc 1 501 1 view .LVU339
 1062              		@ sp needed
 1063 000a 10BD     		pop	{r4, pc}
ARM GAS  /tmp/ccp6wyhs.s 			page 32


 1064              	.LVL88:
 1065              	.L66:
 498:Drivers/STM32L0xx_HAL_Driver/Src/stm32l0xx_hal_gpio.c ****     HAL_GPIO_EXTI_Callback(GPIO_Pin);
 1066              		.loc 1 498 5 is_stmt 1 view .LVU340
 1067 000c 5861     		str	r0, [r3, #20]
 499:Drivers/STM32L0xx_HAL_Driver/Src/stm32l0xx_hal_gpio.c ****   }
 1068              		.loc 1 499 5 view .LVU341
 1069 000e FFF7FEFF 		bl	HAL_GPIO_EXTI_Callback
 1070              	.LVL89:
 501:Drivers/STM32L0xx_HAL_Driver/Src/stm32l0xx_hal_gpio.c **** 
 1071              		.loc 1 501 1 is_stmt 0 view .LVU342
 1072 0012 FAE7     		b	.L61
 1073              	.L68:
 1074              		.align	2
 1075              	.L67:
 1076 0014 00040140 		.word	1073808384
 1077              		.cfi_endproc
 1078              	.LFE40:
 1080              		.text
 1081              	.Letext0:
 1082              		.file 2 "/usr/lib/gcc/arm-none-eabi/9.2.1/include/stdint.h"
 1083              		.file 3 "Drivers/CMSIS/Device/ST/STM32L0xx/Include/system_stm32l0xx.h"
 1084              		.file 4 "Drivers/CMSIS/Device/ST/STM32L0xx/Include/stm32l031xx.h"
 1085              		.file 5 "Drivers/CMSIS/Device/ST/STM32L0xx/Include/stm32l0xx.h"
 1086              		.file 6 "Drivers/STM32L0xx_HAL_Driver/Inc/stm32l0xx_hal_def.h"
 1087              		.file 7 "Drivers/STM32L0xx_HAL_Driver/Inc/stm32l0xx_hal_gpio.h"
 1088              		.file 8 "Drivers/STM32L0xx_HAL_Driver/Inc/stm32l0xx_hal.h"
ARM GAS  /tmp/ccp6wyhs.s 			page 33


DEFINED SYMBOLS
                            *ABS*:0000000000000000 stm32l0xx_hal_gpio.c
     /tmp/ccp6wyhs.s:16     .text.HAL_GPIO_Init:0000000000000000 $t
     /tmp/ccp6wyhs.s:25     .text.HAL_GPIO_Init:0000000000000000 HAL_GPIO_Init
     /tmp/ccp6wyhs.s:539    .text.HAL_GPIO_Init:00000000000001ac $d
     /tmp/ccp6wyhs.s:549    .text.HAL_GPIO_DeInit:0000000000000000 $t
     /tmp/ccp6wyhs.s:557    .text.HAL_GPIO_DeInit:0000000000000000 HAL_GPIO_DeInit
     /tmp/ccp6wyhs.s:811    .text.HAL_GPIO_DeInit:0000000000000100 $d
     /tmp/ccp6wyhs.s:820    .text.HAL_GPIO_ReadPin:0000000000000000 $t
     /tmp/ccp6wyhs.s:828    .text.HAL_GPIO_ReadPin:0000000000000000 HAL_GPIO_ReadPin
     /tmp/ccp6wyhs.s:860    .text.HAL_GPIO_WritePin:0000000000000000 $t
     /tmp/ccp6wyhs.s:868    .text.HAL_GPIO_WritePin:0000000000000000 HAL_GPIO_WritePin
     /tmp/ccp6wyhs.s:899    .text.HAL_GPIO_TogglePin:0000000000000000 $t
     /tmp/ccp6wyhs.s:907    .text.HAL_GPIO_TogglePin:0000000000000000 HAL_GPIO_TogglePin
     /tmp/ccp6wyhs.s:942    .text.HAL_GPIO_LockPin:0000000000000000 $t
     /tmp/ccp6wyhs.s:950    .text.HAL_GPIO_LockPin:0000000000000000 HAL_GPIO_LockPin
     /tmp/ccp6wyhs.s:1006   .text.HAL_GPIO_EXTI_Callback:0000000000000000 $t
     /tmp/ccp6wyhs.s:1014   .text.HAL_GPIO_EXTI_Callback:0000000000000000 HAL_GPIO_EXTI_Callback
     /tmp/ccp6wyhs.s:1030   .text.HAL_GPIO_EXTI_IRQHandler:0000000000000000 $t
     /tmp/ccp6wyhs.s:1038   .text.HAL_GPIO_EXTI_IRQHandler:0000000000000000 HAL_GPIO_EXTI_IRQHandler
     /tmp/ccp6wyhs.s:1076   .text.HAL_GPIO_EXTI_IRQHandler:0000000000000014 $d

NO UNDEFINED SYMBOLS
