ARM GAS  /tmp/ccOjs6Gb.s 			page 1


   1              		.cpu cortex-m0plus
   2              		.eabi_attribute 20, 1
   3              		.eabi_attribute 21, 1
   4              		.eabi_attribute 23, 3
   5              		.eabi_attribute 24, 1
   6              		.eabi_attribute 25, 1
   7              		.eabi_attribute 26, 1
   8              		.eabi_attribute 30, 1
   9              		.eabi_attribute 34, 0
  10              		.eabi_attribute 18, 4
  11              		.file	"stm32l0xx_hal.c"
  12              		.text
  13              	.Ltext0:
  14              		.cfi_sections	.debug_frame
  15              		.section	.text.HAL_MspInit,"ax",%progbits
  16              		.align	1
  17              		.weak	HAL_MspInit
  18              		.arch armv6s-m
  19              		.syntax unified
  20              		.code	16
  21              		.thumb_func
  22              		.fpu softvfp
  24              	HAL_MspInit:
  25              	.LFB36:
  26              		.file 1 "/home/maxx/STM32Cube/Repository/STM32Cube_FW_L0_V1.11.2/Drivers/STM32L0xx_HAL_Driver/Src/
   1:/home/maxx/STM32Cube/Repository/STM32Cube_FW_L0_V1.11.2/Drivers/STM32L0xx_HAL_Driver/Src/stm32l0xx_hal.c **** /**
   2:/home/maxx/STM32Cube/Repository/STM32Cube_FW_L0_V1.11.2/Drivers/STM32L0xx_HAL_Driver/Src/stm32l0xx_hal.c ****   ******************************************************************************
   3:/home/maxx/STM32Cube/Repository/STM32Cube_FW_L0_V1.11.2/Drivers/STM32L0xx_HAL_Driver/Src/stm32l0xx_hal.c ****   * @file    stm32l0xx_hal.c
   4:/home/maxx/STM32Cube/Repository/STM32Cube_FW_L0_V1.11.2/Drivers/STM32L0xx_HAL_Driver/Src/stm32l0xx_hal.c ****   * @author  MCD Application Team
   5:/home/maxx/STM32Cube/Repository/STM32Cube_FW_L0_V1.11.2/Drivers/STM32L0xx_HAL_Driver/Src/stm32l0xx_hal.c ****   * @brief   HAL module driver.
   6:/home/maxx/STM32Cube/Repository/STM32Cube_FW_L0_V1.11.2/Drivers/STM32L0xx_HAL_Driver/Src/stm32l0xx_hal.c ****   *          This is the common part of the HAL initialization
   7:/home/maxx/STM32Cube/Repository/STM32Cube_FW_L0_V1.11.2/Drivers/STM32L0xx_HAL_Driver/Src/stm32l0xx_hal.c ****   *
   8:/home/maxx/STM32Cube/Repository/STM32Cube_FW_L0_V1.11.2/Drivers/STM32L0xx_HAL_Driver/Src/stm32l0xx_hal.c ****   @verbatim
   9:/home/maxx/STM32Cube/Repository/STM32Cube_FW_L0_V1.11.2/Drivers/STM32L0xx_HAL_Driver/Src/stm32l0xx_hal.c ****   ==============================================================================
  10:/home/maxx/STM32Cube/Repository/STM32Cube_FW_L0_V1.11.2/Drivers/STM32L0xx_HAL_Driver/Src/stm32l0xx_hal.c ****                      ##### How to use this driver #####
  11:/home/maxx/STM32Cube/Repository/STM32Cube_FW_L0_V1.11.2/Drivers/STM32L0xx_HAL_Driver/Src/stm32l0xx_hal.c ****   ==============================================================================
  12:/home/maxx/STM32Cube/Repository/STM32Cube_FW_L0_V1.11.2/Drivers/STM32L0xx_HAL_Driver/Src/stm32l0xx_hal.c ****     [..]
  13:/home/maxx/STM32Cube/Repository/STM32Cube_FW_L0_V1.11.2/Drivers/STM32L0xx_HAL_Driver/Src/stm32l0xx_hal.c ****     The common HAL driver contains a set of generic and common APIs that can be
  14:/home/maxx/STM32Cube/Repository/STM32Cube_FW_L0_V1.11.2/Drivers/STM32L0xx_HAL_Driver/Src/stm32l0xx_hal.c ****     used by the PPP peripheral drivers and the user to start using the HAL.
  15:/home/maxx/STM32Cube/Repository/STM32Cube_FW_L0_V1.11.2/Drivers/STM32L0xx_HAL_Driver/Src/stm32l0xx_hal.c ****     [..]
  16:/home/maxx/STM32Cube/Repository/STM32Cube_FW_L0_V1.11.2/Drivers/STM32L0xx_HAL_Driver/Src/stm32l0xx_hal.c ****     The HAL contains two APIs categories:
  17:/home/maxx/STM32Cube/Repository/STM32Cube_FW_L0_V1.11.2/Drivers/STM32L0xx_HAL_Driver/Src/stm32l0xx_hal.c ****          (+) Common HAL APIs
  18:/home/maxx/STM32Cube/Repository/STM32Cube_FW_L0_V1.11.2/Drivers/STM32L0xx_HAL_Driver/Src/stm32l0xx_hal.c ****          (+) Services HAL APIs
  19:/home/maxx/STM32Cube/Repository/STM32Cube_FW_L0_V1.11.2/Drivers/STM32L0xx_HAL_Driver/Src/stm32l0xx_hal.c **** 
  20:/home/maxx/STM32Cube/Repository/STM32Cube_FW_L0_V1.11.2/Drivers/STM32L0xx_HAL_Driver/Src/stm32l0xx_hal.c ****   @endverbatim
  21:/home/maxx/STM32Cube/Repository/STM32Cube_FW_L0_V1.11.2/Drivers/STM32L0xx_HAL_Driver/Src/stm32l0xx_hal.c ****   ******************************************************************************
  22:/home/maxx/STM32Cube/Repository/STM32Cube_FW_L0_V1.11.2/Drivers/STM32L0xx_HAL_Driver/Src/stm32l0xx_hal.c ****   * @attention
  23:/home/maxx/STM32Cube/Repository/STM32Cube_FW_L0_V1.11.2/Drivers/STM32L0xx_HAL_Driver/Src/stm32l0xx_hal.c ****   *
  24:/home/maxx/STM32Cube/Repository/STM32Cube_FW_L0_V1.11.2/Drivers/STM32L0xx_HAL_Driver/Src/stm32l0xx_hal.c ****   * <h2><center>&copy; Copyright (c) 2016 STMicroelectronics.
  25:/home/maxx/STM32Cube/Repository/STM32Cube_FW_L0_V1.11.2/Drivers/STM32L0xx_HAL_Driver/Src/stm32l0xx_hal.c ****   * All rights reserved.</center></h2>
  26:/home/maxx/STM32Cube/Repository/STM32Cube_FW_L0_V1.11.2/Drivers/STM32L0xx_HAL_Driver/Src/stm32l0xx_hal.c ****   *
  27:/home/maxx/STM32Cube/Repository/STM32Cube_FW_L0_V1.11.2/Drivers/STM32L0xx_HAL_Driver/Src/stm32l0xx_hal.c ****   * This software component is licensed by ST under BSD 3-Clause license,
  28:/home/maxx/STM32Cube/Repository/STM32Cube_FW_L0_V1.11.2/Drivers/STM32L0xx_HAL_Driver/Src/stm32l0xx_hal.c ****   * the "License"; You may not use this file except in compliance with the
  29:/home/maxx/STM32Cube/Repository/STM32Cube_FW_L0_V1.11.2/Drivers/STM32L0xx_HAL_Driver/Src/stm32l0xx_hal.c ****   * License. You may obtain a copy of the License at:
  30:/home/maxx/STM32Cube/Repository/STM32Cube_FW_L0_V1.11.2/Drivers/STM32L0xx_HAL_Driver/Src/stm32l0xx_hal.c ****   *                        opensource.org/licenses/BSD-3-Clause
  31:/home/maxx/STM32Cube/Repository/STM32Cube_FW_L0_V1.11.2/Drivers/STM32L0xx_HAL_Driver/Src/stm32l0xx_hal.c ****   *
  32:/home/maxx/STM32Cube/Repository/STM32Cube_FW_L0_V1.11.2/Drivers/STM32L0xx_HAL_Driver/Src/stm32l0xx_hal.c ****   ******************************************************************************
ARM GAS  /tmp/ccOjs6Gb.s 			page 2


  33:/home/maxx/STM32Cube/Repository/STM32Cube_FW_L0_V1.11.2/Drivers/STM32L0xx_HAL_Driver/Src/stm32l0xx_hal.c ****   */
  34:/home/maxx/STM32Cube/Repository/STM32Cube_FW_L0_V1.11.2/Drivers/STM32L0xx_HAL_Driver/Src/stm32l0xx_hal.c **** 
  35:/home/maxx/STM32Cube/Repository/STM32Cube_FW_L0_V1.11.2/Drivers/STM32L0xx_HAL_Driver/Src/stm32l0xx_hal.c **** /* Includes ------------------------------------------------------------------*/
  36:/home/maxx/STM32Cube/Repository/STM32Cube_FW_L0_V1.11.2/Drivers/STM32L0xx_HAL_Driver/Src/stm32l0xx_hal.c **** #include "stm32l0xx_hal.h"
  37:/home/maxx/STM32Cube/Repository/STM32Cube_FW_L0_V1.11.2/Drivers/STM32L0xx_HAL_Driver/Src/stm32l0xx_hal.c **** 
  38:/home/maxx/STM32Cube/Repository/STM32Cube_FW_L0_V1.11.2/Drivers/STM32L0xx_HAL_Driver/Src/stm32l0xx_hal.c **** /** @addtogroup STM32L0xx_HAL_Driver
  39:/home/maxx/STM32Cube/Repository/STM32Cube_FW_L0_V1.11.2/Drivers/STM32L0xx_HAL_Driver/Src/stm32l0xx_hal.c ****   * @{
  40:/home/maxx/STM32Cube/Repository/STM32Cube_FW_L0_V1.11.2/Drivers/STM32L0xx_HAL_Driver/Src/stm32l0xx_hal.c ****   */
  41:/home/maxx/STM32Cube/Repository/STM32Cube_FW_L0_V1.11.2/Drivers/STM32L0xx_HAL_Driver/Src/stm32l0xx_hal.c **** 
  42:/home/maxx/STM32Cube/Repository/STM32Cube_FW_L0_V1.11.2/Drivers/STM32L0xx_HAL_Driver/Src/stm32l0xx_hal.c **** #ifdef HAL_MODULE_ENABLED
  43:/home/maxx/STM32Cube/Repository/STM32Cube_FW_L0_V1.11.2/Drivers/STM32L0xx_HAL_Driver/Src/stm32l0xx_hal.c **** 
  44:/home/maxx/STM32Cube/Repository/STM32Cube_FW_L0_V1.11.2/Drivers/STM32L0xx_HAL_Driver/Src/stm32l0xx_hal.c **** /** @addtogroup HAL
  45:/home/maxx/STM32Cube/Repository/STM32Cube_FW_L0_V1.11.2/Drivers/STM32L0xx_HAL_Driver/Src/stm32l0xx_hal.c ****   * @brief HAL module driver.
  46:/home/maxx/STM32Cube/Repository/STM32Cube_FW_L0_V1.11.2/Drivers/STM32L0xx_HAL_Driver/Src/stm32l0xx_hal.c ****   * @{
  47:/home/maxx/STM32Cube/Repository/STM32Cube_FW_L0_V1.11.2/Drivers/STM32L0xx_HAL_Driver/Src/stm32l0xx_hal.c ****   */
  48:/home/maxx/STM32Cube/Repository/STM32Cube_FW_L0_V1.11.2/Drivers/STM32L0xx_HAL_Driver/Src/stm32l0xx_hal.c **** 
  49:/home/maxx/STM32Cube/Repository/STM32Cube_FW_L0_V1.11.2/Drivers/STM32L0xx_HAL_Driver/Src/stm32l0xx_hal.c **** /** @addtogroup HAL_Exported_Constants
  50:/home/maxx/STM32Cube/Repository/STM32Cube_FW_L0_V1.11.2/Drivers/STM32L0xx_HAL_Driver/Src/stm32l0xx_hal.c ****   * @{
  51:/home/maxx/STM32Cube/Repository/STM32Cube_FW_L0_V1.11.2/Drivers/STM32L0xx_HAL_Driver/Src/stm32l0xx_hal.c ****   */
  52:/home/maxx/STM32Cube/Repository/STM32Cube_FW_L0_V1.11.2/Drivers/STM32L0xx_HAL_Driver/Src/stm32l0xx_hal.c **** 
  53:/home/maxx/STM32Cube/Repository/STM32Cube_FW_L0_V1.11.2/Drivers/STM32L0xx_HAL_Driver/Src/stm32l0xx_hal.c **** /** @defgroup HAL_Version HAL Version
  54:/home/maxx/STM32Cube/Repository/STM32Cube_FW_L0_V1.11.2/Drivers/STM32L0xx_HAL_Driver/Src/stm32l0xx_hal.c ****   * @{
  55:/home/maxx/STM32Cube/Repository/STM32Cube_FW_L0_V1.11.2/Drivers/STM32L0xx_HAL_Driver/Src/stm32l0xx_hal.c ****   */
  56:/home/maxx/STM32Cube/Repository/STM32Cube_FW_L0_V1.11.2/Drivers/STM32L0xx_HAL_Driver/Src/stm32l0xx_hal.c **** 
  57:/home/maxx/STM32Cube/Repository/STM32Cube_FW_L0_V1.11.2/Drivers/STM32L0xx_HAL_Driver/Src/stm32l0xx_hal.c **** /**
  58:/home/maxx/STM32Cube/Repository/STM32Cube_FW_L0_V1.11.2/Drivers/STM32L0xx_HAL_Driver/Src/stm32l0xx_hal.c ****  * @brief STM32L0xx HAL Driver version number
  59:/home/maxx/STM32Cube/Repository/STM32Cube_FW_L0_V1.11.2/Drivers/STM32L0xx_HAL_Driver/Src/stm32l0xx_hal.c ****  */
  60:/home/maxx/STM32Cube/Repository/STM32Cube_FW_L0_V1.11.2/Drivers/STM32L0xx_HAL_Driver/Src/stm32l0xx_hal.c **** #define __STM32L0xx_HAL_VERSION_MAIN   (0x01U) /*!< [31:24] main version */
  61:/home/maxx/STM32Cube/Repository/STM32Cube_FW_L0_V1.11.2/Drivers/STM32L0xx_HAL_Driver/Src/stm32l0xx_hal.c **** #define __STM32L0xx_HAL_VERSION_SUB1   (0x0AU) /*!< [23:16] sub1 version */
  62:/home/maxx/STM32Cube/Repository/STM32Cube_FW_L0_V1.11.2/Drivers/STM32L0xx_HAL_Driver/Src/stm32l0xx_hal.c **** #define __STM32L0xx_HAL_VERSION_SUB2   (0x02U) /*!< [15:8]  sub2 version */
  63:/home/maxx/STM32Cube/Repository/STM32Cube_FW_L0_V1.11.2/Drivers/STM32L0xx_HAL_Driver/Src/stm32l0xx_hal.c **** #define __STM32L0xx_HAL_VERSION_RC     (0x00U) /*!< [7:0]  release candidate */
  64:/home/maxx/STM32Cube/Repository/STM32Cube_FW_L0_V1.11.2/Drivers/STM32L0xx_HAL_Driver/Src/stm32l0xx_hal.c **** #define __STM32L0xx_HAL_VERSION         ((__STM32L0xx_HAL_VERSION_MAIN << 24U)\
  65:/home/maxx/STM32Cube/Repository/STM32Cube_FW_L0_V1.11.2/Drivers/STM32L0xx_HAL_Driver/Src/stm32l0xx_hal.c ****                                         |(__STM32L0xx_HAL_VERSION_SUB1 << 16U)\
  66:/home/maxx/STM32Cube/Repository/STM32Cube_FW_L0_V1.11.2/Drivers/STM32L0xx_HAL_Driver/Src/stm32l0xx_hal.c ****                                         |(__STM32L0xx_HAL_VERSION_SUB2 << 8U )\
  67:/home/maxx/STM32Cube/Repository/STM32Cube_FW_L0_V1.11.2/Drivers/STM32L0xx_HAL_Driver/Src/stm32l0xx_hal.c ****                                         |(__STM32L0xx_HAL_VERSION_RC))
  68:/home/maxx/STM32Cube/Repository/STM32Cube_FW_L0_V1.11.2/Drivers/STM32L0xx_HAL_Driver/Src/stm32l0xx_hal.c **** 
  69:/home/maxx/STM32Cube/Repository/STM32Cube_FW_L0_V1.11.2/Drivers/STM32L0xx_HAL_Driver/Src/stm32l0xx_hal.c **** #define IDCODE_DEVID_MASK    ((uint32_t)0x00000FFFU)
  70:/home/maxx/STM32Cube/Repository/STM32Cube_FW_L0_V1.11.2/Drivers/STM32L0xx_HAL_Driver/Src/stm32l0xx_hal.c **** 
  71:/home/maxx/STM32Cube/Repository/STM32Cube_FW_L0_V1.11.2/Drivers/STM32L0xx_HAL_Driver/Src/stm32l0xx_hal.c **** /**
  72:/home/maxx/STM32Cube/Repository/STM32Cube_FW_L0_V1.11.2/Drivers/STM32L0xx_HAL_Driver/Src/stm32l0xx_hal.c ****   * @}
  73:/home/maxx/STM32Cube/Repository/STM32Cube_FW_L0_V1.11.2/Drivers/STM32L0xx_HAL_Driver/Src/stm32l0xx_hal.c ****   */
  74:/home/maxx/STM32Cube/Repository/STM32Cube_FW_L0_V1.11.2/Drivers/STM32L0xx_HAL_Driver/Src/stm32l0xx_hal.c **** 
  75:/home/maxx/STM32Cube/Repository/STM32Cube_FW_L0_V1.11.2/Drivers/STM32L0xx_HAL_Driver/Src/stm32l0xx_hal.c **** /**
  76:/home/maxx/STM32Cube/Repository/STM32Cube_FW_L0_V1.11.2/Drivers/STM32L0xx_HAL_Driver/Src/stm32l0xx_hal.c ****   * @}
  77:/home/maxx/STM32Cube/Repository/STM32Cube_FW_L0_V1.11.2/Drivers/STM32L0xx_HAL_Driver/Src/stm32l0xx_hal.c ****   */
  78:/home/maxx/STM32Cube/Repository/STM32Cube_FW_L0_V1.11.2/Drivers/STM32L0xx_HAL_Driver/Src/stm32l0xx_hal.c **** 
  79:/home/maxx/STM32Cube/Repository/STM32Cube_FW_L0_V1.11.2/Drivers/STM32L0xx_HAL_Driver/Src/stm32l0xx_hal.c **** /* Exported variables --------------------------------------------------------*/
  80:/home/maxx/STM32Cube/Repository/STM32Cube_FW_L0_V1.11.2/Drivers/STM32L0xx_HAL_Driver/Src/stm32l0xx_hal.c **** /** @addtogroup HAL_Exported_Variables
  81:/home/maxx/STM32Cube/Repository/STM32Cube_FW_L0_V1.11.2/Drivers/STM32L0xx_HAL_Driver/Src/stm32l0xx_hal.c ****   * @{
  82:/home/maxx/STM32Cube/Repository/STM32Cube_FW_L0_V1.11.2/Drivers/STM32L0xx_HAL_Driver/Src/stm32l0xx_hal.c ****   */
  83:/home/maxx/STM32Cube/Repository/STM32Cube_FW_L0_V1.11.2/Drivers/STM32L0xx_HAL_Driver/Src/stm32l0xx_hal.c **** __IO uint32_t uwTick;
  84:/home/maxx/STM32Cube/Repository/STM32Cube_FW_L0_V1.11.2/Drivers/STM32L0xx_HAL_Driver/Src/stm32l0xx_hal.c **** /**
  85:/home/maxx/STM32Cube/Repository/STM32Cube_FW_L0_V1.11.2/Drivers/STM32L0xx_HAL_Driver/Src/stm32l0xx_hal.c ****   * @}
  86:/home/maxx/STM32Cube/Repository/STM32Cube_FW_L0_V1.11.2/Drivers/STM32L0xx_HAL_Driver/Src/stm32l0xx_hal.c ****   */
  87:/home/maxx/STM32Cube/Repository/STM32Cube_FW_L0_V1.11.2/Drivers/STM32L0xx_HAL_Driver/Src/stm32l0xx_hal.c **** 
  88:/home/maxx/STM32Cube/Repository/STM32Cube_FW_L0_V1.11.2/Drivers/STM32L0xx_HAL_Driver/Src/stm32l0xx_hal.c **** /* Exported functions --------------------------------------------------------*/
  89:/home/maxx/STM32Cube/Repository/STM32Cube_FW_L0_V1.11.2/Drivers/STM32L0xx_HAL_Driver/Src/stm32l0xx_hal.c **** /** @addtogroup HAL_Exported_Functions
ARM GAS  /tmp/ccOjs6Gb.s 			page 3


  90:/home/maxx/STM32Cube/Repository/STM32Cube_FW_L0_V1.11.2/Drivers/STM32L0xx_HAL_Driver/Src/stm32l0xx_hal.c ****   * @{
  91:/home/maxx/STM32Cube/Repository/STM32Cube_FW_L0_V1.11.2/Drivers/STM32L0xx_HAL_Driver/Src/stm32l0xx_hal.c ****   */
  92:/home/maxx/STM32Cube/Repository/STM32Cube_FW_L0_V1.11.2/Drivers/STM32L0xx_HAL_Driver/Src/stm32l0xx_hal.c **** 
  93:/home/maxx/STM32Cube/Repository/STM32Cube_FW_L0_V1.11.2/Drivers/STM32L0xx_HAL_Driver/Src/stm32l0xx_hal.c **** /** @addtogroup HAL_Exported_Functions_Group1
  94:/home/maxx/STM32Cube/Repository/STM32Cube_FW_L0_V1.11.2/Drivers/STM32L0xx_HAL_Driver/Src/stm32l0xx_hal.c ****  *  @brief    Initialization and de-initialization functions
  95:/home/maxx/STM32Cube/Repository/STM32Cube_FW_L0_V1.11.2/Drivers/STM32L0xx_HAL_Driver/Src/stm32l0xx_hal.c ****  *
  96:/home/maxx/STM32Cube/Repository/STM32Cube_FW_L0_V1.11.2/Drivers/STM32L0xx_HAL_Driver/Src/stm32l0xx_hal.c **** @verbatim
  97:/home/maxx/STM32Cube/Repository/STM32Cube_FW_L0_V1.11.2/Drivers/STM32L0xx_HAL_Driver/Src/stm32l0xx_hal.c ****  ===============================================================================
  98:/home/maxx/STM32Cube/Repository/STM32Cube_FW_L0_V1.11.2/Drivers/STM32L0xx_HAL_Driver/Src/stm32l0xx_hal.c ****               ##### Initialization and de-initialization functions #####
  99:/home/maxx/STM32Cube/Repository/STM32Cube_FW_L0_V1.11.2/Drivers/STM32L0xx_HAL_Driver/Src/stm32l0xx_hal.c ****  ===============================================================================
 100:/home/maxx/STM32Cube/Repository/STM32Cube_FW_L0_V1.11.2/Drivers/STM32L0xx_HAL_Driver/Src/stm32l0xx_hal.c ****    [..]  This section provides functions allowing to:
 101:/home/maxx/STM32Cube/Repository/STM32Cube_FW_L0_V1.11.2/Drivers/STM32L0xx_HAL_Driver/Src/stm32l0xx_hal.c ****       (+) Initialize the Flash interface, the NVIC allocation and initial clock
 102:/home/maxx/STM32Cube/Repository/STM32Cube_FW_L0_V1.11.2/Drivers/STM32L0xx_HAL_Driver/Src/stm32l0xx_hal.c ****           configuration. It initializes the source of time base also when timeout
 103:/home/maxx/STM32Cube/Repository/STM32Cube_FW_L0_V1.11.2/Drivers/STM32L0xx_HAL_Driver/Src/stm32l0xx_hal.c ****           is needed and the backup domain when enabled.
 104:/home/maxx/STM32Cube/Repository/STM32Cube_FW_L0_V1.11.2/Drivers/STM32L0xx_HAL_Driver/Src/stm32l0xx_hal.c ****       (+) De-initialize common part of the HAL.
 105:/home/maxx/STM32Cube/Repository/STM32Cube_FW_L0_V1.11.2/Drivers/STM32L0xx_HAL_Driver/Src/stm32l0xx_hal.c ****       (+) Configure the time base source to have 1ms time base with a dedicated
 106:/home/maxx/STM32Cube/Repository/STM32Cube_FW_L0_V1.11.2/Drivers/STM32L0xx_HAL_Driver/Src/stm32l0xx_hal.c ****           Tick interrupt priority.
 107:/home/maxx/STM32Cube/Repository/STM32Cube_FW_L0_V1.11.2/Drivers/STM32L0xx_HAL_Driver/Src/stm32l0xx_hal.c ****         (++) SysTick timer is used by default as source of time base, but user
 108:/home/maxx/STM32Cube/Repository/STM32Cube_FW_L0_V1.11.2/Drivers/STM32L0xx_HAL_Driver/Src/stm32l0xx_hal.c ****              can eventually implement his proper time base source (a general purpose
 109:/home/maxx/STM32Cube/Repository/STM32Cube_FW_L0_V1.11.2/Drivers/STM32L0xx_HAL_Driver/Src/stm32l0xx_hal.c ****              timer for example or other time source), keeping in mind that Time base
 110:/home/maxx/STM32Cube/Repository/STM32Cube_FW_L0_V1.11.2/Drivers/STM32L0xx_HAL_Driver/Src/stm32l0xx_hal.c ****              duration should be kept 1ms since PPP_TIMEOUT_VALUEs are defined and
 111:/home/maxx/STM32Cube/Repository/STM32Cube_FW_L0_V1.11.2/Drivers/STM32L0xx_HAL_Driver/Src/stm32l0xx_hal.c ****              handled in milliseconds basis.
 112:/home/maxx/STM32Cube/Repository/STM32Cube_FW_L0_V1.11.2/Drivers/STM32L0xx_HAL_Driver/Src/stm32l0xx_hal.c ****         (++) Time base configuration function (HAL_InitTick ()) is called automatically
 113:/home/maxx/STM32Cube/Repository/STM32Cube_FW_L0_V1.11.2/Drivers/STM32L0xx_HAL_Driver/Src/stm32l0xx_hal.c ****              at the beginning of the program after reset by HAL_Init() or at any time
 114:/home/maxx/STM32Cube/Repository/STM32Cube_FW_L0_V1.11.2/Drivers/STM32L0xx_HAL_Driver/Src/stm32l0xx_hal.c ****              when clock is configured, by HAL_RCC_ClockConfig().
 115:/home/maxx/STM32Cube/Repository/STM32Cube_FW_L0_V1.11.2/Drivers/STM32L0xx_HAL_Driver/Src/stm32l0xx_hal.c ****         (++) Source of time base is configured  to generate interrupts at regular
 116:/home/maxx/STM32Cube/Repository/STM32Cube_FW_L0_V1.11.2/Drivers/STM32L0xx_HAL_Driver/Src/stm32l0xx_hal.c ****              time intervals. Care must be taken if HAL_Delay() is called from a
 117:/home/maxx/STM32Cube/Repository/STM32Cube_FW_L0_V1.11.2/Drivers/STM32L0xx_HAL_Driver/Src/stm32l0xx_hal.c ****              peripheral ISR process, the Tick interrupt line must have higher priority
 118:/home/maxx/STM32Cube/Repository/STM32Cube_FW_L0_V1.11.2/Drivers/STM32L0xx_HAL_Driver/Src/stm32l0xx_hal.c ****             (numerically lower) than the peripheral interrupt. Otherwise the caller
 119:/home/maxx/STM32Cube/Repository/STM32Cube_FW_L0_V1.11.2/Drivers/STM32L0xx_HAL_Driver/Src/stm32l0xx_hal.c ****             ISR process will be blocked.
 120:/home/maxx/STM32Cube/Repository/STM32Cube_FW_L0_V1.11.2/Drivers/STM32L0xx_HAL_Driver/Src/stm32l0xx_hal.c ****        (++) functions affecting time base configurations are declared as __weak
 121:/home/maxx/STM32Cube/Repository/STM32Cube_FW_L0_V1.11.2/Drivers/STM32L0xx_HAL_Driver/Src/stm32l0xx_hal.c ****              to make  override possible  in case of other  implementations in user file.
 122:/home/maxx/STM32Cube/Repository/STM32Cube_FW_L0_V1.11.2/Drivers/STM32L0xx_HAL_Driver/Src/stm32l0xx_hal.c **** 
 123:/home/maxx/STM32Cube/Repository/STM32Cube_FW_L0_V1.11.2/Drivers/STM32L0xx_HAL_Driver/Src/stm32l0xx_hal.c **** @endverbatim
 124:/home/maxx/STM32Cube/Repository/STM32Cube_FW_L0_V1.11.2/Drivers/STM32L0xx_HAL_Driver/Src/stm32l0xx_hal.c ****   * @{
 125:/home/maxx/STM32Cube/Repository/STM32Cube_FW_L0_V1.11.2/Drivers/STM32L0xx_HAL_Driver/Src/stm32l0xx_hal.c ****   */
 126:/home/maxx/STM32Cube/Repository/STM32Cube_FW_L0_V1.11.2/Drivers/STM32L0xx_HAL_Driver/Src/stm32l0xx_hal.c **** 
 127:/home/maxx/STM32Cube/Repository/STM32Cube_FW_L0_V1.11.2/Drivers/STM32L0xx_HAL_Driver/Src/stm32l0xx_hal.c **** /**
 128:/home/maxx/STM32Cube/Repository/STM32Cube_FW_L0_V1.11.2/Drivers/STM32L0xx_HAL_Driver/Src/stm32l0xx_hal.c ****   * @brief This function configures the Flash prefetch, Flash preread and Buffer cache,
 129:/home/maxx/STM32Cube/Repository/STM32Cube_FW_L0_V1.11.2/Drivers/STM32L0xx_HAL_Driver/Src/stm32l0xx_hal.c ****   *        Configures time base source, NVIC and Low level hardware
 130:/home/maxx/STM32Cube/Repository/STM32Cube_FW_L0_V1.11.2/Drivers/STM32L0xx_HAL_Driver/Src/stm32l0xx_hal.c ****   * @note This function is called at the beginning of program after reset and before
 131:/home/maxx/STM32Cube/Repository/STM32Cube_FW_L0_V1.11.2/Drivers/STM32L0xx_HAL_Driver/Src/stm32l0xx_hal.c ****   *       the clock configuration
 132:/home/maxx/STM32Cube/Repository/STM32Cube_FW_L0_V1.11.2/Drivers/STM32L0xx_HAL_Driver/Src/stm32l0xx_hal.c ****   * @note The time base configuration is based on MSI clock when exiting from Reset.
 133:/home/maxx/STM32Cube/Repository/STM32Cube_FW_L0_V1.11.2/Drivers/STM32L0xx_HAL_Driver/Src/stm32l0xx_hal.c ****   *       Once done, time base tick start incrementing.
 134:/home/maxx/STM32Cube/Repository/STM32Cube_FW_L0_V1.11.2/Drivers/STM32L0xx_HAL_Driver/Src/stm32l0xx_hal.c ****   *        In the default implementation,Systick is used as source of time base.
 135:/home/maxx/STM32Cube/Repository/STM32Cube_FW_L0_V1.11.2/Drivers/STM32L0xx_HAL_Driver/Src/stm32l0xx_hal.c ****   *        the tick variable is incremented each 1ms in its ISR.
 136:/home/maxx/STM32Cube/Repository/STM32Cube_FW_L0_V1.11.2/Drivers/STM32L0xx_HAL_Driver/Src/stm32l0xx_hal.c ****   * @retval HAL status
 137:/home/maxx/STM32Cube/Repository/STM32Cube_FW_L0_V1.11.2/Drivers/STM32L0xx_HAL_Driver/Src/stm32l0xx_hal.c ****   */
 138:/home/maxx/STM32Cube/Repository/STM32Cube_FW_L0_V1.11.2/Drivers/STM32L0xx_HAL_Driver/Src/stm32l0xx_hal.c **** HAL_StatusTypeDef HAL_Init(void)
 139:/home/maxx/STM32Cube/Repository/STM32Cube_FW_L0_V1.11.2/Drivers/STM32L0xx_HAL_Driver/Src/stm32l0xx_hal.c **** {
 140:/home/maxx/STM32Cube/Repository/STM32Cube_FW_L0_V1.11.2/Drivers/STM32L0xx_HAL_Driver/Src/stm32l0xx_hal.c ****   HAL_StatusTypeDef  status = HAL_OK;
 141:/home/maxx/STM32Cube/Repository/STM32Cube_FW_L0_V1.11.2/Drivers/STM32L0xx_HAL_Driver/Src/stm32l0xx_hal.c **** 
 142:/home/maxx/STM32Cube/Repository/STM32Cube_FW_L0_V1.11.2/Drivers/STM32L0xx_HAL_Driver/Src/stm32l0xx_hal.c ****   /* Configure Buffer cache, Flash prefetch,  Flash preread */
 143:/home/maxx/STM32Cube/Repository/STM32Cube_FW_L0_V1.11.2/Drivers/STM32L0xx_HAL_Driver/Src/stm32l0xx_hal.c **** #if (BUFFER_CACHE_DISABLE != 0)
 144:/home/maxx/STM32Cube/Repository/STM32Cube_FW_L0_V1.11.2/Drivers/STM32L0xx_HAL_Driver/Src/stm32l0xx_hal.c ****   __HAL_FLASH_BUFFER_CACHE_DISABLE();
 145:/home/maxx/STM32Cube/Repository/STM32Cube_FW_L0_V1.11.2/Drivers/STM32L0xx_HAL_Driver/Src/stm32l0xx_hal.c **** #endif /* BUFFER_CACHE_DISABLE */
 146:/home/maxx/STM32Cube/Repository/STM32Cube_FW_L0_V1.11.2/Drivers/STM32L0xx_HAL_Driver/Src/stm32l0xx_hal.c **** 
ARM GAS  /tmp/ccOjs6Gb.s 			page 4


 147:/home/maxx/STM32Cube/Repository/STM32Cube_FW_L0_V1.11.2/Drivers/STM32L0xx_HAL_Driver/Src/stm32l0xx_hal.c **** #if (PREREAD_ENABLE != 0)
 148:/home/maxx/STM32Cube/Repository/STM32Cube_FW_L0_V1.11.2/Drivers/STM32L0xx_HAL_Driver/Src/stm32l0xx_hal.c ****   __HAL_FLASH_PREREAD_BUFFER_ENABLE();
 149:/home/maxx/STM32Cube/Repository/STM32Cube_FW_L0_V1.11.2/Drivers/STM32L0xx_HAL_Driver/Src/stm32l0xx_hal.c **** #endif /* PREREAD_ENABLE */
 150:/home/maxx/STM32Cube/Repository/STM32Cube_FW_L0_V1.11.2/Drivers/STM32L0xx_HAL_Driver/Src/stm32l0xx_hal.c **** 
 151:/home/maxx/STM32Cube/Repository/STM32Cube_FW_L0_V1.11.2/Drivers/STM32L0xx_HAL_Driver/Src/stm32l0xx_hal.c **** #if (PREFETCH_ENABLE != 0)
 152:/home/maxx/STM32Cube/Repository/STM32Cube_FW_L0_V1.11.2/Drivers/STM32L0xx_HAL_Driver/Src/stm32l0xx_hal.c ****   __HAL_FLASH_PREFETCH_BUFFER_ENABLE();
 153:/home/maxx/STM32Cube/Repository/STM32Cube_FW_L0_V1.11.2/Drivers/STM32L0xx_HAL_Driver/Src/stm32l0xx_hal.c **** #endif /* PREFETCH_ENABLE */
 154:/home/maxx/STM32Cube/Repository/STM32Cube_FW_L0_V1.11.2/Drivers/STM32L0xx_HAL_Driver/Src/stm32l0xx_hal.c **** 
 155:/home/maxx/STM32Cube/Repository/STM32Cube_FW_L0_V1.11.2/Drivers/STM32L0xx_HAL_Driver/Src/stm32l0xx_hal.c ****   /* Use SysTick as time base source and configure 1ms tick (default clock after Reset is MSI) */
 156:/home/maxx/STM32Cube/Repository/STM32Cube_FW_L0_V1.11.2/Drivers/STM32L0xx_HAL_Driver/Src/stm32l0xx_hal.c ****   if (HAL_InitTick(TICK_INT_PRIORITY) != HAL_OK)
 157:/home/maxx/STM32Cube/Repository/STM32Cube_FW_L0_V1.11.2/Drivers/STM32L0xx_HAL_Driver/Src/stm32l0xx_hal.c ****   {
 158:/home/maxx/STM32Cube/Repository/STM32Cube_FW_L0_V1.11.2/Drivers/STM32L0xx_HAL_Driver/Src/stm32l0xx_hal.c ****     status = HAL_ERROR;
 159:/home/maxx/STM32Cube/Repository/STM32Cube_FW_L0_V1.11.2/Drivers/STM32L0xx_HAL_Driver/Src/stm32l0xx_hal.c ****   }
 160:/home/maxx/STM32Cube/Repository/STM32Cube_FW_L0_V1.11.2/Drivers/STM32L0xx_HAL_Driver/Src/stm32l0xx_hal.c ****   else
 161:/home/maxx/STM32Cube/Repository/STM32Cube_FW_L0_V1.11.2/Drivers/STM32L0xx_HAL_Driver/Src/stm32l0xx_hal.c ****   {
 162:/home/maxx/STM32Cube/Repository/STM32Cube_FW_L0_V1.11.2/Drivers/STM32L0xx_HAL_Driver/Src/stm32l0xx_hal.c ****     /* Init the low level hardware */
 163:/home/maxx/STM32Cube/Repository/STM32Cube_FW_L0_V1.11.2/Drivers/STM32L0xx_HAL_Driver/Src/stm32l0xx_hal.c ****     HAL_MspInit();
 164:/home/maxx/STM32Cube/Repository/STM32Cube_FW_L0_V1.11.2/Drivers/STM32L0xx_HAL_Driver/Src/stm32l0xx_hal.c ****   }
 165:/home/maxx/STM32Cube/Repository/STM32Cube_FW_L0_V1.11.2/Drivers/STM32L0xx_HAL_Driver/Src/stm32l0xx_hal.c **** 
 166:/home/maxx/STM32Cube/Repository/STM32Cube_FW_L0_V1.11.2/Drivers/STM32L0xx_HAL_Driver/Src/stm32l0xx_hal.c ****   /* Return function status */
 167:/home/maxx/STM32Cube/Repository/STM32Cube_FW_L0_V1.11.2/Drivers/STM32L0xx_HAL_Driver/Src/stm32l0xx_hal.c ****   return status;
 168:/home/maxx/STM32Cube/Repository/STM32Cube_FW_L0_V1.11.2/Drivers/STM32L0xx_HAL_Driver/Src/stm32l0xx_hal.c **** }
 169:/home/maxx/STM32Cube/Repository/STM32Cube_FW_L0_V1.11.2/Drivers/STM32L0xx_HAL_Driver/Src/stm32l0xx_hal.c **** 
 170:/home/maxx/STM32Cube/Repository/STM32Cube_FW_L0_V1.11.2/Drivers/STM32L0xx_HAL_Driver/Src/stm32l0xx_hal.c **** /**
 171:/home/maxx/STM32Cube/Repository/STM32Cube_FW_L0_V1.11.2/Drivers/STM32L0xx_HAL_Driver/Src/stm32l0xx_hal.c ****   * @brief This function de-initializes common part of the HAL and stops the source
 172:/home/maxx/STM32Cube/Repository/STM32Cube_FW_L0_V1.11.2/Drivers/STM32L0xx_HAL_Driver/Src/stm32l0xx_hal.c ****   *        of time base.
 173:/home/maxx/STM32Cube/Repository/STM32Cube_FW_L0_V1.11.2/Drivers/STM32L0xx_HAL_Driver/Src/stm32l0xx_hal.c ****   * @note This function is optional.
 174:/home/maxx/STM32Cube/Repository/STM32Cube_FW_L0_V1.11.2/Drivers/STM32L0xx_HAL_Driver/Src/stm32l0xx_hal.c ****   * @retval HAL status
 175:/home/maxx/STM32Cube/Repository/STM32Cube_FW_L0_V1.11.2/Drivers/STM32L0xx_HAL_Driver/Src/stm32l0xx_hal.c ****   */
 176:/home/maxx/STM32Cube/Repository/STM32Cube_FW_L0_V1.11.2/Drivers/STM32L0xx_HAL_Driver/Src/stm32l0xx_hal.c **** HAL_StatusTypeDef HAL_DeInit(void)
 177:/home/maxx/STM32Cube/Repository/STM32Cube_FW_L0_V1.11.2/Drivers/STM32L0xx_HAL_Driver/Src/stm32l0xx_hal.c **** {
 178:/home/maxx/STM32Cube/Repository/STM32Cube_FW_L0_V1.11.2/Drivers/STM32L0xx_HAL_Driver/Src/stm32l0xx_hal.c ****   /* Reset of all peripherals */
 179:/home/maxx/STM32Cube/Repository/STM32Cube_FW_L0_V1.11.2/Drivers/STM32L0xx_HAL_Driver/Src/stm32l0xx_hal.c ****   __HAL_RCC_APB1_FORCE_RESET();
 180:/home/maxx/STM32Cube/Repository/STM32Cube_FW_L0_V1.11.2/Drivers/STM32L0xx_HAL_Driver/Src/stm32l0xx_hal.c ****   __HAL_RCC_APB1_RELEASE_RESET();
 181:/home/maxx/STM32Cube/Repository/STM32Cube_FW_L0_V1.11.2/Drivers/STM32L0xx_HAL_Driver/Src/stm32l0xx_hal.c **** 
 182:/home/maxx/STM32Cube/Repository/STM32Cube_FW_L0_V1.11.2/Drivers/STM32L0xx_HAL_Driver/Src/stm32l0xx_hal.c ****   __HAL_RCC_APB2_FORCE_RESET();
 183:/home/maxx/STM32Cube/Repository/STM32Cube_FW_L0_V1.11.2/Drivers/STM32L0xx_HAL_Driver/Src/stm32l0xx_hal.c ****   __HAL_RCC_APB2_RELEASE_RESET();
 184:/home/maxx/STM32Cube/Repository/STM32Cube_FW_L0_V1.11.2/Drivers/STM32L0xx_HAL_Driver/Src/stm32l0xx_hal.c **** 
 185:/home/maxx/STM32Cube/Repository/STM32Cube_FW_L0_V1.11.2/Drivers/STM32L0xx_HAL_Driver/Src/stm32l0xx_hal.c ****   __HAL_RCC_AHB_FORCE_RESET();
 186:/home/maxx/STM32Cube/Repository/STM32Cube_FW_L0_V1.11.2/Drivers/STM32L0xx_HAL_Driver/Src/stm32l0xx_hal.c ****   __HAL_RCC_AHB_RELEASE_RESET();
 187:/home/maxx/STM32Cube/Repository/STM32Cube_FW_L0_V1.11.2/Drivers/STM32L0xx_HAL_Driver/Src/stm32l0xx_hal.c **** 
 188:/home/maxx/STM32Cube/Repository/STM32Cube_FW_L0_V1.11.2/Drivers/STM32L0xx_HAL_Driver/Src/stm32l0xx_hal.c ****   __HAL_RCC_IOP_FORCE_RESET();
 189:/home/maxx/STM32Cube/Repository/STM32Cube_FW_L0_V1.11.2/Drivers/STM32L0xx_HAL_Driver/Src/stm32l0xx_hal.c ****   __HAL_RCC_IOP_RELEASE_RESET();
 190:/home/maxx/STM32Cube/Repository/STM32Cube_FW_L0_V1.11.2/Drivers/STM32L0xx_HAL_Driver/Src/stm32l0xx_hal.c **** 
 191:/home/maxx/STM32Cube/Repository/STM32Cube_FW_L0_V1.11.2/Drivers/STM32L0xx_HAL_Driver/Src/stm32l0xx_hal.c ****   /* De-Init the low level hardware */
 192:/home/maxx/STM32Cube/Repository/STM32Cube_FW_L0_V1.11.2/Drivers/STM32L0xx_HAL_Driver/Src/stm32l0xx_hal.c ****   HAL_MspDeInit();
 193:/home/maxx/STM32Cube/Repository/STM32Cube_FW_L0_V1.11.2/Drivers/STM32L0xx_HAL_Driver/Src/stm32l0xx_hal.c **** 
 194:/home/maxx/STM32Cube/Repository/STM32Cube_FW_L0_V1.11.2/Drivers/STM32L0xx_HAL_Driver/Src/stm32l0xx_hal.c ****   /* Return function status */
 195:/home/maxx/STM32Cube/Repository/STM32Cube_FW_L0_V1.11.2/Drivers/STM32L0xx_HAL_Driver/Src/stm32l0xx_hal.c ****   return HAL_OK;
 196:/home/maxx/STM32Cube/Repository/STM32Cube_FW_L0_V1.11.2/Drivers/STM32L0xx_HAL_Driver/Src/stm32l0xx_hal.c **** }
 197:/home/maxx/STM32Cube/Repository/STM32Cube_FW_L0_V1.11.2/Drivers/STM32L0xx_HAL_Driver/Src/stm32l0xx_hal.c **** 
 198:/home/maxx/STM32Cube/Repository/STM32Cube_FW_L0_V1.11.2/Drivers/STM32L0xx_HAL_Driver/Src/stm32l0xx_hal.c **** /**
 199:/home/maxx/STM32Cube/Repository/STM32Cube_FW_L0_V1.11.2/Drivers/STM32L0xx_HAL_Driver/Src/stm32l0xx_hal.c ****   * @brief  Initializes the MSP.
 200:/home/maxx/STM32Cube/Repository/STM32Cube_FW_L0_V1.11.2/Drivers/STM32L0xx_HAL_Driver/Src/stm32l0xx_hal.c ****   * @retval None
 201:/home/maxx/STM32Cube/Repository/STM32Cube_FW_L0_V1.11.2/Drivers/STM32L0xx_HAL_Driver/Src/stm32l0xx_hal.c ****   */
 202:/home/maxx/STM32Cube/Repository/STM32Cube_FW_L0_V1.11.2/Drivers/STM32L0xx_HAL_Driver/Src/stm32l0xx_hal.c **** __weak void HAL_MspInit(void)
 203:/home/maxx/STM32Cube/Repository/STM32Cube_FW_L0_V1.11.2/Drivers/STM32L0xx_HAL_Driver/Src/stm32l0xx_hal.c **** {
ARM GAS  /tmp/ccOjs6Gb.s 			page 5


  27              		.loc 1 203 1 view -0
  28              		.cfi_startproc
  29              		@ args = 0, pretend = 0, frame = 0
  30              		@ frame_needed = 0, uses_anonymous_args = 0
  31              		@ link register save eliminated.
 204:/home/maxx/STM32Cube/Repository/STM32Cube_FW_L0_V1.11.2/Drivers/STM32L0xx_HAL_Driver/Src/stm32l0xx_hal.c ****   /* NOTE : This function should not be modified, when the callback is needed,
 205:/home/maxx/STM32Cube/Repository/STM32Cube_FW_L0_V1.11.2/Drivers/STM32L0xx_HAL_Driver/Src/stm32l0xx_hal.c ****             the HAL_MspInit could be implemented in the user file
 206:/home/maxx/STM32Cube/Repository/STM32Cube_FW_L0_V1.11.2/Drivers/STM32L0xx_HAL_Driver/Src/stm32l0xx_hal.c ****    */
 207:/home/maxx/STM32Cube/Repository/STM32Cube_FW_L0_V1.11.2/Drivers/STM32L0xx_HAL_Driver/Src/stm32l0xx_hal.c **** }
  32              		.loc 1 207 1 view .LVU1
  33              		@ sp needed
  34 0000 7047     		bx	lr
  35              		.cfi_endproc
  36              	.LFE36:
  38              		.section	.text.HAL_MspDeInit,"ax",%progbits
  39              		.align	1
  40              		.weak	HAL_MspDeInit
  41              		.syntax unified
  42              		.code	16
  43              		.thumb_func
  44              		.fpu softvfp
  46              	HAL_MspDeInit:
  47              	.LFB37:
 208:/home/maxx/STM32Cube/Repository/STM32Cube_FW_L0_V1.11.2/Drivers/STM32L0xx_HAL_Driver/Src/stm32l0xx_hal.c **** 
 209:/home/maxx/STM32Cube/Repository/STM32Cube_FW_L0_V1.11.2/Drivers/STM32L0xx_HAL_Driver/Src/stm32l0xx_hal.c **** /**
 210:/home/maxx/STM32Cube/Repository/STM32Cube_FW_L0_V1.11.2/Drivers/STM32L0xx_HAL_Driver/Src/stm32l0xx_hal.c ****   * @brief  DeInitializes the MSP.
 211:/home/maxx/STM32Cube/Repository/STM32Cube_FW_L0_V1.11.2/Drivers/STM32L0xx_HAL_Driver/Src/stm32l0xx_hal.c ****   * @retval None
 212:/home/maxx/STM32Cube/Repository/STM32Cube_FW_L0_V1.11.2/Drivers/STM32L0xx_HAL_Driver/Src/stm32l0xx_hal.c ****   */
 213:/home/maxx/STM32Cube/Repository/STM32Cube_FW_L0_V1.11.2/Drivers/STM32L0xx_HAL_Driver/Src/stm32l0xx_hal.c **** __weak void HAL_MspDeInit(void)
 214:/home/maxx/STM32Cube/Repository/STM32Cube_FW_L0_V1.11.2/Drivers/STM32L0xx_HAL_Driver/Src/stm32l0xx_hal.c **** {
  48              		.loc 1 214 1 view -0
  49              		.cfi_startproc
  50              		@ args = 0, pretend = 0, frame = 0
  51              		@ frame_needed = 0, uses_anonymous_args = 0
  52              		@ link register save eliminated.
 215:/home/maxx/STM32Cube/Repository/STM32Cube_FW_L0_V1.11.2/Drivers/STM32L0xx_HAL_Driver/Src/stm32l0xx_hal.c ****   /* NOTE : This function should not be modified, when the callback is needed,
 216:/home/maxx/STM32Cube/Repository/STM32Cube_FW_L0_V1.11.2/Drivers/STM32L0xx_HAL_Driver/Src/stm32l0xx_hal.c ****             the HAL_MspDeInit could be implemented in the user file
 217:/home/maxx/STM32Cube/Repository/STM32Cube_FW_L0_V1.11.2/Drivers/STM32L0xx_HAL_Driver/Src/stm32l0xx_hal.c ****    */
 218:/home/maxx/STM32Cube/Repository/STM32Cube_FW_L0_V1.11.2/Drivers/STM32L0xx_HAL_Driver/Src/stm32l0xx_hal.c **** }
  53              		.loc 1 218 1 view .LVU3
  54              		@ sp needed
  55 0000 7047     		bx	lr
  56              		.cfi_endproc
  57              	.LFE37:
  59              		.section	.text.HAL_DeInit,"ax",%progbits
  60              		.align	1
  61              		.global	HAL_DeInit
  62              		.syntax unified
  63              		.code	16
  64              		.thumb_func
  65              		.fpu softvfp
  67              	HAL_DeInit:
  68              	.LFB35:
 177:/home/maxx/STM32Cube/Repository/STM32Cube_FW_L0_V1.11.2/Drivers/STM32L0xx_HAL_Driver/Src/stm32l0xx_hal.c ****   /* Reset of all peripherals */
  69              		.loc 1 177 1 view -0
  70              		.cfi_startproc
  71              		@ args = 0, pretend = 0, frame = 0
ARM GAS  /tmp/ccOjs6Gb.s 			page 6


  72              		@ frame_needed = 0, uses_anonymous_args = 0
  73 0000 10B5     		push	{r4, lr}
  74              	.LCFI0:
  75              		.cfi_def_cfa_offset 8
  76              		.cfi_offset 4, -8
  77              		.cfi_offset 14, -4
 179:/home/maxx/STM32Cube/Repository/STM32Cube_FW_L0_V1.11.2/Drivers/STM32L0xx_HAL_Driver/Src/stm32l0xx_hal.c ****   __HAL_RCC_APB1_RELEASE_RESET();
  78              		.loc 1 179 3 view .LVU5
  79 0002 084B     		ldr	r3, .L4
  80 0004 0121     		movs	r1, #1
  81 0006 4942     		rsbs	r1, r1, #0
  82 0008 9962     		str	r1, [r3, #40]
 180:/home/maxx/STM32Cube/Repository/STM32Cube_FW_L0_V1.11.2/Drivers/STM32L0xx_HAL_Driver/Src/stm32l0xx_hal.c **** 
  83              		.loc 1 180 3 view .LVU6
  84 000a 0022     		movs	r2, #0
  85 000c 9A62     		str	r2, [r3, #40]
 182:/home/maxx/STM32Cube/Repository/STM32Cube_FW_L0_V1.11.2/Drivers/STM32L0xx_HAL_Driver/Src/stm32l0xx_hal.c ****   __HAL_RCC_APB2_RELEASE_RESET();
  86              		.loc 1 182 3 view .LVU7
  87 000e 5962     		str	r1, [r3, #36]
 183:/home/maxx/STM32Cube/Repository/STM32Cube_FW_L0_V1.11.2/Drivers/STM32L0xx_HAL_Driver/Src/stm32l0xx_hal.c **** 
  88              		.loc 1 183 3 view .LVU8
  89 0010 5A62     		str	r2, [r3, #36]
 185:/home/maxx/STM32Cube/Repository/STM32Cube_FW_L0_V1.11.2/Drivers/STM32L0xx_HAL_Driver/Src/stm32l0xx_hal.c ****   __HAL_RCC_AHB_RELEASE_RESET();
  90              		.loc 1 185 3 view .LVU9
  91 0012 1962     		str	r1, [r3, #32]
 186:/home/maxx/STM32Cube/Repository/STM32Cube_FW_L0_V1.11.2/Drivers/STM32L0xx_HAL_Driver/Src/stm32l0xx_hal.c **** 
  92              		.loc 1 186 3 view .LVU10
  93 0014 1A62     		str	r2, [r3, #32]
 188:/home/maxx/STM32Cube/Repository/STM32Cube_FW_L0_V1.11.2/Drivers/STM32L0xx_HAL_Driver/Src/stm32l0xx_hal.c ****   __HAL_RCC_IOP_RELEASE_RESET();
  94              		.loc 1 188 3 view .LVU11
  95 0016 D961     		str	r1, [r3, #28]
 189:/home/maxx/STM32Cube/Repository/STM32Cube_FW_L0_V1.11.2/Drivers/STM32L0xx_HAL_Driver/Src/stm32l0xx_hal.c **** 
  96              		.loc 1 189 3 view .LVU12
  97 0018 DA61     		str	r2, [r3, #28]
 192:/home/maxx/STM32Cube/Repository/STM32Cube_FW_L0_V1.11.2/Drivers/STM32L0xx_HAL_Driver/Src/stm32l0xx_hal.c **** 
  98              		.loc 1 192 3 view .LVU13
  99 001a FFF7FEFF 		bl	HAL_MspDeInit
 100              	.LVL0:
 195:/home/maxx/STM32Cube/Repository/STM32Cube_FW_L0_V1.11.2/Drivers/STM32L0xx_HAL_Driver/Src/stm32l0xx_hal.c **** }
 101              		.loc 1 195 3 view .LVU14
 196:/home/maxx/STM32Cube/Repository/STM32Cube_FW_L0_V1.11.2/Drivers/STM32L0xx_HAL_Driver/Src/stm32l0xx_hal.c **** 
 102              		.loc 1 196 1 is_stmt 0 view .LVU15
 103 001e 0020     		movs	r0, #0
 104              		@ sp needed
 105 0020 10BD     		pop	{r4, pc}
 106              	.L5:
 107 0022 C046     		.align	2
 108              	.L4:
 109 0024 00100240 		.word	1073876992
 110              		.cfi_endproc
 111              	.LFE35:
 113              		.global	__aeabi_uidiv
 114              		.section	.text.HAL_InitTick,"ax",%progbits
 115              		.align	1
 116              		.weak	HAL_InitTick
 117              		.syntax unified
 118              		.code	16
ARM GAS  /tmp/ccOjs6Gb.s 			page 7


 119              		.thumb_func
 120              		.fpu softvfp
 122              	HAL_InitTick:
 123              	.LVL1:
 124              	.LFB38:
 219:/home/maxx/STM32Cube/Repository/STM32Cube_FW_L0_V1.11.2/Drivers/STM32L0xx_HAL_Driver/Src/stm32l0xx_hal.c **** 
 220:/home/maxx/STM32Cube/Repository/STM32Cube_FW_L0_V1.11.2/Drivers/STM32L0xx_HAL_Driver/Src/stm32l0xx_hal.c **** /**
 221:/home/maxx/STM32Cube/Repository/STM32Cube_FW_L0_V1.11.2/Drivers/STM32L0xx_HAL_Driver/Src/stm32l0xx_hal.c ****   * @brief This function configures the source of the time base:
 222:/home/maxx/STM32Cube/Repository/STM32Cube_FW_L0_V1.11.2/Drivers/STM32L0xx_HAL_Driver/Src/stm32l0xx_hal.c ****   *        The time source is configured to have 1ms time base with a dedicated
 223:/home/maxx/STM32Cube/Repository/STM32Cube_FW_L0_V1.11.2/Drivers/STM32L0xx_HAL_Driver/Src/stm32l0xx_hal.c ****   *        Tick interrupt priority.
 224:/home/maxx/STM32Cube/Repository/STM32Cube_FW_L0_V1.11.2/Drivers/STM32L0xx_HAL_Driver/Src/stm32l0xx_hal.c ****   * @note This function is called  automatically at the beginning of program after
 225:/home/maxx/STM32Cube/Repository/STM32Cube_FW_L0_V1.11.2/Drivers/STM32L0xx_HAL_Driver/Src/stm32l0xx_hal.c ****   *       reset by HAL_Init() or at any time when clock is reconfigured  by HAL_RCC_ClockConfig().
 226:/home/maxx/STM32Cube/Repository/STM32Cube_FW_L0_V1.11.2/Drivers/STM32L0xx_HAL_Driver/Src/stm32l0xx_hal.c ****   * @note In the default implementation, SysTick timer is the source of time base.
 227:/home/maxx/STM32Cube/Repository/STM32Cube_FW_L0_V1.11.2/Drivers/STM32L0xx_HAL_Driver/Src/stm32l0xx_hal.c ****   *       It is used to generate interrupts at regular time intervals.
 228:/home/maxx/STM32Cube/Repository/STM32Cube_FW_L0_V1.11.2/Drivers/STM32L0xx_HAL_Driver/Src/stm32l0xx_hal.c ****   *       Care must be taken if HAL_Delay() is called from a peripheral ISR process,
 229:/home/maxx/STM32Cube/Repository/STM32Cube_FW_L0_V1.11.2/Drivers/STM32L0xx_HAL_Driver/Src/stm32l0xx_hal.c ****   *       The SysTick interrupt must have higher priority (numerically lower)
 230:/home/maxx/STM32Cube/Repository/STM32Cube_FW_L0_V1.11.2/Drivers/STM32L0xx_HAL_Driver/Src/stm32l0xx_hal.c ****   *       than the peripheral interrupt. Otherwise the caller ISR process will be blocked.
 231:/home/maxx/STM32Cube/Repository/STM32Cube_FW_L0_V1.11.2/Drivers/STM32L0xx_HAL_Driver/Src/stm32l0xx_hal.c ****   *       The function is declared as __weak  to be overwritten  in case of other
 232:/home/maxx/STM32Cube/Repository/STM32Cube_FW_L0_V1.11.2/Drivers/STM32L0xx_HAL_Driver/Src/stm32l0xx_hal.c ****   *       implementation  in user file.
 233:/home/maxx/STM32Cube/Repository/STM32Cube_FW_L0_V1.11.2/Drivers/STM32L0xx_HAL_Driver/Src/stm32l0xx_hal.c ****   * @param TickPriority Tick interrupt priority.
 234:/home/maxx/STM32Cube/Repository/STM32Cube_FW_L0_V1.11.2/Drivers/STM32L0xx_HAL_Driver/Src/stm32l0xx_hal.c ****   * @retval HAL status
 235:/home/maxx/STM32Cube/Repository/STM32Cube_FW_L0_V1.11.2/Drivers/STM32L0xx_HAL_Driver/Src/stm32l0xx_hal.c ****   */
 236:/home/maxx/STM32Cube/Repository/STM32Cube_FW_L0_V1.11.2/Drivers/STM32L0xx_HAL_Driver/Src/stm32l0xx_hal.c **** __weak HAL_StatusTypeDef HAL_InitTick(uint32_t TickPriority)
 237:/home/maxx/STM32Cube/Repository/STM32Cube_FW_L0_V1.11.2/Drivers/STM32L0xx_HAL_Driver/Src/stm32l0xx_hal.c **** {
 125              		.loc 1 237 1 is_stmt 1 view -0
 126              		.cfi_startproc
 127              		@ args = 0, pretend = 0, frame = 0
 128              		@ frame_needed = 0, uses_anonymous_args = 0
 129              		.loc 1 237 1 is_stmt 0 view .LVU17
 130 0000 10B5     		push	{r4, lr}
 131              	.LCFI1:
 132              		.cfi_def_cfa_offset 8
 133              		.cfi_offset 4, -8
 134              		.cfi_offset 14, -4
 135 0002 0400     		movs	r4, r0
 238:/home/maxx/STM32Cube/Repository/STM32Cube_FW_L0_V1.11.2/Drivers/STM32L0xx_HAL_Driver/Src/stm32l0xx_hal.c ****   HAL_StatusTypeDef  status = HAL_OK;
 136              		.loc 1 238 3 is_stmt 1 view .LVU18
 137              	.LVL2:
 239:/home/maxx/STM32Cube/Repository/STM32Cube_FW_L0_V1.11.2/Drivers/STM32L0xx_HAL_Driver/Src/stm32l0xx_hal.c **** 
 240:/home/maxx/STM32Cube/Repository/STM32Cube_FW_L0_V1.11.2/Drivers/STM32L0xx_HAL_Driver/Src/stm32l0xx_hal.c ****   /*Configure the SysTick to have interrupt in 1ms time basis*/
 241:/home/maxx/STM32Cube/Repository/STM32Cube_FW_L0_V1.11.2/Drivers/STM32L0xx_HAL_Driver/Src/stm32l0xx_hal.c ****   if (HAL_SYSTICK_Config(SystemCoreClock/1000UL) != 0U)
 138              		.loc 1 241 3 view .LVU19
 139              		.loc 1 241 7 is_stmt 0 view .LVU20
 140 0004 094B     		ldr	r3, .L10
 141 0006 1868     		ldr	r0, [r3]
 142              	.LVL3:
 143              		.loc 1 241 7 view .LVU21
 144 0008 FA21     		movs	r1, #250
 145 000a 8900     		lsls	r1, r1, #2
 146 000c FFF7FEFF 		bl	__aeabi_uidiv
 147              	.LVL4:
 148 0010 FFF7FEFF 		bl	HAL_SYSTICK_Config
 149              	.LVL5:
 150              		.loc 1 241 6 view .LVU22
 151 0014 0028     		cmp	r0, #0
 152 0016 01D0     		beq	.L9
 242:/home/maxx/STM32Cube/Repository/STM32Cube_FW_L0_V1.11.2/Drivers/STM32L0xx_HAL_Driver/Src/stm32l0xx_hal.c ****   {
ARM GAS  /tmp/ccOjs6Gb.s 			page 8


 243:/home/maxx/STM32Cube/Repository/STM32Cube_FW_L0_V1.11.2/Drivers/STM32L0xx_HAL_Driver/Src/stm32l0xx_hal.c ****     status = HAL_ERROR;
 153              		.loc 1 243 12 view .LVU23
 154 0018 0120     		movs	r0, #1
 155              	.L7:
 156              	.LVL6:
 244:/home/maxx/STM32Cube/Repository/STM32Cube_FW_L0_V1.11.2/Drivers/STM32L0xx_HAL_Driver/Src/stm32l0xx_hal.c ****   }
 245:/home/maxx/STM32Cube/Repository/STM32Cube_FW_L0_V1.11.2/Drivers/STM32L0xx_HAL_Driver/Src/stm32l0xx_hal.c ****   else
 246:/home/maxx/STM32Cube/Repository/STM32Cube_FW_L0_V1.11.2/Drivers/STM32L0xx_HAL_Driver/Src/stm32l0xx_hal.c ****   {
 247:/home/maxx/STM32Cube/Repository/STM32Cube_FW_L0_V1.11.2/Drivers/STM32L0xx_HAL_Driver/Src/stm32l0xx_hal.c ****     /*Configure the SysTick IRQ priority */
 248:/home/maxx/STM32Cube/Repository/STM32Cube_FW_L0_V1.11.2/Drivers/STM32L0xx_HAL_Driver/Src/stm32l0xx_hal.c ****     HAL_NVIC_SetPriority(SysTick_IRQn, TickPriority, 0);
 249:/home/maxx/STM32Cube/Repository/STM32Cube_FW_L0_V1.11.2/Drivers/STM32L0xx_HAL_Driver/Src/stm32l0xx_hal.c ****   }
 250:/home/maxx/STM32Cube/Repository/STM32Cube_FW_L0_V1.11.2/Drivers/STM32L0xx_HAL_Driver/Src/stm32l0xx_hal.c **** 
 251:/home/maxx/STM32Cube/Repository/STM32Cube_FW_L0_V1.11.2/Drivers/STM32L0xx_HAL_Driver/Src/stm32l0xx_hal.c ****   /* Return function status */
 252:/home/maxx/STM32Cube/Repository/STM32Cube_FW_L0_V1.11.2/Drivers/STM32L0xx_HAL_Driver/Src/stm32l0xx_hal.c ****   return status;
 157              		.loc 1 252 3 is_stmt 1 view .LVU24
 253:/home/maxx/STM32Cube/Repository/STM32Cube_FW_L0_V1.11.2/Drivers/STM32L0xx_HAL_Driver/Src/stm32l0xx_hal.c **** }
 158              		.loc 1 253 1 is_stmt 0 view .LVU25
 159              		@ sp needed
 160              	.LVL7:
 161              		.loc 1 253 1 view .LVU26
 162 001a 10BD     		pop	{r4, pc}
 163              	.LVL8:
 164              	.L9:
 248:/home/maxx/STM32Cube/Repository/STM32Cube_FW_L0_V1.11.2/Drivers/STM32L0xx_HAL_Driver/Src/stm32l0xx_hal.c ****   }
 165              		.loc 1 248 5 is_stmt 1 view .LVU27
 166 001c 0130     		adds	r0, r0, #1
 167 001e 0022     		movs	r2, #0
 168 0020 2100     		movs	r1, r4
 169 0022 4042     		rsbs	r0, r0, #0
 170 0024 FFF7FEFF 		bl	HAL_NVIC_SetPriority
 171              	.LVL9:
 238:/home/maxx/STM32Cube/Repository/STM32Cube_FW_L0_V1.11.2/Drivers/STM32L0xx_HAL_Driver/Src/stm32l0xx_hal.c **** 
 172              		.loc 1 238 22 is_stmt 0 view .LVU28
 173 0028 0020     		movs	r0, #0
 174 002a F6E7     		b	.L7
 175              	.L11:
 176              		.align	2
 177              	.L10:
 178 002c 00000000 		.word	SystemCoreClock
 179              		.cfi_endproc
 180              	.LFE38:
 182              		.section	.text.HAL_Init,"ax",%progbits
 183              		.align	1
 184              		.global	HAL_Init
 185              		.syntax unified
 186              		.code	16
 187              		.thumb_func
 188              		.fpu softvfp
 190              	HAL_Init:
 191              	.LFB34:
 139:/home/maxx/STM32Cube/Repository/STM32Cube_FW_L0_V1.11.2/Drivers/STM32L0xx_HAL_Driver/Src/stm32l0xx_hal.c ****   HAL_StatusTypeDef  status = HAL_OK;
 192              		.loc 1 139 1 is_stmt 1 view -0
 193              		.cfi_startproc
 194              		@ args = 0, pretend = 0, frame = 0
 195              		@ frame_needed = 0, uses_anonymous_args = 0
 196 0000 10B5     		push	{r4, lr}
 197              	.LCFI2:
ARM GAS  /tmp/ccOjs6Gb.s 			page 9


 198              		.cfi_def_cfa_offset 8
 199              		.cfi_offset 4, -8
 200              		.cfi_offset 14, -4
 140:/home/maxx/STM32Cube/Repository/STM32Cube_FW_L0_V1.11.2/Drivers/STM32L0xx_HAL_Driver/Src/stm32l0xx_hal.c **** 
 201              		.loc 1 140 3 view .LVU30
 202              	.LVL10:
 148:/home/maxx/STM32Cube/Repository/STM32Cube_FW_L0_V1.11.2/Drivers/STM32L0xx_HAL_Driver/Src/stm32l0xx_hal.c **** #endif /* PREREAD_ENABLE */
 203              		.loc 1 148 3 view .LVU31
 204 0002 084A     		ldr	r2, .L16
 205 0004 1368     		ldr	r3, [r2]
 206 0006 4021     		movs	r1, #64
 207 0008 0B43     		orrs	r3, r1
 208 000a 1360     		str	r3, [r2]
 156:/home/maxx/STM32Cube/Repository/STM32Cube_FW_L0_V1.11.2/Drivers/STM32L0xx_HAL_Driver/Src/stm32l0xx_hal.c ****   {
 209              		.loc 1 156 3 view .LVU32
 156:/home/maxx/STM32Cube/Repository/STM32Cube_FW_L0_V1.11.2/Drivers/STM32L0xx_HAL_Driver/Src/stm32l0xx_hal.c ****   {
 210              		.loc 1 156 7 is_stmt 0 view .LVU33
 211 000c 0020     		movs	r0, #0
 212 000e FFF7FEFF 		bl	HAL_InitTick
 213              	.LVL11:
 214 0012 041E     		subs	r4, r0, #0
 156:/home/maxx/STM32Cube/Repository/STM32Cube_FW_L0_V1.11.2/Drivers/STM32L0xx_HAL_Driver/Src/stm32l0xx_hal.c ****   {
 215              		.loc 1 156 6 view .LVU34
 216 0014 02D0     		beq	.L15
 158:/home/maxx/STM32Cube/Repository/STM32Cube_FW_L0_V1.11.2/Drivers/STM32L0xx_HAL_Driver/Src/stm32l0xx_hal.c ****   }
 217              		.loc 1 158 12 view .LVU35
 218 0016 0124     		movs	r4, #1
 219              	.L13:
 220              	.LVL12:
 167:/home/maxx/STM32Cube/Repository/STM32Cube_FW_L0_V1.11.2/Drivers/STM32L0xx_HAL_Driver/Src/stm32l0xx_hal.c **** }
 221              		.loc 1 167 3 is_stmt 1 view .LVU36
 168:/home/maxx/STM32Cube/Repository/STM32Cube_FW_L0_V1.11.2/Drivers/STM32L0xx_HAL_Driver/Src/stm32l0xx_hal.c **** 
 222              		.loc 1 168 1 is_stmt 0 view .LVU37
 223 0018 2000     		movs	r0, r4
 224              		@ sp needed
 225              	.LVL13:
 168:/home/maxx/STM32Cube/Repository/STM32Cube_FW_L0_V1.11.2/Drivers/STM32L0xx_HAL_Driver/Src/stm32l0xx_hal.c **** 
 226              		.loc 1 168 1 view .LVU38
 227 001a 10BD     		pop	{r4, pc}
 228              	.LVL14:
 229              	.L15:
 163:/home/maxx/STM32Cube/Repository/STM32Cube_FW_L0_V1.11.2/Drivers/STM32L0xx_HAL_Driver/Src/stm32l0xx_hal.c ****   }
 230              		.loc 1 163 5 is_stmt 1 view .LVU39
 231 001c FFF7FEFF 		bl	HAL_MspInit
 232              	.LVL15:
 233 0020 FAE7     		b	.L13
 234              	.L17:
 235 0022 C046     		.align	2
 236              	.L16:
 237 0024 00200240 		.word	1073881088
 238              		.cfi_endproc
 239              	.LFE34:
 241              		.section	.text.HAL_IncTick,"ax",%progbits
 242              		.align	1
 243              		.weak	HAL_IncTick
 244              		.syntax unified
 245              		.code	16
ARM GAS  /tmp/ccOjs6Gb.s 			page 10


 246              		.thumb_func
 247              		.fpu softvfp
 249              	HAL_IncTick:
 250              	.LFB39:
 254:/home/maxx/STM32Cube/Repository/STM32Cube_FW_L0_V1.11.2/Drivers/STM32L0xx_HAL_Driver/Src/stm32l0xx_hal.c **** 
 255:/home/maxx/STM32Cube/Repository/STM32Cube_FW_L0_V1.11.2/Drivers/STM32L0xx_HAL_Driver/Src/stm32l0xx_hal.c **** /**
 256:/home/maxx/STM32Cube/Repository/STM32Cube_FW_L0_V1.11.2/Drivers/STM32L0xx_HAL_Driver/Src/stm32l0xx_hal.c ****   * @}
 257:/home/maxx/STM32Cube/Repository/STM32Cube_FW_L0_V1.11.2/Drivers/STM32L0xx_HAL_Driver/Src/stm32l0xx_hal.c ****   */
 258:/home/maxx/STM32Cube/Repository/STM32Cube_FW_L0_V1.11.2/Drivers/STM32L0xx_HAL_Driver/Src/stm32l0xx_hal.c **** 
 259:/home/maxx/STM32Cube/Repository/STM32Cube_FW_L0_V1.11.2/Drivers/STM32L0xx_HAL_Driver/Src/stm32l0xx_hal.c **** /** @addtogroup HAL_Exported_Functions_Group2
 260:/home/maxx/STM32Cube/Repository/STM32Cube_FW_L0_V1.11.2/Drivers/STM32L0xx_HAL_Driver/Src/stm32l0xx_hal.c ****  *  @brief    HAL Control functions
 261:/home/maxx/STM32Cube/Repository/STM32Cube_FW_L0_V1.11.2/Drivers/STM32L0xx_HAL_Driver/Src/stm32l0xx_hal.c ****  *
 262:/home/maxx/STM32Cube/Repository/STM32Cube_FW_L0_V1.11.2/Drivers/STM32L0xx_HAL_Driver/Src/stm32l0xx_hal.c **** @verbatim
 263:/home/maxx/STM32Cube/Repository/STM32Cube_FW_L0_V1.11.2/Drivers/STM32L0xx_HAL_Driver/Src/stm32l0xx_hal.c ****  ===============================================================================
 264:/home/maxx/STM32Cube/Repository/STM32Cube_FW_L0_V1.11.2/Drivers/STM32L0xx_HAL_Driver/Src/stm32l0xx_hal.c ****                       ##### HAL Control functions #####
 265:/home/maxx/STM32Cube/Repository/STM32Cube_FW_L0_V1.11.2/Drivers/STM32L0xx_HAL_Driver/Src/stm32l0xx_hal.c ****  ===============================================================================
 266:/home/maxx/STM32Cube/Repository/STM32Cube_FW_L0_V1.11.2/Drivers/STM32L0xx_HAL_Driver/Src/stm32l0xx_hal.c ****     [..]  This section provides functions allowing to:
 267:/home/maxx/STM32Cube/Repository/STM32Cube_FW_L0_V1.11.2/Drivers/STM32L0xx_HAL_Driver/Src/stm32l0xx_hal.c ****       (+) Provide a tick value in millisecond
 268:/home/maxx/STM32Cube/Repository/STM32Cube_FW_L0_V1.11.2/Drivers/STM32L0xx_HAL_Driver/Src/stm32l0xx_hal.c ****       (+) Provide a blocking delay in millisecond
 269:/home/maxx/STM32Cube/Repository/STM32Cube_FW_L0_V1.11.2/Drivers/STM32L0xx_HAL_Driver/Src/stm32l0xx_hal.c ****       (+) Suspend the time base source interrupt
 270:/home/maxx/STM32Cube/Repository/STM32Cube_FW_L0_V1.11.2/Drivers/STM32L0xx_HAL_Driver/Src/stm32l0xx_hal.c ****       (+) Resume the time base source interrupt
 271:/home/maxx/STM32Cube/Repository/STM32Cube_FW_L0_V1.11.2/Drivers/STM32L0xx_HAL_Driver/Src/stm32l0xx_hal.c ****       (+) Get the HAL API driver version
 272:/home/maxx/STM32Cube/Repository/STM32Cube_FW_L0_V1.11.2/Drivers/STM32L0xx_HAL_Driver/Src/stm32l0xx_hal.c ****       (+) Get the device identifier
 273:/home/maxx/STM32Cube/Repository/STM32Cube_FW_L0_V1.11.2/Drivers/STM32L0xx_HAL_Driver/Src/stm32l0xx_hal.c ****       (+) Get the device revision identifier
 274:/home/maxx/STM32Cube/Repository/STM32Cube_FW_L0_V1.11.2/Drivers/STM32L0xx_HAL_Driver/Src/stm32l0xx_hal.c **** 
 275:/home/maxx/STM32Cube/Repository/STM32Cube_FW_L0_V1.11.2/Drivers/STM32L0xx_HAL_Driver/Src/stm32l0xx_hal.c **** @endverbatim
 276:/home/maxx/STM32Cube/Repository/STM32Cube_FW_L0_V1.11.2/Drivers/STM32L0xx_HAL_Driver/Src/stm32l0xx_hal.c ****   * @{
 277:/home/maxx/STM32Cube/Repository/STM32Cube_FW_L0_V1.11.2/Drivers/STM32L0xx_HAL_Driver/Src/stm32l0xx_hal.c ****   */
 278:/home/maxx/STM32Cube/Repository/STM32Cube_FW_L0_V1.11.2/Drivers/STM32L0xx_HAL_Driver/Src/stm32l0xx_hal.c **** 
 279:/home/maxx/STM32Cube/Repository/STM32Cube_FW_L0_V1.11.2/Drivers/STM32L0xx_HAL_Driver/Src/stm32l0xx_hal.c **** /**
 280:/home/maxx/STM32Cube/Repository/STM32Cube_FW_L0_V1.11.2/Drivers/STM32L0xx_HAL_Driver/Src/stm32l0xx_hal.c ****   * @brief This function is called to increment a global variable "uwTick"
 281:/home/maxx/STM32Cube/Repository/STM32Cube_FW_L0_V1.11.2/Drivers/STM32L0xx_HAL_Driver/Src/stm32l0xx_hal.c ****   *        used as application time base.
 282:/home/maxx/STM32Cube/Repository/STM32Cube_FW_L0_V1.11.2/Drivers/STM32L0xx_HAL_Driver/Src/stm32l0xx_hal.c ****   * @note In the default implementation, this variable is incremented each 1ms
 283:/home/maxx/STM32Cube/Repository/STM32Cube_FW_L0_V1.11.2/Drivers/STM32L0xx_HAL_Driver/Src/stm32l0xx_hal.c ****   *       in SysTick ISR.
 284:/home/maxx/STM32Cube/Repository/STM32Cube_FW_L0_V1.11.2/Drivers/STM32L0xx_HAL_Driver/Src/stm32l0xx_hal.c ****  * @note This function is declared as __weak to be overwritten in case of other
 285:/home/maxx/STM32Cube/Repository/STM32Cube_FW_L0_V1.11.2/Drivers/STM32L0xx_HAL_Driver/Src/stm32l0xx_hal.c ****   *      implementations in user file.
 286:/home/maxx/STM32Cube/Repository/STM32Cube_FW_L0_V1.11.2/Drivers/STM32L0xx_HAL_Driver/Src/stm32l0xx_hal.c ****   * @retval None
 287:/home/maxx/STM32Cube/Repository/STM32Cube_FW_L0_V1.11.2/Drivers/STM32L0xx_HAL_Driver/Src/stm32l0xx_hal.c ****   */
 288:/home/maxx/STM32Cube/Repository/STM32Cube_FW_L0_V1.11.2/Drivers/STM32L0xx_HAL_Driver/Src/stm32l0xx_hal.c **** __weak void HAL_IncTick(void)
 289:/home/maxx/STM32Cube/Repository/STM32Cube_FW_L0_V1.11.2/Drivers/STM32L0xx_HAL_Driver/Src/stm32l0xx_hal.c **** {
 251              		.loc 1 289 1 view -0
 252              		.cfi_startproc
 253              		@ args = 0, pretend = 0, frame = 0
 254              		@ frame_needed = 0, uses_anonymous_args = 0
 255              		@ link register save eliminated.
 290:/home/maxx/STM32Cube/Repository/STM32Cube_FW_L0_V1.11.2/Drivers/STM32L0xx_HAL_Driver/Src/stm32l0xx_hal.c ****   uwTick++;
 256              		.loc 1 290 3 view .LVU41
 257              		.loc 1 290 9 is_stmt 0 view .LVU42
 258 0000 024A     		ldr	r2, .L19
 259 0002 1368     		ldr	r3, [r2]
 260 0004 0133     		adds	r3, r3, #1
 261 0006 1360     		str	r3, [r2]
 291:/home/maxx/STM32Cube/Repository/STM32Cube_FW_L0_V1.11.2/Drivers/STM32L0xx_HAL_Driver/Src/stm32l0xx_hal.c **** }
 262              		.loc 1 291 1 view .LVU43
 263              		@ sp needed
 264 0008 7047     		bx	lr
 265              	.L20:
ARM GAS  /tmp/ccOjs6Gb.s 			page 11


 266 000a C046     		.align	2
 267              	.L19:
 268 000c 00000000 		.word	uwTick
 269              		.cfi_endproc
 270              	.LFE39:
 272              		.section	.text.HAL_GetTick,"ax",%progbits
 273              		.align	1
 274              		.weak	HAL_GetTick
 275              		.syntax unified
 276              		.code	16
 277              		.thumb_func
 278              		.fpu softvfp
 280              	HAL_GetTick:
 281              	.LFB40:
 292:/home/maxx/STM32Cube/Repository/STM32Cube_FW_L0_V1.11.2/Drivers/STM32L0xx_HAL_Driver/Src/stm32l0xx_hal.c **** 
 293:/home/maxx/STM32Cube/Repository/STM32Cube_FW_L0_V1.11.2/Drivers/STM32L0xx_HAL_Driver/Src/stm32l0xx_hal.c **** /**
 294:/home/maxx/STM32Cube/Repository/STM32Cube_FW_L0_V1.11.2/Drivers/STM32L0xx_HAL_Driver/Src/stm32l0xx_hal.c ****   * @brief Provides a tick value in millisecond.
 295:/home/maxx/STM32Cube/Repository/STM32Cube_FW_L0_V1.11.2/Drivers/STM32L0xx_HAL_Driver/Src/stm32l0xx_hal.c ****   * @note This function is declared as __weak to be overwritten in case of other
 296:/home/maxx/STM32Cube/Repository/STM32Cube_FW_L0_V1.11.2/Drivers/STM32L0xx_HAL_Driver/Src/stm32l0xx_hal.c ****   *       implementations in user file.
 297:/home/maxx/STM32Cube/Repository/STM32Cube_FW_L0_V1.11.2/Drivers/STM32L0xx_HAL_Driver/Src/stm32l0xx_hal.c ****   * @retval tick value
 298:/home/maxx/STM32Cube/Repository/STM32Cube_FW_L0_V1.11.2/Drivers/STM32L0xx_HAL_Driver/Src/stm32l0xx_hal.c ****   */
 299:/home/maxx/STM32Cube/Repository/STM32Cube_FW_L0_V1.11.2/Drivers/STM32L0xx_HAL_Driver/Src/stm32l0xx_hal.c **** __weak uint32_t HAL_GetTick(void)
 300:/home/maxx/STM32Cube/Repository/STM32Cube_FW_L0_V1.11.2/Drivers/STM32L0xx_HAL_Driver/Src/stm32l0xx_hal.c **** {
 282              		.loc 1 300 1 is_stmt 1 view -0
 283              		.cfi_startproc
 284              		@ args = 0, pretend = 0, frame = 0
 285              		@ frame_needed = 0, uses_anonymous_args = 0
 286              		@ link register save eliminated.
 301:/home/maxx/STM32Cube/Repository/STM32Cube_FW_L0_V1.11.2/Drivers/STM32L0xx_HAL_Driver/Src/stm32l0xx_hal.c ****   return uwTick;
 287              		.loc 1 301 3 view .LVU45
 288              		.loc 1 301 10 is_stmt 0 view .LVU46
 289 0000 014B     		ldr	r3, .L22
 290 0002 1868     		ldr	r0, [r3]
 302:/home/maxx/STM32Cube/Repository/STM32Cube_FW_L0_V1.11.2/Drivers/STM32L0xx_HAL_Driver/Src/stm32l0xx_hal.c **** }
 291              		.loc 1 302 1 view .LVU47
 292              		@ sp needed
 293 0004 7047     		bx	lr
 294              	.L23:
 295 0006 C046     		.align	2
 296              	.L22:
 297 0008 00000000 		.word	uwTick
 298              		.cfi_endproc
 299              	.LFE40:
 301              		.section	.text.HAL_Delay,"ax",%progbits
 302              		.align	1
 303              		.weak	HAL_Delay
 304              		.syntax unified
 305              		.code	16
 306              		.thumb_func
 307              		.fpu softvfp
 309              	HAL_Delay:
 310              	.LVL16:
 311              	.LFB41:
 303:/home/maxx/STM32Cube/Repository/STM32Cube_FW_L0_V1.11.2/Drivers/STM32L0xx_HAL_Driver/Src/stm32l0xx_hal.c **** 
 304:/home/maxx/STM32Cube/Repository/STM32Cube_FW_L0_V1.11.2/Drivers/STM32L0xx_HAL_Driver/Src/stm32l0xx_hal.c **** /**
 305:/home/maxx/STM32Cube/Repository/STM32Cube_FW_L0_V1.11.2/Drivers/STM32L0xx_HAL_Driver/Src/stm32l0xx_hal.c ****   * @brief This function provides minimum delay (in milliseconds) based
 306:/home/maxx/STM32Cube/Repository/STM32Cube_FW_L0_V1.11.2/Drivers/STM32L0xx_HAL_Driver/Src/stm32l0xx_hal.c ****   *        on variable incremented.
ARM GAS  /tmp/ccOjs6Gb.s 			page 12


 307:/home/maxx/STM32Cube/Repository/STM32Cube_FW_L0_V1.11.2/Drivers/STM32L0xx_HAL_Driver/Src/stm32l0xx_hal.c ****   * @note In the default implementation , SysTick timer is the source of time base.
 308:/home/maxx/STM32Cube/Repository/STM32Cube_FW_L0_V1.11.2/Drivers/STM32L0xx_HAL_Driver/Src/stm32l0xx_hal.c ****   *       It is used to generate interrupts at regular time intervals where uwTick
 309:/home/maxx/STM32Cube/Repository/STM32Cube_FW_L0_V1.11.2/Drivers/STM32L0xx_HAL_Driver/Src/stm32l0xx_hal.c ****   *       is incremented.
 310:/home/maxx/STM32Cube/Repository/STM32Cube_FW_L0_V1.11.2/Drivers/STM32L0xx_HAL_Driver/Src/stm32l0xx_hal.c ****   * @note This function is declared as __weak to be overwritten in case of other
 311:/home/maxx/STM32Cube/Repository/STM32Cube_FW_L0_V1.11.2/Drivers/STM32L0xx_HAL_Driver/Src/stm32l0xx_hal.c ****   *       implementations in user file.
 312:/home/maxx/STM32Cube/Repository/STM32Cube_FW_L0_V1.11.2/Drivers/STM32L0xx_HAL_Driver/Src/stm32l0xx_hal.c ****   * @param Delay specifies the delay time length, in milliseconds.
 313:/home/maxx/STM32Cube/Repository/STM32Cube_FW_L0_V1.11.2/Drivers/STM32L0xx_HAL_Driver/Src/stm32l0xx_hal.c ****   * @retval None
 314:/home/maxx/STM32Cube/Repository/STM32Cube_FW_L0_V1.11.2/Drivers/STM32L0xx_HAL_Driver/Src/stm32l0xx_hal.c ****   */
 315:/home/maxx/STM32Cube/Repository/STM32Cube_FW_L0_V1.11.2/Drivers/STM32L0xx_HAL_Driver/Src/stm32l0xx_hal.c **** __weak void HAL_Delay(uint32_t Delay)
 316:/home/maxx/STM32Cube/Repository/STM32Cube_FW_L0_V1.11.2/Drivers/STM32L0xx_HAL_Driver/Src/stm32l0xx_hal.c **** {
 312              		.loc 1 316 1 is_stmt 1 view -0
 313              		.cfi_startproc
 314              		@ args = 0, pretend = 0, frame = 0
 315              		@ frame_needed = 0, uses_anonymous_args = 0
 316              		.loc 1 316 1 is_stmt 0 view .LVU49
 317 0000 70B5     		push	{r4, r5, r6, lr}
 318              	.LCFI3:
 319              		.cfi_def_cfa_offset 16
 320              		.cfi_offset 4, -16
 321              		.cfi_offset 5, -12
 322              		.cfi_offset 6, -8
 323              		.cfi_offset 14, -4
 324 0002 0400     		movs	r4, r0
 317:/home/maxx/STM32Cube/Repository/STM32Cube_FW_L0_V1.11.2/Drivers/STM32L0xx_HAL_Driver/Src/stm32l0xx_hal.c ****   uint32_t tickstart = HAL_GetTick();
 325              		.loc 1 317 3 is_stmt 1 view .LVU50
 326              		.loc 1 317 24 is_stmt 0 view .LVU51
 327 0004 FFF7FEFF 		bl	HAL_GetTick
 328              	.LVL17:
 329              		.loc 1 317 24 view .LVU52
 330 0008 0500     		movs	r5, r0
 331              	.LVL18:
 318:/home/maxx/STM32Cube/Repository/STM32Cube_FW_L0_V1.11.2/Drivers/STM32L0xx_HAL_Driver/Src/stm32l0xx_hal.c ****   uint32_t wait = Delay;
 332              		.loc 1 318 3 is_stmt 1 view .LVU53
 319:/home/maxx/STM32Cube/Repository/STM32Cube_FW_L0_V1.11.2/Drivers/STM32L0xx_HAL_Driver/Src/stm32l0xx_hal.c **** 
 320:/home/maxx/STM32Cube/Repository/STM32Cube_FW_L0_V1.11.2/Drivers/STM32L0xx_HAL_Driver/Src/stm32l0xx_hal.c ****   /* Add a period to guaranty minimum wait */
 321:/home/maxx/STM32Cube/Repository/STM32Cube_FW_L0_V1.11.2/Drivers/STM32L0xx_HAL_Driver/Src/stm32l0xx_hal.c ****   if (wait < HAL_MAX_DELAY)
 333              		.loc 1 321 3 view .LVU54
 334              		.loc 1 321 6 is_stmt 0 view .LVU55
 335 000a 631C     		adds	r3, r4, #1
 336 000c 00D0     		beq	.L26
 322:/home/maxx/STM32Cube/Repository/STM32Cube_FW_L0_V1.11.2/Drivers/STM32L0xx_HAL_Driver/Src/stm32l0xx_hal.c ****   {
 323:/home/maxx/STM32Cube/Repository/STM32Cube_FW_L0_V1.11.2/Drivers/STM32L0xx_HAL_Driver/Src/stm32l0xx_hal.c ****     wait++;
 337              		.loc 1 323 5 is_stmt 1 view .LVU56
 338              		.loc 1 323 9 is_stmt 0 view .LVU57
 339 000e 0134     		adds	r4, r4, #1
 340              	.LVL19:
 341              	.L26:
 324:/home/maxx/STM32Cube/Repository/STM32Cube_FW_L0_V1.11.2/Drivers/STM32L0xx_HAL_Driver/Src/stm32l0xx_hal.c ****   }
 325:/home/maxx/STM32Cube/Repository/STM32Cube_FW_L0_V1.11.2/Drivers/STM32L0xx_HAL_Driver/Src/stm32l0xx_hal.c **** 
 326:/home/maxx/STM32Cube/Repository/STM32Cube_FW_L0_V1.11.2/Drivers/STM32L0xx_HAL_Driver/Src/stm32l0xx_hal.c ****   while((HAL_GetTick() - tickstart) < wait)
 327:/home/maxx/STM32Cube/Repository/STM32Cube_FW_L0_V1.11.2/Drivers/STM32L0xx_HAL_Driver/Src/stm32l0xx_hal.c ****   {
 328:/home/maxx/STM32Cube/Repository/STM32Cube_FW_L0_V1.11.2/Drivers/STM32L0xx_HAL_Driver/Src/stm32l0xx_hal.c ****   }
 342              		.loc 1 328 3 is_stmt 1 discriminator 1 view .LVU58
 326:/home/maxx/STM32Cube/Repository/STM32Cube_FW_L0_V1.11.2/Drivers/STM32L0xx_HAL_Driver/Src/stm32l0xx_hal.c ****   {
 343              		.loc 1 326 8 discriminator 1 view .LVU59
 326:/home/maxx/STM32Cube/Repository/STM32Cube_FW_L0_V1.11.2/Drivers/STM32L0xx_HAL_Driver/Src/stm32l0xx_hal.c ****   {
 344              		.loc 1 326 10 is_stmt 0 discriminator 1 view .LVU60
ARM GAS  /tmp/ccOjs6Gb.s 			page 13


 345 0010 FFF7FEFF 		bl	HAL_GetTick
 346              	.LVL20:
 326:/home/maxx/STM32Cube/Repository/STM32Cube_FW_L0_V1.11.2/Drivers/STM32L0xx_HAL_Driver/Src/stm32l0xx_hal.c ****   {
 347              		.loc 1 326 24 discriminator 1 view .LVU61
 348 0014 401B     		subs	r0, r0, r5
 326:/home/maxx/STM32Cube/Repository/STM32Cube_FW_L0_V1.11.2/Drivers/STM32L0xx_HAL_Driver/Src/stm32l0xx_hal.c ****   {
 349              		.loc 1 326 8 discriminator 1 view .LVU62
 350 0016 A042     		cmp	r0, r4
 351 0018 FAD3     		bcc	.L26
 329:/home/maxx/STM32Cube/Repository/STM32Cube_FW_L0_V1.11.2/Drivers/STM32L0xx_HAL_Driver/Src/stm32l0xx_hal.c **** }
 352              		.loc 1 329 1 view .LVU63
 353              		@ sp needed
 354              	.LVL21:
 355              	.LVL22:
 356              		.loc 1 329 1 view .LVU64
 357 001a 70BD     		pop	{r4, r5, r6, pc}
 358              		.cfi_endproc
 359              	.LFE41:
 361              		.section	.text.HAL_SuspendTick,"ax",%progbits
 362              		.align	1
 363              		.weak	HAL_SuspendTick
 364              		.syntax unified
 365              		.code	16
 366              		.thumb_func
 367              		.fpu softvfp
 369              	HAL_SuspendTick:
 370              	.LFB42:
 330:/home/maxx/STM32Cube/Repository/STM32Cube_FW_L0_V1.11.2/Drivers/STM32L0xx_HAL_Driver/Src/stm32l0xx_hal.c **** 
 331:/home/maxx/STM32Cube/Repository/STM32Cube_FW_L0_V1.11.2/Drivers/STM32L0xx_HAL_Driver/Src/stm32l0xx_hal.c **** /**
 332:/home/maxx/STM32Cube/Repository/STM32Cube_FW_L0_V1.11.2/Drivers/STM32L0xx_HAL_Driver/Src/stm32l0xx_hal.c ****   * @brief Suspends the Tick increment.
 333:/home/maxx/STM32Cube/Repository/STM32Cube_FW_L0_V1.11.2/Drivers/STM32L0xx_HAL_Driver/Src/stm32l0xx_hal.c ****   * @note In the default implementation , SysTick timer is the source of time base. It is
 334:/home/maxx/STM32Cube/Repository/STM32Cube_FW_L0_V1.11.2/Drivers/STM32L0xx_HAL_Driver/Src/stm32l0xx_hal.c ****   *       used to generate interrupts at regular time intervals. Once HAL_SuspendTick()
 335:/home/maxx/STM32Cube/Repository/STM32Cube_FW_L0_V1.11.2/Drivers/STM32L0xx_HAL_Driver/Src/stm32l0xx_hal.c ****   *       is called, the SysTick interrupt will be disabled and so Tick increment
 336:/home/maxx/STM32Cube/Repository/STM32Cube_FW_L0_V1.11.2/Drivers/STM32L0xx_HAL_Driver/Src/stm32l0xx_hal.c ****   *       is suspended.
 337:/home/maxx/STM32Cube/Repository/STM32Cube_FW_L0_V1.11.2/Drivers/STM32L0xx_HAL_Driver/Src/stm32l0xx_hal.c ****   * @note This function is declared as __weak to be overwritten in case of other
 338:/home/maxx/STM32Cube/Repository/STM32Cube_FW_L0_V1.11.2/Drivers/STM32L0xx_HAL_Driver/Src/stm32l0xx_hal.c ****   *       implementations in user file.
 339:/home/maxx/STM32Cube/Repository/STM32Cube_FW_L0_V1.11.2/Drivers/STM32L0xx_HAL_Driver/Src/stm32l0xx_hal.c ****   * @retval None
 340:/home/maxx/STM32Cube/Repository/STM32Cube_FW_L0_V1.11.2/Drivers/STM32L0xx_HAL_Driver/Src/stm32l0xx_hal.c ****   */
 341:/home/maxx/STM32Cube/Repository/STM32Cube_FW_L0_V1.11.2/Drivers/STM32L0xx_HAL_Driver/Src/stm32l0xx_hal.c **** __weak void HAL_SuspendTick(void)
 342:/home/maxx/STM32Cube/Repository/STM32Cube_FW_L0_V1.11.2/Drivers/STM32L0xx_HAL_Driver/Src/stm32l0xx_hal.c **** {
 371              		.loc 1 342 1 is_stmt 1 view -0
 372              		.cfi_startproc
 373              		@ args = 0, pretend = 0, frame = 0
 374              		@ frame_needed = 0, uses_anonymous_args = 0
 375              		@ link register save eliminated.
 343:/home/maxx/STM32Cube/Repository/STM32Cube_FW_L0_V1.11.2/Drivers/STM32L0xx_HAL_Driver/Src/stm32l0xx_hal.c ****   /* Disable SysTick Interrupt */
 344:/home/maxx/STM32Cube/Repository/STM32Cube_FW_L0_V1.11.2/Drivers/STM32L0xx_HAL_Driver/Src/stm32l0xx_hal.c ****   SysTick->CTRL &= ~SysTick_CTRL_TICKINT_Msk;
 376              		.loc 1 344 3 view .LVU66
 377              		.loc 1 344 17 is_stmt 0 view .LVU67
 378 0000 024A     		ldr	r2, .L28
 379 0002 1368     		ldr	r3, [r2]
 380 0004 0221     		movs	r1, #2
 381 0006 8B43     		bics	r3, r1
 382 0008 1360     		str	r3, [r2]
 345:/home/maxx/STM32Cube/Repository/STM32Cube_FW_L0_V1.11.2/Drivers/STM32L0xx_HAL_Driver/Src/stm32l0xx_hal.c **** }
 383              		.loc 1 345 1 view .LVU68
 384              		@ sp needed
ARM GAS  /tmp/ccOjs6Gb.s 			page 14


 385 000a 7047     		bx	lr
 386              	.L29:
 387              		.align	2
 388              	.L28:
 389 000c 10E000E0 		.word	-536813552
 390              		.cfi_endproc
 391              	.LFE42:
 393              		.section	.text.HAL_ResumeTick,"ax",%progbits
 394              		.align	1
 395              		.weak	HAL_ResumeTick
 396              		.syntax unified
 397              		.code	16
 398              		.thumb_func
 399              		.fpu softvfp
 401              	HAL_ResumeTick:
 402              	.LFB43:
 346:/home/maxx/STM32Cube/Repository/STM32Cube_FW_L0_V1.11.2/Drivers/STM32L0xx_HAL_Driver/Src/stm32l0xx_hal.c **** 
 347:/home/maxx/STM32Cube/Repository/STM32Cube_FW_L0_V1.11.2/Drivers/STM32L0xx_HAL_Driver/Src/stm32l0xx_hal.c **** /**
 348:/home/maxx/STM32Cube/Repository/STM32Cube_FW_L0_V1.11.2/Drivers/STM32L0xx_HAL_Driver/Src/stm32l0xx_hal.c ****   * @brief Resumes the Tick increment.
 349:/home/maxx/STM32Cube/Repository/STM32Cube_FW_L0_V1.11.2/Drivers/STM32L0xx_HAL_Driver/Src/stm32l0xx_hal.c ****   * @note In the default implementation , SysTick timer is the source of time base. It is
 350:/home/maxx/STM32Cube/Repository/STM32Cube_FW_L0_V1.11.2/Drivers/STM32L0xx_HAL_Driver/Src/stm32l0xx_hal.c ****   *       used to generate interrupts at regular time intervals. Once HAL_ResumeTick()
 351:/home/maxx/STM32Cube/Repository/STM32Cube_FW_L0_V1.11.2/Drivers/STM32L0xx_HAL_Driver/Src/stm32l0xx_hal.c ****   *       is called, the SysTick interrupt will be enabled and so Tick increment
 352:/home/maxx/STM32Cube/Repository/STM32Cube_FW_L0_V1.11.2/Drivers/STM32L0xx_HAL_Driver/Src/stm32l0xx_hal.c ****   *       is resumed.
 353:/home/maxx/STM32Cube/Repository/STM32Cube_FW_L0_V1.11.2/Drivers/STM32L0xx_HAL_Driver/Src/stm32l0xx_hal.c ****   * @note This function is declared as __weak to be overwritten in case of other
 354:/home/maxx/STM32Cube/Repository/STM32Cube_FW_L0_V1.11.2/Drivers/STM32L0xx_HAL_Driver/Src/stm32l0xx_hal.c ****   *       implementations in user file.
 355:/home/maxx/STM32Cube/Repository/STM32Cube_FW_L0_V1.11.2/Drivers/STM32L0xx_HAL_Driver/Src/stm32l0xx_hal.c ****   * @retval None
 356:/home/maxx/STM32Cube/Repository/STM32Cube_FW_L0_V1.11.2/Drivers/STM32L0xx_HAL_Driver/Src/stm32l0xx_hal.c ****   */
 357:/home/maxx/STM32Cube/Repository/STM32Cube_FW_L0_V1.11.2/Drivers/STM32L0xx_HAL_Driver/Src/stm32l0xx_hal.c **** __weak void HAL_ResumeTick(void)
 358:/home/maxx/STM32Cube/Repository/STM32Cube_FW_L0_V1.11.2/Drivers/STM32L0xx_HAL_Driver/Src/stm32l0xx_hal.c **** {
 403              		.loc 1 358 1 is_stmt 1 view -0
 404              		.cfi_startproc
 405              		@ args = 0, pretend = 0, frame = 0
 406              		@ frame_needed = 0, uses_anonymous_args = 0
 407              		@ link register save eliminated.
 359:/home/maxx/STM32Cube/Repository/STM32Cube_FW_L0_V1.11.2/Drivers/STM32L0xx_HAL_Driver/Src/stm32l0xx_hal.c ****   /* Enable SysTick Interrupt */
 360:/home/maxx/STM32Cube/Repository/STM32Cube_FW_L0_V1.11.2/Drivers/STM32L0xx_HAL_Driver/Src/stm32l0xx_hal.c ****   SysTick->CTRL  |= SysTick_CTRL_TICKINT_Msk;
 408              		.loc 1 360 3 view .LVU70
 409              		.loc 1 360 18 is_stmt 0 view .LVU71
 410 0000 024A     		ldr	r2, .L31
 411 0002 1368     		ldr	r3, [r2]
 412 0004 0221     		movs	r1, #2
 413 0006 0B43     		orrs	r3, r1
 414 0008 1360     		str	r3, [r2]
 361:/home/maxx/STM32Cube/Repository/STM32Cube_FW_L0_V1.11.2/Drivers/STM32L0xx_HAL_Driver/Src/stm32l0xx_hal.c **** }
 415              		.loc 1 361 1 view .LVU72
 416              		@ sp needed
 417 000a 7047     		bx	lr
 418              	.L32:
 419              		.align	2
 420              	.L31:
 421 000c 10E000E0 		.word	-536813552
 422              		.cfi_endproc
 423              	.LFE43:
 425              		.section	.text.HAL_GetHalVersion,"ax",%progbits
 426              		.align	1
 427              		.global	HAL_GetHalVersion
 428              		.syntax unified
ARM GAS  /tmp/ccOjs6Gb.s 			page 15


 429              		.code	16
 430              		.thumb_func
 431              		.fpu softvfp
 433              	HAL_GetHalVersion:
 434              	.LFB44:
 362:/home/maxx/STM32Cube/Repository/STM32Cube_FW_L0_V1.11.2/Drivers/STM32L0xx_HAL_Driver/Src/stm32l0xx_hal.c **** 
 363:/home/maxx/STM32Cube/Repository/STM32Cube_FW_L0_V1.11.2/Drivers/STM32L0xx_HAL_Driver/Src/stm32l0xx_hal.c **** /**
 364:/home/maxx/STM32Cube/Repository/STM32Cube_FW_L0_V1.11.2/Drivers/STM32L0xx_HAL_Driver/Src/stm32l0xx_hal.c ****   * @brief Returns the HAL revision
 365:/home/maxx/STM32Cube/Repository/STM32Cube_FW_L0_V1.11.2/Drivers/STM32L0xx_HAL_Driver/Src/stm32l0xx_hal.c ****   * @retval version: 0xXYZR (8bits for each decimal, R for RC)
 366:/home/maxx/STM32Cube/Repository/STM32Cube_FW_L0_V1.11.2/Drivers/STM32L0xx_HAL_Driver/Src/stm32l0xx_hal.c ****   */
 367:/home/maxx/STM32Cube/Repository/STM32Cube_FW_L0_V1.11.2/Drivers/STM32L0xx_HAL_Driver/Src/stm32l0xx_hal.c **** uint32_t HAL_GetHalVersion(void)
 368:/home/maxx/STM32Cube/Repository/STM32Cube_FW_L0_V1.11.2/Drivers/STM32L0xx_HAL_Driver/Src/stm32l0xx_hal.c **** {
 435              		.loc 1 368 1 is_stmt 1 view -0
 436              		.cfi_startproc
 437              		@ args = 0, pretend = 0, frame = 0
 438              		@ frame_needed = 0, uses_anonymous_args = 0
 439              		@ link register save eliminated.
 369:/home/maxx/STM32Cube/Repository/STM32Cube_FW_L0_V1.11.2/Drivers/STM32L0xx_HAL_Driver/Src/stm32l0xx_hal.c ****   return __STM32L0xx_HAL_VERSION;
 440              		.loc 1 369 3 view .LVU74
 370:/home/maxx/STM32Cube/Repository/STM32Cube_FW_L0_V1.11.2/Drivers/STM32L0xx_HAL_Driver/Src/stm32l0xx_hal.c **** }
 441              		.loc 1 370 1 is_stmt 0 view .LVU75
 442 0000 0048     		ldr	r0, .L34
 443              		@ sp needed
 444 0002 7047     		bx	lr
 445              	.L35:
 446              		.align	2
 447              	.L34:
 448 0004 00020A01 		.word	17433088
 449              		.cfi_endproc
 450              	.LFE44:
 452              		.section	.text.HAL_GetREVID,"ax",%progbits
 453              		.align	1
 454              		.global	HAL_GetREVID
 455              		.syntax unified
 456              		.code	16
 457              		.thumb_func
 458              		.fpu softvfp
 460              	HAL_GetREVID:
 461              	.LFB45:
 371:/home/maxx/STM32Cube/Repository/STM32Cube_FW_L0_V1.11.2/Drivers/STM32L0xx_HAL_Driver/Src/stm32l0xx_hal.c **** 
 372:/home/maxx/STM32Cube/Repository/STM32Cube_FW_L0_V1.11.2/Drivers/STM32L0xx_HAL_Driver/Src/stm32l0xx_hal.c **** /**
 373:/home/maxx/STM32Cube/Repository/STM32Cube_FW_L0_V1.11.2/Drivers/STM32L0xx_HAL_Driver/Src/stm32l0xx_hal.c ****   * @brief Returns the device revision identifier.
 374:/home/maxx/STM32Cube/Repository/STM32Cube_FW_L0_V1.11.2/Drivers/STM32L0xx_HAL_Driver/Src/stm32l0xx_hal.c ****   * @retval Device revision identifier
 375:/home/maxx/STM32Cube/Repository/STM32Cube_FW_L0_V1.11.2/Drivers/STM32L0xx_HAL_Driver/Src/stm32l0xx_hal.c ****   */
 376:/home/maxx/STM32Cube/Repository/STM32Cube_FW_L0_V1.11.2/Drivers/STM32L0xx_HAL_Driver/Src/stm32l0xx_hal.c **** uint32_t HAL_GetREVID(void)
 377:/home/maxx/STM32Cube/Repository/STM32Cube_FW_L0_V1.11.2/Drivers/STM32L0xx_HAL_Driver/Src/stm32l0xx_hal.c **** {
 462              		.loc 1 377 1 is_stmt 1 view -0
 463              		.cfi_startproc
 464              		@ args = 0, pretend = 0, frame = 0
 465              		@ frame_needed = 0, uses_anonymous_args = 0
 466              		@ link register save eliminated.
 378:/home/maxx/STM32Cube/Repository/STM32Cube_FW_L0_V1.11.2/Drivers/STM32L0xx_HAL_Driver/Src/stm32l0xx_hal.c ****   return((DBGMCU->IDCODE) >> 16U);
 467              		.loc 1 378 3 view .LVU77
 468              		.loc 1 378 17 is_stmt 0 view .LVU78
 469 0000 014B     		ldr	r3, .L37
 470 0002 1868     		ldr	r0, [r3]
 471              		.loc 1 378 27 view .LVU79
ARM GAS  /tmp/ccOjs6Gb.s 			page 16


 472 0004 000C     		lsrs	r0, r0, #16
 379:/home/maxx/STM32Cube/Repository/STM32Cube_FW_L0_V1.11.2/Drivers/STM32L0xx_HAL_Driver/Src/stm32l0xx_hal.c **** }
 473              		.loc 1 379 1 view .LVU80
 474              		@ sp needed
 475 0006 7047     		bx	lr
 476              	.L38:
 477              		.align	2
 478              	.L37:
 479 0008 00580140 		.word	1073829888
 480              		.cfi_endproc
 481              	.LFE45:
 483              		.section	.text.HAL_GetDEVID,"ax",%progbits
 484              		.align	1
 485              		.global	HAL_GetDEVID
 486              		.syntax unified
 487              		.code	16
 488              		.thumb_func
 489              		.fpu softvfp
 491              	HAL_GetDEVID:
 492              	.LFB46:
 380:/home/maxx/STM32Cube/Repository/STM32Cube_FW_L0_V1.11.2/Drivers/STM32L0xx_HAL_Driver/Src/stm32l0xx_hal.c **** 
 381:/home/maxx/STM32Cube/Repository/STM32Cube_FW_L0_V1.11.2/Drivers/STM32L0xx_HAL_Driver/Src/stm32l0xx_hal.c **** /**
 382:/home/maxx/STM32Cube/Repository/STM32Cube_FW_L0_V1.11.2/Drivers/STM32L0xx_HAL_Driver/Src/stm32l0xx_hal.c ****   * @brief  Returns the device identifier.
 383:/home/maxx/STM32Cube/Repository/STM32Cube_FW_L0_V1.11.2/Drivers/STM32L0xx_HAL_Driver/Src/stm32l0xx_hal.c ****   * @retval Device identifier
 384:/home/maxx/STM32Cube/Repository/STM32Cube_FW_L0_V1.11.2/Drivers/STM32L0xx_HAL_Driver/Src/stm32l0xx_hal.c ****   */
 385:/home/maxx/STM32Cube/Repository/STM32Cube_FW_L0_V1.11.2/Drivers/STM32L0xx_HAL_Driver/Src/stm32l0xx_hal.c **** uint32_t HAL_GetDEVID(void)
 386:/home/maxx/STM32Cube/Repository/STM32Cube_FW_L0_V1.11.2/Drivers/STM32L0xx_HAL_Driver/Src/stm32l0xx_hal.c **** {
 493              		.loc 1 386 1 is_stmt 1 view -0
 494              		.cfi_startproc
 495              		@ args = 0, pretend = 0, frame = 0
 496              		@ frame_needed = 0, uses_anonymous_args = 0
 497              		@ link register save eliminated.
 387:/home/maxx/STM32Cube/Repository/STM32Cube_FW_L0_V1.11.2/Drivers/STM32L0xx_HAL_Driver/Src/stm32l0xx_hal.c ****    return((DBGMCU->IDCODE) & IDCODE_DEVID_MASK);
 498              		.loc 1 387 4 view .LVU82
 499              		.loc 1 387 18 is_stmt 0 view .LVU83
 500 0000 024B     		ldr	r3, .L40
 501 0002 1868     		ldr	r0, [r3]
 502              		.loc 1 387 28 view .LVU84
 503 0004 0005     		lsls	r0, r0, #20
 504 0006 000D     		lsrs	r0, r0, #20
 388:/home/maxx/STM32Cube/Repository/STM32Cube_FW_L0_V1.11.2/Drivers/STM32L0xx_HAL_Driver/Src/stm32l0xx_hal.c **** }
 505              		.loc 1 388 1 view .LVU85
 506              		@ sp needed
 507 0008 7047     		bx	lr
 508              	.L41:
 509 000a C046     		.align	2
 510              	.L40:
 511 000c 00580140 		.word	1073829888
 512              		.cfi_endproc
 513              	.LFE46:
 515              		.section	.text.HAL_GetUIDw0,"ax",%progbits
 516              		.align	1
 517              		.global	HAL_GetUIDw0
 518              		.syntax unified
 519              		.code	16
 520              		.thumb_func
 521              		.fpu softvfp
ARM GAS  /tmp/ccOjs6Gb.s 			page 17


 523              	HAL_GetUIDw0:
 524              	.LFB47:
 389:/home/maxx/STM32Cube/Repository/STM32Cube_FW_L0_V1.11.2/Drivers/STM32L0xx_HAL_Driver/Src/stm32l0xx_hal.c **** 
 390:/home/maxx/STM32Cube/Repository/STM32Cube_FW_L0_V1.11.2/Drivers/STM32L0xx_HAL_Driver/Src/stm32l0xx_hal.c **** /**
 391:/home/maxx/STM32Cube/Repository/STM32Cube_FW_L0_V1.11.2/Drivers/STM32L0xx_HAL_Driver/Src/stm32l0xx_hal.c ****   * @brief  Returns the first word of the unique device identifier (UID based on 96 bits)
 392:/home/maxx/STM32Cube/Repository/STM32Cube_FW_L0_V1.11.2/Drivers/STM32L0xx_HAL_Driver/Src/stm32l0xx_hal.c ****   * @retval Device identifier
 393:/home/maxx/STM32Cube/Repository/STM32Cube_FW_L0_V1.11.2/Drivers/STM32L0xx_HAL_Driver/Src/stm32l0xx_hal.c ****   */
 394:/home/maxx/STM32Cube/Repository/STM32Cube_FW_L0_V1.11.2/Drivers/STM32L0xx_HAL_Driver/Src/stm32l0xx_hal.c **** uint32_t HAL_GetUIDw0(void)
 395:/home/maxx/STM32Cube/Repository/STM32Cube_FW_L0_V1.11.2/Drivers/STM32L0xx_HAL_Driver/Src/stm32l0xx_hal.c **** {
 525              		.loc 1 395 1 is_stmt 1 view -0
 526              		.cfi_startproc
 527              		@ args = 0, pretend = 0, frame = 0
 528              		@ frame_needed = 0, uses_anonymous_args = 0
 529              		@ link register save eliminated.
 396:/home/maxx/STM32Cube/Repository/STM32Cube_FW_L0_V1.11.2/Drivers/STM32L0xx_HAL_Driver/Src/stm32l0xx_hal.c ****   return(READ_REG(*((uint32_t *)UID_BASE)));
 530              		.loc 1 396 3 view .LVU87
 531              		.loc 1 396 10 is_stmt 0 view .LVU88
 532 0000 014B     		ldr	r3, .L43
 533 0002 1868     		ldr	r0, [r3]
 397:/home/maxx/STM32Cube/Repository/STM32Cube_FW_L0_V1.11.2/Drivers/STM32L0xx_HAL_Driver/Src/stm32l0xx_hal.c **** }
 534              		.loc 1 397 1 view .LVU89
 535              		@ sp needed
 536 0004 7047     		bx	lr
 537              	.L44:
 538 0006 C046     		.align	2
 539              	.L43:
 540 0008 5000F81F 		.word	536346704
 541              		.cfi_endproc
 542              	.LFE47:
 544              		.section	.text.HAL_GetUIDw1,"ax",%progbits
 545              		.align	1
 546              		.global	HAL_GetUIDw1
 547              		.syntax unified
 548              		.code	16
 549              		.thumb_func
 550              		.fpu softvfp
 552              	HAL_GetUIDw1:
 553              	.LFB48:
 398:/home/maxx/STM32Cube/Repository/STM32Cube_FW_L0_V1.11.2/Drivers/STM32L0xx_HAL_Driver/Src/stm32l0xx_hal.c **** 
 399:/home/maxx/STM32Cube/Repository/STM32Cube_FW_L0_V1.11.2/Drivers/STM32L0xx_HAL_Driver/Src/stm32l0xx_hal.c **** /**
 400:/home/maxx/STM32Cube/Repository/STM32Cube_FW_L0_V1.11.2/Drivers/STM32L0xx_HAL_Driver/Src/stm32l0xx_hal.c ****   * @brief  Returns the second word of the unique device identifier (UID based on 96 bits)
 401:/home/maxx/STM32Cube/Repository/STM32Cube_FW_L0_V1.11.2/Drivers/STM32L0xx_HAL_Driver/Src/stm32l0xx_hal.c ****   * @retval Device identifier
 402:/home/maxx/STM32Cube/Repository/STM32Cube_FW_L0_V1.11.2/Drivers/STM32L0xx_HAL_Driver/Src/stm32l0xx_hal.c ****   */
 403:/home/maxx/STM32Cube/Repository/STM32Cube_FW_L0_V1.11.2/Drivers/STM32L0xx_HAL_Driver/Src/stm32l0xx_hal.c **** uint32_t HAL_GetUIDw1(void)
 404:/home/maxx/STM32Cube/Repository/STM32Cube_FW_L0_V1.11.2/Drivers/STM32L0xx_HAL_Driver/Src/stm32l0xx_hal.c **** {
 554              		.loc 1 404 1 is_stmt 1 view -0
 555              		.cfi_startproc
 556              		@ args = 0, pretend = 0, frame = 0
 557              		@ frame_needed = 0, uses_anonymous_args = 0
 558              		@ link register save eliminated.
 405:/home/maxx/STM32Cube/Repository/STM32Cube_FW_L0_V1.11.2/Drivers/STM32L0xx_HAL_Driver/Src/stm32l0xx_hal.c ****   return(READ_REG(*((uint32_t *)(UID_BASE + 0x04U))));
 559              		.loc 1 405 3 view .LVU91
 560              		.loc 1 405 10 is_stmt 0 view .LVU92
 561 0000 014B     		ldr	r3, .L46
 562 0002 1868     		ldr	r0, [r3]
 406:/home/maxx/STM32Cube/Repository/STM32Cube_FW_L0_V1.11.2/Drivers/STM32L0xx_HAL_Driver/Src/stm32l0xx_hal.c **** }
 563              		.loc 1 406 1 view .LVU93
ARM GAS  /tmp/ccOjs6Gb.s 			page 18


 564              		@ sp needed
 565 0004 7047     		bx	lr
 566              	.L47:
 567 0006 C046     		.align	2
 568              	.L46:
 569 0008 5400F81F 		.word	536346708
 570              		.cfi_endproc
 571              	.LFE48:
 573              		.section	.text.HAL_GetUIDw2,"ax",%progbits
 574              		.align	1
 575              		.global	HAL_GetUIDw2
 576              		.syntax unified
 577              		.code	16
 578              		.thumb_func
 579              		.fpu softvfp
 581              	HAL_GetUIDw2:
 582              	.LFB49:
 407:/home/maxx/STM32Cube/Repository/STM32Cube_FW_L0_V1.11.2/Drivers/STM32L0xx_HAL_Driver/Src/stm32l0xx_hal.c **** 
 408:/home/maxx/STM32Cube/Repository/STM32Cube_FW_L0_V1.11.2/Drivers/STM32L0xx_HAL_Driver/Src/stm32l0xx_hal.c **** /**
 409:/home/maxx/STM32Cube/Repository/STM32Cube_FW_L0_V1.11.2/Drivers/STM32L0xx_HAL_Driver/Src/stm32l0xx_hal.c ****   * @brief  Returns the third word of the unique device identifier (UID based on 96 bits)
 410:/home/maxx/STM32Cube/Repository/STM32Cube_FW_L0_V1.11.2/Drivers/STM32L0xx_HAL_Driver/Src/stm32l0xx_hal.c ****   * @retval Device identifier
 411:/home/maxx/STM32Cube/Repository/STM32Cube_FW_L0_V1.11.2/Drivers/STM32L0xx_HAL_Driver/Src/stm32l0xx_hal.c ****   */
 412:/home/maxx/STM32Cube/Repository/STM32Cube_FW_L0_V1.11.2/Drivers/STM32L0xx_HAL_Driver/Src/stm32l0xx_hal.c **** uint32_t HAL_GetUIDw2(void)
 413:/home/maxx/STM32Cube/Repository/STM32Cube_FW_L0_V1.11.2/Drivers/STM32L0xx_HAL_Driver/Src/stm32l0xx_hal.c **** {
 583              		.loc 1 413 1 is_stmt 1 view -0
 584              		.cfi_startproc
 585              		@ args = 0, pretend = 0, frame = 0
 586              		@ frame_needed = 0, uses_anonymous_args = 0
 587              		@ link register save eliminated.
 414:/home/maxx/STM32Cube/Repository/STM32Cube_FW_L0_V1.11.2/Drivers/STM32L0xx_HAL_Driver/Src/stm32l0xx_hal.c ****   return(READ_REG(*((uint32_t *)(UID_BASE + 0x14U))));
 588              		.loc 1 414 3 view .LVU95
 589              		.loc 1 414 10 is_stmt 0 view .LVU96
 590 0000 014B     		ldr	r3, .L49
 591 0002 1868     		ldr	r0, [r3]
 415:/home/maxx/STM32Cube/Repository/STM32Cube_FW_L0_V1.11.2/Drivers/STM32L0xx_HAL_Driver/Src/stm32l0xx_hal.c **** }
 592              		.loc 1 415 1 view .LVU97
 593              		@ sp needed
 594 0004 7047     		bx	lr
 595              	.L50:
 596 0006 C046     		.align	2
 597              	.L49:
 598 0008 6400F81F 		.word	536346724
 599              		.cfi_endproc
 600              	.LFE49:
 602              		.section	.text.HAL_DBGMCU_EnableDBGSleepMode,"ax",%progbits
 603              		.align	1
 604              		.global	HAL_DBGMCU_EnableDBGSleepMode
 605              		.syntax unified
 606              		.code	16
 607              		.thumb_func
 608              		.fpu softvfp
 610              	HAL_DBGMCU_EnableDBGSleepMode:
 611              	.LFB50:
 416:/home/maxx/STM32Cube/Repository/STM32Cube_FW_L0_V1.11.2/Drivers/STM32L0xx_HAL_Driver/Src/stm32l0xx_hal.c **** 
 417:/home/maxx/STM32Cube/Repository/STM32Cube_FW_L0_V1.11.2/Drivers/STM32L0xx_HAL_Driver/Src/stm32l0xx_hal.c **** /**
 418:/home/maxx/STM32Cube/Repository/STM32Cube_FW_L0_V1.11.2/Drivers/STM32L0xx_HAL_Driver/Src/stm32l0xx_hal.c ****   * @}
 419:/home/maxx/STM32Cube/Repository/STM32Cube_FW_L0_V1.11.2/Drivers/STM32L0xx_HAL_Driver/Src/stm32l0xx_hal.c ****   */
ARM GAS  /tmp/ccOjs6Gb.s 			page 19


 420:/home/maxx/STM32Cube/Repository/STM32Cube_FW_L0_V1.11.2/Drivers/STM32L0xx_HAL_Driver/Src/stm32l0xx_hal.c **** 
 421:/home/maxx/STM32Cube/Repository/STM32Cube_FW_L0_V1.11.2/Drivers/STM32L0xx_HAL_Driver/Src/stm32l0xx_hal.c **** /** @addtogroup HAL_Exported_Functions_Group2
 422:/home/maxx/STM32Cube/Repository/STM32Cube_FW_L0_V1.11.2/Drivers/STM32L0xx_HAL_Driver/Src/stm32l0xx_hal.c ****  *  @brief    HAL Debug functions
 423:/home/maxx/STM32Cube/Repository/STM32Cube_FW_L0_V1.11.2/Drivers/STM32L0xx_HAL_Driver/Src/stm32l0xx_hal.c ****  *
 424:/home/maxx/STM32Cube/Repository/STM32Cube_FW_L0_V1.11.2/Drivers/STM32L0xx_HAL_Driver/Src/stm32l0xx_hal.c **** @verbatim
 425:/home/maxx/STM32Cube/Repository/STM32Cube_FW_L0_V1.11.2/Drivers/STM32L0xx_HAL_Driver/Src/stm32l0xx_hal.c ****  ===============================================================================
 426:/home/maxx/STM32Cube/Repository/STM32Cube_FW_L0_V1.11.2/Drivers/STM32L0xx_HAL_Driver/Src/stm32l0xx_hal.c ****                       ##### HAL Debug functions #####
 427:/home/maxx/STM32Cube/Repository/STM32Cube_FW_L0_V1.11.2/Drivers/STM32L0xx_HAL_Driver/Src/stm32l0xx_hal.c ****  ===============================================================================
 428:/home/maxx/STM32Cube/Repository/STM32Cube_FW_L0_V1.11.2/Drivers/STM32L0xx_HAL_Driver/Src/stm32l0xx_hal.c ****     [..]  This section provides functions allowing to:
 429:/home/maxx/STM32Cube/Repository/STM32Cube_FW_L0_V1.11.2/Drivers/STM32L0xx_HAL_Driver/Src/stm32l0xx_hal.c ****       (+) Enable/Disable Debug module during SLEEP mode
 430:/home/maxx/STM32Cube/Repository/STM32Cube_FW_L0_V1.11.2/Drivers/STM32L0xx_HAL_Driver/Src/stm32l0xx_hal.c ****       (+) Enable/Disable Debug module during STOP mode
 431:/home/maxx/STM32Cube/Repository/STM32Cube_FW_L0_V1.11.2/Drivers/STM32L0xx_HAL_Driver/Src/stm32l0xx_hal.c ****       (+) Enable/Disable Debug module during STANDBY mode
 432:/home/maxx/STM32Cube/Repository/STM32Cube_FW_L0_V1.11.2/Drivers/STM32L0xx_HAL_Driver/Src/stm32l0xx_hal.c **** 
 433:/home/maxx/STM32Cube/Repository/STM32Cube_FW_L0_V1.11.2/Drivers/STM32L0xx_HAL_Driver/Src/stm32l0xx_hal.c **** @endverbatim
 434:/home/maxx/STM32Cube/Repository/STM32Cube_FW_L0_V1.11.2/Drivers/STM32L0xx_HAL_Driver/Src/stm32l0xx_hal.c ****   * @{
 435:/home/maxx/STM32Cube/Repository/STM32Cube_FW_L0_V1.11.2/Drivers/STM32L0xx_HAL_Driver/Src/stm32l0xx_hal.c ****   */
 436:/home/maxx/STM32Cube/Repository/STM32Cube_FW_L0_V1.11.2/Drivers/STM32L0xx_HAL_Driver/Src/stm32l0xx_hal.c **** 
 437:/home/maxx/STM32Cube/Repository/STM32Cube_FW_L0_V1.11.2/Drivers/STM32L0xx_HAL_Driver/Src/stm32l0xx_hal.c **** /**
 438:/home/maxx/STM32Cube/Repository/STM32Cube_FW_L0_V1.11.2/Drivers/STM32L0xx_HAL_Driver/Src/stm32l0xx_hal.c ****   * @brief  Enables the Debug Module during SLEEP mode
 439:/home/maxx/STM32Cube/Repository/STM32Cube_FW_L0_V1.11.2/Drivers/STM32L0xx_HAL_Driver/Src/stm32l0xx_hal.c ****   * @retval None
 440:/home/maxx/STM32Cube/Repository/STM32Cube_FW_L0_V1.11.2/Drivers/STM32L0xx_HAL_Driver/Src/stm32l0xx_hal.c ****   */
 441:/home/maxx/STM32Cube/Repository/STM32Cube_FW_L0_V1.11.2/Drivers/STM32L0xx_HAL_Driver/Src/stm32l0xx_hal.c **** void HAL_DBGMCU_EnableDBGSleepMode(void)
 442:/home/maxx/STM32Cube/Repository/STM32Cube_FW_L0_V1.11.2/Drivers/STM32L0xx_HAL_Driver/Src/stm32l0xx_hal.c **** {
 612              		.loc 1 442 1 is_stmt 1 view -0
 613              		.cfi_startproc
 614              		@ args = 0, pretend = 0, frame = 0
 615              		@ frame_needed = 0, uses_anonymous_args = 0
 616              		@ link register save eliminated.
 443:/home/maxx/STM32Cube/Repository/STM32Cube_FW_L0_V1.11.2/Drivers/STM32L0xx_HAL_Driver/Src/stm32l0xx_hal.c ****   SET_BIT(DBGMCU->CR, DBGMCU_CR_DBG_SLEEP);
 617              		.loc 1 443 3 view .LVU99
 618 0000 024A     		ldr	r2, .L52
 619 0002 5368     		ldr	r3, [r2, #4]
 620 0004 0121     		movs	r1, #1
 621 0006 0B43     		orrs	r3, r1
 622 0008 5360     		str	r3, [r2, #4]
 444:/home/maxx/STM32Cube/Repository/STM32Cube_FW_L0_V1.11.2/Drivers/STM32L0xx_HAL_Driver/Src/stm32l0xx_hal.c **** }
 623              		.loc 1 444 1 is_stmt 0 view .LVU100
 624              		@ sp needed
 625 000a 7047     		bx	lr
 626              	.L53:
 627              		.align	2
 628              	.L52:
 629 000c 00580140 		.word	1073829888
 630              		.cfi_endproc
 631              	.LFE50:
 633              		.section	.text.HAL_DBGMCU_DisableDBGSleepMode,"ax",%progbits
 634              		.align	1
 635              		.global	HAL_DBGMCU_DisableDBGSleepMode
 636              		.syntax unified
 637              		.code	16
 638              		.thumb_func
 639              		.fpu softvfp
 641              	HAL_DBGMCU_DisableDBGSleepMode:
 642              	.LFB51:
 445:/home/maxx/STM32Cube/Repository/STM32Cube_FW_L0_V1.11.2/Drivers/STM32L0xx_HAL_Driver/Src/stm32l0xx_hal.c **** 
 446:/home/maxx/STM32Cube/Repository/STM32Cube_FW_L0_V1.11.2/Drivers/STM32L0xx_HAL_Driver/Src/stm32l0xx_hal.c **** /**
 447:/home/maxx/STM32Cube/Repository/STM32Cube_FW_L0_V1.11.2/Drivers/STM32L0xx_HAL_Driver/Src/stm32l0xx_hal.c ****   * @brief  Disables the Debug Module during SLEEP mode
ARM GAS  /tmp/ccOjs6Gb.s 			page 20


 448:/home/maxx/STM32Cube/Repository/STM32Cube_FW_L0_V1.11.2/Drivers/STM32L0xx_HAL_Driver/Src/stm32l0xx_hal.c ****   * @retval None
 449:/home/maxx/STM32Cube/Repository/STM32Cube_FW_L0_V1.11.2/Drivers/STM32L0xx_HAL_Driver/Src/stm32l0xx_hal.c ****   */
 450:/home/maxx/STM32Cube/Repository/STM32Cube_FW_L0_V1.11.2/Drivers/STM32L0xx_HAL_Driver/Src/stm32l0xx_hal.c **** void HAL_DBGMCU_DisableDBGSleepMode(void)
 451:/home/maxx/STM32Cube/Repository/STM32Cube_FW_L0_V1.11.2/Drivers/STM32L0xx_HAL_Driver/Src/stm32l0xx_hal.c **** {
 643              		.loc 1 451 1 is_stmt 1 view -0
 644              		.cfi_startproc
 645              		@ args = 0, pretend = 0, frame = 0
 646              		@ frame_needed = 0, uses_anonymous_args = 0
 647              		@ link register save eliminated.
 452:/home/maxx/STM32Cube/Repository/STM32Cube_FW_L0_V1.11.2/Drivers/STM32L0xx_HAL_Driver/Src/stm32l0xx_hal.c ****   CLEAR_BIT(DBGMCU->CR, DBGMCU_CR_DBG_SLEEP);
 648              		.loc 1 452 3 view .LVU102
 649 0000 024A     		ldr	r2, .L55
 650 0002 5368     		ldr	r3, [r2, #4]
 651 0004 0121     		movs	r1, #1
 652 0006 8B43     		bics	r3, r1
 653 0008 5360     		str	r3, [r2, #4]
 453:/home/maxx/STM32Cube/Repository/STM32Cube_FW_L0_V1.11.2/Drivers/STM32L0xx_HAL_Driver/Src/stm32l0xx_hal.c **** }
 654              		.loc 1 453 1 is_stmt 0 view .LVU103
 655              		@ sp needed
 656 000a 7047     		bx	lr
 657              	.L56:
 658              		.align	2
 659              	.L55:
 660 000c 00580140 		.word	1073829888
 661              		.cfi_endproc
 662              	.LFE51:
 664              		.section	.text.HAL_DBGMCU_EnableDBGStopMode,"ax",%progbits
 665              		.align	1
 666              		.global	HAL_DBGMCU_EnableDBGStopMode
 667              		.syntax unified
 668              		.code	16
 669              		.thumb_func
 670              		.fpu softvfp
 672              	HAL_DBGMCU_EnableDBGStopMode:
 673              	.LFB52:
 454:/home/maxx/STM32Cube/Repository/STM32Cube_FW_L0_V1.11.2/Drivers/STM32L0xx_HAL_Driver/Src/stm32l0xx_hal.c **** 
 455:/home/maxx/STM32Cube/Repository/STM32Cube_FW_L0_V1.11.2/Drivers/STM32L0xx_HAL_Driver/Src/stm32l0xx_hal.c **** /**
 456:/home/maxx/STM32Cube/Repository/STM32Cube_FW_L0_V1.11.2/Drivers/STM32L0xx_HAL_Driver/Src/stm32l0xx_hal.c ****   * @brief  Enables the Debug Module during STOP mode
 457:/home/maxx/STM32Cube/Repository/STM32Cube_FW_L0_V1.11.2/Drivers/STM32L0xx_HAL_Driver/Src/stm32l0xx_hal.c ****   * @retval None
 458:/home/maxx/STM32Cube/Repository/STM32Cube_FW_L0_V1.11.2/Drivers/STM32L0xx_HAL_Driver/Src/stm32l0xx_hal.c ****   */
 459:/home/maxx/STM32Cube/Repository/STM32Cube_FW_L0_V1.11.2/Drivers/STM32L0xx_HAL_Driver/Src/stm32l0xx_hal.c **** void HAL_DBGMCU_EnableDBGStopMode(void)
 460:/home/maxx/STM32Cube/Repository/STM32Cube_FW_L0_V1.11.2/Drivers/STM32L0xx_HAL_Driver/Src/stm32l0xx_hal.c **** {
 674              		.loc 1 460 1 is_stmt 1 view -0
 675              		.cfi_startproc
 676              		@ args = 0, pretend = 0, frame = 0
 677              		@ frame_needed = 0, uses_anonymous_args = 0
 678              		@ link register save eliminated.
 461:/home/maxx/STM32Cube/Repository/STM32Cube_FW_L0_V1.11.2/Drivers/STM32L0xx_HAL_Driver/Src/stm32l0xx_hal.c ****   SET_BIT(DBGMCU->CR, DBGMCU_CR_DBG_STOP);
 679              		.loc 1 461 3 view .LVU105
 680 0000 024A     		ldr	r2, .L58
 681 0002 5368     		ldr	r3, [r2, #4]
 682 0004 0221     		movs	r1, #2
 683 0006 0B43     		orrs	r3, r1
 684 0008 5360     		str	r3, [r2, #4]
 462:/home/maxx/STM32Cube/Repository/STM32Cube_FW_L0_V1.11.2/Drivers/STM32L0xx_HAL_Driver/Src/stm32l0xx_hal.c **** }
 685              		.loc 1 462 1 is_stmt 0 view .LVU106
 686              		@ sp needed
ARM GAS  /tmp/ccOjs6Gb.s 			page 21


 687 000a 7047     		bx	lr
 688              	.L59:
 689              		.align	2
 690              	.L58:
 691 000c 00580140 		.word	1073829888
 692              		.cfi_endproc
 693              	.LFE52:
 695              		.section	.text.HAL_DBGMCU_DisableDBGStopMode,"ax",%progbits
 696              		.align	1
 697              		.global	HAL_DBGMCU_DisableDBGStopMode
 698              		.syntax unified
 699              		.code	16
 700              		.thumb_func
 701              		.fpu softvfp
 703              	HAL_DBGMCU_DisableDBGStopMode:
 704              	.LFB53:
 463:/home/maxx/STM32Cube/Repository/STM32Cube_FW_L0_V1.11.2/Drivers/STM32L0xx_HAL_Driver/Src/stm32l0xx_hal.c **** 
 464:/home/maxx/STM32Cube/Repository/STM32Cube_FW_L0_V1.11.2/Drivers/STM32L0xx_HAL_Driver/Src/stm32l0xx_hal.c **** /**
 465:/home/maxx/STM32Cube/Repository/STM32Cube_FW_L0_V1.11.2/Drivers/STM32L0xx_HAL_Driver/Src/stm32l0xx_hal.c ****   * @brief  Disables the Debug Module during STOP mode
 466:/home/maxx/STM32Cube/Repository/STM32Cube_FW_L0_V1.11.2/Drivers/STM32L0xx_HAL_Driver/Src/stm32l0xx_hal.c ****   * @retval None
 467:/home/maxx/STM32Cube/Repository/STM32Cube_FW_L0_V1.11.2/Drivers/STM32L0xx_HAL_Driver/Src/stm32l0xx_hal.c ****   */
 468:/home/maxx/STM32Cube/Repository/STM32Cube_FW_L0_V1.11.2/Drivers/STM32L0xx_HAL_Driver/Src/stm32l0xx_hal.c **** void HAL_DBGMCU_DisableDBGStopMode(void)
 469:/home/maxx/STM32Cube/Repository/STM32Cube_FW_L0_V1.11.2/Drivers/STM32L0xx_HAL_Driver/Src/stm32l0xx_hal.c **** {
 705              		.loc 1 469 1 is_stmt 1 view -0
 706              		.cfi_startproc
 707              		@ args = 0, pretend = 0, frame = 0
 708              		@ frame_needed = 0, uses_anonymous_args = 0
 709              		@ link register save eliminated.
 470:/home/maxx/STM32Cube/Repository/STM32Cube_FW_L0_V1.11.2/Drivers/STM32L0xx_HAL_Driver/Src/stm32l0xx_hal.c ****   CLEAR_BIT(DBGMCU->CR, DBGMCU_CR_DBG_STOP);
 710              		.loc 1 470 3 view .LVU108
 711 0000 024A     		ldr	r2, .L61
 712 0002 5368     		ldr	r3, [r2, #4]
 713 0004 0221     		movs	r1, #2
 714 0006 8B43     		bics	r3, r1
 715 0008 5360     		str	r3, [r2, #4]
 471:/home/maxx/STM32Cube/Repository/STM32Cube_FW_L0_V1.11.2/Drivers/STM32L0xx_HAL_Driver/Src/stm32l0xx_hal.c **** }
 716              		.loc 1 471 1 is_stmt 0 view .LVU109
 717              		@ sp needed
 718 000a 7047     		bx	lr
 719              	.L62:
 720              		.align	2
 721              	.L61:
 722 000c 00580140 		.word	1073829888
 723              		.cfi_endproc
 724              	.LFE53:
 726              		.section	.text.HAL_DBGMCU_EnableDBGStandbyMode,"ax",%progbits
 727              		.align	1
 728              		.global	HAL_DBGMCU_EnableDBGStandbyMode
 729              		.syntax unified
 730              		.code	16
 731              		.thumb_func
 732              		.fpu softvfp
 734              	HAL_DBGMCU_EnableDBGStandbyMode:
 735              	.LFB54:
 472:/home/maxx/STM32Cube/Repository/STM32Cube_FW_L0_V1.11.2/Drivers/STM32L0xx_HAL_Driver/Src/stm32l0xx_hal.c **** 
 473:/home/maxx/STM32Cube/Repository/STM32Cube_FW_L0_V1.11.2/Drivers/STM32L0xx_HAL_Driver/Src/stm32l0xx_hal.c **** /**
 474:/home/maxx/STM32Cube/Repository/STM32Cube_FW_L0_V1.11.2/Drivers/STM32L0xx_HAL_Driver/Src/stm32l0xx_hal.c ****   * @brief  Enables the Debug Module during STANDBY mode
ARM GAS  /tmp/ccOjs6Gb.s 			page 22


 475:/home/maxx/STM32Cube/Repository/STM32Cube_FW_L0_V1.11.2/Drivers/STM32L0xx_HAL_Driver/Src/stm32l0xx_hal.c ****   * @retval None
 476:/home/maxx/STM32Cube/Repository/STM32Cube_FW_L0_V1.11.2/Drivers/STM32L0xx_HAL_Driver/Src/stm32l0xx_hal.c ****   */
 477:/home/maxx/STM32Cube/Repository/STM32Cube_FW_L0_V1.11.2/Drivers/STM32L0xx_HAL_Driver/Src/stm32l0xx_hal.c **** void HAL_DBGMCU_EnableDBGStandbyMode(void)
 478:/home/maxx/STM32Cube/Repository/STM32Cube_FW_L0_V1.11.2/Drivers/STM32L0xx_HAL_Driver/Src/stm32l0xx_hal.c **** {
 736              		.loc 1 478 1 is_stmt 1 view -0
 737              		.cfi_startproc
 738              		@ args = 0, pretend = 0, frame = 0
 739              		@ frame_needed = 0, uses_anonymous_args = 0
 740              		@ link register save eliminated.
 479:/home/maxx/STM32Cube/Repository/STM32Cube_FW_L0_V1.11.2/Drivers/STM32L0xx_HAL_Driver/Src/stm32l0xx_hal.c ****   SET_BIT(DBGMCU->CR, DBGMCU_CR_DBG_STANDBY);
 741              		.loc 1 479 3 view .LVU111
 742 0000 024A     		ldr	r2, .L64
 743 0002 5368     		ldr	r3, [r2, #4]
 744 0004 0421     		movs	r1, #4
 745 0006 0B43     		orrs	r3, r1
 746 0008 5360     		str	r3, [r2, #4]
 480:/home/maxx/STM32Cube/Repository/STM32Cube_FW_L0_V1.11.2/Drivers/STM32L0xx_HAL_Driver/Src/stm32l0xx_hal.c **** }
 747              		.loc 1 480 1 is_stmt 0 view .LVU112
 748              		@ sp needed
 749 000a 7047     		bx	lr
 750              	.L65:
 751              		.align	2
 752              	.L64:
 753 000c 00580140 		.word	1073829888
 754              		.cfi_endproc
 755              	.LFE54:
 757              		.section	.text.HAL_DBGMCU_DisableDBGStandbyMode,"ax",%progbits
 758              		.align	1
 759              		.global	HAL_DBGMCU_DisableDBGStandbyMode
 760              		.syntax unified
 761              		.code	16
 762              		.thumb_func
 763              		.fpu softvfp
 765              	HAL_DBGMCU_DisableDBGStandbyMode:
 766              	.LFB55:
 481:/home/maxx/STM32Cube/Repository/STM32Cube_FW_L0_V1.11.2/Drivers/STM32L0xx_HAL_Driver/Src/stm32l0xx_hal.c **** 
 482:/home/maxx/STM32Cube/Repository/STM32Cube_FW_L0_V1.11.2/Drivers/STM32L0xx_HAL_Driver/Src/stm32l0xx_hal.c **** /**
 483:/home/maxx/STM32Cube/Repository/STM32Cube_FW_L0_V1.11.2/Drivers/STM32L0xx_HAL_Driver/Src/stm32l0xx_hal.c ****   * @brief  Disables the Debug Module during STANDBY mode
 484:/home/maxx/STM32Cube/Repository/STM32Cube_FW_L0_V1.11.2/Drivers/STM32L0xx_HAL_Driver/Src/stm32l0xx_hal.c ****   * @retval None
 485:/home/maxx/STM32Cube/Repository/STM32Cube_FW_L0_V1.11.2/Drivers/STM32L0xx_HAL_Driver/Src/stm32l0xx_hal.c ****   */
 486:/home/maxx/STM32Cube/Repository/STM32Cube_FW_L0_V1.11.2/Drivers/STM32L0xx_HAL_Driver/Src/stm32l0xx_hal.c **** void HAL_DBGMCU_DisableDBGStandbyMode(void)
 487:/home/maxx/STM32Cube/Repository/STM32Cube_FW_L0_V1.11.2/Drivers/STM32L0xx_HAL_Driver/Src/stm32l0xx_hal.c **** {
 767              		.loc 1 487 1 is_stmt 1 view -0
 768              		.cfi_startproc
 769              		@ args = 0, pretend = 0, frame = 0
 770              		@ frame_needed = 0, uses_anonymous_args = 0
 771              		@ link register save eliminated.
 488:/home/maxx/STM32Cube/Repository/STM32Cube_FW_L0_V1.11.2/Drivers/STM32L0xx_HAL_Driver/Src/stm32l0xx_hal.c ****   CLEAR_BIT(DBGMCU->CR, DBGMCU_CR_DBG_STANDBY);
 772              		.loc 1 488 3 view .LVU114
 773 0000 024A     		ldr	r2, .L67
 774 0002 5368     		ldr	r3, [r2, #4]
 775 0004 0421     		movs	r1, #4
 776 0006 8B43     		bics	r3, r1
 777 0008 5360     		str	r3, [r2, #4]
 489:/home/maxx/STM32Cube/Repository/STM32Cube_FW_L0_V1.11.2/Drivers/STM32L0xx_HAL_Driver/Src/stm32l0xx_hal.c **** }
 778              		.loc 1 489 1 is_stmt 0 view .LVU115
 779              		@ sp needed
ARM GAS  /tmp/ccOjs6Gb.s 			page 23


 780 000a 7047     		bx	lr
 781              	.L68:
 782              		.align	2
 783              	.L67:
 784 000c 00580140 		.word	1073829888
 785              		.cfi_endproc
 786              	.LFE55:
 788              		.section	.text.HAL_DBGMCU_DBG_EnableLowPowerConfig,"ax",%progbits
 789              		.align	1
 790              		.global	HAL_DBGMCU_DBG_EnableLowPowerConfig
 791              		.syntax unified
 792              		.code	16
 793              		.thumb_func
 794              		.fpu softvfp
 796              	HAL_DBGMCU_DBG_EnableLowPowerConfig:
 797              	.LVL23:
 798              	.LFB56:
 490:/home/maxx/STM32Cube/Repository/STM32Cube_FW_L0_V1.11.2/Drivers/STM32L0xx_HAL_Driver/Src/stm32l0xx_hal.c **** 
 491:/home/maxx/STM32Cube/Repository/STM32Cube_FW_L0_V1.11.2/Drivers/STM32L0xx_HAL_Driver/Src/stm32l0xx_hal.c **** /**
 492:/home/maxx/STM32Cube/Repository/STM32Cube_FW_L0_V1.11.2/Drivers/STM32L0xx_HAL_Driver/Src/stm32l0xx_hal.c ****   * @brief  Enable low power mode behavior when the MCU is in Debug mode.
 493:/home/maxx/STM32Cube/Repository/STM32Cube_FW_L0_V1.11.2/Drivers/STM32L0xx_HAL_Driver/Src/stm32l0xx_hal.c ****   * @param Periph: specifies the low power mode.
 494:/home/maxx/STM32Cube/Repository/STM32Cube_FW_L0_V1.11.2/Drivers/STM32L0xx_HAL_Driver/Src/stm32l0xx_hal.c ****   *   This parameter can be any combination of the following values:
 495:/home/maxx/STM32Cube/Repository/STM32Cube_FW_L0_V1.11.2/Drivers/STM32L0xx_HAL_Driver/Src/stm32l0xx_hal.c ****   *     @arg DBGMCU_SLEEP: Keep debugger connection during SLEEP mode
 496:/home/maxx/STM32Cube/Repository/STM32Cube_FW_L0_V1.11.2/Drivers/STM32L0xx_HAL_Driver/Src/stm32l0xx_hal.c ****   *     @arg DBGMCU_STOP: Keep debugger connection during STOP mode
 497:/home/maxx/STM32Cube/Repository/STM32Cube_FW_L0_V1.11.2/Drivers/STM32L0xx_HAL_Driver/Src/stm32l0xx_hal.c ****   *     @arg DBGMCU_STANDBY: Keep debugger connection during STANDBY mode
 498:/home/maxx/STM32Cube/Repository/STM32Cube_FW_L0_V1.11.2/Drivers/STM32L0xx_HAL_Driver/Src/stm32l0xx_hal.c ****   * @retval None
 499:/home/maxx/STM32Cube/Repository/STM32Cube_FW_L0_V1.11.2/Drivers/STM32L0xx_HAL_Driver/Src/stm32l0xx_hal.c ****   */
 500:/home/maxx/STM32Cube/Repository/STM32Cube_FW_L0_V1.11.2/Drivers/STM32L0xx_HAL_Driver/Src/stm32l0xx_hal.c **** void HAL_DBGMCU_DBG_EnableLowPowerConfig(uint32_t Periph)
 501:/home/maxx/STM32Cube/Repository/STM32Cube_FW_L0_V1.11.2/Drivers/STM32L0xx_HAL_Driver/Src/stm32l0xx_hal.c **** {
 799              		.loc 1 501 1 is_stmt 1 view -0
 800              		.cfi_startproc
 801              		@ args = 0, pretend = 0, frame = 0
 802              		@ frame_needed = 0, uses_anonymous_args = 0
 803              		@ link register save eliminated.
 502:/home/maxx/STM32Cube/Repository/STM32Cube_FW_L0_V1.11.2/Drivers/STM32L0xx_HAL_Driver/Src/stm32l0xx_hal.c ****   /* Check the parameters */
 503:/home/maxx/STM32Cube/Repository/STM32Cube_FW_L0_V1.11.2/Drivers/STM32L0xx_HAL_Driver/Src/stm32l0xx_hal.c ****   assert_param(IS_DBGMCU_PERIPH(Periph));
 804              		.loc 1 503 3 view .LVU117
 504:/home/maxx/STM32Cube/Repository/STM32Cube_FW_L0_V1.11.2/Drivers/STM32L0xx_HAL_Driver/Src/stm32l0xx_hal.c **** 
 505:/home/maxx/STM32Cube/Repository/STM32Cube_FW_L0_V1.11.2/Drivers/STM32L0xx_HAL_Driver/Src/stm32l0xx_hal.c ****   DBGMCU->CR |= Periph;
 805              		.loc 1 505 3 view .LVU118
 806              		.loc 1 505 14 is_stmt 0 view .LVU119
 807 0000 024A     		ldr	r2, .L70
 808 0002 5368     		ldr	r3, [r2, #4]
 809 0004 0343     		orrs	r3, r0
 810 0006 5360     		str	r3, [r2, #4]
 506:/home/maxx/STM32Cube/Repository/STM32Cube_FW_L0_V1.11.2/Drivers/STM32L0xx_HAL_Driver/Src/stm32l0xx_hal.c **** 
 507:/home/maxx/STM32Cube/Repository/STM32Cube_FW_L0_V1.11.2/Drivers/STM32L0xx_HAL_Driver/Src/stm32l0xx_hal.c **** }
 811              		.loc 1 507 1 view .LVU120
 812              		@ sp needed
 813 0008 7047     		bx	lr
 814              	.L71:
 815 000a C046     		.align	2
 816              	.L70:
 817 000c 00580140 		.word	1073829888
 818              		.cfi_endproc
 819              	.LFE56:
 821              		.section	.text.HAL_DBGMCU_DBG_DisableLowPowerConfig,"ax",%progbits
ARM GAS  /tmp/ccOjs6Gb.s 			page 24


 822              		.align	1
 823              		.global	HAL_DBGMCU_DBG_DisableLowPowerConfig
 824              		.syntax unified
 825              		.code	16
 826              		.thumb_func
 827              		.fpu softvfp
 829              	HAL_DBGMCU_DBG_DisableLowPowerConfig:
 830              	.LVL24:
 831              	.LFB57:
 508:/home/maxx/STM32Cube/Repository/STM32Cube_FW_L0_V1.11.2/Drivers/STM32L0xx_HAL_Driver/Src/stm32l0xx_hal.c **** /**
 509:/home/maxx/STM32Cube/Repository/STM32Cube_FW_L0_V1.11.2/Drivers/STM32L0xx_HAL_Driver/Src/stm32l0xx_hal.c ****   * @brief  Disable low power mode behavior when the MCU is in Debug mode.
 510:/home/maxx/STM32Cube/Repository/STM32Cube_FW_L0_V1.11.2/Drivers/STM32L0xx_HAL_Driver/Src/stm32l0xx_hal.c ****   * @param Periph: specifies the low power mode.
 511:/home/maxx/STM32Cube/Repository/STM32Cube_FW_L0_V1.11.2/Drivers/STM32L0xx_HAL_Driver/Src/stm32l0xx_hal.c ****   *   This parameter can be any combination of the following values:
 512:/home/maxx/STM32Cube/Repository/STM32Cube_FW_L0_V1.11.2/Drivers/STM32L0xx_HAL_Driver/Src/stm32l0xx_hal.c ****   *     @arg DBGMCU_SLEEP: Keep debugger connection during SLEEP mode
 513:/home/maxx/STM32Cube/Repository/STM32Cube_FW_L0_V1.11.2/Drivers/STM32L0xx_HAL_Driver/Src/stm32l0xx_hal.c ****   *     @arg DBGMCU_STOP: Keep debugger connection during STOP mode
 514:/home/maxx/STM32Cube/Repository/STM32Cube_FW_L0_V1.11.2/Drivers/STM32L0xx_HAL_Driver/Src/stm32l0xx_hal.c ****   *     @arg DBGMCU_STANDBY: Keep debugger connection during STANDBY mode
 515:/home/maxx/STM32Cube/Repository/STM32Cube_FW_L0_V1.11.2/Drivers/STM32L0xx_HAL_Driver/Src/stm32l0xx_hal.c ****   * @retval None
 516:/home/maxx/STM32Cube/Repository/STM32Cube_FW_L0_V1.11.2/Drivers/STM32L0xx_HAL_Driver/Src/stm32l0xx_hal.c ****   */
 517:/home/maxx/STM32Cube/Repository/STM32Cube_FW_L0_V1.11.2/Drivers/STM32L0xx_HAL_Driver/Src/stm32l0xx_hal.c **** void HAL_DBGMCU_DBG_DisableLowPowerConfig(uint32_t Periph)
 518:/home/maxx/STM32Cube/Repository/STM32Cube_FW_L0_V1.11.2/Drivers/STM32L0xx_HAL_Driver/Src/stm32l0xx_hal.c **** {
 832              		.loc 1 518 1 is_stmt 1 view -0
 833              		.cfi_startproc
 834              		@ args = 0, pretend = 0, frame = 0
 835              		@ frame_needed = 0, uses_anonymous_args = 0
 836              		@ link register save eliminated.
 519:/home/maxx/STM32Cube/Repository/STM32Cube_FW_L0_V1.11.2/Drivers/STM32L0xx_HAL_Driver/Src/stm32l0xx_hal.c ****   /* Check the parameters */
 520:/home/maxx/STM32Cube/Repository/STM32Cube_FW_L0_V1.11.2/Drivers/STM32L0xx_HAL_Driver/Src/stm32l0xx_hal.c ****   assert_param(IS_DBGMCU_PERIPH(Periph));
 837              		.loc 1 520 3 view .LVU122
 521:/home/maxx/STM32Cube/Repository/STM32Cube_FW_L0_V1.11.2/Drivers/STM32L0xx_HAL_Driver/Src/stm32l0xx_hal.c ****   {
 522:/home/maxx/STM32Cube/Repository/STM32Cube_FW_L0_V1.11.2/Drivers/STM32L0xx_HAL_Driver/Src/stm32l0xx_hal.c ****     DBGMCU->CR &= ~Periph;
 838              		.loc 1 522 5 view .LVU123
 839              		.loc 1 522 16 is_stmt 0 view .LVU124
 840 0000 024A     		ldr	r2, .L73
 841 0002 5368     		ldr	r3, [r2, #4]
 842 0004 8343     		bics	r3, r0
 843 0006 5360     		str	r3, [r2, #4]
 523:/home/maxx/STM32Cube/Repository/STM32Cube_FW_L0_V1.11.2/Drivers/STM32L0xx_HAL_Driver/Src/stm32l0xx_hal.c ****   }
 524:/home/maxx/STM32Cube/Repository/STM32Cube_FW_L0_V1.11.2/Drivers/STM32L0xx_HAL_Driver/Src/stm32l0xx_hal.c **** }
 844              		.loc 1 524 1 view .LVU125
 845              		@ sp needed
 846 0008 7047     		bx	lr
 847              	.L74:
 848 000a C046     		.align	2
 849              	.L73:
 850 000c 00580140 		.word	1073829888
 851              		.cfi_endproc
 852              	.LFE57:
 854              		.section	.text.HAL_SYSCFG_GetBootMode,"ax",%progbits
 855              		.align	1
 856              		.global	HAL_SYSCFG_GetBootMode
 857              		.syntax unified
 858              		.code	16
 859              		.thumb_func
 860              		.fpu softvfp
 862              	HAL_SYSCFG_GetBootMode:
 863              	.LFB58:
 525:/home/maxx/STM32Cube/Repository/STM32Cube_FW_L0_V1.11.2/Drivers/STM32L0xx_HAL_Driver/Src/stm32l0xx_hal.c **** 
ARM GAS  /tmp/ccOjs6Gb.s 			page 25


 526:/home/maxx/STM32Cube/Repository/STM32Cube_FW_L0_V1.11.2/Drivers/STM32L0xx_HAL_Driver/Src/stm32l0xx_hal.c **** /**
 527:/home/maxx/STM32Cube/Repository/STM32Cube_FW_L0_V1.11.2/Drivers/STM32L0xx_HAL_Driver/Src/stm32l0xx_hal.c ****   * @}
 528:/home/maxx/STM32Cube/Repository/STM32Cube_FW_L0_V1.11.2/Drivers/STM32L0xx_HAL_Driver/Src/stm32l0xx_hal.c ****   */
 529:/home/maxx/STM32Cube/Repository/STM32Cube_FW_L0_V1.11.2/Drivers/STM32L0xx_HAL_Driver/Src/stm32l0xx_hal.c **** 
 530:/home/maxx/STM32Cube/Repository/STM32Cube_FW_L0_V1.11.2/Drivers/STM32L0xx_HAL_Driver/Src/stm32l0xx_hal.c **** /** @addtogroup HAL_Exported_Functions_Group3
 531:/home/maxx/STM32Cube/Repository/STM32Cube_FW_L0_V1.11.2/Drivers/STM32L0xx_HAL_Driver/Src/stm32l0xx_hal.c ****  *  @brief    HAL SYSCFG configuration functions
 532:/home/maxx/STM32Cube/Repository/STM32Cube_FW_L0_V1.11.2/Drivers/STM32L0xx_HAL_Driver/Src/stm32l0xx_hal.c ****  *
 533:/home/maxx/STM32Cube/Repository/STM32Cube_FW_L0_V1.11.2/Drivers/STM32L0xx_HAL_Driver/Src/stm32l0xx_hal.c **** @verbatim
 534:/home/maxx/STM32Cube/Repository/STM32Cube_FW_L0_V1.11.2/Drivers/STM32L0xx_HAL_Driver/Src/stm32l0xx_hal.c ****  ===============================================================================
 535:/home/maxx/STM32Cube/Repository/STM32Cube_FW_L0_V1.11.2/Drivers/STM32L0xx_HAL_Driver/Src/stm32l0xx_hal.c ****                       ##### HAL SYSCFG configuration functions #####
 536:/home/maxx/STM32Cube/Repository/STM32Cube_FW_L0_V1.11.2/Drivers/STM32L0xx_HAL_Driver/Src/stm32l0xx_hal.c ****  ===============================================================================
 537:/home/maxx/STM32Cube/Repository/STM32Cube_FW_L0_V1.11.2/Drivers/STM32L0xx_HAL_Driver/Src/stm32l0xx_hal.c ****     [..]  This section provides functions allowing to:
 538:/home/maxx/STM32Cube/Repository/STM32Cube_FW_L0_V1.11.2/Drivers/STM32L0xx_HAL_Driver/Src/stm32l0xx_hal.c ****       (+) Return the boot mode
 539:/home/maxx/STM32Cube/Repository/STM32Cube_FW_L0_V1.11.2/Drivers/STM32L0xx_HAL_Driver/Src/stm32l0xx_hal.c ****       (+) Select the output of internal reference voltage (VREFINT)
 540:/home/maxx/STM32Cube/Repository/STM32Cube_FW_L0_V1.11.2/Drivers/STM32L0xx_HAL_Driver/Src/stm32l0xx_hal.c ****       (+) Lock/Unlock the SYSCFG VREF register values
 541:/home/maxx/STM32Cube/Repository/STM32Cube_FW_L0_V1.11.2/Drivers/STM32L0xx_HAL_Driver/Src/stm32l0xx_hal.c **** 
 542:/home/maxx/STM32Cube/Repository/STM32Cube_FW_L0_V1.11.2/Drivers/STM32L0xx_HAL_Driver/Src/stm32l0xx_hal.c **** @endverbatim
 543:/home/maxx/STM32Cube/Repository/STM32Cube_FW_L0_V1.11.2/Drivers/STM32L0xx_HAL_Driver/Src/stm32l0xx_hal.c ****   * @{
 544:/home/maxx/STM32Cube/Repository/STM32Cube_FW_L0_V1.11.2/Drivers/STM32L0xx_HAL_Driver/Src/stm32l0xx_hal.c ****   */
 545:/home/maxx/STM32Cube/Repository/STM32Cube_FW_L0_V1.11.2/Drivers/STM32L0xx_HAL_Driver/Src/stm32l0xx_hal.c **** 
 546:/home/maxx/STM32Cube/Repository/STM32Cube_FW_L0_V1.11.2/Drivers/STM32L0xx_HAL_Driver/Src/stm32l0xx_hal.c **** /**
 547:/home/maxx/STM32Cube/Repository/STM32Cube_FW_L0_V1.11.2/Drivers/STM32L0xx_HAL_Driver/Src/stm32l0xx_hal.c ****   * @brief  Returns the boot mode as configured by user.
 548:/home/maxx/STM32Cube/Repository/STM32Cube_FW_L0_V1.11.2/Drivers/STM32L0xx_HAL_Driver/Src/stm32l0xx_hal.c ****   * @retval The boot mode as configured by user. The returned value can be one
 549:/home/maxx/STM32Cube/Repository/STM32Cube_FW_L0_V1.11.2/Drivers/STM32L0xx_HAL_Driver/Src/stm32l0xx_hal.c ****   *         of the following values:
 550:/home/maxx/STM32Cube/Repository/STM32Cube_FW_L0_V1.11.2/Drivers/STM32L0xx_HAL_Driver/Src/stm32l0xx_hal.c ****   *              - 0x00000000 : Boot is configured in Main Flash memory
 551:/home/maxx/STM32Cube/Repository/STM32Cube_FW_L0_V1.11.2/Drivers/STM32L0xx_HAL_Driver/Src/stm32l0xx_hal.c ****   *              - 0x00000100 : Boot is configured in System Flash memory
 552:/home/maxx/STM32Cube/Repository/STM32Cube_FW_L0_V1.11.2/Drivers/STM32L0xx_HAL_Driver/Src/stm32l0xx_hal.c ****   *              - 0x00000300 : Boot is configured in Embedded SRAM memory
 553:/home/maxx/STM32Cube/Repository/STM32Cube_FW_L0_V1.11.2/Drivers/STM32L0xx_HAL_Driver/Src/stm32l0xx_hal.c ****   */
 554:/home/maxx/STM32Cube/Repository/STM32Cube_FW_L0_V1.11.2/Drivers/STM32L0xx_HAL_Driver/Src/stm32l0xx_hal.c **** uint32_t  HAL_SYSCFG_GetBootMode(void)
 555:/home/maxx/STM32Cube/Repository/STM32Cube_FW_L0_V1.11.2/Drivers/STM32L0xx_HAL_Driver/Src/stm32l0xx_hal.c **** {
 864              		.loc 1 555 1 is_stmt 1 view -0
 865              		.cfi_startproc
 866              		@ args = 0, pretend = 0, frame = 0
 867              		@ frame_needed = 0, uses_anonymous_args = 0
 868              		@ link register save eliminated.
 556:/home/maxx/STM32Cube/Repository/STM32Cube_FW_L0_V1.11.2/Drivers/STM32L0xx_HAL_Driver/Src/stm32l0xx_hal.c ****   return (SYSCFG->CFGR1 & SYSCFG_CFGR1_BOOT_MODE);
 869              		.loc 1 556 3 view .LVU127
 870              		.loc 1 556 17 is_stmt 0 view .LVU128
 871 0000 024B     		ldr	r3, .L76
 872 0002 1868     		ldr	r0, [r3]
 873              		.loc 1 556 25 view .LVU129
 874 0004 C023     		movs	r3, #192
 875 0006 9B00     		lsls	r3, r3, #2
 876 0008 1840     		ands	r0, r3
 557:/home/maxx/STM32Cube/Repository/STM32Cube_FW_L0_V1.11.2/Drivers/STM32L0xx_HAL_Driver/Src/stm32l0xx_hal.c **** }
 877              		.loc 1 557 1 view .LVU130
 878              		@ sp needed
 879 000a 7047     		bx	lr
 880              	.L77:
 881              		.align	2
 882              	.L76:
 883 000c 00000140 		.word	1073807360
 884              		.cfi_endproc
 885              	.LFE58:
 887              		.section	.text.HAL_SYSCFG_VREFINT_OutputSelect,"ax",%progbits
 888              		.align	1
 889              		.global	HAL_SYSCFG_VREFINT_OutputSelect
ARM GAS  /tmp/ccOjs6Gb.s 			page 26


 890              		.syntax unified
 891              		.code	16
 892              		.thumb_func
 893              		.fpu softvfp
 895              	HAL_SYSCFG_VREFINT_OutputSelect:
 896              	.LVL25:
 897              	.LFB59:
 558:/home/maxx/STM32Cube/Repository/STM32Cube_FW_L0_V1.11.2/Drivers/STM32L0xx_HAL_Driver/Src/stm32l0xx_hal.c **** 
 559:/home/maxx/STM32Cube/Repository/STM32Cube_FW_L0_V1.11.2/Drivers/STM32L0xx_HAL_Driver/Src/stm32l0xx_hal.c **** /**
 560:/home/maxx/STM32Cube/Repository/STM32Cube_FW_L0_V1.11.2/Drivers/STM32L0xx_HAL_Driver/Src/stm32l0xx_hal.c ****   * @brief Selects the output of internal reference voltage (VREFINT).
 561:/home/maxx/STM32Cube/Repository/STM32Cube_FW_L0_V1.11.2/Drivers/STM32L0xx_HAL_Driver/Src/stm32l0xx_hal.c ****   *        The VREFINT output can be routed to(PB0) or
 562:/home/maxx/STM32Cube/Repository/STM32Cube_FW_L0_V1.11.2/Drivers/STM32L0xx_HAL_Driver/Src/stm32l0xx_hal.c ****   *        (PB1) or both.
 563:/home/maxx/STM32Cube/Repository/STM32Cube_FW_L0_V1.11.2/Drivers/STM32L0xx_HAL_Driver/Src/stm32l0xx_hal.c ****   * @param SYSCFG_Vrefint_OUTPUT: new state of the Vrefint output.
 564:/home/maxx/STM32Cube/Repository/STM32Cube_FW_L0_V1.11.2/Drivers/STM32L0xx_HAL_Driver/Src/stm32l0xx_hal.c ****   *        This parameter can be one of the following values:
 565:/home/maxx/STM32Cube/Repository/STM32Cube_FW_L0_V1.11.2/Drivers/STM32L0xx_HAL_Driver/Src/stm32l0xx_hal.c ****   *     @arg SYSCFG_VREFINT_OUT_NONE
 566:/home/maxx/STM32Cube/Repository/STM32Cube_FW_L0_V1.11.2/Drivers/STM32L0xx_HAL_Driver/Src/stm32l0xx_hal.c ****   *     @arg SYSCFG_VREFINT_OUT_PB0
 567:/home/maxx/STM32Cube/Repository/STM32Cube_FW_L0_V1.11.2/Drivers/STM32L0xx_HAL_Driver/Src/stm32l0xx_hal.c ****   *     @arg SYSCFG_VREFINT_OUT_PB1
 568:/home/maxx/STM32Cube/Repository/STM32Cube_FW_L0_V1.11.2/Drivers/STM32L0xx_HAL_Driver/Src/stm32l0xx_hal.c ****   *     @arg SYSCFG_VREFINT_OUT_PB0_PB1
 569:/home/maxx/STM32Cube/Repository/STM32Cube_FW_L0_V1.11.2/Drivers/STM32L0xx_HAL_Driver/Src/stm32l0xx_hal.c ****   * @retval None
 570:/home/maxx/STM32Cube/Repository/STM32Cube_FW_L0_V1.11.2/Drivers/STM32L0xx_HAL_Driver/Src/stm32l0xx_hal.c ****   */
 571:/home/maxx/STM32Cube/Repository/STM32Cube_FW_L0_V1.11.2/Drivers/STM32L0xx_HAL_Driver/Src/stm32l0xx_hal.c **** void HAL_SYSCFG_VREFINT_OutputSelect(uint32_t SYSCFG_Vrefint_OUTPUT)
 572:/home/maxx/STM32Cube/Repository/STM32Cube_FW_L0_V1.11.2/Drivers/STM32L0xx_HAL_Driver/Src/stm32l0xx_hal.c **** {
 898              		.loc 1 572 1 is_stmt 1 view -0
 899              		.cfi_startproc
 900              		@ args = 0, pretend = 0, frame = 0
 901              		@ frame_needed = 0, uses_anonymous_args = 0
 902              		@ link register save eliminated.
 573:/home/maxx/STM32Cube/Repository/STM32Cube_FW_L0_V1.11.2/Drivers/STM32L0xx_HAL_Driver/Src/stm32l0xx_hal.c ****   /* Check the parameters */
 574:/home/maxx/STM32Cube/Repository/STM32Cube_FW_L0_V1.11.2/Drivers/STM32L0xx_HAL_Driver/Src/stm32l0xx_hal.c ****   assert_param(IS_SYSCFG_VREFINT_OUT_SELECT(SYSCFG_Vrefint_OUTPUT));
 903              		.loc 1 574 3 view .LVU132
 575:/home/maxx/STM32Cube/Repository/STM32Cube_FW_L0_V1.11.2/Drivers/STM32L0xx_HAL_Driver/Src/stm32l0xx_hal.c **** 
 576:/home/maxx/STM32Cube/Repository/STM32Cube_FW_L0_V1.11.2/Drivers/STM32L0xx_HAL_Driver/Src/stm32l0xx_hal.c ****   /* Set the output Vrefint pin */
 577:/home/maxx/STM32Cube/Repository/STM32Cube_FW_L0_V1.11.2/Drivers/STM32L0xx_HAL_Driver/Src/stm32l0xx_hal.c ****   SYSCFG->CFGR3 &= ~(SYSCFG_CFGR3_VREF_OUT);
 904              		.loc 1 577 3 view .LVU133
 905              		.loc 1 577 17 is_stmt 0 view .LVU134
 906 0000 044B     		ldr	r3, .L79
 907 0002 196A     		ldr	r1, [r3, #32]
 908 0004 3022     		movs	r2, #48
 909 0006 9143     		bics	r1, r2
 910 0008 1962     		str	r1, [r3, #32]
 578:/home/maxx/STM32Cube/Repository/STM32Cube_FW_L0_V1.11.2/Drivers/STM32L0xx_HAL_Driver/Src/stm32l0xx_hal.c ****   SYSCFG->CFGR3 |= (uint32_t)(SYSCFG_Vrefint_OUTPUT);
 911              		.loc 1 578 3 is_stmt 1 view .LVU135
 912              		.loc 1 578 17 is_stmt 0 view .LVU136
 913 000a 1A6A     		ldr	r2, [r3, #32]
 914 000c 0243     		orrs	r2, r0
 915 000e 1A62     		str	r2, [r3, #32]
 579:/home/maxx/STM32Cube/Repository/STM32Cube_FW_L0_V1.11.2/Drivers/STM32L0xx_HAL_Driver/Src/stm32l0xx_hal.c **** }
 916              		.loc 1 579 1 view .LVU137
 917              		@ sp needed
 918 0010 7047     		bx	lr
 919              	.L80:
 920 0012 C046     		.align	2
 921              	.L79:
 922 0014 00000140 		.word	1073807360
 923              		.cfi_endproc
 924              	.LFE59:
 926              		.section	.text.HAL_SYSCFG_Enable_Lock_VREFINT,"ax",%progbits
ARM GAS  /tmp/ccOjs6Gb.s 			page 27


 927              		.align	1
 928              		.global	HAL_SYSCFG_Enable_Lock_VREFINT
 929              		.syntax unified
 930              		.code	16
 931              		.thumb_func
 932              		.fpu softvfp
 934              	HAL_SYSCFG_Enable_Lock_VREFINT:
 935              	.LFB60:
 580:/home/maxx/STM32Cube/Repository/STM32Cube_FW_L0_V1.11.2/Drivers/STM32L0xx_HAL_Driver/Src/stm32l0xx_hal.c **** 
 581:/home/maxx/STM32Cube/Repository/STM32Cube_FW_L0_V1.11.2/Drivers/STM32L0xx_HAL_Driver/Src/stm32l0xx_hal.c **** /**
 582:/home/maxx/STM32Cube/Repository/STM32Cube_FW_L0_V1.11.2/Drivers/STM32L0xx_HAL_Driver/Src/stm32l0xx_hal.c ****   * @brief  Lock the SYSCFG VREF register values
 583:/home/maxx/STM32Cube/Repository/STM32Cube_FW_L0_V1.11.2/Drivers/STM32L0xx_HAL_Driver/Src/stm32l0xx_hal.c ****   * @retval None
 584:/home/maxx/STM32Cube/Repository/STM32Cube_FW_L0_V1.11.2/Drivers/STM32L0xx_HAL_Driver/Src/stm32l0xx_hal.c ****   */
 585:/home/maxx/STM32Cube/Repository/STM32Cube_FW_L0_V1.11.2/Drivers/STM32L0xx_HAL_Driver/Src/stm32l0xx_hal.c **** void HAL_SYSCFG_Enable_Lock_VREFINT(void)
 586:/home/maxx/STM32Cube/Repository/STM32Cube_FW_L0_V1.11.2/Drivers/STM32L0xx_HAL_Driver/Src/stm32l0xx_hal.c **** {
 936              		.loc 1 586 1 is_stmt 1 view -0
 937              		.cfi_startproc
 938              		@ args = 0, pretend = 0, frame = 0
 939              		@ frame_needed = 0, uses_anonymous_args = 0
 940              		@ link register save eliminated.
 587:/home/maxx/STM32Cube/Repository/STM32Cube_FW_L0_V1.11.2/Drivers/STM32L0xx_HAL_Driver/Src/stm32l0xx_hal.c ****     /* Enable the LOCK by setting REF_LOCK bit in the CFGR3 register */
 588:/home/maxx/STM32Cube/Repository/STM32Cube_FW_L0_V1.11.2/Drivers/STM32L0xx_HAL_Driver/Src/stm32l0xx_hal.c ****     SET_BIT(SYSCFG->CFGR3, SYSCFG_CFGR3_REF_LOCK);
 941              		.loc 1 588 5 view .LVU139
 942 0000 034A     		ldr	r2, .L82
 943 0002 116A     		ldr	r1, [r2, #32]
 944 0004 8023     		movs	r3, #128
 945 0006 1B06     		lsls	r3, r3, #24
 946 0008 0B43     		orrs	r3, r1
 947 000a 1362     		str	r3, [r2, #32]
 589:/home/maxx/STM32Cube/Repository/STM32Cube_FW_L0_V1.11.2/Drivers/STM32L0xx_HAL_Driver/Src/stm32l0xx_hal.c **** }
 948              		.loc 1 589 1 is_stmt 0 view .LVU140
 949              		@ sp needed
 950 000c 7047     		bx	lr
 951              	.L83:
 952 000e C046     		.align	2
 953              	.L82:
 954 0010 00000140 		.word	1073807360
 955              		.cfi_endproc
 956              	.LFE60:
 958              		.section	.text.HAL_SYSCFG_Disable_Lock_VREFINT,"ax",%progbits
 959              		.align	1
 960              		.global	HAL_SYSCFG_Disable_Lock_VREFINT
 961              		.syntax unified
 962              		.code	16
 963              		.thumb_func
 964              		.fpu softvfp
 966              	HAL_SYSCFG_Disable_Lock_VREFINT:
 967              	.LFB61:
 590:/home/maxx/STM32Cube/Repository/STM32Cube_FW_L0_V1.11.2/Drivers/STM32L0xx_HAL_Driver/Src/stm32l0xx_hal.c **** 
 591:/home/maxx/STM32Cube/Repository/STM32Cube_FW_L0_V1.11.2/Drivers/STM32L0xx_HAL_Driver/Src/stm32l0xx_hal.c **** /**
 592:/home/maxx/STM32Cube/Repository/STM32Cube_FW_L0_V1.11.2/Drivers/STM32L0xx_HAL_Driver/Src/stm32l0xx_hal.c ****   * @brief  Unlock the overall SYSCFG VREF register values
 593:/home/maxx/STM32Cube/Repository/STM32Cube_FW_L0_V1.11.2/Drivers/STM32L0xx_HAL_Driver/Src/stm32l0xx_hal.c ****   * @retval None
 594:/home/maxx/STM32Cube/Repository/STM32Cube_FW_L0_V1.11.2/Drivers/STM32L0xx_HAL_Driver/Src/stm32l0xx_hal.c ****   */
 595:/home/maxx/STM32Cube/Repository/STM32Cube_FW_L0_V1.11.2/Drivers/STM32L0xx_HAL_Driver/Src/stm32l0xx_hal.c **** void HAL_SYSCFG_Disable_Lock_VREFINT(void)
 596:/home/maxx/STM32Cube/Repository/STM32Cube_FW_L0_V1.11.2/Drivers/STM32L0xx_HAL_Driver/Src/stm32l0xx_hal.c **** {
 968              		.loc 1 596 1 is_stmt 1 view -0
 969              		.cfi_startproc
ARM GAS  /tmp/ccOjs6Gb.s 			page 28


 970              		@ args = 0, pretend = 0, frame = 0
 971              		@ frame_needed = 0, uses_anonymous_args = 0
 972              		@ link register save eliminated.
 597:/home/maxx/STM32Cube/Repository/STM32Cube_FW_L0_V1.11.2/Drivers/STM32L0xx_HAL_Driver/Src/stm32l0xx_hal.c ****     /* Disable the LOCK by setting REF_LOCK bit in the CFGR3 register */
 598:/home/maxx/STM32Cube/Repository/STM32Cube_FW_L0_V1.11.2/Drivers/STM32L0xx_HAL_Driver/Src/stm32l0xx_hal.c ****     CLEAR_BIT(SYSCFG->CFGR3, SYSCFG_CFGR3_REF_LOCK);
 973              		.loc 1 598 5 view .LVU142
 974 0000 024A     		ldr	r2, .L85
 975 0002 136A     		ldr	r3, [r2, #32]
 976 0004 5B00     		lsls	r3, r3, #1
 977 0006 5B08     		lsrs	r3, r3, #1
 978 0008 1362     		str	r3, [r2, #32]
 599:/home/maxx/STM32Cube/Repository/STM32Cube_FW_L0_V1.11.2/Drivers/STM32L0xx_HAL_Driver/Src/stm32l0xx_hal.c **** }
 979              		.loc 1 599 1 is_stmt 0 view .LVU143
 980              		@ sp needed
 981 000a 7047     		bx	lr
 982              	.L86:
 983              		.align	2
 984              	.L85:
 985 000c 00000140 		.word	1073807360
 986              		.cfi_endproc
 987              	.LFE61:
 989              		.comm	uwTick,4,4
 990              		.text
 991              	.Letext0:
 992              		.file 2 "/usr/local/arm-none-eabi/include/machine/_default_types.h"
 993              		.file 3 "/usr/local/arm-none-eabi/include/sys/_stdint.h"
 994              		.file 4 "/home/maxx/STM32Cube/Repository/STM32Cube_FW_L0_V1.11.2/Drivers/CMSIS/Include/core_cm0plu
 995              		.file 5 "/home/maxx/STM32Cube/Repository/STM32Cube_FW_L0_V1.11.2/Drivers/CMSIS/Device/ST/STM32L0xx
 996              		.file 6 "/home/maxx/STM32Cube/Repository/STM32Cube_FW_L0_V1.11.2/Drivers/CMSIS/Device/ST/STM32L0xx
 997              		.file 7 "/home/maxx/STM32Cube/Repository/STM32Cube_FW_L0_V1.11.2/Drivers/STM32L0xx_HAL_Driver/Inc/
 998              		.file 8 "/home/maxx/STM32Cube/Repository/STM32Cube_FW_L0_V1.11.2/Drivers/STM32L0xx_HAL_Driver/Inc/
 999              		.file 9 "/home/maxx/STM32Cube/Repository/STM32Cube_FW_L0_V1.11.2/Drivers/STM32L0xx_HAL_Driver/Inc/
ARM GAS  /tmp/ccOjs6Gb.s 			page 29

