ARM GAS  /tmp/ccRhWqtl.s 			page 1


   1              		.cpu cortex-m0plus
   2              		.eabi_attribute 20, 1
   3              		.eabi_attribute 21, 1
   4              		.eabi_attribute 23, 3
   5              		.eabi_attribute 24, 1
   6              		.eabi_attribute 25, 1
   7              		.eabi_attribute 26, 1
   8              		.eabi_attribute 30, 2
   9              		.eabi_attribute 34, 0
  10              		.eabi_attribute 18, 4
  11              		.file	"stm32l0xx_hal_pwr_ex.c"
  12              		.text
  13              	.Ltext0:
  14              		.cfi_sections	.debug_frame
  15              		.section	.text.HAL_PWREx_GetVoltageRange,"ax",%progbits
  16              		.align	1
  17              		.p2align 2,,3
  18              		.global	HAL_PWREx_GetVoltageRange
  19              		.arch armv6s-m
  20              		.syntax unified
  21              		.code	16
  22              		.thumb_func
  23              		.fpu softvfp
  25              	HAL_PWREx_GetVoltageRange:
  26              	.LFB34:
  27              		.file 1 "Drivers/STM32L0xx_HAL_Driver/Src/stm32l0xx_hal_pwr_ex.c"
   1:Drivers/STM32L0xx_HAL_Driver/Src/stm32l0xx_hal_pwr_ex.c **** /**
   2:Drivers/STM32L0xx_HAL_Driver/Src/stm32l0xx_hal_pwr_ex.c ****   ******************************************************************************
   3:Drivers/STM32L0xx_HAL_Driver/Src/stm32l0xx_hal_pwr_ex.c ****   * @file    stm32l0xx_hal_pwr_ex.c
   4:Drivers/STM32L0xx_HAL_Driver/Src/stm32l0xx_hal_pwr_ex.c ****   * @author  MCD Application Team
   5:Drivers/STM32L0xx_HAL_Driver/Src/stm32l0xx_hal_pwr_ex.c ****   * @brief   Extended PWR HAL module driver.
   6:Drivers/STM32L0xx_HAL_Driver/Src/stm32l0xx_hal_pwr_ex.c ****   *          This file provides firmware functions to manage the following
   7:Drivers/STM32L0xx_HAL_Driver/Src/stm32l0xx_hal_pwr_ex.c ****   *          functionalities of the Power Controller (PWR) peripheral:
   8:Drivers/STM32L0xx_HAL_Driver/Src/stm32l0xx_hal_pwr_ex.c ****   *           + Extended Initialization and de-initialization functions
   9:Drivers/STM32L0xx_HAL_Driver/Src/stm32l0xx_hal_pwr_ex.c ****   *           + Extended Peripheral Control functions
  10:Drivers/STM32L0xx_HAL_Driver/Src/stm32l0xx_hal_pwr_ex.c ****   *         
  11:Drivers/STM32L0xx_HAL_Driver/Src/stm32l0xx_hal_pwr_ex.c ****   ******************************************************************************
  12:Drivers/STM32L0xx_HAL_Driver/Src/stm32l0xx_hal_pwr_ex.c ****   * @attention
  13:Drivers/STM32L0xx_HAL_Driver/Src/stm32l0xx_hal_pwr_ex.c ****   *
  14:Drivers/STM32L0xx_HAL_Driver/Src/stm32l0xx_hal_pwr_ex.c ****   * <h2><center>&copy; Copyright(c) 2016 STMicroelectronics.
  15:Drivers/STM32L0xx_HAL_Driver/Src/stm32l0xx_hal_pwr_ex.c ****   * All rights reserved.</center></h2>
  16:Drivers/STM32L0xx_HAL_Driver/Src/stm32l0xx_hal_pwr_ex.c ****   *
  17:Drivers/STM32L0xx_HAL_Driver/Src/stm32l0xx_hal_pwr_ex.c ****   * This software component is licensed by ST under BSD 3-Clause license,
  18:Drivers/STM32L0xx_HAL_Driver/Src/stm32l0xx_hal_pwr_ex.c ****   * the "License"; You may not use this file except in compliance with the
  19:Drivers/STM32L0xx_HAL_Driver/Src/stm32l0xx_hal_pwr_ex.c ****   * License. You may obtain a copy of the License at:
  20:Drivers/STM32L0xx_HAL_Driver/Src/stm32l0xx_hal_pwr_ex.c ****   *                        opensource.org/licenses/BSD-3-Clause
  21:Drivers/STM32L0xx_HAL_Driver/Src/stm32l0xx_hal_pwr_ex.c ****   *
  22:Drivers/STM32L0xx_HAL_Driver/Src/stm32l0xx_hal_pwr_ex.c ****   ******************************************************************************
  23:Drivers/STM32L0xx_HAL_Driver/Src/stm32l0xx_hal_pwr_ex.c ****   */
  24:Drivers/STM32L0xx_HAL_Driver/Src/stm32l0xx_hal_pwr_ex.c **** 
  25:Drivers/STM32L0xx_HAL_Driver/Src/stm32l0xx_hal_pwr_ex.c **** /* Includes ------------------------------------------------------------------*/
  26:Drivers/STM32L0xx_HAL_Driver/Src/stm32l0xx_hal_pwr_ex.c **** #include "stm32l0xx_hal.h"
  27:Drivers/STM32L0xx_HAL_Driver/Src/stm32l0xx_hal_pwr_ex.c **** 
  28:Drivers/STM32L0xx_HAL_Driver/Src/stm32l0xx_hal_pwr_ex.c **** #ifdef HAL_PWR_MODULE_ENABLED
  29:Drivers/STM32L0xx_HAL_Driver/Src/stm32l0xx_hal_pwr_ex.c **** /** @addtogroup STM32L0xx_HAL_Driver
  30:Drivers/STM32L0xx_HAL_Driver/Src/stm32l0xx_hal_pwr_ex.c ****   * @{
  31:Drivers/STM32L0xx_HAL_Driver/Src/stm32l0xx_hal_pwr_ex.c ****   */
ARM GAS  /tmp/ccRhWqtl.s 			page 2


  32:Drivers/STM32L0xx_HAL_Driver/Src/stm32l0xx_hal_pwr_ex.c **** 
  33:Drivers/STM32L0xx_HAL_Driver/Src/stm32l0xx_hal_pwr_ex.c **** /** @addtogroup PWREx 
  34:Drivers/STM32L0xx_HAL_Driver/Src/stm32l0xx_hal_pwr_ex.c ****   * @{
  35:Drivers/STM32L0xx_HAL_Driver/Src/stm32l0xx_hal_pwr_ex.c ****   */
  36:Drivers/STM32L0xx_HAL_Driver/Src/stm32l0xx_hal_pwr_ex.c **** 
  37:Drivers/STM32L0xx_HAL_Driver/Src/stm32l0xx_hal_pwr_ex.c **** /** @addtogroup PWREx_Private
  38:Drivers/STM32L0xx_HAL_Driver/Src/stm32l0xx_hal_pwr_ex.c ****   * @{
  39:Drivers/STM32L0xx_HAL_Driver/Src/stm32l0xx_hal_pwr_ex.c ****   */
  40:Drivers/STM32L0xx_HAL_Driver/Src/stm32l0xx_hal_pwr_ex.c **** 
  41:Drivers/STM32L0xx_HAL_Driver/Src/stm32l0xx_hal_pwr_ex.c **** /** @defgroup PWR_Extended_TimeOut_Value PWREx Flag Setting Time Out Value
  42:Drivers/STM32L0xx_HAL_Driver/Src/stm32l0xx_hal_pwr_ex.c ****   * @{
  43:Drivers/STM32L0xx_HAL_Driver/Src/stm32l0xx_hal_pwr_ex.c ****   */ 
  44:Drivers/STM32L0xx_HAL_Driver/Src/stm32l0xx_hal_pwr_ex.c **** #define PWR_FLAG_SETTING_DELAY_US 50U
  45:Drivers/STM32L0xx_HAL_Driver/Src/stm32l0xx_hal_pwr_ex.c **** /**
  46:Drivers/STM32L0xx_HAL_Driver/Src/stm32l0xx_hal_pwr_ex.c ****   * @}
  47:Drivers/STM32L0xx_HAL_Driver/Src/stm32l0xx_hal_pwr_ex.c ****   */
  48:Drivers/STM32L0xx_HAL_Driver/Src/stm32l0xx_hal_pwr_ex.c **** 
  49:Drivers/STM32L0xx_HAL_Driver/Src/stm32l0xx_hal_pwr_ex.c **** /**
  50:Drivers/STM32L0xx_HAL_Driver/Src/stm32l0xx_hal_pwr_ex.c ****   * @}
  51:Drivers/STM32L0xx_HAL_Driver/Src/stm32l0xx_hal_pwr_ex.c ****   */
  52:Drivers/STM32L0xx_HAL_Driver/Src/stm32l0xx_hal_pwr_ex.c **** 
  53:Drivers/STM32L0xx_HAL_Driver/Src/stm32l0xx_hal_pwr_ex.c **** 
  54:Drivers/STM32L0xx_HAL_Driver/Src/stm32l0xx_hal_pwr_ex.c **** /** @addtogroup PWREx_Exported_Functions
  55:Drivers/STM32L0xx_HAL_Driver/Src/stm32l0xx_hal_pwr_ex.c ****   * @brief      Low Power modes configuration functions 
  56:Drivers/STM32L0xx_HAL_Driver/Src/stm32l0xx_hal_pwr_ex.c ****   *
  57:Drivers/STM32L0xx_HAL_Driver/Src/stm32l0xx_hal_pwr_ex.c **** @verbatim
  58:Drivers/STM32L0xx_HAL_Driver/Src/stm32l0xx_hal_pwr_ex.c **** 
  59:Drivers/STM32L0xx_HAL_Driver/Src/stm32l0xx_hal_pwr_ex.c ****  ===============================================================================
  60:Drivers/STM32L0xx_HAL_Driver/Src/stm32l0xx_hal_pwr_ex.c ****                  ##### Peripheral extended features functions #####
  61:Drivers/STM32L0xx_HAL_Driver/Src/stm32l0xx_hal_pwr_ex.c ****  ===============================================================================
  62:Drivers/STM32L0xx_HAL_Driver/Src/stm32l0xx_hal_pwr_ex.c **** @endverbatim
  63:Drivers/STM32L0xx_HAL_Driver/Src/stm32l0xx_hal_pwr_ex.c ****   * @{
  64:Drivers/STM32L0xx_HAL_Driver/Src/stm32l0xx_hal_pwr_ex.c ****   */
  65:Drivers/STM32L0xx_HAL_Driver/Src/stm32l0xx_hal_pwr_ex.c **** 
  66:Drivers/STM32L0xx_HAL_Driver/Src/stm32l0xx_hal_pwr_ex.c **** /**
  67:Drivers/STM32L0xx_HAL_Driver/Src/stm32l0xx_hal_pwr_ex.c ****   * @brief Return Voltage Scaling Range.   
  68:Drivers/STM32L0xx_HAL_Driver/Src/stm32l0xx_hal_pwr_ex.c ****   * @retval VOS bit field (PWR_REGULATOR_VOLTAGE_SCALE1, PWR_REGULATOR_VOLTAGE_SCALE2 or PWR_REGULA
  69:Drivers/STM32L0xx_HAL_Driver/Src/stm32l0xx_hal_pwr_ex.c ****   */  
  70:Drivers/STM32L0xx_HAL_Driver/Src/stm32l0xx_hal_pwr_ex.c **** uint32_t HAL_PWREx_GetVoltageRange(void)
  71:Drivers/STM32L0xx_HAL_Driver/Src/stm32l0xx_hal_pwr_ex.c **** {
  28              		.loc 1 71 1 view -0
  29              		.cfi_startproc
  30              		@ args = 0, pretend = 0, frame = 0
  31              		@ frame_needed = 0, uses_anonymous_args = 0
  32              		@ link register save eliminated.
  72:Drivers/STM32L0xx_HAL_Driver/Src/stm32l0xx_hal_pwr_ex.c ****   return  (PWR->CR & PWR_CR_VOS);
  33              		.loc 1 72 3 view .LVU1
  34              		.loc 1 72 15 is_stmt 0 view .LVU2
  35 0000 024B     		ldr	r3, .L3
  73:Drivers/STM32L0xx_HAL_Driver/Src/stm32l0xx_hal_pwr_ex.c **** }
  36              		.loc 1 73 1 view .LVU3
  37              		@ sp needed
  72:Drivers/STM32L0xx_HAL_Driver/Src/stm32l0xx_hal_pwr_ex.c ****   return  (PWR->CR & PWR_CR_VOS);
  38              		.loc 1 72 15 view .LVU4
  39 0002 1868     		ldr	r0, [r3]
  72:Drivers/STM32L0xx_HAL_Driver/Src/stm32l0xx_hal_pwr_ex.c ****   return  (PWR->CR & PWR_CR_VOS);
  40              		.loc 1 72 20 view .LVU5
ARM GAS  /tmp/ccRhWqtl.s 			page 3


  41 0004 C023     		movs	r3, #192
  42 0006 5B01     		lsls	r3, r3, #5
  43 0008 1840     		ands	r0, r3
  44              		.loc 1 73 1 view .LVU6
  45 000a 7047     		bx	lr
  46              	.L4:
  47              		.align	2
  48              	.L3:
  49 000c 00700040 		.word	1073770496
  50              		.cfi_endproc
  51              	.LFE34:
  53              		.section	.text.HAL_PWREx_EnableFastWakeUp,"ax",%progbits
  54              		.align	1
  55              		.p2align 2,,3
  56              		.global	HAL_PWREx_EnableFastWakeUp
  57              		.syntax unified
  58              		.code	16
  59              		.thumb_func
  60              		.fpu softvfp
  62              	HAL_PWREx_EnableFastWakeUp:
  63              	.LFB35:
  74:Drivers/STM32L0xx_HAL_Driver/Src/stm32l0xx_hal_pwr_ex.c **** 
  75:Drivers/STM32L0xx_HAL_Driver/Src/stm32l0xx_hal_pwr_ex.c **** 
  76:Drivers/STM32L0xx_HAL_Driver/Src/stm32l0xx_hal_pwr_ex.c **** /**
  77:Drivers/STM32L0xx_HAL_Driver/Src/stm32l0xx_hal_pwr_ex.c ****   * @brief  Enables the Fast WakeUp from Ultra Low Power mode.
  78:Drivers/STM32L0xx_HAL_Driver/Src/stm32l0xx_hal_pwr_ex.c ****   * @note This bit works in conjunction with ULP bit. 
  79:Drivers/STM32L0xx_HAL_Driver/Src/stm32l0xx_hal_pwr_ex.c ****   *        Means, when ULP = 1 and FWU = 1 :VREFINT startup time is ignored when 
  80:Drivers/STM32L0xx_HAL_Driver/Src/stm32l0xx_hal_pwr_ex.c ****   *        exiting from low power mode.
  81:Drivers/STM32L0xx_HAL_Driver/Src/stm32l0xx_hal_pwr_ex.c ****   * @retval None
  82:Drivers/STM32L0xx_HAL_Driver/Src/stm32l0xx_hal_pwr_ex.c ****   */
  83:Drivers/STM32L0xx_HAL_Driver/Src/stm32l0xx_hal_pwr_ex.c **** void HAL_PWREx_EnableFastWakeUp(void)
  84:Drivers/STM32L0xx_HAL_Driver/Src/stm32l0xx_hal_pwr_ex.c **** {
  64              		.loc 1 84 1 is_stmt 1 view -0
  65              		.cfi_startproc
  66              		@ args = 0, pretend = 0, frame = 0
  67              		@ frame_needed = 0, uses_anonymous_args = 0
  68              		@ link register save eliminated.
  85:Drivers/STM32L0xx_HAL_Driver/Src/stm32l0xx_hal_pwr_ex.c ****   /* Enable the fast wake up */
  86:Drivers/STM32L0xx_HAL_Driver/Src/stm32l0xx_hal_pwr_ex.c ****   SET_BIT(PWR->CR, PWR_CR_FWU);
  69              		.loc 1 86 3 view .LVU8
  70 0000 8023     		movs	r3, #128
  71 0002 034A     		ldr	r2, .L6
  72 0004 DB00     		lsls	r3, r3, #3
  73 0006 1168     		ldr	r1, [r2]
  87:Drivers/STM32L0xx_HAL_Driver/Src/stm32l0xx_hal_pwr_ex.c **** }
  74              		.loc 1 87 1 is_stmt 0 view .LVU9
  75              		@ sp needed
  86:Drivers/STM32L0xx_HAL_Driver/Src/stm32l0xx_hal_pwr_ex.c **** }
  76              		.loc 1 86 3 view .LVU10
  77 0008 0B43     		orrs	r3, r1
  78 000a 1360     		str	r3, [r2]
  79              		.loc 1 87 1 view .LVU11
  80 000c 7047     		bx	lr
  81              	.L7:
  82 000e C046     		.align	2
  83              	.L6:
  84 0010 00700040 		.word	1073770496
ARM GAS  /tmp/ccRhWqtl.s 			page 4


  85              		.cfi_endproc
  86              	.LFE35:
  88              		.section	.text.HAL_PWREx_DisableFastWakeUp,"ax",%progbits
  89              		.align	1
  90              		.p2align 2,,3
  91              		.global	HAL_PWREx_DisableFastWakeUp
  92              		.syntax unified
  93              		.code	16
  94              		.thumb_func
  95              		.fpu softvfp
  97              	HAL_PWREx_DisableFastWakeUp:
  98              	.LFB36:
  88:Drivers/STM32L0xx_HAL_Driver/Src/stm32l0xx_hal_pwr_ex.c **** 
  89:Drivers/STM32L0xx_HAL_Driver/Src/stm32l0xx_hal_pwr_ex.c **** /**
  90:Drivers/STM32L0xx_HAL_Driver/Src/stm32l0xx_hal_pwr_ex.c ****   * @brief  Disables the Fast WakeUp from Ultra Low Power mode.
  91:Drivers/STM32L0xx_HAL_Driver/Src/stm32l0xx_hal_pwr_ex.c ****   * @retval None
  92:Drivers/STM32L0xx_HAL_Driver/Src/stm32l0xx_hal_pwr_ex.c ****   */
  93:Drivers/STM32L0xx_HAL_Driver/Src/stm32l0xx_hal_pwr_ex.c **** void HAL_PWREx_DisableFastWakeUp(void)
  94:Drivers/STM32L0xx_HAL_Driver/Src/stm32l0xx_hal_pwr_ex.c **** {
  99              		.loc 1 94 1 is_stmt 1 view -0
 100              		.cfi_startproc
 101              		@ args = 0, pretend = 0, frame = 0
 102              		@ frame_needed = 0, uses_anonymous_args = 0
 103              		@ link register save eliminated.
  95:Drivers/STM32L0xx_HAL_Driver/Src/stm32l0xx_hal_pwr_ex.c ****   /* Disable the fast wake up */
  96:Drivers/STM32L0xx_HAL_Driver/Src/stm32l0xx_hal_pwr_ex.c ****   CLEAR_BIT(PWR->CR, PWR_CR_FWU);
 104              		.loc 1 96 3 view .LVU13
 105 0000 024A     		ldr	r2, .L9
 106 0002 0349     		ldr	r1, .L9+4
 107 0004 1368     		ldr	r3, [r2]
  97:Drivers/STM32L0xx_HAL_Driver/Src/stm32l0xx_hal_pwr_ex.c **** }
 108              		.loc 1 97 1 is_stmt 0 view .LVU14
 109              		@ sp needed
  96:Drivers/STM32L0xx_HAL_Driver/Src/stm32l0xx_hal_pwr_ex.c **** }
 110              		.loc 1 96 3 view .LVU15
 111 0006 0B40     		ands	r3, r1
 112 0008 1360     		str	r3, [r2]
 113              		.loc 1 97 1 view .LVU16
 114 000a 7047     		bx	lr
 115              	.L10:
 116              		.align	2
 117              	.L9:
 118 000c 00700040 		.word	1073770496
 119 0010 FFFBFFFF 		.word	-1025
 120              		.cfi_endproc
 121              	.LFE36:
 123              		.section	.text.HAL_PWREx_EnableUltraLowPower,"ax",%progbits
 124              		.align	1
 125              		.p2align 2,,3
 126              		.global	HAL_PWREx_EnableUltraLowPower
 127              		.syntax unified
 128              		.code	16
 129              		.thumb_func
 130              		.fpu softvfp
 132              	HAL_PWREx_EnableUltraLowPower:
 133              	.LFB37:
  98:Drivers/STM32L0xx_HAL_Driver/Src/stm32l0xx_hal_pwr_ex.c **** 
ARM GAS  /tmp/ccRhWqtl.s 			page 5


  99:Drivers/STM32L0xx_HAL_Driver/Src/stm32l0xx_hal_pwr_ex.c **** /**
 100:Drivers/STM32L0xx_HAL_Driver/Src/stm32l0xx_hal_pwr_ex.c ****   * @brief  Enables the Ultra Low Power mode
 101:Drivers/STM32L0xx_HAL_Driver/Src/stm32l0xx_hal_pwr_ex.c ****   * @retval None
 102:Drivers/STM32L0xx_HAL_Driver/Src/stm32l0xx_hal_pwr_ex.c ****   */
 103:Drivers/STM32L0xx_HAL_Driver/Src/stm32l0xx_hal_pwr_ex.c **** void HAL_PWREx_EnableUltraLowPower(void)
 104:Drivers/STM32L0xx_HAL_Driver/Src/stm32l0xx_hal_pwr_ex.c **** {
 134              		.loc 1 104 1 is_stmt 1 view -0
 135              		.cfi_startproc
 136              		@ args = 0, pretend = 0, frame = 0
 137              		@ frame_needed = 0, uses_anonymous_args = 0
 138              		@ link register save eliminated.
 105:Drivers/STM32L0xx_HAL_Driver/Src/stm32l0xx_hal_pwr_ex.c ****   /* Enable the Ultra Low Power mode */
 106:Drivers/STM32L0xx_HAL_Driver/Src/stm32l0xx_hal_pwr_ex.c ****   SET_BIT(PWR->CR, PWR_CR_ULP);
 139              		.loc 1 106 3 view .LVU18
 140 0000 8023     		movs	r3, #128
 141 0002 034A     		ldr	r2, .L12
 142 0004 9B00     		lsls	r3, r3, #2
 143 0006 1168     		ldr	r1, [r2]
 107:Drivers/STM32L0xx_HAL_Driver/Src/stm32l0xx_hal_pwr_ex.c **** }
 144              		.loc 1 107 1 is_stmt 0 view .LVU19
 145              		@ sp needed
 106:Drivers/STM32L0xx_HAL_Driver/Src/stm32l0xx_hal_pwr_ex.c **** }
 146              		.loc 1 106 3 view .LVU20
 147 0008 0B43     		orrs	r3, r1
 148 000a 1360     		str	r3, [r2]
 149              		.loc 1 107 1 view .LVU21
 150 000c 7047     		bx	lr
 151              	.L13:
 152 000e C046     		.align	2
 153              	.L12:
 154 0010 00700040 		.word	1073770496
 155              		.cfi_endproc
 156              	.LFE37:
 158              		.section	.text.HAL_PWREx_DisableUltraLowPower,"ax",%progbits
 159              		.align	1
 160              		.p2align 2,,3
 161              		.global	HAL_PWREx_DisableUltraLowPower
 162              		.syntax unified
 163              		.code	16
 164              		.thumb_func
 165              		.fpu softvfp
 167              	HAL_PWREx_DisableUltraLowPower:
 168              	.LFB38:
 108:Drivers/STM32L0xx_HAL_Driver/Src/stm32l0xx_hal_pwr_ex.c **** 
 109:Drivers/STM32L0xx_HAL_Driver/Src/stm32l0xx_hal_pwr_ex.c **** /**
 110:Drivers/STM32L0xx_HAL_Driver/Src/stm32l0xx_hal_pwr_ex.c ****   * @brief  Disables the Ultra Low Power mode
 111:Drivers/STM32L0xx_HAL_Driver/Src/stm32l0xx_hal_pwr_ex.c ****   * @retval None
 112:Drivers/STM32L0xx_HAL_Driver/Src/stm32l0xx_hal_pwr_ex.c ****   */
 113:Drivers/STM32L0xx_HAL_Driver/Src/stm32l0xx_hal_pwr_ex.c **** void HAL_PWREx_DisableUltraLowPower(void)
 114:Drivers/STM32L0xx_HAL_Driver/Src/stm32l0xx_hal_pwr_ex.c **** {
 169              		.loc 1 114 1 is_stmt 1 view -0
 170              		.cfi_startproc
 171              		@ args = 0, pretend = 0, frame = 0
 172              		@ frame_needed = 0, uses_anonymous_args = 0
 173              		@ link register save eliminated.
 115:Drivers/STM32L0xx_HAL_Driver/Src/stm32l0xx_hal_pwr_ex.c ****   /* Disable the Ultra Low Power mode */
 116:Drivers/STM32L0xx_HAL_Driver/Src/stm32l0xx_hal_pwr_ex.c ****   CLEAR_BIT(PWR->CR, PWR_CR_ULP);
ARM GAS  /tmp/ccRhWqtl.s 			page 6


 174              		.loc 1 116 3 view .LVU23
 175 0000 024A     		ldr	r2, .L15
 176 0002 0349     		ldr	r1, .L15+4
 177 0004 1368     		ldr	r3, [r2]
 117:Drivers/STM32L0xx_HAL_Driver/Src/stm32l0xx_hal_pwr_ex.c **** }
 178              		.loc 1 117 1 is_stmt 0 view .LVU24
 179              		@ sp needed
 116:Drivers/STM32L0xx_HAL_Driver/Src/stm32l0xx_hal_pwr_ex.c **** }
 180              		.loc 1 116 3 view .LVU25
 181 0006 0B40     		ands	r3, r1
 182 0008 1360     		str	r3, [r2]
 183              		.loc 1 117 1 view .LVU26
 184 000a 7047     		bx	lr
 185              	.L16:
 186              		.align	2
 187              	.L15:
 188 000c 00700040 		.word	1073770496
 189 0010 FFFDFFFF 		.word	-513
 190              		.cfi_endproc
 191              	.LFE38:
 193              		.section	.text.HAL_PWREx_EnableLowPowerRunMode,"ax",%progbits
 194              		.align	1
 195              		.p2align 2,,3
 196              		.global	HAL_PWREx_EnableLowPowerRunMode
 197              		.syntax unified
 198              		.code	16
 199              		.thumb_func
 200              		.fpu softvfp
 202              	HAL_PWREx_EnableLowPowerRunMode:
 203              	.LFB39:
 118:Drivers/STM32L0xx_HAL_Driver/Src/stm32l0xx_hal_pwr_ex.c **** 
 119:Drivers/STM32L0xx_HAL_Driver/Src/stm32l0xx_hal_pwr_ex.c **** /**
 120:Drivers/STM32L0xx_HAL_Driver/Src/stm32l0xx_hal_pwr_ex.c ****   * @brief  Enable the Low Power Run mode.
 121:Drivers/STM32L0xx_HAL_Driver/Src/stm32l0xx_hal_pwr_ex.c ****   * @note   Low power run mode can only be entered when VCORE is in range 2.
 122:Drivers/STM32L0xx_HAL_Driver/Src/stm32l0xx_hal_pwr_ex.c ****   *         In addition, the dynamic voltage scaling must not be used when Low
 123:Drivers/STM32L0xx_HAL_Driver/Src/stm32l0xx_hal_pwr_ex.c ****   *         power run mode is selected. Only Stop and Sleep modes with regulator
 124:Drivers/STM32L0xx_HAL_Driver/Src/stm32l0xx_hal_pwr_ex.c ****   *         configured in Low power mode is allowed when Low power run mode is 
 125:Drivers/STM32L0xx_HAL_Driver/Src/stm32l0xx_hal_pwr_ex.c ****   *         selected.
 126:Drivers/STM32L0xx_HAL_Driver/Src/stm32l0xx_hal_pwr_ex.c ****   * @note   The frequency of the system clock must be decreased to not exceed the
 127:Drivers/STM32L0xx_HAL_Driver/Src/stm32l0xx_hal_pwr_ex.c ****   *         frequency of RCC_MSIRANGE_1.
 128:Drivers/STM32L0xx_HAL_Driver/Src/stm32l0xx_hal_pwr_ex.c ****   * @note   In Low power run mode, all I/O pins keep the same state as in Run mode.
 129:Drivers/STM32L0xx_HAL_Driver/Src/stm32l0xx_hal_pwr_ex.c ****   * @retval None
 130:Drivers/STM32L0xx_HAL_Driver/Src/stm32l0xx_hal_pwr_ex.c ****   */
 131:Drivers/STM32L0xx_HAL_Driver/Src/stm32l0xx_hal_pwr_ex.c **** void HAL_PWREx_EnableLowPowerRunMode(void)
 132:Drivers/STM32L0xx_HAL_Driver/Src/stm32l0xx_hal_pwr_ex.c **** {
 204              		.loc 1 132 1 is_stmt 1 view -0
 205              		.cfi_startproc
 206              		@ args = 0, pretend = 0, frame = 0
 207              		@ frame_needed = 0, uses_anonymous_args = 0
 208              		@ link register save eliminated.
 133:Drivers/STM32L0xx_HAL_Driver/Src/stm32l0xx_hal_pwr_ex.c ****   /* Enters the Low Power Run mode */
 134:Drivers/STM32L0xx_HAL_Driver/Src/stm32l0xx_hal_pwr_ex.c ****   SET_BIT(PWR->CR, PWR_CR_LPSDSR);
 209              		.loc 1 134 3 view .LVU28
 210 0000 0121     		movs	r1, #1
 211 0002 054B     		ldr	r3, .L18
 135:Drivers/STM32L0xx_HAL_Driver/Src/stm32l0xx_hal_pwr_ex.c ****   SET_BIT(PWR->CR, PWR_CR_LPRUN);
 136:Drivers/STM32L0xx_HAL_Driver/Src/stm32l0xx_hal_pwr_ex.c **** }
ARM GAS  /tmp/ccRhWqtl.s 			page 7


 212              		.loc 1 136 1 is_stmt 0 view .LVU29
 213              		@ sp needed
 134:Drivers/STM32L0xx_HAL_Driver/Src/stm32l0xx_hal_pwr_ex.c ****   SET_BIT(PWR->CR, PWR_CR_LPRUN);
 214              		.loc 1 134 3 view .LVU30
 215 0004 1A68     		ldr	r2, [r3]
 216 0006 0A43     		orrs	r2, r1
 217 0008 1A60     		str	r2, [r3]
 135:Drivers/STM32L0xx_HAL_Driver/Src/stm32l0xx_hal_pwr_ex.c ****   SET_BIT(PWR->CR, PWR_CR_LPRUN);
 218              		.loc 1 135 3 is_stmt 1 view .LVU31
 219 000a 8022     		movs	r2, #128
 220 000c 1968     		ldr	r1, [r3]
 221 000e D201     		lsls	r2, r2, #7
 222 0010 0A43     		orrs	r2, r1
 223 0012 1A60     		str	r2, [r3]
 224              		.loc 1 136 1 is_stmt 0 view .LVU32
 225 0014 7047     		bx	lr
 226              	.L19:
 227 0016 C046     		.align	2
 228              	.L18:
 229 0018 00700040 		.word	1073770496
 230              		.cfi_endproc
 231              	.LFE39:
 233              		.global	__aeabi_uidiv
 234              		.section	.text.HAL_PWREx_DisableLowPowerRunMode,"ax",%progbits
 235              		.align	1
 236              		.p2align 2,,3
 237              		.global	HAL_PWREx_DisableLowPowerRunMode
 238              		.syntax unified
 239              		.code	16
 240              		.thumb_func
 241              		.fpu softvfp
 243              	HAL_PWREx_DisableLowPowerRunMode:
 244              	.LFB40:
 137:Drivers/STM32L0xx_HAL_Driver/Src/stm32l0xx_hal_pwr_ex.c **** 
 138:Drivers/STM32L0xx_HAL_Driver/Src/stm32l0xx_hal_pwr_ex.c **** /**
 139:Drivers/STM32L0xx_HAL_Driver/Src/stm32l0xx_hal_pwr_ex.c ****   * @brief  Disable the Low Power Run mode.
 140:Drivers/STM32L0xx_HAL_Driver/Src/stm32l0xx_hal_pwr_ex.c ****   * @note  Before HAL_PWREx_DisableLowPowerRunMode() completion, the function checks that 
 141:Drivers/STM32L0xx_HAL_Driver/Src/stm32l0xx_hal_pwr_ex.c ****   *        REGLPF has been properly reset (otherwise, HAL_PWREx_DisableLowPowerRunMode 
 142:Drivers/STM32L0xx_HAL_Driver/Src/stm32l0xx_hal_pwr_ex.c ****   *        returns HAL_TIMEOUT status). The system clock frequency can then be
 143:Drivers/STM32L0xx_HAL_Driver/Src/stm32l0xx_hal_pwr_ex.c ****   *        increased above 2 MHz.   
 144:Drivers/STM32L0xx_HAL_Driver/Src/stm32l0xx_hal_pwr_ex.c ****   * @retval HAL_StatusTypeDef
 145:Drivers/STM32L0xx_HAL_Driver/Src/stm32l0xx_hal_pwr_ex.c ****   */
 146:Drivers/STM32L0xx_HAL_Driver/Src/stm32l0xx_hal_pwr_ex.c **** HAL_StatusTypeDef HAL_PWREx_DisableLowPowerRunMode(void)
 147:Drivers/STM32L0xx_HAL_Driver/Src/stm32l0xx_hal_pwr_ex.c **** {
 245              		.loc 1 147 1 is_stmt 1 view -0
 246              		.cfi_startproc
 247              		@ args = 0, pretend = 0, frame = 0
 248              		@ frame_needed = 0, uses_anonymous_args = 0
 148:Drivers/STM32L0xx_HAL_Driver/Src/stm32l0xx_hal_pwr_ex.c ****   uint32_t wait_loop_index = 0U;
 249              		.loc 1 148 3 view .LVU34
 250              	.LVL0:
 149:Drivers/STM32L0xx_HAL_Driver/Src/stm32l0xx_hal_pwr_ex.c ****   
 150:Drivers/STM32L0xx_HAL_Driver/Src/stm32l0xx_hal_pwr_ex.c ****   /* Exit the Low Power Run mode */
 151:Drivers/STM32L0xx_HAL_Driver/Src/stm32l0xx_hal_pwr_ex.c ****   CLEAR_BIT(PWR->CR, PWR_CR_LPRUN);
 251              		.loc 1 151 3 view .LVU35
 147:Drivers/STM32L0xx_HAL_Driver/Src/stm32l0xx_hal_pwr_ex.c ****   uint32_t wait_loop_index = 0U;
 252              		.loc 1 147 1 is_stmt 0 view .LVU36
ARM GAS  /tmp/ccRhWqtl.s 			page 8


 253 0000 10B5     		push	{r4, lr}
 254              	.LCFI0:
 255              		.cfi_def_cfa_offset 8
 256              		.cfi_offset 4, -8
 257              		.cfi_offset 14, -4
 258              		.loc 1 151 3 view .LVU37
 259 0002 124C     		ldr	r4, .L30
 260 0004 124A     		ldr	r2, .L30+4
 261 0006 2368     		ldr	r3, [r4]
 152:Drivers/STM32L0xx_HAL_Driver/Src/stm32l0xx_hal_pwr_ex.c ****   CLEAR_BIT(PWR->CR, PWR_CR_LPSDSR);
 153:Drivers/STM32L0xx_HAL_Driver/Src/stm32l0xx_hal_pwr_ex.c ****   
 154:Drivers/STM32L0xx_HAL_Driver/Src/stm32l0xx_hal_pwr_ex.c ****   /* Wait until REGLPF is reset */
 155:Drivers/STM32L0xx_HAL_Driver/Src/stm32l0xx_hal_pwr_ex.c ****   wait_loop_index = (PWR_FLAG_SETTING_DELAY_US * (SystemCoreClock / 1000000U));
 262              		.loc 1 155 67 view .LVU38
 263 0008 1249     		ldr	r1, .L30+8
 151:Drivers/STM32L0xx_HAL_Driver/Src/stm32l0xx_hal_pwr_ex.c ****   CLEAR_BIT(PWR->CR, PWR_CR_LPSDSR);
 264              		.loc 1 151 3 view .LVU39
 265 000a 1340     		ands	r3, r2
 152:Drivers/STM32L0xx_HAL_Driver/Src/stm32l0xx_hal_pwr_ex.c ****   CLEAR_BIT(PWR->CR, PWR_CR_LPSDSR);
 266              		.loc 1 152 3 view .LVU40
 267 000c 0122     		movs	r2, #1
 151:Drivers/STM32L0xx_HAL_Driver/Src/stm32l0xx_hal_pwr_ex.c ****   CLEAR_BIT(PWR->CR, PWR_CR_LPSDSR);
 268              		.loc 1 151 3 view .LVU41
 269 000e 2360     		str	r3, [r4]
 152:Drivers/STM32L0xx_HAL_Driver/Src/stm32l0xx_hal_pwr_ex.c ****   CLEAR_BIT(PWR->CR, PWR_CR_LPSDSR);
 270              		.loc 1 152 3 is_stmt 1 view .LVU42
 271 0010 2368     		ldr	r3, [r4]
 272 0012 9343     		bics	r3, r2
 273 0014 2360     		str	r3, [r4]
 274              		.loc 1 155 3 view .LVU43
 275              		.loc 1 155 67 is_stmt 0 view .LVU44
 276 0016 104B     		ldr	r3, .L30+12
 277 0018 1868     		ldr	r0, [r3]
 278 001a FFF7FEFF 		bl	__aeabi_uidiv
 279              	.LVL1:
 280              		.loc 1 155 19 view .LVU45
 281 001e 3223     		movs	r3, #50
 282 0020 5843     		muls	r0, r3
 283              	.LVL2:
 156:Drivers/STM32L0xx_HAL_Driver/Src/stm32l0xx_hal_pwr_ex.c **** 
 157:Drivers/STM32L0xx_HAL_Driver/Src/stm32l0xx_hal_pwr_ex.c ****   while ((wait_loop_index != 0U) && (HAL_IS_BIT_SET(PWR->CSR, PWR_CSR_REGLPF)))
 284              		.loc 1 157 3 is_stmt 1 view .LVU46
 285              		.loc 1 157 9 view .LVU47
 286              		.loc 1 157 38 is_stmt 0 view .LVU48
 287 0022 2021     		movs	r1, #32
 288              		.loc 1 157 9 view .LVU49
 289 0024 0028     		cmp	r0, #0
 290 0026 03D1     		bne	.L21
 291 0028 05E0     		b	.L22
 292              	.L23:
 158:Drivers/STM32L0xx_HAL_Driver/Src/stm32l0xx_hal_pwr_ex.c ****   {
 159:Drivers/STM32L0xx_HAL_Driver/Src/stm32l0xx_hal_pwr_ex.c ****     wait_loop_index--;
 293              		.loc 1 159 5 is_stmt 1 view .LVU50
 294              		.loc 1 159 20 is_stmt 0 view .LVU51
 295 002a 0138     		subs	r0, r0, #1
 296              	.LVL3:
 157:Drivers/STM32L0xx_HAL_Driver/Src/stm32l0xx_hal_pwr_ex.c ****   {
ARM GAS  /tmp/ccRhWqtl.s 			page 9


 297              		.loc 1 157 9 is_stmt 1 view .LVU52
 298 002c 0028     		cmp	r0, #0
 299 002e 02D0     		beq	.L22
 300              	.L21:
 157:Drivers/STM32L0xx_HAL_Driver/Src/stm32l0xx_hal_pwr_ex.c ****   {
 301              		.loc 1 157 38 is_stmt 0 discriminator 1 view .LVU53
 302 0030 6368     		ldr	r3, [r4, #4]
 157:Drivers/STM32L0xx_HAL_Driver/Src/stm32l0xx_hal_pwr_ex.c ****   {
 303              		.loc 1 157 34 discriminator 1 view .LVU54
 304 0032 1942     		tst	r1, r3
 305 0034 F9D1     		bne	.L23
 306              	.L22:
 160:Drivers/STM32L0xx_HAL_Driver/Src/stm32l0xx_hal_pwr_ex.c ****   }
 161:Drivers/STM32L0xx_HAL_Driver/Src/stm32l0xx_hal_pwr_ex.c **** 
 162:Drivers/STM32L0xx_HAL_Driver/Src/stm32l0xx_hal_pwr_ex.c ****   if (HAL_IS_BIT_SET(PWR->CSR, PWR_CSR_REGLPF))
 307              		.loc 1 162 3 is_stmt 1 view .LVU55
 308              		.loc 1 162 7 is_stmt 0 view .LVU56
 309 0036 2020     		movs	r0, #32
 310              	.LVL4:
 311              		.loc 1 162 7 view .LVU57
 312 0038 044B     		ldr	r3, .L30
 163:Drivers/STM32L0xx_HAL_Driver/Src/stm32l0xx_hal_pwr_ex.c ****   {
 164:Drivers/STM32L0xx_HAL_Driver/Src/stm32l0xx_hal_pwr_ex.c ****     return HAL_TIMEOUT;
 165:Drivers/STM32L0xx_HAL_Driver/Src/stm32l0xx_hal_pwr_ex.c ****   }
 166:Drivers/STM32L0xx_HAL_Driver/Src/stm32l0xx_hal_pwr_ex.c **** 
 167:Drivers/STM32L0xx_HAL_Driver/Src/stm32l0xx_hal_pwr_ex.c ****   return HAL_OK;
 168:Drivers/STM32L0xx_HAL_Driver/Src/stm32l0xx_hal_pwr_ex.c **** }
 313              		.loc 1 168 1 view .LVU58
 314              		@ sp needed
 162:Drivers/STM32L0xx_HAL_Driver/Src/stm32l0xx_hal_pwr_ex.c ****   {
 315              		.loc 1 162 7 view .LVU59
 316 003a 5B68     		ldr	r3, [r3, #4]
 317 003c 1840     		ands	r0, r3
 164:Drivers/STM32L0xx_HAL_Driver/Src/stm32l0xx_hal_pwr_ex.c ****   }
 318              		.loc 1 164 12 view .LVU60
 319 003e 4342     		rsbs	r3, r0, #0
 320 0040 5841     		adcs	r0, r0, r3
 321 0042 0223     		movs	r3, #2
 322 0044 4042     		rsbs	r0, r0, #0
 323 0046 9843     		bics	r0, r3
 324 0048 0330     		adds	r0, r0, #3
 325              		.loc 1 168 1 view .LVU61
 326 004a 10BD     		pop	{r4, pc}
 327              	.L31:
 328              		.align	2
 329              	.L30:
 330 004c 00700040 		.word	1073770496
 331 0050 FFBFFFFF 		.word	-16385
 332 0054 40420F00 		.word	1000000
 333 0058 00000000 		.word	SystemCoreClock
 334              		.cfi_endproc
 335              	.LFE40:
 337              		.text
 338              	.Letext0:
 339              		.file 2 "/usr/lib/gcc/arm-none-eabi/9.2.1/include/stdint.h"
 340              		.file 3 "Drivers/CMSIS/Device/ST/STM32L0xx/Include/system_stm32l0xx.h"
 341              		.file 4 "Drivers/CMSIS/Device/ST/STM32L0xx/Include/stm32l031xx.h"
ARM GAS  /tmp/ccRhWqtl.s 			page 10


 342              		.file 5 "Drivers/STM32L0xx_HAL_Driver/Inc/stm32l0xx_hal_def.h"
 343              		.file 6 "Drivers/STM32L0xx_HAL_Driver/Inc/stm32l0xx_hal.h"
ARM GAS  /tmp/ccRhWqtl.s 			page 11

