ARM GAS  /tmp/ccLymQqc.s 			page 1


   1              		.cpu cortex-m0plus
   2              		.eabi_attribute 20, 1
   3              		.eabi_attribute 21, 1
   4              		.eabi_attribute 23, 3
   5              		.eabi_attribute 24, 1
   6              		.eabi_attribute 25, 1
   7              		.eabi_attribute 26, 1
   8              		.eabi_attribute 30, 2
   9              		.eabi_attribute 34, 0
  10              		.eabi_attribute 18, 4
  11              		.file	"stm32l0xx_hal_flash_ex.c"
  12              		.text
  13              	.Ltext0:
  14              		.cfi_sections	.debug_frame
  15              		.section	.text.FLASH_OB_ProtectedSectorsConfig,"ax",%progbits
  16              		.align	1
  17              		.p2align 2,,3
  18              		.arch armv6s-m
  19              		.syntax unified
  20              		.code	16
  21              		.thumb_func
  22              		.fpu softvfp
  24              	FLASH_OB_ProtectedSectorsConfig:
  25              	.LVL0:
  26              	.LFB56:
  27              		.file 1 "Drivers/STM32L0xx_HAL_Driver/Src/stm32l0xx_hal_flash_ex.c"
   1:Drivers/STM32L0xx_HAL_Driver/Src/stm32l0xx_hal_flash_ex.c **** /**
   2:Drivers/STM32L0xx_HAL_Driver/Src/stm32l0xx_hal_flash_ex.c ****   ******************************************************************************
   3:Drivers/STM32L0xx_HAL_Driver/Src/stm32l0xx_hal_flash_ex.c ****   * @file    stm32l0xx_hal_flash_ex.c
   4:Drivers/STM32L0xx_HAL_Driver/Src/stm32l0xx_hal_flash_ex.c ****   * @author  MCD Application Team
   5:Drivers/STM32L0xx_HAL_Driver/Src/stm32l0xx_hal_flash_ex.c ****   * @brief   Extended FLASH HAL module driver.
   6:Drivers/STM32L0xx_HAL_Driver/Src/stm32l0xx_hal_flash_ex.c ****   *    
   7:Drivers/STM32L0xx_HAL_Driver/Src/stm32l0xx_hal_flash_ex.c ****   *          This file provides firmware functions to manage the following 
   8:Drivers/STM32L0xx_HAL_Driver/Src/stm32l0xx_hal_flash_ex.c ****   *          functionalities of the internal FLASH memory:
   9:Drivers/STM32L0xx_HAL_Driver/Src/stm32l0xx_hal_flash_ex.c ****   *            + FLASH Interface configuration
  10:Drivers/STM32L0xx_HAL_Driver/Src/stm32l0xx_hal_flash_ex.c ****   *            + FLASH Memory Erasing
  11:Drivers/STM32L0xx_HAL_Driver/Src/stm32l0xx_hal_flash_ex.c ****   *            + DATA EEPROM Programming/Erasing
  12:Drivers/STM32L0xx_HAL_Driver/Src/stm32l0xx_hal_flash_ex.c ****   *            + Option Bytes Programming
  13:Drivers/STM32L0xx_HAL_Driver/Src/stm32l0xx_hal_flash_ex.c ****   *            + Interrupts management
  14:Drivers/STM32L0xx_HAL_Driver/Src/stm32l0xx_hal_flash_ex.c ****   *    
  15:Drivers/STM32L0xx_HAL_Driver/Src/stm32l0xx_hal_flash_ex.c ****   @verbatim
  16:Drivers/STM32L0xx_HAL_Driver/Src/stm32l0xx_hal_flash_ex.c ****   ==============================================================================
  17:Drivers/STM32L0xx_HAL_Driver/Src/stm32l0xx_hal_flash_ex.c ****                ##### Flash peripheral Extended features  #####
  18:Drivers/STM32L0xx_HAL_Driver/Src/stm32l0xx_hal_flash_ex.c ****   ==============================================================================
  19:Drivers/STM32L0xx_HAL_Driver/Src/stm32l0xx_hal_flash_ex.c ****            
  20:Drivers/STM32L0xx_HAL_Driver/Src/stm32l0xx_hal_flash_ex.c ****   [..] Comparing to other products, the FLASH interface for STM32L0xx
  21:Drivers/STM32L0xx_HAL_Driver/Src/stm32l0xx_hal_flash_ex.c ****        devices contains the following additional features        
  22:Drivers/STM32L0xx_HAL_Driver/Src/stm32l0xx_hal_flash_ex.c ****        (+) Erase functions
  23:Drivers/STM32L0xx_HAL_Driver/Src/stm32l0xx_hal_flash_ex.c ****        (+) DATA_EEPROM memory management
  24:Drivers/STM32L0xx_HAL_Driver/Src/stm32l0xx_hal_flash_ex.c ****        (+) BOOT option bit configuration       
  25:Drivers/STM32L0xx_HAL_Driver/Src/stm32l0xx_hal_flash_ex.c ****        (+) PCROP protection for all sectors
  26:Drivers/STM32L0xx_HAL_Driver/Src/stm32l0xx_hal_flash_ex.c ****    
  27:Drivers/STM32L0xx_HAL_Driver/Src/stm32l0xx_hal_flash_ex.c ****                       ##### How to use this driver #####
  28:Drivers/STM32L0xx_HAL_Driver/Src/stm32l0xx_hal_flash_ex.c ****   ==============================================================================
  29:Drivers/STM32L0xx_HAL_Driver/Src/stm32l0xx_hal_flash_ex.c ****   [..] This driver provides functions to configure and program the FLASH memory 
  30:Drivers/STM32L0xx_HAL_Driver/Src/stm32l0xx_hal_flash_ex.c ****        of all STM32L0xx. It includes:
  31:Drivers/STM32L0xx_HAL_Driver/Src/stm32l0xx_hal_flash_ex.c ****        (+) Full DATA_EEPROM erase and program management
ARM GAS  /tmp/ccLymQqc.s 			page 2


  32:Drivers/STM32L0xx_HAL_Driver/Src/stm32l0xx_hal_flash_ex.c ****        (+) Boot activation
  33:Drivers/STM32L0xx_HAL_Driver/Src/stm32l0xx_hal_flash_ex.c ****        (+) PCROP protection configuration and control for all pages
  34:Drivers/STM32L0xx_HAL_Driver/Src/stm32l0xx_hal_flash_ex.c ****   
  35:Drivers/STM32L0xx_HAL_Driver/Src/stm32l0xx_hal_flash_ex.c ****   @endverbatim
  36:Drivers/STM32L0xx_HAL_Driver/Src/stm32l0xx_hal_flash_ex.c ****   ******************************************************************************
  37:Drivers/STM32L0xx_HAL_Driver/Src/stm32l0xx_hal_flash_ex.c ****   * @attention
  38:Drivers/STM32L0xx_HAL_Driver/Src/stm32l0xx_hal_flash_ex.c ****   *
  39:Drivers/STM32L0xx_HAL_Driver/Src/stm32l0xx_hal_flash_ex.c ****   * <h2><center>&copy; Copyright (c) 2016 STMicroelectronics. 
  40:Drivers/STM32L0xx_HAL_Driver/Src/stm32l0xx_hal_flash_ex.c ****   * All rights reserved.</center></h2>
  41:Drivers/STM32L0xx_HAL_Driver/Src/stm32l0xx_hal_flash_ex.c ****   *
  42:Drivers/STM32L0xx_HAL_Driver/Src/stm32l0xx_hal_flash_ex.c ****   * This software component is licensed by ST under BSD 3-Clause license,
  43:Drivers/STM32L0xx_HAL_Driver/Src/stm32l0xx_hal_flash_ex.c ****   * the "License"; You may not use this file except in compliance with the 
  44:Drivers/STM32L0xx_HAL_Driver/Src/stm32l0xx_hal_flash_ex.c ****   * License. You may obtain a copy of the License at:
  45:Drivers/STM32L0xx_HAL_Driver/Src/stm32l0xx_hal_flash_ex.c ****   *                        opensource.org/licenses/BSD-3-Clause
  46:Drivers/STM32L0xx_HAL_Driver/Src/stm32l0xx_hal_flash_ex.c ****   *
  47:Drivers/STM32L0xx_HAL_Driver/Src/stm32l0xx_hal_flash_ex.c ****   ******************************************************************************  
  48:Drivers/STM32L0xx_HAL_Driver/Src/stm32l0xx_hal_flash_ex.c ****   */ 
  49:Drivers/STM32L0xx_HAL_Driver/Src/stm32l0xx_hal_flash_ex.c **** 
  50:Drivers/STM32L0xx_HAL_Driver/Src/stm32l0xx_hal_flash_ex.c **** /* Includes ------------------------------------------------------------------*/
  51:Drivers/STM32L0xx_HAL_Driver/Src/stm32l0xx_hal_flash_ex.c **** #include "stm32l0xx_hal.h"
  52:Drivers/STM32L0xx_HAL_Driver/Src/stm32l0xx_hal_flash_ex.c **** 
  53:Drivers/STM32L0xx_HAL_Driver/Src/stm32l0xx_hal_flash_ex.c **** /** @addtogroup STM32L0xx_HAL_Driver
  54:Drivers/STM32L0xx_HAL_Driver/Src/stm32l0xx_hal_flash_ex.c ****   * @{
  55:Drivers/STM32L0xx_HAL_Driver/Src/stm32l0xx_hal_flash_ex.c ****   */
  56:Drivers/STM32L0xx_HAL_Driver/Src/stm32l0xx_hal_flash_ex.c **** #ifdef HAL_FLASH_MODULE_ENABLED
  57:Drivers/STM32L0xx_HAL_Driver/Src/stm32l0xx_hal_flash_ex.c **** 
  58:Drivers/STM32L0xx_HAL_Driver/Src/stm32l0xx_hal_flash_ex.c **** /** @addtogroup FLASH
  59:Drivers/STM32L0xx_HAL_Driver/Src/stm32l0xx_hal_flash_ex.c ****   * @{
  60:Drivers/STM32L0xx_HAL_Driver/Src/stm32l0xx_hal_flash_ex.c ****   */
  61:Drivers/STM32L0xx_HAL_Driver/Src/stm32l0xx_hal_flash_ex.c **** /** @addtogroup FLASH_Private_Variables
  62:Drivers/STM32L0xx_HAL_Driver/Src/stm32l0xx_hal_flash_ex.c ****  * @{
  63:Drivers/STM32L0xx_HAL_Driver/Src/stm32l0xx_hal_flash_ex.c ****  */
  64:Drivers/STM32L0xx_HAL_Driver/Src/stm32l0xx_hal_flash_ex.c **** /* Variables used for Erase pages under interruption*/
  65:Drivers/STM32L0xx_HAL_Driver/Src/stm32l0xx_hal_flash_ex.c **** extern FLASH_ProcessTypeDef pFlash;
  66:Drivers/STM32L0xx_HAL_Driver/Src/stm32l0xx_hal_flash_ex.c **** /**
  67:Drivers/STM32L0xx_HAL_Driver/Src/stm32l0xx_hal_flash_ex.c ****   * @}
  68:Drivers/STM32L0xx_HAL_Driver/Src/stm32l0xx_hal_flash_ex.c ****   */
  69:Drivers/STM32L0xx_HAL_Driver/Src/stm32l0xx_hal_flash_ex.c **** 
  70:Drivers/STM32L0xx_HAL_Driver/Src/stm32l0xx_hal_flash_ex.c **** /**
  71:Drivers/STM32L0xx_HAL_Driver/Src/stm32l0xx_hal_flash_ex.c ****   * @}
  72:Drivers/STM32L0xx_HAL_Driver/Src/stm32l0xx_hal_flash_ex.c ****   */
  73:Drivers/STM32L0xx_HAL_Driver/Src/stm32l0xx_hal_flash_ex.c ****   
  74:Drivers/STM32L0xx_HAL_Driver/Src/stm32l0xx_hal_flash_ex.c **** /** @defgroup FLASHEx FLASHEx
  75:Drivers/STM32L0xx_HAL_Driver/Src/stm32l0xx_hal_flash_ex.c ****   * @brief FLASH HAL Extension module driver
  76:Drivers/STM32L0xx_HAL_Driver/Src/stm32l0xx_hal_flash_ex.c ****   * @{
  77:Drivers/STM32L0xx_HAL_Driver/Src/stm32l0xx_hal_flash_ex.c ****   */
  78:Drivers/STM32L0xx_HAL_Driver/Src/stm32l0xx_hal_flash_ex.c **** 
  79:Drivers/STM32L0xx_HAL_Driver/Src/stm32l0xx_hal_flash_ex.c **** /* Private typedef -----------------------------------------------------------*/
  80:Drivers/STM32L0xx_HAL_Driver/Src/stm32l0xx_hal_flash_ex.c **** /* Private define ------------------------------------------------------------*/
  81:Drivers/STM32L0xx_HAL_Driver/Src/stm32l0xx_hal_flash_ex.c **** /** @defgroup FLASHEx_Private_Constants FLASHEx Private Constants
  82:Drivers/STM32L0xx_HAL_Driver/Src/stm32l0xx_hal_flash_ex.c ****  * @{
  83:Drivers/STM32L0xx_HAL_Driver/Src/stm32l0xx_hal_flash_ex.c ****  */
  84:Drivers/STM32L0xx_HAL_Driver/Src/stm32l0xx_hal_flash_ex.c **** /**
  85:Drivers/STM32L0xx_HAL_Driver/Src/stm32l0xx_hal_flash_ex.c ****   * @}
  86:Drivers/STM32L0xx_HAL_Driver/Src/stm32l0xx_hal_flash_ex.c ****   */
  87:Drivers/STM32L0xx_HAL_Driver/Src/stm32l0xx_hal_flash_ex.c **** 
  88:Drivers/STM32L0xx_HAL_Driver/Src/stm32l0xx_hal_flash_ex.c **** /* Private macro -------------------------------------------------------------*/
ARM GAS  /tmp/ccLymQqc.s 			page 3


  89:Drivers/STM32L0xx_HAL_Driver/Src/stm32l0xx_hal_flash_ex.c **** /** @defgroup FLASHEx_Private_Macros FLASHEx Private Macros
  90:Drivers/STM32L0xx_HAL_Driver/Src/stm32l0xx_hal_flash_ex.c ****   * @{
  91:Drivers/STM32L0xx_HAL_Driver/Src/stm32l0xx_hal_flash_ex.c ****   */
  92:Drivers/STM32L0xx_HAL_Driver/Src/stm32l0xx_hal_flash_ex.c **** /**
  93:Drivers/STM32L0xx_HAL_Driver/Src/stm32l0xx_hal_flash_ex.c ****   * @}
  94:Drivers/STM32L0xx_HAL_Driver/Src/stm32l0xx_hal_flash_ex.c ****   */ 
  95:Drivers/STM32L0xx_HAL_Driver/Src/stm32l0xx_hal_flash_ex.c **** 
  96:Drivers/STM32L0xx_HAL_Driver/Src/stm32l0xx_hal_flash_ex.c **** /* Private variables ---------------------------------------------------------*/
  97:Drivers/STM32L0xx_HAL_Driver/Src/stm32l0xx_hal_flash_ex.c **** /* Private function prototypes -----------------------------------------------*/
  98:Drivers/STM32L0xx_HAL_Driver/Src/stm32l0xx_hal_flash_ex.c **** /** @defgroup FLASHEx_Private_Functions FLASHEx Private Functions
  99:Drivers/STM32L0xx_HAL_Driver/Src/stm32l0xx_hal_flash_ex.c ****  * @{
 100:Drivers/STM32L0xx_HAL_Driver/Src/stm32l0xx_hal_flash_ex.c ****  */
 101:Drivers/STM32L0xx_HAL_Driver/Src/stm32l0xx_hal_flash_ex.c **** void                      FLASH_PageErase(uint32_t PageAddress);
 102:Drivers/STM32L0xx_HAL_Driver/Src/stm32l0xx_hal_flash_ex.c **** #if defined(FLASH_OPTR_BFB2)
 103:Drivers/STM32L0xx_HAL_Driver/Src/stm32l0xx_hal_flash_ex.c **** static HAL_StatusTypeDef  FLASH_OB_BootConfig(uint8_t OB_BOOT);
 104:Drivers/STM32L0xx_HAL_Driver/Src/stm32l0xx_hal_flash_ex.c **** #endif /* FLASH_OPTR_BFB2 */
 105:Drivers/STM32L0xx_HAL_Driver/Src/stm32l0xx_hal_flash_ex.c **** static HAL_StatusTypeDef  FLASH_OB_RDPConfig(uint8_t OB_RDP);
 106:Drivers/STM32L0xx_HAL_Driver/Src/stm32l0xx_hal_flash_ex.c **** static HAL_StatusTypeDef  FLASH_OB_UserConfig(uint8_t OB_IWDG, uint8_t OB_STOP, uint8_t OB_STDBY);
 107:Drivers/STM32L0xx_HAL_Driver/Src/stm32l0xx_hal_flash_ex.c **** static HAL_StatusTypeDef  FLASH_OB_BORConfig(uint8_t OB_BOR);
 108:Drivers/STM32L0xx_HAL_Driver/Src/stm32l0xx_hal_flash_ex.c **** static uint8_t            FLASH_OB_GetRDP(void);
 109:Drivers/STM32L0xx_HAL_Driver/Src/stm32l0xx_hal_flash_ex.c **** static uint8_t            FLASH_OB_GetUser(void);
 110:Drivers/STM32L0xx_HAL_Driver/Src/stm32l0xx_hal_flash_ex.c **** static uint8_t            FLASH_OB_GetBOR(void);
 111:Drivers/STM32L0xx_HAL_Driver/Src/stm32l0xx_hal_flash_ex.c **** static uint8_t            FLASH_OB_GetBOOTBit1(void);
 112:Drivers/STM32L0xx_HAL_Driver/Src/stm32l0xx_hal_flash_ex.c **** static HAL_StatusTypeDef  FLASH_OB_BOOTBit1Config(uint8_t OB_BootBit1);
 113:Drivers/STM32L0xx_HAL_Driver/Src/stm32l0xx_hal_flash_ex.c **** #if defined(STM32L071xx) || defined(STM32L072xx) || defined(STM32L073xx) || defined(STM32L081xx) ||
 114:Drivers/STM32L0xx_HAL_Driver/Src/stm32l0xx_hal_flash_ex.c **** static HAL_StatusTypeDef  FLASH_OB_ProtectedSectorsConfig(uint32_t Sector, uint32_t Sector2, uint32
 115:Drivers/STM32L0xx_HAL_Driver/Src/stm32l0xx_hal_flash_ex.c **** #else
 116:Drivers/STM32L0xx_HAL_Driver/Src/stm32l0xx_hal_flash_ex.c **** static HAL_StatusTypeDef  FLASH_OB_ProtectedSectorsConfig(uint32_t Sector, uint32_t NewState);
 117:Drivers/STM32L0xx_HAL_Driver/Src/stm32l0xx_hal_flash_ex.c **** #endif
 118:Drivers/STM32L0xx_HAL_Driver/Src/stm32l0xx_hal_flash_ex.c **** static uint32_t           FLASH_OB_GetWRP(void);
 119:Drivers/STM32L0xx_HAL_Driver/Src/stm32l0xx_hal_flash_ex.c **** #if defined(STM32L071xx) || defined(STM32L072xx) || defined(STM32L073xx) || defined(STM32L081xx) ||
 120:Drivers/STM32L0xx_HAL_Driver/Src/stm32l0xx_hal_flash_ex.c **** static uint32_t           FLASH_OB_GetWRP2(void);
 121:Drivers/STM32L0xx_HAL_Driver/Src/stm32l0xx_hal_flash_ex.c **** #endif
 122:Drivers/STM32L0xx_HAL_Driver/Src/stm32l0xx_hal_flash_ex.c **** 
 123:Drivers/STM32L0xx_HAL_Driver/Src/stm32l0xx_hal_flash_ex.c **** /**
 124:Drivers/STM32L0xx_HAL_Driver/Src/stm32l0xx_hal_flash_ex.c ****   * @}
 125:Drivers/STM32L0xx_HAL_Driver/Src/stm32l0xx_hal_flash_ex.c ****   */
 126:Drivers/STM32L0xx_HAL_Driver/Src/stm32l0xx_hal_flash_ex.c **** 
 127:Drivers/STM32L0xx_HAL_Driver/Src/stm32l0xx_hal_flash_ex.c **** /* Exported functions ---------------------------------------------------------*/
 128:Drivers/STM32L0xx_HAL_Driver/Src/stm32l0xx_hal_flash_ex.c **** /** @defgroup FLASHEx_Exported_Functions FLASHEx Exported Functions
 129:Drivers/STM32L0xx_HAL_Driver/Src/stm32l0xx_hal_flash_ex.c ****   * @{
 130:Drivers/STM32L0xx_HAL_Driver/Src/stm32l0xx_hal_flash_ex.c ****   */
 131:Drivers/STM32L0xx_HAL_Driver/Src/stm32l0xx_hal_flash_ex.c **** 
 132:Drivers/STM32L0xx_HAL_Driver/Src/stm32l0xx_hal_flash_ex.c **** /** @defgroup FLASHEx_Exported_Functions_Group1 FLASHEx Memory Erasing functions
 133:Drivers/STM32L0xx_HAL_Driver/Src/stm32l0xx_hal_flash_ex.c ****  *  @brief   FLASH Memory Erasing functions
 134:Drivers/STM32L0xx_HAL_Driver/Src/stm32l0xx_hal_flash_ex.c ****  *
 135:Drivers/STM32L0xx_HAL_Driver/Src/stm32l0xx_hal_flash_ex.c **** @verbatim   
 136:Drivers/STM32L0xx_HAL_Driver/Src/stm32l0xx_hal_flash_ex.c ****   ==============================================================================
 137:Drivers/STM32L0xx_HAL_Driver/Src/stm32l0xx_hal_flash_ex.c ****                 ##### FLASH Erasing Programming functions ##### 
 138:Drivers/STM32L0xx_HAL_Driver/Src/stm32l0xx_hal_flash_ex.c ****   ==============================================================================
 139:Drivers/STM32L0xx_HAL_Driver/Src/stm32l0xx_hal_flash_ex.c **** 
 140:Drivers/STM32L0xx_HAL_Driver/Src/stm32l0xx_hal_flash_ex.c ****     [..] The FLASH Memory Erasing functions, includes the following functions:
 141:Drivers/STM32L0xx_HAL_Driver/Src/stm32l0xx_hal_flash_ex.c ****     (+) @ref HAL_FLASHEx_Erase: return only when erase has been done
 142:Drivers/STM32L0xx_HAL_Driver/Src/stm32l0xx_hal_flash_ex.c ****     (+) @ref HAL_FLASHEx_Erase_IT: end of erase is done when @ref HAL_FLASH_EndOfOperationCallback 
 143:Drivers/STM32L0xx_HAL_Driver/Src/stm32l0xx_hal_flash_ex.c ****         is called with parameter 0xFFFFFFFF
 144:Drivers/STM32L0xx_HAL_Driver/Src/stm32l0xx_hal_flash_ex.c **** 
 145:Drivers/STM32L0xx_HAL_Driver/Src/stm32l0xx_hal_flash_ex.c ****     [..] Any operation of erase should follow these steps:
ARM GAS  /tmp/ccLymQqc.s 			page 4


 146:Drivers/STM32L0xx_HAL_Driver/Src/stm32l0xx_hal_flash_ex.c ****     (#) Call the @ref HAL_FLASH_Unlock() function to enable the flash control register and 
 147:Drivers/STM32L0xx_HAL_Driver/Src/stm32l0xx_hal_flash_ex.c ****         program memory access.
 148:Drivers/STM32L0xx_HAL_Driver/Src/stm32l0xx_hal_flash_ex.c ****     (#) Call the desired function to erase page.
 149:Drivers/STM32L0xx_HAL_Driver/Src/stm32l0xx_hal_flash_ex.c ****     (#) Call the @ref HAL_FLASH_Lock() to disable the flash program memory access 
 150:Drivers/STM32L0xx_HAL_Driver/Src/stm32l0xx_hal_flash_ex.c ****        (recommended to protect the FLASH memory against possible unwanted operation).
 151:Drivers/STM32L0xx_HAL_Driver/Src/stm32l0xx_hal_flash_ex.c **** 
 152:Drivers/STM32L0xx_HAL_Driver/Src/stm32l0xx_hal_flash_ex.c **** @endverbatim
 153:Drivers/STM32L0xx_HAL_Driver/Src/stm32l0xx_hal_flash_ex.c ****   * @{
 154:Drivers/STM32L0xx_HAL_Driver/Src/stm32l0xx_hal_flash_ex.c ****   */
 155:Drivers/STM32L0xx_HAL_Driver/Src/stm32l0xx_hal_flash_ex.c ****   
 156:Drivers/STM32L0xx_HAL_Driver/Src/stm32l0xx_hal_flash_ex.c **** /**
 157:Drivers/STM32L0xx_HAL_Driver/Src/stm32l0xx_hal_flash_ex.c ****   * @brief  Erase the specified FLASH memory Pages 
 158:Drivers/STM32L0xx_HAL_Driver/Src/stm32l0xx_hal_flash_ex.c ****   * @note   To correctly run this function, the @ref HAL_FLASH_Unlock() function
 159:Drivers/STM32L0xx_HAL_Driver/Src/stm32l0xx_hal_flash_ex.c ****   *         must be called before.
 160:Drivers/STM32L0xx_HAL_Driver/Src/stm32l0xx_hal_flash_ex.c ****   *         Call the @ref HAL_FLASH_Lock() to disable the flash memory access 
 161:Drivers/STM32L0xx_HAL_Driver/Src/stm32l0xx_hal_flash_ex.c ****   *         (recommended to protect the FLASH memory against possible unwanted operation)
 162:Drivers/STM32L0xx_HAL_Driver/Src/stm32l0xx_hal_flash_ex.c ****   * @param[in]  pEraseInit pointer to an FLASH_EraseInitTypeDef structure that
 163:Drivers/STM32L0xx_HAL_Driver/Src/stm32l0xx_hal_flash_ex.c ****   *         contains the configuration information for the erasing.
 164:Drivers/STM32L0xx_HAL_Driver/Src/stm32l0xx_hal_flash_ex.c ****   * 
 165:Drivers/STM32L0xx_HAL_Driver/Src/stm32l0xx_hal_flash_ex.c ****   * @param[out]  PageError pointer to variable  that
 166:Drivers/STM32L0xx_HAL_Driver/Src/stm32l0xx_hal_flash_ex.c ****   *         contains the configuration information on faulty page in case of error
 167:Drivers/STM32L0xx_HAL_Driver/Src/stm32l0xx_hal_flash_ex.c ****   *         (0xFFFFFFFF means that all the pages have been correctly erased)
 168:Drivers/STM32L0xx_HAL_Driver/Src/stm32l0xx_hal_flash_ex.c ****   * 
 169:Drivers/STM32L0xx_HAL_Driver/Src/stm32l0xx_hal_flash_ex.c ****   * @retval HAL_StatusTypeDef HAL Status
 170:Drivers/STM32L0xx_HAL_Driver/Src/stm32l0xx_hal_flash_ex.c ****   */
 171:Drivers/STM32L0xx_HAL_Driver/Src/stm32l0xx_hal_flash_ex.c **** HAL_StatusTypeDef HAL_FLASHEx_Erase(FLASH_EraseInitTypeDef *pEraseInit, uint32_t *PageError)
 172:Drivers/STM32L0xx_HAL_Driver/Src/stm32l0xx_hal_flash_ex.c **** {
 173:Drivers/STM32L0xx_HAL_Driver/Src/stm32l0xx_hal_flash_ex.c ****   HAL_StatusTypeDef status = HAL_ERROR;
 174:Drivers/STM32L0xx_HAL_Driver/Src/stm32l0xx_hal_flash_ex.c ****   uint32_t address = 0U;
 175:Drivers/STM32L0xx_HAL_Driver/Src/stm32l0xx_hal_flash_ex.c ****   
 176:Drivers/STM32L0xx_HAL_Driver/Src/stm32l0xx_hal_flash_ex.c ****   /* Process Locked */
 177:Drivers/STM32L0xx_HAL_Driver/Src/stm32l0xx_hal_flash_ex.c ****   __HAL_LOCK(&pFlash);
 178:Drivers/STM32L0xx_HAL_Driver/Src/stm32l0xx_hal_flash_ex.c **** 
 179:Drivers/STM32L0xx_HAL_Driver/Src/stm32l0xx_hal_flash_ex.c ****   /* Wait for last operation to be completed */
 180:Drivers/STM32L0xx_HAL_Driver/Src/stm32l0xx_hal_flash_ex.c ****   status = FLASH_WaitForLastOperation(FLASH_TIMEOUT_VALUE);
 181:Drivers/STM32L0xx_HAL_Driver/Src/stm32l0xx_hal_flash_ex.c **** 
 182:Drivers/STM32L0xx_HAL_Driver/Src/stm32l0xx_hal_flash_ex.c ****   if (status == HAL_OK)
 183:Drivers/STM32L0xx_HAL_Driver/Src/stm32l0xx_hal_flash_ex.c ****   {
 184:Drivers/STM32L0xx_HAL_Driver/Src/stm32l0xx_hal_flash_ex.c ****     /*Initialization of PageError variable*/
 185:Drivers/STM32L0xx_HAL_Driver/Src/stm32l0xx_hal_flash_ex.c ****     *PageError = 0xFFFFFFFFU;
 186:Drivers/STM32L0xx_HAL_Driver/Src/stm32l0xx_hal_flash_ex.c **** 
 187:Drivers/STM32L0xx_HAL_Driver/Src/stm32l0xx_hal_flash_ex.c ****     /* Check the parameters */
 188:Drivers/STM32L0xx_HAL_Driver/Src/stm32l0xx_hal_flash_ex.c ****     assert_param(IS_NBPAGES(pEraseInit->NbPages));
 189:Drivers/STM32L0xx_HAL_Driver/Src/stm32l0xx_hal_flash_ex.c ****     assert_param(IS_FLASH_TYPEERASE(pEraseInit->TypeErase));
 190:Drivers/STM32L0xx_HAL_Driver/Src/stm32l0xx_hal_flash_ex.c ****     assert_param(IS_FLASH_PROGRAM_ADDRESS(pEraseInit->PageAddress));
 191:Drivers/STM32L0xx_HAL_Driver/Src/stm32l0xx_hal_flash_ex.c ****     assert_param(IS_FLASH_PROGRAM_ADDRESS((pEraseInit->PageAddress & ~(FLASH_PAGE_SIZE - 1U)) + pEr
 192:Drivers/STM32L0xx_HAL_Driver/Src/stm32l0xx_hal_flash_ex.c **** 
 193:Drivers/STM32L0xx_HAL_Driver/Src/stm32l0xx_hal_flash_ex.c ****     /* Erase page by page to be done*/
 194:Drivers/STM32L0xx_HAL_Driver/Src/stm32l0xx_hal_flash_ex.c ****     for(address = pEraseInit->PageAddress; 
 195:Drivers/STM32L0xx_HAL_Driver/Src/stm32l0xx_hal_flash_ex.c ****         address < ((pEraseInit->NbPages * FLASH_PAGE_SIZE) + pEraseInit->PageAddress);
 196:Drivers/STM32L0xx_HAL_Driver/Src/stm32l0xx_hal_flash_ex.c ****         address += FLASH_PAGE_SIZE)
 197:Drivers/STM32L0xx_HAL_Driver/Src/stm32l0xx_hal_flash_ex.c ****     {
 198:Drivers/STM32L0xx_HAL_Driver/Src/stm32l0xx_hal_flash_ex.c ****       FLASH_PageErase(address);
 199:Drivers/STM32L0xx_HAL_Driver/Src/stm32l0xx_hal_flash_ex.c **** 
 200:Drivers/STM32L0xx_HAL_Driver/Src/stm32l0xx_hal_flash_ex.c ****       /* Wait for last operation to be completed */
 201:Drivers/STM32L0xx_HAL_Driver/Src/stm32l0xx_hal_flash_ex.c ****       status = FLASH_WaitForLastOperation(FLASH_TIMEOUT_VALUE);
 202:Drivers/STM32L0xx_HAL_Driver/Src/stm32l0xx_hal_flash_ex.c **** 
ARM GAS  /tmp/ccLymQqc.s 			page 5


 203:Drivers/STM32L0xx_HAL_Driver/Src/stm32l0xx_hal_flash_ex.c ****       /* If the erase operation is completed, disable the ERASE Bit */
 204:Drivers/STM32L0xx_HAL_Driver/Src/stm32l0xx_hal_flash_ex.c ****       CLEAR_BIT(FLASH->PECR, FLASH_PECR_PROG);
 205:Drivers/STM32L0xx_HAL_Driver/Src/stm32l0xx_hal_flash_ex.c ****       CLEAR_BIT(FLASH->PECR, FLASH_PECR_ERASE);
 206:Drivers/STM32L0xx_HAL_Driver/Src/stm32l0xx_hal_flash_ex.c **** 
 207:Drivers/STM32L0xx_HAL_Driver/Src/stm32l0xx_hal_flash_ex.c ****       if (status != HAL_OK) 
 208:Drivers/STM32L0xx_HAL_Driver/Src/stm32l0xx_hal_flash_ex.c ****       {
 209:Drivers/STM32L0xx_HAL_Driver/Src/stm32l0xx_hal_flash_ex.c ****         /* In case of error, stop erase procedure and return the faulty address */
 210:Drivers/STM32L0xx_HAL_Driver/Src/stm32l0xx_hal_flash_ex.c ****         *PageError = address;
 211:Drivers/STM32L0xx_HAL_Driver/Src/stm32l0xx_hal_flash_ex.c ****         break;
 212:Drivers/STM32L0xx_HAL_Driver/Src/stm32l0xx_hal_flash_ex.c ****       }
 213:Drivers/STM32L0xx_HAL_Driver/Src/stm32l0xx_hal_flash_ex.c ****     }
 214:Drivers/STM32L0xx_HAL_Driver/Src/stm32l0xx_hal_flash_ex.c ****   }
 215:Drivers/STM32L0xx_HAL_Driver/Src/stm32l0xx_hal_flash_ex.c **** 
 216:Drivers/STM32L0xx_HAL_Driver/Src/stm32l0xx_hal_flash_ex.c ****   /* Process Unlocked */
 217:Drivers/STM32L0xx_HAL_Driver/Src/stm32l0xx_hal_flash_ex.c ****   __HAL_UNLOCK(&pFlash);
 218:Drivers/STM32L0xx_HAL_Driver/Src/stm32l0xx_hal_flash_ex.c **** 
 219:Drivers/STM32L0xx_HAL_Driver/Src/stm32l0xx_hal_flash_ex.c ****   return status;
 220:Drivers/STM32L0xx_HAL_Driver/Src/stm32l0xx_hal_flash_ex.c **** }
 221:Drivers/STM32L0xx_HAL_Driver/Src/stm32l0xx_hal_flash_ex.c **** 
 222:Drivers/STM32L0xx_HAL_Driver/Src/stm32l0xx_hal_flash_ex.c **** /**
 223:Drivers/STM32L0xx_HAL_Driver/Src/stm32l0xx_hal_flash_ex.c ****   * @brief  Perform a page erase of the specified FLASH memory pages  with interrupt enabled
 224:Drivers/STM32L0xx_HAL_Driver/Src/stm32l0xx_hal_flash_ex.c ****   * @note   To correctly run this function, the @ref HAL_FLASH_Unlock() function
 225:Drivers/STM32L0xx_HAL_Driver/Src/stm32l0xx_hal_flash_ex.c ****   *         must be called before.
 226:Drivers/STM32L0xx_HAL_Driver/Src/stm32l0xx_hal_flash_ex.c ****   *         Call the @ref HAL_FLASH_Lock() to disable the flash memory access 
 227:Drivers/STM32L0xx_HAL_Driver/Src/stm32l0xx_hal_flash_ex.c ****   *         (recommended to protect the FLASH memory against possible unwanted operation)
 228:Drivers/STM32L0xx_HAL_Driver/Src/stm32l0xx_hal_flash_ex.c ****   *          End of erase is done when @ref HAL_FLASH_EndOfOperationCallback is called with paramet
 229:Drivers/STM32L0xx_HAL_Driver/Src/stm32l0xx_hal_flash_ex.c ****   *          0xFFFFFFFF
 230:Drivers/STM32L0xx_HAL_Driver/Src/stm32l0xx_hal_flash_ex.c ****   * @param  pEraseInit pointer to an FLASH_EraseInitTypeDef structure that
 231:Drivers/STM32L0xx_HAL_Driver/Src/stm32l0xx_hal_flash_ex.c ****   *         contains the configuration information for the erasing.
 232:Drivers/STM32L0xx_HAL_Driver/Src/stm32l0xx_hal_flash_ex.c ****   * 
 233:Drivers/STM32L0xx_HAL_Driver/Src/stm32l0xx_hal_flash_ex.c ****   * @retval HAL_StatusTypeDef HAL Status
 234:Drivers/STM32L0xx_HAL_Driver/Src/stm32l0xx_hal_flash_ex.c ****   */
 235:Drivers/STM32L0xx_HAL_Driver/Src/stm32l0xx_hal_flash_ex.c **** HAL_StatusTypeDef HAL_FLASHEx_Erase_IT(FLASH_EraseInitTypeDef *pEraseInit)
 236:Drivers/STM32L0xx_HAL_Driver/Src/stm32l0xx_hal_flash_ex.c **** {
 237:Drivers/STM32L0xx_HAL_Driver/Src/stm32l0xx_hal_flash_ex.c ****   HAL_StatusTypeDef status = HAL_ERROR;
 238:Drivers/STM32L0xx_HAL_Driver/Src/stm32l0xx_hal_flash_ex.c **** 
 239:Drivers/STM32L0xx_HAL_Driver/Src/stm32l0xx_hal_flash_ex.c ****   /* If procedure already ongoing, reject the next one */
 240:Drivers/STM32L0xx_HAL_Driver/Src/stm32l0xx_hal_flash_ex.c ****   if (pFlash.ProcedureOnGoing != FLASH_PROC_NONE)
 241:Drivers/STM32L0xx_HAL_Driver/Src/stm32l0xx_hal_flash_ex.c ****   {
 242:Drivers/STM32L0xx_HAL_Driver/Src/stm32l0xx_hal_flash_ex.c ****     return HAL_ERROR;
 243:Drivers/STM32L0xx_HAL_Driver/Src/stm32l0xx_hal_flash_ex.c ****   }
 244:Drivers/STM32L0xx_HAL_Driver/Src/stm32l0xx_hal_flash_ex.c **** 
 245:Drivers/STM32L0xx_HAL_Driver/Src/stm32l0xx_hal_flash_ex.c ****   /* Check the parameters */
 246:Drivers/STM32L0xx_HAL_Driver/Src/stm32l0xx_hal_flash_ex.c ****   assert_param(IS_NBPAGES(pEraseInit->NbPages));
 247:Drivers/STM32L0xx_HAL_Driver/Src/stm32l0xx_hal_flash_ex.c ****   assert_param(IS_FLASH_TYPEERASE(pEraseInit->TypeErase));
 248:Drivers/STM32L0xx_HAL_Driver/Src/stm32l0xx_hal_flash_ex.c ****   assert_param(IS_FLASH_PROGRAM_ADDRESS(pEraseInit->PageAddress));
 249:Drivers/STM32L0xx_HAL_Driver/Src/stm32l0xx_hal_flash_ex.c ****   assert_param(IS_FLASH_PROGRAM_ADDRESS((pEraseInit->PageAddress & ~(FLASH_PAGE_SIZE - 1)) + pErase
 250:Drivers/STM32L0xx_HAL_Driver/Src/stm32l0xx_hal_flash_ex.c **** 
 251:Drivers/STM32L0xx_HAL_Driver/Src/stm32l0xx_hal_flash_ex.c ****   /* Process Locked */
 252:Drivers/STM32L0xx_HAL_Driver/Src/stm32l0xx_hal_flash_ex.c ****   __HAL_LOCK(&pFlash);
 253:Drivers/STM32L0xx_HAL_Driver/Src/stm32l0xx_hal_flash_ex.c **** 
 254:Drivers/STM32L0xx_HAL_Driver/Src/stm32l0xx_hal_flash_ex.c ****   /* Wait for last operation to be completed */
 255:Drivers/STM32L0xx_HAL_Driver/Src/stm32l0xx_hal_flash_ex.c ****   status = FLASH_WaitForLastOperation(FLASH_TIMEOUT_VALUE);
 256:Drivers/STM32L0xx_HAL_Driver/Src/stm32l0xx_hal_flash_ex.c ****   
 257:Drivers/STM32L0xx_HAL_Driver/Src/stm32l0xx_hal_flash_ex.c ****   if (status == HAL_OK)
 258:Drivers/STM32L0xx_HAL_Driver/Src/stm32l0xx_hal_flash_ex.c ****   {
 259:Drivers/STM32L0xx_HAL_Driver/Src/stm32l0xx_hal_flash_ex.c ****     /* Enable End of FLASH Operation and Error source interrupts */
ARM GAS  /tmp/ccLymQqc.s 			page 6


 260:Drivers/STM32L0xx_HAL_Driver/Src/stm32l0xx_hal_flash_ex.c ****     __HAL_FLASH_ENABLE_IT(FLASH_IT_EOP | FLASH_IT_ERR);
 261:Drivers/STM32L0xx_HAL_Driver/Src/stm32l0xx_hal_flash_ex.c ****     
 262:Drivers/STM32L0xx_HAL_Driver/Src/stm32l0xx_hal_flash_ex.c ****     pFlash.ProcedureOnGoing = FLASH_PROC_PAGEERASE;
 263:Drivers/STM32L0xx_HAL_Driver/Src/stm32l0xx_hal_flash_ex.c ****     pFlash.NbPagesToErase = pEraseInit->NbPages;
 264:Drivers/STM32L0xx_HAL_Driver/Src/stm32l0xx_hal_flash_ex.c ****     pFlash.Page = pEraseInit->PageAddress;
 265:Drivers/STM32L0xx_HAL_Driver/Src/stm32l0xx_hal_flash_ex.c **** 
 266:Drivers/STM32L0xx_HAL_Driver/Src/stm32l0xx_hal_flash_ex.c ****     /*Erase 1st page and wait for IT*/
 267:Drivers/STM32L0xx_HAL_Driver/Src/stm32l0xx_hal_flash_ex.c ****     FLASH_PageErase(pEraseInit->PageAddress);
 268:Drivers/STM32L0xx_HAL_Driver/Src/stm32l0xx_hal_flash_ex.c ****   }
 269:Drivers/STM32L0xx_HAL_Driver/Src/stm32l0xx_hal_flash_ex.c ****   else
 270:Drivers/STM32L0xx_HAL_Driver/Src/stm32l0xx_hal_flash_ex.c ****   {
 271:Drivers/STM32L0xx_HAL_Driver/Src/stm32l0xx_hal_flash_ex.c ****     /* Process Unlocked */
 272:Drivers/STM32L0xx_HAL_Driver/Src/stm32l0xx_hal_flash_ex.c ****     __HAL_UNLOCK(&pFlash);
 273:Drivers/STM32L0xx_HAL_Driver/Src/stm32l0xx_hal_flash_ex.c ****   }
 274:Drivers/STM32L0xx_HAL_Driver/Src/stm32l0xx_hal_flash_ex.c **** 
 275:Drivers/STM32L0xx_HAL_Driver/Src/stm32l0xx_hal_flash_ex.c ****   return status;
 276:Drivers/STM32L0xx_HAL_Driver/Src/stm32l0xx_hal_flash_ex.c **** }
 277:Drivers/STM32L0xx_HAL_Driver/Src/stm32l0xx_hal_flash_ex.c **** 
 278:Drivers/STM32L0xx_HAL_Driver/Src/stm32l0xx_hal_flash_ex.c **** /**
 279:Drivers/STM32L0xx_HAL_Driver/Src/stm32l0xx_hal_flash_ex.c ****   * @}
 280:Drivers/STM32L0xx_HAL_Driver/Src/stm32l0xx_hal_flash_ex.c ****   */
 281:Drivers/STM32L0xx_HAL_Driver/Src/stm32l0xx_hal_flash_ex.c **** 
 282:Drivers/STM32L0xx_HAL_Driver/Src/stm32l0xx_hal_flash_ex.c **** /** @defgroup FLASHEx_Exported_Functions_Group2 Option Bytes Programming functions
 283:Drivers/STM32L0xx_HAL_Driver/Src/stm32l0xx_hal_flash_ex.c ****  *  @brief   Option Bytes Programming functions
 284:Drivers/STM32L0xx_HAL_Driver/Src/stm32l0xx_hal_flash_ex.c ****  *
 285:Drivers/STM32L0xx_HAL_Driver/Src/stm32l0xx_hal_flash_ex.c **** @verbatim   
 286:Drivers/STM32L0xx_HAL_Driver/Src/stm32l0xx_hal_flash_ex.c ****   ==============================================================================
 287:Drivers/STM32L0xx_HAL_Driver/Src/stm32l0xx_hal_flash_ex.c ****                 ##### Option Bytes Programming functions ##### 
 288:Drivers/STM32L0xx_HAL_Driver/Src/stm32l0xx_hal_flash_ex.c ****   ==============================================================================  
 289:Drivers/STM32L0xx_HAL_Driver/Src/stm32l0xx_hal_flash_ex.c **** 
 290:Drivers/STM32L0xx_HAL_Driver/Src/stm32l0xx_hal_flash_ex.c ****     [..] Any operation of erase or program should follow these steps:
 291:Drivers/STM32L0xx_HAL_Driver/Src/stm32l0xx_hal_flash_ex.c ****     (#) Call the @ref HAL_FLASH_OB_Unlock() function to enable the Flash option control 
 292:Drivers/STM32L0xx_HAL_Driver/Src/stm32l0xx_hal_flash_ex.c ****         register access.
 293:Drivers/STM32L0xx_HAL_Driver/Src/stm32l0xx_hal_flash_ex.c ****     (#) Call following function to program the desired option bytes.
 294:Drivers/STM32L0xx_HAL_Driver/Src/stm32l0xx_hal_flash_ex.c ****         (++) @ref HAL_FLASHEx_OBProgram:
 295:Drivers/STM32L0xx_HAL_Driver/Src/stm32l0xx_hal_flash_ex.c ****          - To Enable/Disable the desired sector write protection.
 296:Drivers/STM32L0xx_HAL_Driver/Src/stm32l0xx_hal_flash_ex.c ****          - To set the desired read Protection Level.
 297:Drivers/STM32L0xx_HAL_Driver/Src/stm32l0xx_hal_flash_ex.c ****          - To configure the user option Bytes: IWDG, STOP and the Standby.
 298:Drivers/STM32L0xx_HAL_Driver/Src/stm32l0xx_hal_flash_ex.c ****          - To Set the BOR level.
 299:Drivers/STM32L0xx_HAL_Driver/Src/stm32l0xx_hal_flash_ex.c ****     (#) Once all needed option bytes to be programmed are correctly written, call the
 300:Drivers/STM32L0xx_HAL_Driver/Src/stm32l0xx_hal_flash_ex.c ****         @ref HAL_FLASH_OB_Launch(void) function to launch the Option Bytes programming process.
 301:Drivers/STM32L0xx_HAL_Driver/Src/stm32l0xx_hal_flash_ex.c ****     (#) Call the @ref HAL_FLASH_OB_Lock() to disable the Flash option control register access (reco
 302:Drivers/STM32L0xx_HAL_Driver/Src/stm32l0xx_hal_flash_ex.c ****         to protect the option Bytes against possible unwanted operations).
 303:Drivers/STM32L0xx_HAL_Driver/Src/stm32l0xx_hal_flash_ex.c **** 
 304:Drivers/STM32L0xx_HAL_Driver/Src/stm32l0xx_hal_flash_ex.c ****     [..] Proprietary code Read Out Protection (PcROP):
 305:Drivers/STM32L0xx_HAL_Driver/Src/stm32l0xx_hal_flash_ex.c ****     (#) The PcROP sector is selected by using the same option bytes as the Write
 306:Drivers/STM32L0xx_HAL_Driver/Src/stm32l0xx_hal_flash_ex.c ****         protection (nWRPi bits). As a result, these 2 options are exclusive each other.
 307:Drivers/STM32L0xx_HAL_Driver/Src/stm32l0xx_hal_flash_ex.c ****     (#) In order to activate the PcROP (change the function of the nWRPi option bits), 
 308:Drivers/STM32L0xx_HAL_Driver/Src/stm32l0xx_hal_flash_ex.c ****         the WPRMOD option bit must be activated.
 309:Drivers/STM32L0xx_HAL_Driver/Src/stm32l0xx_hal_flash_ex.c ****     (#) The active value of nWRPi bits is inverted when PCROP mode is active, this
 310:Drivers/STM32L0xx_HAL_Driver/Src/stm32l0xx_hal_flash_ex.c ****         means: if WPRMOD = 1 and nWRPi = 1 (default value), then the user sector "i"
 311:Drivers/STM32L0xx_HAL_Driver/Src/stm32l0xx_hal_flash_ex.c ****         is read/write protected.
 312:Drivers/STM32L0xx_HAL_Driver/Src/stm32l0xx_hal_flash_ex.c ****     (#) To activate PCROP mode for Flash sector(s), you need to call the following function:
 313:Drivers/STM32L0xx_HAL_Driver/Src/stm32l0xx_hal_flash_ex.c ****         (++) @ref HAL_FLASHEx_AdvOBProgram in selecting sectors to be read/write protected
 314:Drivers/STM32L0xx_HAL_Driver/Src/stm32l0xx_hal_flash_ex.c ****         (++) @ref HAL_FLASHEx_OB_SelectPCROP to enable the read/write protection
 315:Drivers/STM32L0xx_HAL_Driver/Src/stm32l0xx_hal_flash_ex.c **** 
 316:Drivers/STM32L0xx_HAL_Driver/Src/stm32l0xx_hal_flash_ex.c **** @endverbatim
ARM GAS  /tmp/ccLymQqc.s 			page 7


 317:Drivers/STM32L0xx_HAL_Driver/Src/stm32l0xx_hal_flash_ex.c ****   * @{
 318:Drivers/STM32L0xx_HAL_Driver/Src/stm32l0xx_hal_flash_ex.c ****   */
 319:Drivers/STM32L0xx_HAL_Driver/Src/stm32l0xx_hal_flash_ex.c **** 
 320:Drivers/STM32L0xx_HAL_Driver/Src/stm32l0xx_hal_flash_ex.c **** /**
 321:Drivers/STM32L0xx_HAL_Driver/Src/stm32l0xx_hal_flash_ex.c ****   * @brief  Program option bytes
 322:Drivers/STM32L0xx_HAL_Driver/Src/stm32l0xx_hal_flash_ex.c ****   * @param  pOBInit pointer to an FLASH_OBInitStruct structure that
 323:Drivers/STM32L0xx_HAL_Driver/Src/stm32l0xx_hal_flash_ex.c ****   *         contains the configuration information for the programming.
 324:Drivers/STM32L0xx_HAL_Driver/Src/stm32l0xx_hal_flash_ex.c ****   * 
 325:Drivers/STM32L0xx_HAL_Driver/Src/stm32l0xx_hal_flash_ex.c ****   * @retval HAL_StatusTypeDef HAL Status
 326:Drivers/STM32L0xx_HAL_Driver/Src/stm32l0xx_hal_flash_ex.c ****   */
 327:Drivers/STM32L0xx_HAL_Driver/Src/stm32l0xx_hal_flash_ex.c **** HAL_StatusTypeDef HAL_FLASHEx_OBProgram(FLASH_OBProgramInitTypeDef *pOBInit)
 328:Drivers/STM32L0xx_HAL_Driver/Src/stm32l0xx_hal_flash_ex.c **** {
 329:Drivers/STM32L0xx_HAL_Driver/Src/stm32l0xx_hal_flash_ex.c ****   HAL_StatusTypeDef status = HAL_ERROR;
 330:Drivers/STM32L0xx_HAL_Driver/Src/stm32l0xx_hal_flash_ex.c ****   
 331:Drivers/STM32L0xx_HAL_Driver/Src/stm32l0xx_hal_flash_ex.c ****   /* Process Locked */
 332:Drivers/STM32L0xx_HAL_Driver/Src/stm32l0xx_hal_flash_ex.c ****   __HAL_LOCK(&pFlash);
 333:Drivers/STM32L0xx_HAL_Driver/Src/stm32l0xx_hal_flash_ex.c **** 
 334:Drivers/STM32L0xx_HAL_Driver/Src/stm32l0xx_hal_flash_ex.c ****   /* Check the parameters */
 335:Drivers/STM32L0xx_HAL_Driver/Src/stm32l0xx_hal_flash_ex.c ****   assert_param(IS_OPTIONBYTE(pOBInit->OptionType));
 336:Drivers/STM32L0xx_HAL_Driver/Src/stm32l0xx_hal_flash_ex.c **** 
 337:Drivers/STM32L0xx_HAL_Driver/Src/stm32l0xx_hal_flash_ex.c ****   /*Write protection configuration*/
 338:Drivers/STM32L0xx_HAL_Driver/Src/stm32l0xx_hal_flash_ex.c ****   if((pOBInit->OptionType & OPTIONBYTE_WRP) == OPTIONBYTE_WRP)
 339:Drivers/STM32L0xx_HAL_Driver/Src/stm32l0xx_hal_flash_ex.c ****   {
 340:Drivers/STM32L0xx_HAL_Driver/Src/stm32l0xx_hal_flash_ex.c ****     assert_param(IS_WRPSTATE(pOBInit->WRPState));
 341:Drivers/STM32L0xx_HAL_Driver/Src/stm32l0xx_hal_flash_ex.c **** #if defined(STM32L071xx) || defined(STM32L072xx) || defined(STM32L073xx) || defined(STM32L081xx) ||
 342:Drivers/STM32L0xx_HAL_Driver/Src/stm32l0xx_hal_flash_ex.c ****     status = FLASH_OB_ProtectedSectorsConfig(pOBInit->WRPSector, pOBInit->WRPSector2, pOBInit->WRPS
 343:Drivers/STM32L0xx_HAL_Driver/Src/stm32l0xx_hal_flash_ex.c **** #else
 344:Drivers/STM32L0xx_HAL_Driver/Src/stm32l0xx_hal_flash_ex.c ****     status = FLASH_OB_ProtectedSectorsConfig(pOBInit->WRPSector, pOBInit->WRPState);
 345:Drivers/STM32L0xx_HAL_Driver/Src/stm32l0xx_hal_flash_ex.c **** #endif
 346:Drivers/STM32L0xx_HAL_Driver/Src/stm32l0xx_hal_flash_ex.c ****     if (status != HAL_OK)
 347:Drivers/STM32L0xx_HAL_Driver/Src/stm32l0xx_hal_flash_ex.c ****     {
 348:Drivers/STM32L0xx_HAL_Driver/Src/stm32l0xx_hal_flash_ex.c ****       /* Process Unlocked */
 349:Drivers/STM32L0xx_HAL_Driver/Src/stm32l0xx_hal_flash_ex.c ****       __HAL_UNLOCK(&pFlash);
 350:Drivers/STM32L0xx_HAL_Driver/Src/stm32l0xx_hal_flash_ex.c ****       return status;
 351:Drivers/STM32L0xx_HAL_Driver/Src/stm32l0xx_hal_flash_ex.c ****     }
 352:Drivers/STM32L0xx_HAL_Driver/Src/stm32l0xx_hal_flash_ex.c ****   }
 353:Drivers/STM32L0xx_HAL_Driver/Src/stm32l0xx_hal_flash_ex.c ****   
 354:Drivers/STM32L0xx_HAL_Driver/Src/stm32l0xx_hal_flash_ex.c ****   /* Read protection configuration*/
 355:Drivers/STM32L0xx_HAL_Driver/Src/stm32l0xx_hal_flash_ex.c ****   if((pOBInit->OptionType & OPTIONBYTE_RDP) == OPTIONBYTE_RDP)
 356:Drivers/STM32L0xx_HAL_Driver/Src/stm32l0xx_hal_flash_ex.c ****   {
 357:Drivers/STM32L0xx_HAL_Driver/Src/stm32l0xx_hal_flash_ex.c ****     status = FLASH_OB_RDPConfig(pOBInit->RDPLevel);
 358:Drivers/STM32L0xx_HAL_Driver/Src/stm32l0xx_hal_flash_ex.c ****     if (status != HAL_OK)
 359:Drivers/STM32L0xx_HAL_Driver/Src/stm32l0xx_hal_flash_ex.c ****     {
 360:Drivers/STM32L0xx_HAL_Driver/Src/stm32l0xx_hal_flash_ex.c ****       /* Process Unlocked */
 361:Drivers/STM32L0xx_HAL_Driver/Src/stm32l0xx_hal_flash_ex.c ****       __HAL_UNLOCK(&pFlash);
 362:Drivers/STM32L0xx_HAL_Driver/Src/stm32l0xx_hal_flash_ex.c ****       return status;
 363:Drivers/STM32L0xx_HAL_Driver/Src/stm32l0xx_hal_flash_ex.c ****     }
 364:Drivers/STM32L0xx_HAL_Driver/Src/stm32l0xx_hal_flash_ex.c ****   }
 365:Drivers/STM32L0xx_HAL_Driver/Src/stm32l0xx_hal_flash_ex.c ****   
 366:Drivers/STM32L0xx_HAL_Driver/Src/stm32l0xx_hal_flash_ex.c ****   /* USER  configuration*/
 367:Drivers/STM32L0xx_HAL_Driver/Src/stm32l0xx_hal_flash_ex.c ****   if((pOBInit->OptionType & OPTIONBYTE_USER) == OPTIONBYTE_USER)
 368:Drivers/STM32L0xx_HAL_Driver/Src/stm32l0xx_hal_flash_ex.c ****   {
 369:Drivers/STM32L0xx_HAL_Driver/Src/stm32l0xx_hal_flash_ex.c ****     status = FLASH_OB_UserConfig(pOBInit->USERConfig & OB_IWDG_SW, 
 370:Drivers/STM32L0xx_HAL_Driver/Src/stm32l0xx_hal_flash_ex.c ****                                  pOBInit->USERConfig & OB_STOP_NORST,
 371:Drivers/STM32L0xx_HAL_Driver/Src/stm32l0xx_hal_flash_ex.c ****                                  pOBInit->USERConfig & OB_STDBY_NORST);
 372:Drivers/STM32L0xx_HAL_Driver/Src/stm32l0xx_hal_flash_ex.c ****     if (status != HAL_OK)
 373:Drivers/STM32L0xx_HAL_Driver/Src/stm32l0xx_hal_flash_ex.c ****     {
ARM GAS  /tmp/ccLymQqc.s 			page 8


 374:Drivers/STM32L0xx_HAL_Driver/Src/stm32l0xx_hal_flash_ex.c ****       /* Process Unlocked */
 375:Drivers/STM32L0xx_HAL_Driver/Src/stm32l0xx_hal_flash_ex.c ****       __HAL_UNLOCK(&pFlash);
 376:Drivers/STM32L0xx_HAL_Driver/Src/stm32l0xx_hal_flash_ex.c ****       return status;
 377:Drivers/STM32L0xx_HAL_Driver/Src/stm32l0xx_hal_flash_ex.c ****     }
 378:Drivers/STM32L0xx_HAL_Driver/Src/stm32l0xx_hal_flash_ex.c ****   }
 379:Drivers/STM32L0xx_HAL_Driver/Src/stm32l0xx_hal_flash_ex.c **** 
 380:Drivers/STM32L0xx_HAL_Driver/Src/stm32l0xx_hal_flash_ex.c ****   /* BOR Level  configuration*/
 381:Drivers/STM32L0xx_HAL_Driver/Src/stm32l0xx_hal_flash_ex.c ****   if((pOBInit->OptionType & OPTIONBYTE_BOR) == OPTIONBYTE_BOR)
 382:Drivers/STM32L0xx_HAL_Driver/Src/stm32l0xx_hal_flash_ex.c ****   {
 383:Drivers/STM32L0xx_HAL_Driver/Src/stm32l0xx_hal_flash_ex.c ****     status = FLASH_OB_BORConfig(pOBInit->BORLevel);
 384:Drivers/STM32L0xx_HAL_Driver/Src/stm32l0xx_hal_flash_ex.c ****     if (status != HAL_OK)
 385:Drivers/STM32L0xx_HAL_Driver/Src/stm32l0xx_hal_flash_ex.c ****     {
 386:Drivers/STM32L0xx_HAL_Driver/Src/stm32l0xx_hal_flash_ex.c ****       /* Process Unlocked */
 387:Drivers/STM32L0xx_HAL_Driver/Src/stm32l0xx_hal_flash_ex.c ****       __HAL_UNLOCK(&pFlash);
 388:Drivers/STM32L0xx_HAL_Driver/Src/stm32l0xx_hal_flash_ex.c ****       return status;
 389:Drivers/STM32L0xx_HAL_Driver/Src/stm32l0xx_hal_flash_ex.c ****     }
 390:Drivers/STM32L0xx_HAL_Driver/Src/stm32l0xx_hal_flash_ex.c ****   }
 391:Drivers/STM32L0xx_HAL_Driver/Src/stm32l0xx_hal_flash_ex.c **** 
 392:Drivers/STM32L0xx_HAL_Driver/Src/stm32l0xx_hal_flash_ex.c ****   /* Program BOOT Bit1 config option byte */
 393:Drivers/STM32L0xx_HAL_Driver/Src/stm32l0xx_hal_flash_ex.c ****   if ((pOBInit->OptionType & OPTIONBYTE_BOOT_BIT1) == OPTIONBYTE_BOOT_BIT1)
 394:Drivers/STM32L0xx_HAL_Driver/Src/stm32l0xx_hal_flash_ex.c ****   {
 395:Drivers/STM32L0xx_HAL_Driver/Src/stm32l0xx_hal_flash_ex.c ****     status = FLASH_OB_BOOTBit1Config(pOBInit->BOOTBit1Config);
 396:Drivers/STM32L0xx_HAL_Driver/Src/stm32l0xx_hal_flash_ex.c ****   }
 397:Drivers/STM32L0xx_HAL_Driver/Src/stm32l0xx_hal_flash_ex.c ****   /* Process Unlocked */
 398:Drivers/STM32L0xx_HAL_Driver/Src/stm32l0xx_hal_flash_ex.c ****   __HAL_UNLOCK(&pFlash);
 399:Drivers/STM32L0xx_HAL_Driver/Src/stm32l0xx_hal_flash_ex.c **** 
 400:Drivers/STM32L0xx_HAL_Driver/Src/stm32l0xx_hal_flash_ex.c ****   return status;
 401:Drivers/STM32L0xx_HAL_Driver/Src/stm32l0xx_hal_flash_ex.c **** }
 402:Drivers/STM32L0xx_HAL_Driver/Src/stm32l0xx_hal_flash_ex.c **** 
 403:Drivers/STM32L0xx_HAL_Driver/Src/stm32l0xx_hal_flash_ex.c **** /**
 404:Drivers/STM32L0xx_HAL_Driver/Src/stm32l0xx_hal_flash_ex.c ****   * @brief   Get the Option byte configuration
 405:Drivers/STM32L0xx_HAL_Driver/Src/stm32l0xx_hal_flash_ex.c ****   * @param  pOBInit pointer to an FLASH_OBInitStruct structure that
 406:Drivers/STM32L0xx_HAL_Driver/Src/stm32l0xx_hal_flash_ex.c ****   *         contains the configuration information for the programming.
 407:Drivers/STM32L0xx_HAL_Driver/Src/stm32l0xx_hal_flash_ex.c ****   * 
 408:Drivers/STM32L0xx_HAL_Driver/Src/stm32l0xx_hal_flash_ex.c ****   * @retval None
 409:Drivers/STM32L0xx_HAL_Driver/Src/stm32l0xx_hal_flash_ex.c ****   */
 410:Drivers/STM32L0xx_HAL_Driver/Src/stm32l0xx_hal_flash_ex.c **** void HAL_FLASHEx_OBGetConfig(FLASH_OBProgramInitTypeDef *pOBInit)
 411:Drivers/STM32L0xx_HAL_Driver/Src/stm32l0xx_hal_flash_ex.c **** {
 412:Drivers/STM32L0xx_HAL_Driver/Src/stm32l0xx_hal_flash_ex.c ****   pOBInit->OptionType = OPTIONBYTE_WRP | OPTIONBYTE_RDP | OPTIONBYTE_USER | OPTIONBYTE_BOR;
 413:Drivers/STM32L0xx_HAL_Driver/Src/stm32l0xx_hal_flash_ex.c **** 
 414:Drivers/STM32L0xx_HAL_Driver/Src/stm32l0xx_hal_flash_ex.c ****   /* Get WRP sector */
 415:Drivers/STM32L0xx_HAL_Driver/Src/stm32l0xx_hal_flash_ex.c ****   pOBInit->WRPSector = FLASH_OB_GetWRP();
 416:Drivers/STM32L0xx_HAL_Driver/Src/stm32l0xx_hal_flash_ex.c **** 
 417:Drivers/STM32L0xx_HAL_Driver/Src/stm32l0xx_hal_flash_ex.c **** #if defined(STM32L071xx) || defined(STM32L072xx) || defined(STM32L073xx) || defined(STM32L081xx) ||
 418:Drivers/STM32L0xx_HAL_Driver/Src/stm32l0xx_hal_flash_ex.c ****   pOBInit->WRPSector2 = FLASH_OB_GetWRP2();
 419:Drivers/STM32L0xx_HAL_Driver/Src/stm32l0xx_hal_flash_ex.c **** #endif
 420:Drivers/STM32L0xx_HAL_Driver/Src/stm32l0xx_hal_flash_ex.c **** 
 421:Drivers/STM32L0xx_HAL_Driver/Src/stm32l0xx_hal_flash_ex.c ****   /*Get RDP Level*/
 422:Drivers/STM32L0xx_HAL_Driver/Src/stm32l0xx_hal_flash_ex.c ****   pOBInit->RDPLevel   = FLASH_OB_GetRDP();
 423:Drivers/STM32L0xx_HAL_Driver/Src/stm32l0xx_hal_flash_ex.c **** 
 424:Drivers/STM32L0xx_HAL_Driver/Src/stm32l0xx_hal_flash_ex.c ****   /*Get USER*/
 425:Drivers/STM32L0xx_HAL_Driver/Src/stm32l0xx_hal_flash_ex.c ****   pOBInit->USERConfig = FLASH_OB_GetUser();
 426:Drivers/STM32L0xx_HAL_Driver/Src/stm32l0xx_hal_flash_ex.c **** 
 427:Drivers/STM32L0xx_HAL_Driver/Src/stm32l0xx_hal_flash_ex.c ****   /*Get BOR Level*/
 428:Drivers/STM32L0xx_HAL_Driver/Src/stm32l0xx_hal_flash_ex.c ****   pOBInit->BORLevel   = FLASH_OB_GetBOR();
 429:Drivers/STM32L0xx_HAL_Driver/Src/stm32l0xx_hal_flash_ex.c **** 
 430:Drivers/STM32L0xx_HAL_Driver/Src/stm32l0xx_hal_flash_ex.c ****   /* Get BOOT bit 1 config OB */
ARM GAS  /tmp/ccLymQqc.s 			page 9


 431:Drivers/STM32L0xx_HAL_Driver/Src/stm32l0xx_hal_flash_ex.c ****   pOBInit->BOOTBit1Config = FLASH_OB_GetBOOTBit1();
 432:Drivers/STM32L0xx_HAL_Driver/Src/stm32l0xx_hal_flash_ex.c **** }
 433:Drivers/STM32L0xx_HAL_Driver/Src/stm32l0xx_hal_flash_ex.c **** 
 434:Drivers/STM32L0xx_HAL_Driver/Src/stm32l0xx_hal_flash_ex.c **** #if defined(FLASH_OPTR_WPRMOD) || defined(FLASH_OPTR_BFB2)
 435:Drivers/STM32L0xx_HAL_Driver/Src/stm32l0xx_hal_flash_ex.c ****     
 436:Drivers/STM32L0xx_HAL_Driver/Src/stm32l0xx_hal_flash_ex.c **** /**
 437:Drivers/STM32L0xx_HAL_Driver/Src/stm32l0xx_hal_flash_ex.c ****   * @brief  Program option bytes
 438:Drivers/STM32L0xx_HAL_Driver/Src/stm32l0xx_hal_flash_ex.c ****   * @param  pAdvOBInit pointer to an FLASH_AdvOBProgramInitTypeDef structure that
 439:Drivers/STM32L0xx_HAL_Driver/Src/stm32l0xx_hal_flash_ex.c ****   *         contains the configuration information for the programming.
 440:Drivers/STM32L0xx_HAL_Driver/Src/stm32l0xx_hal_flash_ex.c ****   * 
 441:Drivers/STM32L0xx_HAL_Driver/Src/stm32l0xx_hal_flash_ex.c ****   * @retval HAL_StatusTypeDef HAL Status
 442:Drivers/STM32L0xx_HAL_Driver/Src/stm32l0xx_hal_flash_ex.c ****   */
 443:Drivers/STM32L0xx_HAL_Driver/Src/stm32l0xx_hal_flash_ex.c **** HAL_StatusTypeDef HAL_FLASHEx_AdvOBProgram (FLASH_AdvOBProgramInitTypeDef *pAdvOBInit)
 444:Drivers/STM32L0xx_HAL_Driver/Src/stm32l0xx_hal_flash_ex.c **** {
 445:Drivers/STM32L0xx_HAL_Driver/Src/stm32l0xx_hal_flash_ex.c ****   HAL_StatusTypeDef status = HAL_ERROR;
 446:Drivers/STM32L0xx_HAL_Driver/Src/stm32l0xx_hal_flash_ex.c ****   
 447:Drivers/STM32L0xx_HAL_Driver/Src/stm32l0xx_hal_flash_ex.c ****   /* Check the parameters */
 448:Drivers/STM32L0xx_HAL_Driver/Src/stm32l0xx_hal_flash_ex.c ****   assert_param(IS_OBEX(pAdvOBInit->OptionType));
 449:Drivers/STM32L0xx_HAL_Driver/Src/stm32l0xx_hal_flash_ex.c **** 
 450:Drivers/STM32L0xx_HAL_Driver/Src/stm32l0xx_hal_flash_ex.c **** #if defined(FLASH_OPTR_WPRMOD)
 451:Drivers/STM32L0xx_HAL_Driver/Src/stm32l0xx_hal_flash_ex.c ****     
 452:Drivers/STM32L0xx_HAL_Driver/Src/stm32l0xx_hal_flash_ex.c ****   /* Program PCROP option byte*/
 453:Drivers/STM32L0xx_HAL_Driver/Src/stm32l0xx_hal_flash_ex.c ****   if ((pAdvOBInit->OptionType & OPTIONBYTE_PCROP) == OPTIONBYTE_PCROP)
 454:Drivers/STM32L0xx_HAL_Driver/Src/stm32l0xx_hal_flash_ex.c ****   {
 455:Drivers/STM32L0xx_HAL_Driver/Src/stm32l0xx_hal_flash_ex.c ****     /* Check the parameters */
 456:Drivers/STM32L0xx_HAL_Driver/Src/stm32l0xx_hal_flash_ex.c ****     assert_param(IS_PCROPSTATE(pAdvOBInit->PCROPState));
 457:Drivers/STM32L0xx_HAL_Driver/Src/stm32l0xx_hal_flash_ex.c **** #if defined(STM32L071xx) || defined(STM32L072xx) || defined(STM32L073xx) || defined(STM32L081xx) ||
 458:Drivers/STM32L0xx_HAL_Driver/Src/stm32l0xx_hal_flash_ex.c ****     status = FLASH_OB_ProtectedSectorsConfig(pAdvOBInit->PCROPSector, pAdvOBInit->PCROPSector2, pAd
 459:Drivers/STM32L0xx_HAL_Driver/Src/stm32l0xx_hal_flash_ex.c **** #else
 460:Drivers/STM32L0xx_HAL_Driver/Src/stm32l0xx_hal_flash_ex.c ****     status = FLASH_OB_ProtectedSectorsConfig(pAdvOBInit->PCROPSector, pAdvOBInit->PCROPState);
 461:Drivers/STM32L0xx_HAL_Driver/Src/stm32l0xx_hal_flash_ex.c **** #endif
 462:Drivers/STM32L0xx_HAL_Driver/Src/stm32l0xx_hal_flash_ex.c ****   }
 463:Drivers/STM32L0xx_HAL_Driver/Src/stm32l0xx_hal_flash_ex.c ****   
 464:Drivers/STM32L0xx_HAL_Driver/Src/stm32l0xx_hal_flash_ex.c **** #endif /* FLASH_OPTR_WPRMOD */
 465:Drivers/STM32L0xx_HAL_Driver/Src/stm32l0xx_hal_flash_ex.c **** 
 466:Drivers/STM32L0xx_HAL_Driver/Src/stm32l0xx_hal_flash_ex.c **** #if defined(FLASH_OPTR_BFB2)
 467:Drivers/STM32L0xx_HAL_Driver/Src/stm32l0xx_hal_flash_ex.c ****     
 468:Drivers/STM32L0xx_HAL_Driver/Src/stm32l0xx_hal_flash_ex.c ****   /* Program BOOT config option byte */
 469:Drivers/STM32L0xx_HAL_Driver/Src/stm32l0xx_hal_flash_ex.c ****   if ((pAdvOBInit->OptionType & OPTIONBYTE_BOOTCONFIG) == OPTIONBYTE_BOOTCONFIG)
 470:Drivers/STM32L0xx_HAL_Driver/Src/stm32l0xx_hal_flash_ex.c ****   {
 471:Drivers/STM32L0xx_HAL_Driver/Src/stm32l0xx_hal_flash_ex.c ****     status = FLASH_OB_BootConfig(pAdvOBInit->BootConfig);
 472:Drivers/STM32L0xx_HAL_Driver/Src/stm32l0xx_hal_flash_ex.c ****   }
 473:Drivers/STM32L0xx_HAL_Driver/Src/stm32l0xx_hal_flash_ex.c ****   
 474:Drivers/STM32L0xx_HAL_Driver/Src/stm32l0xx_hal_flash_ex.c **** #endif /* FLASH_OPTR_BFB2 */
 475:Drivers/STM32L0xx_HAL_Driver/Src/stm32l0xx_hal_flash_ex.c **** 
 476:Drivers/STM32L0xx_HAL_Driver/Src/stm32l0xx_hal_flash_ex.c ****   return status;
 477:Drivers/STM32L0xx_HAL_Driver/Src/stm32l0xx_hal_flash_ex.c **** }
 478:Drivers/STM32L0xx_HAL_Driver/Src/stm32l0xx_hal_flash_ex.c **** 
 479:Drivers/STM32L0xx_HAL_Driver/Src/stm32l0xx_hal_flash_ex.c **** /**
 480:Drivers/STM32L0xx_HAL_Driver/Src/stm32l0xx_hal_flash_ex.c ****   * @brief  Get the OBEX byte configuration
 481:Drivers/STM32L0xx_HAL_Driver/Src/stm32l0xx_hal_flash_ex.c ****   * @param  pAdvOBInit pointer to an FLASH_AdvOBProgramInitTypeDef structure that
 482:Drivers/STM32L0xx_HAL_Driver/Src/stm32l0xx_hal_flash_ex.c ****   *         contains the configuration information for the programming.
 483:Drivers/STM32L0xx_HAL_Driver/Src/stm32l0xx_hal_flash_ex.c ****   * 
 484:Drivers/STM32L0xx_HAL_Driver/Src/stm32l0xx_hal_flash_ex.c ****   * @retval None
 485:Drivers/STM32L0xx_HAL_Driver/Src/stm32l0xx_hal_flash_ex.c ****   */
 486:Drivers/STM32L0xx_HAL_Driver/Src/stm32l0xx_hal_flash_ex.c **** void HAL_FLASHEx_AdvOBGetConfig(FLASH_AdvOBProgramInitTypeDef *pAdvOBInit)
 487:Drivers/STM32L0xx_HAL_Driver/Src/stm32l0xx_hal_flash_ex.c **** {
ARM GAS  /tmp/ccLymQqc.s 			page 10


 488:Drivers/STM32L0xx_HAL_Driver/Src/stm32l0xx_hal_flash_ex.c ****   pAdvOBInit->OptionType = 0;
 489:Drivers/STM32L0xx_HAL_Driver/Src/stm32l0xx_hal_flash_ex.c ****   
 490:Drivers/STM32L0xx_HAL_Driver/Src/stm32l0xx_hal_flash_ex.c **** #if defined(FLASH_OPTR_WPRMOD)
 491:Drivers/STM32L0xx_HAL_Driver/Src/stm32l0xx_hal_flash_ex.c ****       
 492:Drivers/STM32L0xx_HAL_Driver/Src/stm32l0xx_hal_flash_ex.c ****   pAdvOBInit->OptionType |= OPTIONBYTE_PCROP;
 493:Drivers/STM32L0xx_HAL_Driver/Src/stm32l0xx_hal_flash_ex.c **** 
 494:Drivers/STM32L0xx_HAL_Driver/Src/stm32l0xx_hal_flash_ex.c **** 
 495:Drivers/STM32L0xx_HAL_Driver/Src/stm32l0xx_hal_flash_ex.c ****   /* Get PCROP state */
 496:Drivers/STM32L0xx_HAL_Driver/Src/stm32l0xx_hal_flash_ex.c ****   pAdvOBInit->PCROPState = (FLASH->OPTR & FLASH_OPTR_WPRMOD) >> FLASH_OPTR_WPRMOD_Pos;
 497:Drivers/STM32L0xx_HAL_Driver/Src/stm32l0xx_hal_flash_ex.c ****   /* Get PCROP protected sector */
 498:Drivers/STM32L0xx_HAL_Driver/Src/stm32l0xx_hal_flash_ex.c ****   pAdvOBInit->PCROPSector = FLASH->WRPR;
 499:Drivers/STM32L0xx_HAL_Driver/Src/stm32l0xx_hal_flash_ex.c **** 
 500:Drivers/STM32L0xx_HAL_Driver/Src/stm32l0xx_hal_flash_ex.c **** #if defined(STM32L071xx) || defined(STM32L072xx) || defined(STM32L073xx) || defined(STM32L081xx) ||
 501:Drivers/STM32L0xx_HAL_Driver/Src/stm32l0xx_hal_flash_ex.c ****   /* Get PCROP protected sector */
 502:Drivers/STM32L0xx_HAL_Driver/Src/stm32l0xx_hal_flash_ex.c ****   pAdvOBInit->PCROPSector2 = FLASH->WRPR2;
 503:Drivers/STM32L0xx_HAL_Driver/Src/stm32l0xx_hal_flash_ex.c **** #endif
 504:Drivers/STM32L0xx_HAL_Driver/Src/stm32l0xx_hal_flash_ex.c **** #endif /* FLASH_OPTR_WPRMOD */
 505:Drivers/STM32L0xx_HAL_Driver/Src/stm32l0xx_hal_flash_ex.c **** 
 506:Drivers/STM32L0xx_HAL_Driver/Src/stm32l0xx_hal_flash_ex.c **** #if defined(FLASH_OPTR_BFB2)
 507:Drivers/STM32L0xx_HAL_Driver/Src/stm32l0xx_hal_flash_ex.c ****       
 508:Drivers/STM32L0xx_HAL_Driver/Src/stm32l0xx_hal_flash_ex.c ****   pAdvOBInit->OptionType |= OPTIONBYTE_BOOTCONFIG;
 509:Drivers/STM32L0xx_HAL_Driver/Src/stm32l0xx_hal_flash_ex.c **** 
 510:Drivers/STM32L0xx_HAL_Driver/Src/stm32l0xx_hal_flash_ex.c ****   /* Get Boot config OB */
 511:Drivers/STM32L0xx_HAL_Driver/Src/stm32l0xx_hal_flash_ex.c ****   pAdvOBInit->BootConfig = (FLASH->OPTR & FLASH_OPTR_BFB2) >> 16U;
 512:Drivers/STM32L0xx_HAL_Driver/Src/stm32l0xx_hal_flash_ex.c **** 
 513:Drivers/STM32L0xx_HAL_Driver/Src/stm32l0xx_hal_flash_ex.c **** #endif /* FLASH_OPTR_BFB2 */
 514:Drivers/STM32L0xx_HAL_Driver/Src/stm32l0xx_hal_flash_ex.c **** }
 515:Drivers/STM32L0xx_HAL_Driver/Src/stm32l0xx_hal_flash_ex.c **** 
 516:Drivers/STM32L0xx_HAL_Driver/Src/stm32l0xx_hal_flash_ex.c **** #endif /* FLASH_OPTR_WPRMOD || FLASH_OPTR_BFB2 */
 517:Drivers/STM32L0xx_HAL_Driver/Src/stm32l0xx_hal_flash_ex.c **** 
 518:Drivers/STM32L0xx_HAL_Driver/Src/stm32l0xx_hal_flash_ex.c **** #if defined(FLASH_OPTR_WPRMOD)
 519:Drivers/STM32L0xx_HAL_Driver/Src/stm32l0xx_hal_flash_ex.c **** 
 520:Drivers/STM32L0xx_HAL_Driver/Src/stm32l0xx_hal_flash_ex.c **** /**
 521:Drivers/STM32L0xx_HAL_Driver/Src/stm32l0xx_hal_flash_ex.c ****   * @brief  Select the Protection Mode (WPRMOD).
 522:Drivers/STM32L0xx_HAL_Driver/Src/stm32l0xx_hal_flash_ex.c ****   * @note   Once WPRMOD bit is active, unprotection of a protected sector is not possible 
 523:Drivers/STM32L0xx_HAL_Driver/Src/stm32l0xx_hal_flash_ex.c ****   * @note   Read a protected sector will set RDERR Flag and write a protected sector will set WRPER
 524:Drivers/STM32L0xx_HAL_Driver/Src/stm32l0xx_hal_flash_ex.c ****   * @retval HAL status
 525:Drivers/STM32L0xx_HAL_Driver/Src/stm32l0xx_hal_flash_ex.c ****   */
 526:Drivers/STM32L0xx_HAL_Driver/Src/stm32l0xx_hal_flash_ex.c **** HAL_StatusTypeDef HAL_FLASHEx_OB_SelectPCROP(void)
 527:Drivers/STM32L0xx_HAL_Driver/Src/stm32l0xx_hal_flash_ex.c **** {
 528:Drivers/STM32L0xx_HAL_Driver/Src/stm32l0xx_hal_flash_ex.c ****   HAL_StatusTypeDef status = HAL_OK;
 529:Drivers/STM32L0xx_HAL_Driver/Src/stm32l0xx_hal_flash_ex.c ****   uint16_t tmp1 = 0;
 530:Drivers/STM32L0xx_HAL_Driver/Src/stm32l0xx_hal_flash_ex.c ****   uint32_t tmp2 = 0;
 531:Drivers/STM32L0xx_HAL_Driver/Src/stm32l0xx_hal_flash_ex.c ****   uint8_t optiontmp = 0;
 532:Drivers/STM32L0xx_HAL_Driver/Src/stm32l0xx_hal_flash_ex.c ****   uint16_t optiontmp2 = 0;
 533:Drivers/STM32L0xx_HAL_Driver/Src/stm32l0xx_hal_flash_ex.c ****   
 534:Drivers/STM32L0xx_HAL_Driver/Src/stm32l0xx_hal_flash_ex.c ****   status = FLASH_WaitForLastOperation(FLASH_TIMEOUT_VALUE);
 535:Drivers/STM32L0xx_HAL_Driver/Src/stm32l0xx_hal_flash_ex.c ****   
 536:Drivers/STM32L0xx_HAL_Driver/Src/stm32l0xx_hal_flash_ex.c ****   /* Mask RDP Byte */
 537:Drivers/STM32L0xx_HAL_Driver/Src/stm32l0xx_hal_flash_ex.c ****   optiontmp =  (uint8_t)(*(__IO uint8_t *)(OB_BASE)); 
 538:Drivers/STM32L0xx_HAL_Driver/Src/stm32l0xx_hal_flash_ex.c ****   
 539:Drivers/STM32L0xx_HAL_Driver/Src/stm32l0xx_hal_flash_ex.c ****   /* Update Option Byte */
 540:Drivers/STM32L0xx_HAL_Driver/Src/stm32l0xx_hal_flash_ex.c ****   optiontmp2 = (uint16_t)(OB_PCROP_SELECTED | optiontmp); 
 541:Drivers/STM32L0xx_HAL_Driver/Src/stm32l0xx_hal_flash_ex.c ****   
 542:Drivers/STM32L0xx_HAL_Driver/Src/stm32l0xx_hal_flash_ex.c ****   /* calculate the option byte to write */
 543:Drivers/STM32L0xx_HAL_Driver/Src/stm32l0xx_hal_flash_ex.c ****   tmp1 = (uint16_t)(~(optiontmp2 ));
 544:Drivers/STM32L0xx_HAL_Driver/Src/stm32l0xx_hal_flash_ex.c ****   tmp2 = (uint32_t)(((uint32_t)((uint32_t)(tmp1) << 16U)) | ((uint32_t)optiontmp2));
ARM GAS  /tmp/ccLymQqc.s 			page 11


 545:Drivers/STM32L0xx_HAL_Driver/Src/stm32l0xx_hal_flash_ex.c ****   
 546:Drivers/STM32L0xx_HAL_Driver/Src/stm32l0xx_hal_flash_ex.c ****   if(status == HAL_OK)
 547:Drivers/STM32L0xx_HAL_Driver/Src/stm32l0xx_hal_flash_ex.c ****   {         
 548:Drivers/STM32L0xx_HAL_Driver/Src/stm32l0xx_hal_flash_ex.c ****     /* Clean the error context */
 549:Drivers/STM32L0xx_HAL_Driver/Src/stm32l0xx_hal_flash_ex.c ****     pFlash.ErrorCode = HAL_FLASH_ERROR_NONE;
 550:Drivers/STM32L0xx_HAL_Driver/Src/stm32l0xx_hal_flash_ex.c **** 
 551:Drivers/STM32L0xx_HAL_Driver/Src/stm32l0xx_hal_flash_ex.c ****     /* program PCRop */
 552:Drivers/STM32L0xx_HAL_Driver/Src/stm32l0xx_hal_flash_ex.c ****     OB->RDP = tmp2;
 553:Drivers/STM32L0xx_HAL_Driver/Src/stm32l0xx_hal_flash_ex.c ****     
 554:Drivers/STM32L0xx_HAL_Driver/Src/stm32l0xx_hal_flash_ex.c ****     /* Wait for last operation to be completed */
 555:Drivers/STM32L0xx_HAL_Driver/Src/stm32l0xx_hal_flash_ex.c ****     status = FLASH_WaitForLastOperation(FLASH_TIMEOUT_VALUE);
 556:Drivers/STM32L0xx_HAL_Driver/Src/stm32l0xx_hal_flash_ex.c ****   }
 557:Drivers/STM32L0xx_HAL_Driver/Src/stm32l0xx_hal_flash_ex.c ****   
 558:Drivers/STM32L0xx_HAL_Driver/Src/stm32l0xx_hal_flash_ex.c ****   /* Return the Read protection operation Status */
 559:Drivers/STM32L0xx_HAL_Driver/Src/stm32l0xx_hal_flash_ex.c ****   return status;            
 560:Drivers/STM32L0xx_HAL_Driver/Src/stm32l0xx_hal_flash_ex.c **** }
 561:Drivers/STM32L0xx_HAL_Driver/Src/stm32l0xx_hal_flash_ex.c **** 
 562:Drivers/STM32L0xx_HAL_Driver/Src/stm32l0xx_hal_flash_ex.c **** /**
 563:Drivers/STM32L0xx_HAL_Driver/Src/stm32l0xx_hal_flash_ex.c ****   * @brief  Deselect the Protection Mode (WPRMOD).
 564:Drivers/STM32L0xx_HAL_Driver/Src/stm32l0xx_hal_flash_ex.c ****   * @note   Once WPRMOD bit is active, unprotection of a protected sector is not possible 
 565:Drivers/STM32L0xx_HAL_Driver/Src/stm32l0xx_hal_flash_ex.c ****   * @note   Read a protected sector will set RDERR Flag and write a protected sector will set WRPER
 566:Drivers/STM32L0xx_HAL_Driver/Src/stm32l0xx_hal_flash_ex.c ****   * @retval HAL status
 567:Drivers/STM32L0xx_HAL_Driver/Src/stm32l0xx_hal_flash_ex.c ****   */
 568:Drivers/STM32L0xx_HAL_Driver/Src/stm32l0xx_hal_flash_ex.c **** HAL_StatusTypeDef HAL_FLASHEx_OB_DeSelectPCROP(void)
 569:Drivers/STM32L0xx_HAL_Driver/Src/stm32l0xx_hal_flash_ex.c **** {
 570:Drivers/STM32L0xx_HAL_Driver/Src/stm32l0xx_hal_flash_ex.c ****   HAL_StatusTypeDef status = HAL_OK;
 571:Drivers/STM32L0xx_HAL_Driver/Src/stm32l0xx_hal_flash_ex.c ****   uint16_t tmp1 = 0;
 572:Drivers/STM32L0xx_HAL_Driver/Src/stm32l0xx_hal_flash_ex.c ****   uint32_t tmp2 = 0;
 573:Drivers/STM32L0xx_HAL_Driver/Src/stm32l0xx_hal_flash_ex.c ****   uint8_t optiontmp = 0;
 574:Drivers/STM32L0xx_HAL_Driver/Src/stm32l0xx_hal_flash_ex.c ****   uint16_t optiontmp2 = 0;
 575:Drivers/STM32L0xx_HAL_Driver/Src/stm32l0xx_hal_flash_ex.c ****   
 576:Drivers/STM32L0xx_HAL_Driver/Src/stm32l0xx_hal_flash_ex.c ****   status = FLASH_WaitForLastOperation(FLASH_TIMEOUT_VALUE);
 577:Drivers/STM32L0xx_HAL_Driver/Src/stm32l0xx_hal_flash_ex.c ****   
 578:Drivers/STM32L0xx_HAL_Driver/Src/stm32l0xx_hal_flash_ex.c ****   /* Mask RDP Byte */
 579:Drivers/STM32L0xx_HAL_Driver/Src/stm32l0xx_hal_flash_ex.c ****   optiontmp =  (uint8_t)(*(__IO uint8_t *)(OB_BASE)); 
 580:Drivers/STM32L0xx_HAL_Driver/Src/stm32l0xx_hal_flash_ex.c ****   
 581:Drivers/STM32L0xx_HAL_Driver/Src/stm32l0xx_hal_flash_ex.c ****   /* Update Option Byte */
 582:Drivers/STM32L0xx_HAL_Driver/Src/stm32l0xx_hal_flash_ex.c ****   optiontmp2 = (uint16_t)(OB_PCROP_DESELECTED | optiontmp); 
 583:Drivers/STM32L0xx_HAL_Driver/Src/stm32l0xx_hal_flash_ex.c ****   
 584:Drivers/STM32L0xx_HAL_Driver/Src/stm32l0xx_hal_flash_ex.c ****   /* calculate the option byte to write */
 585:Drivers/STM32L0xx_HAL_Driver/Src/stm32l0xx_hal_flash_ex.c ****   tmp1 = (uint16_t)(~(optiontmp2 ));
 586:Drivers/STM32L0xx_HAL_Driver/Src/stm32l0xx_hal_flash_ex.c ****   tmp2 = (uint32_t)(((uint32_t)((uint32_t)(tmp1) << 16U)) | ((uint32_t)optiontmp2));
 587:Drivers/STM32L0xx_HAL_Driver/Src/stm32l0xx_hal_flash_ex.c ****   
 588:Drivers/STM32L0xx_HAL_Driver/Src/stm32l0xx_hal_flash_ex.c ****   if(status == HAL_OK)
 589:Drivers/STM32L0xx_HAL_Driver/Src/stm32l0xx_hal_flash_ex.c ****   {         
 590:Drivers/STM32L0xx_HAL_Driver/Src/stm32l0xx_hal_flash_ex.c ****     /* Clean the error context */
 591:Drivers/STM32L0xx_HAL_Driver/Src/stm32l0xx_hal_flash_ex.c ****     pFlash.ErrorCode = HAL_FLASH_ERROR_NONE;
 592:Drivers/STM32L0xx_HAL_Driver/Src/stm32l0xx_hal_flash_ex.c **** 
 593:Drivers/STM32L0xx_HAL_Driver/Src/stm32l0xx_hal_flash_ex.c ****     /* program PCRop */
 594:Drivers/STM32L0xx_HAL_Driver/Src/stm32l0xx_hal_flash_ex.c ****     OB->RDP = tmp2;
 595:Drivers/STM32L0xx_HAL_Driver/Src/stm32l0xx_hal_flash_ex.c ****     
 596:Drivers/STM32L0xx_HAL_Driver/Src/stm32l0xx_hal_flash_ex.c ****     /* Wait for last operation to be completed */
 597:Drivers/STM32L0xx_HAL_Driver/Src/stm32l0xx_hal_flash_ex.c ****     status = FLASH_WaitForLastOperation(FLASH_TIMEOUT_VALUE);
 598:Drivers/STM32L0xx_HAL_Driver/Src/stm32l0xx_hal_flash_ex.c ****   }
 599:Drivers/STM32L0xx_HAL_Driver/Src/stm32l0xx_hal_flash_ex.c ****   
 600:Drivers/STM32L0xx_HAL_Driver/Src/stm32l0xx_hal_flash_ex.c ****   /* Return the Read protection operation Status */
 601:Drivers/STM32L0xx_HAL_Driver/Src/stm32l0xx_hal_flash_ex.c ****   return status;            
ARM GAS  /tmp/ccLymQqc.s 			page 12


 602:Drivers/STM32L0xx_HAL_Driver/Src/stm32l0xx_hal_flash_ex.c **** }
 603:Drivers/STM32L0xx_HAL_Driver/Src/stm32l0xx_hal_flash_ex.c **** 
 604:Drivers/STM32L0xx_HAL_Driver/Src/stm32l0xx_hal_flash_ex.c **** #endif /* FLASH_OPTR_WPRMOD */
 605:Drivers/STM32L0xx_HAL_Driver/Src/stm32l0xx_hal_flash_ex.c **** 
 606:Drivers/STM32L0xx_HAL_Driver/Src/stm32l0xx_hal_flash_ex.c **** /**
 607:Drivers/STM32L0xx_HAL_Driver/Src/stm32l0xx_hal_flash_ex.c ****   * @}
 608:Drivers/STM32L0xx_HAL_Driver/Src/stm32l0xx_hal_flash_ex.c ****   */
 609:Drivers/STM32L0xx_HAL_Driver/Src/stm32l0xx_hal_flash_ex.c **** 
 610:Drivers/STM32L0xx_HAL_Driver/Src/stm32l0xx_hal_flash_ex.c **** /** @defgroup FLASHEx_Exported_Functions_Group3 DATA EEPROM Programming functions
 611:Drivers/STM32L0xx_HAL_Driver/Src/stm32l0xx_hal_flash_ex.c ****  *  @brief   DATA EEPROM Programming functions
 612:Drivers/STM32L0xx_HAL_Driver/Src/stm32l0xx_hal_flash_ex.c ****  *
 613:Drivers/STM32L0xx_HAL_Driver/Src/stm32l0xx_hal_flash_ex.c **** @verbatim   
 614:Drivers/STM32L0xx_HAL_Driver/Src/stm32l0xx_hal_flash_ex.c ****  ===============================================================================
 615:Drivers/STM32L0xx_HAL_Driver/Src/stm32l0xx_hal_flash_ex.c ****                      ##### DATA EEPROM Programming functions ##### 
 616:Drivers/STM32L0xx_HAL_Driver/Src/stm32l0xx_hal_flash_ex.c ****  ===============================================================================  
 617:Drivers/STM32L0xx_HAL_Driver/Src/stm32l0xx_hal_flash_ex.c ****  
 618:Drivers/STM32L0xx_HAL_Driver/Src/stm32l0xx_hal_flash_ex.c ****     [..] Any operation of erase or program should follow these steps:
 619:Drivers/STM32L0xx_HAL_Driver/Src/stm32l0xx_hal_flash_ex.c ****     (#) Call the @ref HAL_FLASHEx_DATAEEPROM_Unlock() function to enable the data EEPROM access
 620:Drivers/STM32L0xx_HAL_Driver/Src/stm32l0xx_hal_flash_ex.c ****         and Flash program erase control register access.
 621:Drivers/STM32L0xx_HAL_Driver/Src/stm32l0xx_hal_flash_ex.c ****     (#) Call the desired function to erase or program data.
 622:Drivers/STM32L0xx_HAL_Driver/Src/stm32l0xx_hal_flash_ex.c ****     (#) Call the @ref HAL_FLASHEx_DATAEEPROM_Lock() to disable the data EEPROM access
 623:Drivers/STM32L0xx_HAL_Driver/Src/stm32l0xx_hal_flash_ex.c ****         and Flash program erase control register access(recommended
 624:Drivers/STM32L0xx_HAL_Driver/Src/stm32l0xx_hal_flash_ex.c ****         to protect the DATA_EEPROM against possible unwanted operation).
 625:Drivers/STM32L0xx_HAL_Driver/Src/stm32l0xx_hal_flash_ex.c **** 
 626:Drivers/STM32L0xx_HAL_Driver/Src/stm32l0xx_hal_flash_ex.c **** @endverbatim
 627:Drivers/STM32L0xx_HAL_Driver/Src/stm32l0xx_hal_flash_ex.c ****   * @{
 628:Drivers/STM32L0xx_HAL_Driver/Src/stm32l0xx_hal_flash_ex.c ****   */
 629:Drivers/STM32L0xx_HAL_Driver/Src/stm32l0xx_hal_flash_ex.c **** 
 630:Drivers/STM32L0xx_HAL_Driver/Src/stm32l0xx_hal_flash_ex.c **** /**
 631:Drivers/STM32L0xx_HAL_Driver/Src/stm32l0xx_hal_flash_ex.c ****   * @brief  Unlocks the data memory and FLASH_PECR register access.
 632:Drivers/STM32L0xx_HAL_Driver/Src/stm32l0xx_hal_flash_ex.c ****   * @retval HAL_StatusTypeDef HAL Status
 633:Drivers/STM32L0xx_HAL_Driver/Src/stm32l0xx_hal_flash_ex.c ****   */
 634:Drivers/STM32L0xx_HAL_Driver/Src/stm32l0xx_hal_flash_ex.c **** HAL_StatusTypeDef HAL_FLASHEx_DATAEEPROM_Unlock(void)
 635:Drivers/STM32L0xx_HAL_Driver/Src/stm32l0xx_hal_flash_ex.c **** {
 636:Drivers/STM32L0xx_HAL_Driver/Src/stm32l0xx_hal_flash_ex.c ****   uint32_t primask_bit;
 637:Drivers/STM32L0xx_HAL_Driver/Src/stm32l0xx_hal_flash_ex.c **** 
 638:Drivers/STM32L0xx_HAL_Driver/Src/stm32l0xx_hal_flash_ex.c ****   if((FLASH->PECR & FLASH_PECR_PELOCK) != RESET)
 639:Drivers/STM32L0xx_HAL_Driver/Src/stm32l0xx_hal_flash_ex.c ****   {  
 640:Drivers/STM32L0xx_HAL_Driver/Src/stm32l0xx_hal_flash_ex.c ****     /* Disable interrupts to avoid any interruption during unlock sequence */
 641:Drivers/STM32L0xx_HAL_Driver/Src/stm32l0xx_hal_flash_ex.c ****     primask_bit = __get_PRIMASK();
 642:Drivers/STM32L0xx_HAL_Driver/Src/stm32l0xx_hal_flash_ex.c ****     __disable_irq();
 643:Drivers/STM32L0xx_HAL_Driver/Src/stm32l0xx_hal_flash_ex.c **** 
 644:Drivers/STM32L0xx_HAL_Driver/Src/stm32l0xx_hal_flash_ex.c ****     /* Unlocking the Data memory and FLASH_PECR register access*/
 645:Drivers/STM32L0xx_HAL_Driver/Src/stm32l0xx_hal_flash_ex.c ****     FLASH->PEKEYR = FLASH_PEKEY1;
 646:Drivers/STM32L0xx_HAL_Driver/Src/stm32l0xx_hal_flash_ex.c ****     FLASH->PEKEYR = FLASH_PEKEY2;
 647:Drivers/STM32L0xx_HAL_Driver/Src/stm32l0xx_hal_flash_ex.c **** 
 648:Drivers/STM32L0xx_HAL_Driver/Src/stm32l0xx_hal_flash_ex.c ****     /* Re-enable the interrupts: restore previous priority mask */
 649:Drivers/STM32L0xx_HAL_Driver/Src/stm32l0xx_hal_flash_ex.c ****     __set_PRIMASK(primask_bit);
 650:Drivers/STM32L0xx_HAL_Driver/Src/stm32l0xx_hal_flash_ex.c **** 
 651:Drivers/STM32L0xx_HAL_Driver/Src/stm32l0xx_hal_flash_ex.c ****     if((FLASH->PECR & FLASH_PECR_PELOCK) != RESET)
 652:Drivers/STM32L0xx_HAL_Driver/Src/stm32l0xx_hal_flash_ex.c ****     {
 653:Drivers/STM32L0xx_HAL_Driver/Src/stm32l0xx_hal_flash_ex.c ****       return HAL_ERROR;
 654:Drivers/STM32L0xx_HAL_Driver/Src/stm32l0xx_hal_flash_ex.c ****     }
 655:Drivers/STM32L0xx_HAL_Driver/Src/stm32l0xx_hal_flash_ex.c ****   }
 656:Drivers/STM32L0xx_HAL_Driver/Src/stm32l0xx_hal_flash_ex.c **** 
 657:Drivers/STM32L0xx_HAL_Driver/Src/stm32l0xx_hal_flash_ex.c ****   return HAL_OK;  
 658:Drivers/STM32L0xx_HAL_Driver/Src/stm32l0xx_hal_flash_ex.c **** }
ARM GAS  /tmp/ccLymQqc.s 			page 13


 659:Drivers/STM32L0xx_HAL_Driver/Src/stm32l0xx_hal_flash_ex.c **** 
 660:Drivers/STM32L0xx_HAL_Driver/Src/stm32l0xx_hal_flash_ex.c **** /**
 661:Drivers/STM32L0xx_HAL_Driver/Src/stm32l0xx_hal_flash_ex.c ****   * @brief  Locks the Data memory and FLASH_PECR register access.
 662:Drivers/STM32L0xx_HAL_Driver/Src/stm32l0xx_hal_flash_ex.c ****   * @retval HAL_StatusTypeDef HAL Status
 663:Drivers/STM32L0xx_HAL_Driver/Src/stm32l0xx_hal_flash_ex.c ****   */
 664:Drivers/STM32L0xx_HAL_Driver/Src/stm32l0xx_hal_flash_ex.c **** HAL_StatusTypeDef HAL_FLASHEx_DATAEEPROM_Lock(void)
 665:Drivers/STM32L0xx_HAL_Driver/Src/stm32l0xx_hal_flash_ex.c **** {
 666:Drivers/STM32L0xx_HAL_Driver/Src/stm32l0xx_hal_flash_ex.c ****   /* Set the PELOCK Bit to lock the data memory and FLASH_PECR register access */
 667:Drivers/STM32L0xx_HAL_Driver/Src/stm32l0xx_hal_flash_ex.c ****   SET_BIT(FLASH->PECR, FLASH_PECR_PELOCK);
 668:Drivers/STM32L0xx_HAL_Driver/Src/stm32l0xx_hal_flash_ex.c ****   
 669:Drivers/STM32L0xx_HAL_Driver/Src/stm32l0xx_hal_flash_ex.c ****   return HAL_OK;
 670:Drivers/STM32L0xx_HAL_Driver/Src/stm32l0xx_hal_flash_ex.c **** }
 671:Drivers/STM32L0xx_HAL_Driver/Src/stm32l0xx_hal_flash_ex.c **** 
 672:Drivers/STM32L0xx_HAL_Driver/Src/stm32l0xx_hal_flash_ex.c **** /**
 673:Drivers/STM32L0xx_HAL_Driver/Src/stm32l0xx_hal_flash_ex.c ****   * @brief  Erase a word in data memory.
 674:Drivers/STM32L0xx_HAL_Driver/Src/stm32l0xx_hal_flash_ex.c ****   * @param  Address specifies the address to be erased.
 675:Drivers/STM32L0xx_HAL_Driver/Src/stm32l0xx_hal_flash_ex.c ****   * @note   To correctly run this function, the @ref HAL_FLASHEx_DATAEEPROM_Unlock() function
 676:Drivers/STM32L0xx_HAL_Driver/Src/stm32l0xx_hal_flash_ex.c ****   *         must be called before.
 677:Drivers/STM32L0xx_HAL_Driver/Src/stm32l0xx_hal_flash_ex.c ****   *         Call the @ref HAL_FLASHEx_DATAEEPROM_Lock() to the data EEPROM access
 678:Drivers/STM32L0xx_HAL_Driver/Src/stm32l0xx_hal_flash_ex.c ****   *         and Flash program erase control register access(recommended to protect 
 679:Drivers/STM32L0xx_HAL_Driver/Src/stm32l0xx_hal_flash_ex.c ****   *         the DATA_EEPROM against possible unwanted operation).
 680:Drivers/STM32L0xx_HAL_Driver/Src/stm32l0xx_hal_flash_ex.c ****   * @retval HAL_StatusTypeDef HAL Status
 681:Drivers/STM32L0xx_HAL_Driver/Src/stm32l0xx_hal_flash_ex.c ****   */
 682:Drivers/STM32L0xx_HAL_Driver/Src/stm32l0xx_hal_flash_ex.c **** HAL_StatusTypeDef HAL_FLASHEx_DATAEEPROM_Erase(uint32_t Address)
 683:Drivers/STM32L0xx_HAL_Driver/Src/stm32l0xx_hal_flash_ex.c **** {
 684:Drivers/STM32L0xx_HAL_Driver/Src/stm32l0xx_hal_flash_ex.c ****   HAL_StatusTypeDef status = HAL_OK;
 685:Drivers/STM32L0xx_HAL_Driver/Src/stm32l0xx_hal_flash_ex.c ****   
 686:Drivers/STM32L0xx_HAL_Driver/Src/stm32l0xx_hal_flash_ex.c ****   /* Check the parameters */
 687:Drivers/STM32L0xx_HAL_Driver/Src/stm32l0xx_hal_flash_ex.c ****   assert_param(IS_FLASH_DATA_ADDRESS(Address));
 688:Drivers/STM32L0xx_HAL_Driver/Src/stm32l0xx_hal_flash_ex.c ****   
 689:Drivers/STM32L0xx_HAL_Driver/Src/stm32l0xx_hal_flash_ex.c ****   /* Wait for last operation to be completed */
 690:Drivers/STM32L0xx_HAL_Driver/Src/stm32l0xx_hal_flash_ex.c ****   status = FLASH_WaitForLastOperation(FLASH_TIMEOUT_VALUE);
 691:Drivers/STM32L0xx_HAL_Driver/Src/stm32l0xx_hal_flash_ex.c ****   
 692:Drivers/STM32L0xx_HAL_Driver/Src/stm32l0xx_hal_flash_ex.c ****   if(status == HAL_OK)
 693:Drivers/STM32L0xx_HAL_Driver/Src/stm32l0xx_hal_flash_ex.c ****   {
 694:Drivers/STM32L0xx_HAL_Driver/Src/stm32l0xx_hal_flash_ex.c ****     /* Clean the error context */
 695:Drivers/STM32L0xx_HAL_Driver/Src/stm32l0xx_hal_flash_ex.c ****     pFlash.ErrorCode = HAL_FLASH_ERROR_NONE;
 696:Drivers/STM32L0xx_HAL_Driver/Src/stm32l0xx_hal_flash_ex.c **** 
 697:Drivers/STM32L0xx_HAL_Driver/Src/stm32l0xx_hal_flash_ex.c ****       /* Write 00000000h to valid address in the data memory */
 698:Drivers/STM32L0xx_HAL_Driver/Src/stm32l0xx_hal_flash_ex.c ****       *(__IO uint32_t *) Address = 0x00000000U;
 699:Drivers/STM32L0xx_HAL_Driver/Src/stm32l0xx_hal_flash_ex.c **** 
 700:Drivers/STM32L0xx_HAL_Driver/Src/stm32l0xx_hal_flash_ex.c ****     status = FLASH_WaitForLastOperation(FLASH_TIMEOUT_VALUE);
 701:Drivers/STM32L0xx_HAL_Driver/Src/stm32l0xx_hal_flash_ex.c ****   }
 702:Drivers/STM32L0xx_HAL_Driver/Src/stm32l0xx_hal_flash_ex.c ****    
 703:Drivers/STM32L0xx_HAL_Driver/Src/stm32l0xx_hal_flash_ex.c ****   /* Return the erase status */
 704:Drivers/STM32L0xx_HAL_Driver/Src/stm32l0xx_hal_flash_ex.c ****   return status;
 705:Drivers/STM32L0xx_HAL_Driver/Src/stm32l0xx_hal_flash_ex.c **** }  
 706:Drivers/STM32L0xx_HAL_Driver/Src/stm32l0xx_hal_flash_ex.c **** 
 707:Drivers/STM32L0xx_HAL_Driver/Src/stm32l0xx_hal_flash_ex.c **** /**
 708:Drivers/STM32L0xx_HAL_Driver/Src/stm32l0xx_hal_flash_ex.c ****   * @brief  Program word at a specified address
 709:Drivers/STM32L0xx_HAL_Driver/Src/stm32l0xx_hal_flash_ex.c ****   * @note   To correctly run this function, the @ref HAL_FLASHEx_DATAEEPROM_Unlock() function
 710:Drivers/STM32L0xx_HAL_Driver/Src/stm32l0xx_hal_flash_ex.c ****   *         must be called before.
 711:Drivers/STM32L0xx_HAL_Driver/Src/stm32l0xx_hal_flash_ex.c ****   *         Call the @ref HAL_FLASHEx_DATAEEPROM_Unlock() to he data EEPROM access
 712:Drivers/STM32L0xx_HAL_Driver/Src/stm32l0xx_hal_flash_ex.c ****   *         and Flash program erase control register access(recommended to protect 
 713:Drivers/STM32L0xx_HAL_Driver/Src/stm32l0xx_hal_flash_ex.c ****   *         the DATA_EEPROM against possible unwanted operation).
 714:Drivers/STM32L0xx_HAL_Driver/Src/stm32l0xx_hal_flash_ex.c ****   * @note   The function @ref HAL_FLASHEx_DATAEEPROM_EnableFixedTimeProgram() can be called before 
 715:Drivers/STM32L0xx_HAL_Driver/Src/stm32l0xx_hal_flash_ex.c ****   *         this function to configure the Fixed Time Programming.
ARM GAS  /tmp/ccLymQqc.s 			page 14


 716:Drivers/STM32L0xx_HAL_Driver/Src/stm32l0xx_hal_flash_ex.c ****   * @param  TypeProgram  Indicate the way to program at a specified address.
 717:Drivers/STM32L0xx_HAL_Driver/Src/stm32l0xx_hal_flash_ex.c ****   *         This parameter can be a value of @ref FLASHEx_Type_Program_Data
 718:Drivers/STM32L0xx_HAL_Driver/Src/stm32l0xx_hal_flash_ex.c ****   * @param  Address  specifie the address to be programmed.
 719:Drivers/STM32L0xx_HAL_Driver/Src/stm32l0xx_hal_flash_ex.c ****   * @param  Data     specifie the data to be programmed
 720:Drivers/STM32L0xx_HAL_Driver/Src/stm32l0xx_hal_flash_ex.c ****   * 
 721:Drivers/STM32L0xx_HAL_Driver/Src/stm32l0xx_hal_flash_ex.c ****   * @retval HAL_StatusTypeDef HAL Status
 722:Drivers/STM32L0xx_HAL_Driver/Src/stm32l0xx_hal_flash_ex.c ****   */
 723:Drivers/STM32L0xx_HAL_Driver/Src/stm32l0xx_hal_flash_ex.c **** 
 724:Drivers/STM32L0xx_HAL_Driver/Src/stm32l0xx_hal_flash_ex.c **** HAL_StatusTypeDef   HAL_FLASHEx_DATAEEPROM_Program(uint32_t TypeProgram, uint32_t Address, uint32_t
 725:Drivers/STM32L0xx_HAL_Driver/Src/stm32l0xx_hal_flash_ex.c **** {
 726:Drivers/STM32L0xx_HAL_Driver/Src/stm32l0xx_hal_flash_ex.c ****   HAL_StatusTypeDef status = HAL_ERROR;
 727:Drivers/STM32L0xx_HAL_Driver/Src/stm32l0xx_hal_flash_ex.c ****   
 728:Drivers/STM32L0xx_HAL_Driver/Src/stm32l0xx_hal_flash_ex.c ****   /* Process Locked */
 729:Drivers/STM32L0xx_HAL_Driver/Src/stm32l0xx_hal_flash_ex.c ****   __HAL_LOCK(&pFlash);
 730:Drivers/STM32L0xx_HAL_Driver/Src/stm32l0xx_hal_flash_ex.c **** 
 731:Drivers/STM32L0xx_HAL_Driver/Src/stm32l0xx_hal_flash_ex.c ****   /* Check the parameters */
 732:Drivers/STM32L0xx_HAL_Driver/Src/stm32l0xx_hal_flash_ex.c ****   assert_param(IS_TYPEPROGRAMDATA(TypeProgram));
 733:Drivers/STM32L0xx_HAL_Driver/Src/stm32l0xx_hal_flash_ex.c ****   assert_param(IS_FLASH_DATA_ADDRESS(Address));
 734:Drivers/STM32L0xx_HAL_Driver/Src/stm32l0xx_hal_flash_ex.c **** 
 735:Drivers/STM32L0xx_HAL_Driver/Src/stm32l0xx_hal_flash_ex.c ****   /* Wait for last operation to be completed */
 736:Drivers/STM32L0xx_HAL_Driver/Src/stm32l0xx_hal_flash_ex.c ****   status = FLASH_WaitForLastOperation(FLASH_TIMEOUT_VALUE);
 737:Drivers/STM32L0xx_HAL_Driver/Src/stm32l0xx_hal_flash_ex.c ****   
 738:Drivers/STM32L0xx_HAL_Driver/Src/stm32l0xx_hal_flash_ex.c ****   if(status == HAL_OK)
 739:Drivers/STM32L0xx_HAL_Driver/Src/stm32l0xx_hal_flash_ex.c ****   {
 740:Drivers/STM32L0xx_HAL_Driver/Src/stm32l0xx_hal_flash_ex.c ****     /* Clean the error context */
 741:Drivers/STM32L0xx_HAL_Driver/Src/stm32l0xx_hal_flash_ex.c ****     pFlash.ErrorCode = HAL_FLASH_ERROR_NONE;
 742:Drivers/STM32L0xx_HAL_Driver/Src/stm32l0xx_hal_flash_ex.c **** 
 743:Drivers/STM32L0xx_HAL_Driver/Src/stm32l0xx_hal_flash_ex.c ****     if(TypeProgram == FLASH_TYPEPROGRAMDATA_WORD)
 744:Drivers/STM32L0xx_HAL_Driver/Src/stm32l0xx_hal_flash_ex.c ****     {
 745:Drivers/STM32L0xx_HAL_Driver/Src/stm32l0xx_hal_flash_ex.c ****       /* Program word (32-bit) at a specified address.*/
 746:Drivers/STM32L0xx_HAL_Driver/Src/stm32l0xx_hal_flash_ex.c ****       *(__IO uint32_t *)Address = Data;
 747:Drivers/STM32L0xx_HAL_Driver/Src/stm32l0xx_hal_flash_ex.c ****     }
 748:Drivers/STM32L0xx_HAL_Driver/Src/stm32l0xx_hal_flash_ex.c ****     else if(TypeProgram == FLASH_TYPEPROGRAMDATA_HALFWORD)
 749:Drivers/STM32L0xx_HAL_Driver/Src/stm32l0xx_hal_flash_ex.c ****     {
 750:Drivers/STM32L0xx_HAL_Driver/Src/stm32l0xx_hal_flash_ex.c ****       /* Program halfword (16-bit) at a specified address.*/
 751:Drivers/STM32L0xx_HAL_Driver/Src/stm32l0xx_hal_flash_ex.c ****       *(__IO uint16_t *)Address = (uint16_t) Data;
 752:Drivers/STM32L0xx_HAL_Driver/Src/stm32l0xx_hal_flash_ex.c ****     }
 753:Drivers/STM32L0xx_HAL_Driver/Src/stm32l0xx_hal_flash_ex.c ****     else if(TypeProgram == FLASH_TYPEPROGRAMDATA_BYTE)
 754:Drivers/STM32L0xx_HAL_Driver/Src/stm32l0xx_hal_flash_ex.c ****     {
 755:Drivers/STM32L0xx_HAL_Driver/Src/stm32l0xx_hal_flash_ex.c ****       /* Program byte (8-bit) at a specified address.*/
 756:Drivers/STM32L0xx_HAL_Driver/Src/stm32l0xx_hal_flash_ex.c ****       *(__IO uint8_t *)Address = (uint8_t) Data;
 757:Drivers/STM32L0xx_HAL_Driver/Src/stm32l0xx_hal_flash_ex.c ****     }
 758:Drivers/STM32L0xx_HAL_Driver/Src/stm32l0xx_hal_flash_ex.c ****     else
 759:Drivers/STM32L0xx_HAL_Driver/Src/stm32l0xx_hal_flash_ex.c ****     {
 760:Drivers/STM32L0xx_HAL_Driver/Src/stm32l0xx_hal_flash_ex.c ****       status = HAL_ERROR;
 761:Drivers/STM32L0xx_HAL_Driver/Src/stm32l0xx_hal_flash_ex.c ****     }
 762:Drivers/STM32L0xx_HAL_Driver/Src/stm32l0xx_hal_flash_ex.c **** 
 763:Drivers/STM32L0xx_HAL_Driver/Src/stm32l0xx_hal_flash_ex.c ****     if (status != HAL_OK)
 764:Drivers/STM32L0xx_HAL_Driver/Src/stm32l0xx_hal_flash_ex.c ****     {
 765:Drivers/STM32L0xx_HAL_Driver/Src/stm32l0xx_hal_flash_ex.c ****       /* Wait for last operation to be completed */
 766:Drivers/STM32L0xx_HAL_Driver/Src/stm32l0xx_hal_flash_ex.c ****       status = FLASH_WaitForLastOperation(FLASH_TIMEOUT_VALUE);
 767:Drivers/STM32L0xx_HAL_Driver/Src/stm32l0xx_hal_flash_ex.c ****     }
 768:Drivers/STM32L0xx_HAL_Driver/Src/stm32l0xx_hal_flash_ex.c ****   }
 769:Drivers/STM32L0xx_HAL_Driver/Src/stm32l0xx_hal_flash_ex.c **** 
 770:Drivers/STM32L0xx_HAL_Driver/Src/stm32l0xx_hal_flash_ex.c ****   /* Process Unlocked */
 771:Drivers/STM32L0xx_HAL_Driver/Src/stm32l0xx_hal_flash_ex.c ****   __HAL_UNLOCK(&pFlash);
 772:Drivers/STM32L0xx_HAL_Driver/Src/stm32l0xx_hal_flash_ex.c **** 
ARM GAS  /tmp/ccLymQqc.s 			page 15


 773:Drivers/STM32L0xx_HAL_Driver/Src/stm32l0xx_hal_flash_ex.c ****   return status;
 774:Drivers/STM32L0xx_HAL_Driver/Src/stm32l0xx_hal_flash_ex.c **** }
 775:Drivers/STM32L0xx_HAL_Driver/Src/stm32l0xx_hal_flash_ex.c **** 
 776:Drivers/STM32L0xx_HAL_Driver/Src/stm32l0xx_hal_flash_ex.c **** /**
 777:Drivers/STM32L0xx_HAL_Driver/Src/stm32l0xx_hal_flash_ex.c ****   * @brief  Enable DATA EEPROM fixed Time programming (2*Tprog).
 778:Drivers/STM32L0xx_HAL_Driver/Src/stm32l0xx_hal_flash_ex.c ****   * @retval None
 779:Drivers/STM32L0xx_HAL_Driver/Src/stm32l0xx_hal_flash_ex.c ****   */
 780:Drivers/STM32L0xx_HAL_Driver/Src/stm32l0xx_hal_flash_ex.c **** void HAL_FLASHEx_DATAEEPROM_EnableFixedTimeProgram(void)
 781:Drivers/STM32L0xx_HAL_Driver/Src/stm32l0xx_hal_flash_ex.c **** {
 782:Drivers/STM32L0xx_HAL_Driver/Src/stm32l0xx_hal_flash_ex.c ****   SET_BIT(FLASH->PECR, FLASH_PECR_FIX);
 783:Drivers/STM32L0xx_HAL_Driver/Src/stm32l0xx_hal_flash_ex.c **** }
 784:Drivers/STM32L0xx_HAL_Driver/Src/stm32l0xx_hal_flash_ex.c **** 
 785:Drivers/STM32L0xx_HAL_Driver/Src/stm32l0xx_hal_flash_ex.c **** /**
 786:Drivers/STM32L0xx_HAL_Driver/Src/stm32l0xx_hal_flash_ex.c ****   * @brief  Disables DATA EEPROM fixed Time programming (2*Tprog).
 787:Drivers/STM32L0xx_HAL_Driver/Src/stm32l0xx_hal_flash_ex.c ****   * @retval None
 788:Drivers/STM32L0xx_HAL_Driver/Src/stm32l0xx_hal_flash_ex.c ****   */
 789:Drivers/STM32L0xx_HAL_Driver/Src/stm32l0xx_hal_flash_ex.c **** void HAL_FLASHEx_DATAEEPROM_DisableFixedTimeProgram(void)
 790:Drivers/STM32L0xx_HAL_Driver/Src/stm32l0xx_hal_flash_ex.c **** {
 791:Drivers/STM32L0xx_HAL_Driver/Src/stm32l0xx_hal_flash_ex.c ****   CLEAR_BIT(FLASH->PECR, FLASH_PECR_FIX);
 792:Drivers/STM32L0xx_HAL_Driver/Src/stm32l0xx_hal_flash_ex.c **** }
 793:Drivers/STM32L0xx_HAL_Driver/Src/stm32l0xx_hal_flash_ex.c **** 
 794:Drivers/STM32L0xx_HAL_Driver/Src/stm32l0xx_hal_flash_ex.c **** /**
 795:Drivers/STM32L0xx_HAL_Driver/Src/stm32l0xx_hal_flash_ex.c ****   * @}
 796:Drivers/STM32L0xx_HAL_Driver/Src/stm32l0xx_hal_flash_ex.c ****   */
 797:Drivers/STM32L0xx_HAL_Driver/Src/stm32l0xx_hal_flash_ex.c **** 
 798:Drivers/STM32L0xx_HAL_Driver/Src/stm32l0xx_hal_flash_ex.c **** /**
 799:Drivers/STM32L0xx_HAL_Driver/Src/stm32l0xx_hal_flash_ex.c ****   * @}
 800:Drivers/STM32L0xx_HAL_Driver/Src/stm32l0xx_hal_flash_ex.c ****   */
 801:Drivers/STM32L0xx_HAL_Driver/Src/stm32l0xx_hal_flash_ex.c **** 
 802:Drivers/STM32L0xx_HAL_Driver/Src/stm32l0xx_hal_flash_ex.c **** /** @addtogroup FLASHEx_Private_Functions
 803:Drivers/STM32L0xx_HAL_Driver/Src/stm32l0xx_hal_flash_ex.c ****  * @{
 804:Drivers/STM32L0xx_HAL_Driver/Src/stm32l0xx_hal_flash_ex.c ****  */
 805:Drivers/STM32L0xx_HAL_Driver/Src/stm32l0xx_hal_flash_ex.c **** 
 806:Drivers/STM32L0xx_HAL_Driver/Src/stm32l0xx_hal_flash_ex.c **** /*
 807:Drivers/STM32L0xx_HAL_Driver/Src/stm32l0xx_hal_flash_ex.c **** ==============================================================================
 808:Drivers/STM32L0xx_HAL_Driver/Src/stm32l0xx_hal_flash_ex.c ****               OPTIONS BYTES
 809:Drivers/STM32L0xx_HAL_Driver/Src/stm32l0xx_hal_flash_ex.c **** ==============================================================================
 810:Drivers/STM32L0xx_HAL_Driver/Src/stm32l0xx_hal_flash_ex.c **** */
 811:Drivers/STM32L0xx_HAL_Driver/Src/stm32l0xx_hal_flash_ex.c **** /**
 812:Drivers/STM32L0xx_HAL_Driver/Src/stm32l0xx_hal_flash_ex.c ****   * @brief  Enables or disables the read out protection.
 813:Drivers/STM32L0xx_HAL_Driver/Src/stm32l0xx_hal_flash_ex.c ****   * @note   To correctly run this function, the @ref HAL_FLASH_OB_Unlock() function
 814:Drivers/STM32L0xx_HAL_Driver/Src/stm32l0xx_hal_flash_ex.c ****   *         must be called before.
 815:Drivers/STM32L0xx_HAL_Driver/Src/stm32l0xx_hal_flash_ex.c ****   * @param  OB_RDP specifies the read protection level. 
 816:Drivers/STM32L0xx_HAL_Driver/Src/stm32l0xx_hal_flash_ex.c ****   *   This parameter can be:
 817:Drivers/STM32L0xx_HAL_Driver/Src/stm32l0xx_hal_flash_ex.c ****   *     @arg @ref OB_RDP_LEVEL_0 No protection
 818:Drivers/STM32L0xx_HAL_Driver/Src/stm32l0xx_hal_flash_ex.c ****   *     @arg @ref OB_RDP_LEVEL_1 Read protection of the memory
 819:Drivers/STM32L0xx_HAL_Driver/Src/stm32l0xx_hal_flash_ex.c ****   *     @arg @ref OB_RDP_LEVEL_2 Chip protection
 820:Drivers/STM32L0xx_HAL_Driver/Src/stm32l0xx_hal_flash_ex.c ****   * 
 821:Drivers/STM32L0xx_HAL_Driver/Src/stm32l0xx_hal_flash_ex.c ****   *  !!!Warning!!! When enabling OB_RDP_LEVEL_2 it's no more possible to go back to level 1 or 0
 822:Drivers/STM32L0xx_HAL_Driver/Src/stm32l0xx_hal_flash_ex.c ****   *   
 823:Drivers/STM32L0xx_HAL_Driver/Src/stm32l0xx_hal_flash_ex.c ****   * @retval HAL status
 824:Drivers/STM32L0xx_HAL_Driver/Src/stm32l0xx_hal_flash_ex.c ****   */
 825:Drivers/STM32L0xx_HAL_Driver/Src/stm32l0xx_hal_flash_ex.c **** static HAL_StatusTypeDef FLASH_OB_RDPConfig(uint8_t OB_RDP)
 826:Drivers/STM32L0xx_HAL_Driver/Src/stm32l0xx_hal_flash_ex.c **** {
 827:Drivers/STM32L0xx_HAL_Driver/Src/stm32l0xx_hal_flash_ex.c ****   HAL_StatusTypeDef status = HAL_OK;
 828:Drivers/STM32L0xx_HAL_Driver/Src/stm32l0xx_hal_flash_ex.c ****   uint32_t tmp1 = 0U, tmp2 = 0U, tmp3 = 0U;
 829:Drivers/STM32L0xx_HAL_Driver/Src/stm32l0xx_hal_flash_ex.c ****   
ARM GAS  /tmp/ccLymQqc.s 			page 16


 830:Drivers/STM32L0xx_HAL_Driver/Src/stm32l0xx_hal_flash_ex.c ****   /* Check the parameters */
 831:Drivers/STM32L0xx_HAL_Driver/Src/stm32l0xx_hal_flash_ex.c ****   assert_param(IS_OB_RDP(OB_RDP));
 832:Drivers/STM32L0xx_HAL_Driver/Src/stm32l0xx_hal_flash_ex.c ****   
 833:Drivers/STM32L0xx_HAL_Driver/Src/stm32l0xx_hal_flash_ex.c ****   tmp1 = (uint32_t)(OB->RDP & FLASH_OPTR_RDPROT);
 834:Drivers/STM32L0xx_HAL_Driver/Src/stm32l0xx_hal_flash_ex.c ****   
 835:Drivers/STM32L0xx_HAL_Driver/Src/stm32l0xx_hal_flash_ex.c **** #if defined(FLASH_OPTR_WPRMOD)
 836:Drivers/STM32L0xx_HAL_Driver/Src/stm32l0xx_hal_flash_ex.c ****     /* Mask WPRMOD bit */
 837:Drivers/STM32L0xx_HAL_Driver/Src/stm32l0xx_hal_flash_ex.c ****     tmp3 = (uint32_t)(OB->RDP & FLASH_OPTR_WPRMOD);
 838:Drivers/STM32L0xx_HAL_Driver/Src/stm32l0xx_hal_flash_ex.c **** #endif
 839:Drivers/STM32L0xx_HAL_Driver/Src/stm32l0xx_hal_flash_ex.c **** 
 840:Drivers/STM32L0xx_HAL_Driver/Src/stm32l0xx_hal_flash_ex.c ****     /* calculate the option byte to write */
 841:Drivers/STM32L0xx_HAL_Driver/Src/stm32l0xx_hal_flash_ex.c ****     tmp1 = (~((uint32_t)(OB_RDP | tmp3)));
 842:Drivers/STM32L0xx_HAL_Driver/Src/stm32l0xx_hal_flash_ex.c ****     tmp2 = (uint32_t)(((uint32_t)((uint32_t)(tmp1) << 16U)) | ((uint32_t)(OB_RDP | tmp3)));
 843:Drivers/STM32L0xx_HAL_Driver/Src/stm32l0xx_hal_flash_ex.c **** 
 844:Drivers/STM32L0xx_HAL_Driver/Src/stm32l0xx_hal_flash_ex.c ****     /* Wait for last operation to be completed */
 845:Drivers/STM32L0xx_HAL_Driver/Src/stm32l0xx_hal_flash_ex.c ****     status = FLASH_WaitForLastOperation(FLASH_TIMEOUT_VALUE);
 846:Drivers/STM32L0xx_HAL_Driver/Src/stm32l0xx_hal_flash_ex.c **** 
 847:Drivers/STM32L0xx_HAL_Driver/Src/stm32l0xx_hal_flash_ex.c ****     if(status == HAL_OK)
 848:Drivers/STM32L0xx_HAL_Driver/Src/stm32l0xx_hal_flash_ex.c ****     {
 849:Drivers/STM32L0xx_HAL_Driver/Src/stm32l0xx_hal_flash_ex.c ****       /* Clean the error context */
 850:Drivers/STM32L0xx_HAL_Driver/Src/stm32l0xx_hal_flash_ex.c ****       pFlash.ErrorCode = HAL_FLASH_ERROR_NONE;
 851:Drivers/STM32L0xx_HAL_Driver/Src/stm32l0xx_hal_flash_ex.c **** 
 852:Drivers/STM32L0xx_HAL_Driver/Src/stm32l0xx_hal_flash_ex.c ****       /* program read protection level */
 853:Drivers/STM32L0xx_HAL_Driver/Src/stm32l0xx_hal_flash_ex.c ****       OB->RDP = tmp2;
 854:Drivers/STM32L0xx_HAL_Driver/Src/stm32l0xx_hal_flash_ex.c **** 
 855:Drivers/STM32L0xx_HAL_Driver/Src/stm32l0xx_hal_flash_ex.c ****       /* Wait for last operation to be completed */
 856:Drivers/STM32L0xx_HAL_Driver/Src/stm32l0xx_hal_flash_ex.c ****       status = FLASH_WaitForLastOperation(FLASH_TIMEOUT_VALUE);
 857:Drivers/STM32L0xx_HAL_Driver/Src/stm32l0xx_hal_flash_ex.c ****     }
 858:Drivers/STM32L0xx_HAL_Driver/Src/stm32l0xx_hal_flash_ex.c **** 
 859:Drivers/STM32L0xx_HAL_Driver/Src/stm32l0xx_hal_flash_ex.c ****   /* Return the Read protection operation Status */
 860:Drivers/STM32L0xx_HAL_Driver/Src/stm32l0xx_hal_flash_ex.c ****   return status;
 861:Drivers/STM32L0xx_HAL_Driver/Src/stm32l0xx_hal_flash_ex.c **** }
 862:Drivers/STM32L0xx_HAL_Driver/Src/stm32l0xx_hal_flash_ex.c **** 
 863:Drivers/STM32L0xx_HAL_Driver/Src/stm32l0xx_hal_flash_ex.c **** /**
 864:Drivers/STM32L0xx_HAL_Driver/Src/stm32l0xx_hal_flash_ex.c ****   * @brief  Programs the FLASH brownout reset threshold level Option Byte.
 865:Drivers/STM32L0xx_HAL_Driver/Src/stm32l0xx_hal_flash_ex.c ****   * @param  OB_BOR Selects the brownout reset threshold level.
 866:Drivers/STM32L0xx_HAL_Driver/Src/stm32l0xx_hal_flash_ex.c ****   *   This parameter can be one of the following values:
 867:Drivers/STM32L0xx_HAL_Driver/Src/stm32l0xx_hal_flash_ex.c ****   *     @arg @ref OB_BOR_OFF BOR is disabled at power down, the reset is asserted when the VDD 
 868:Drivers/STM32L0xx_HAL_Driver/Src/stm32l0xx_hal_flash_ex.c ****   *                      power supply reaches the PDR(Power Down Reset) threshold (1.5V)
 869:Drivers/STM32L0xx_HAL_Driver/Src/stm32l0xx_hal_flash_ex.c ****   *     @arg @ref OB_BOR_LEVEL1 BOR Reset threshold levels for 1.7V - 1.8V VDD power supply
 870:Drivers/STM32L0xx_HAL_Driver/Src/stm32l0xx_hal_flash_ex.c ****   *     @arg @ref OB_BOR_LEVEL2 BOR Reset threshold levels for 1.9V - 2.0V VDD power supply
 871:Drivers/STM32L0xx_HAL_Driver/Src/stm32l0xx_hal_flash_ex.c ****   *     @arg @ref OB_BOR_LEVEL3 BOR Reset threshold levels for 2.3V - 2.4V VDD power supply
 872:Drivers/STM32L0xx_HAL_Driver/Src/stm32l0xx_hal_flash_ex.c ****   *     @arg @ref OB_BOR_LEVEL4 BOR Reset threshold levels for 2.55V - 2.65V VDD power supply
 873:Drivers/STM32L0xx_HAL_Driver/Src/stm32l0xx_hal_flash_ex.c ****   *     @arg @ref OB_BOR_LEVEL5 BOR Reset threshold levels for 2.8V - 2.9V VDD power supply
 874:Drivers/STM32L0xx_HAL_Driver/Src/stm32l0xx_hal_flash_ex.c ****   * @retval HAL status
 875:Drivers/STM32L0xx_HAL_Driver/Src/stm32l0xx_hal_flash_ex.c ****   */
 876:Drivers/STM32L0xx_HAL_Driver/Src/stm32l0xx_hal_flash_ex.c **** static HAL_StatusTypeDef FLASH_OB_BORConfig(uint8_t OB_BOR)
 877:Drivers/STM32L0xx_HAL_Driver/Src/stm32l0xx_hal_flash_ex.c **** {
 878:Drivers/STM32L0xx_HAL_Driver/Src/stm32l0xx_hal_flash_ex.c ****   HAL_StatusTypeDef status = HAL_OK;
 879:Drivers/STM32L0xx_HAL_Driver/Src/stm32l0xx_hal_flash_ex.c ****   uint32_t tmp = 0, tmp1 = 0;
 880:Drivers/STM32L0xx_HAL_Driver/Src/stm32l0xx_hal_flash_ex.c **** 
 881:Drivers/STM32L0xx_HAL_Driver/Src/stm32l0xx_hal_flash_ex.c ****   /* Check the parameters */
 882:Drivers/STM32L0xx_HAL_Driver/Src/stm32l0xx_hal_flash_ex.c ****   assert_param(IS_OB_BOR_LEVEL(OB_BOR));
 883:Drivers/STM32L0xx_HAL_Driver/Src/stm32l0xx_hal_flash_ex.c **** 
 884:Drivers/STM32L0xx_HAL_Driver/Src/stm32l0xx_hal_flash_ex.c ****   /* Get the User Option byte register */
 885:Drivers/STM32L0xx_HAL_Driver/Src/stm32l0xx_hal_flash_ex.c ****   tmp1 = OB->USER & ((~FLASH_OPTR_BOR_LEV) >> 16U);
 886:Drivers/STM32L0xx_HAL_Driver/Src/stm32l0xx_hal_flash_ex.c **** 
ARM GAS  /tmp/ccLymQqc.s 			page 17


 887:Drivers/STM32L0xx_HAL_Driver/Src/stm32l0xx_hal_flash_ex.c ****   /* Calculate the option byte to write - [0xFF | nUSER | 0x00 | USER]*/
 888:Drivers/STM32L0xx_HAL_Driver/Src/stm32l0xx_hal_flash_ex.c ****   tmp = (uint32_t)~((OB_BOR | tmp1)) << 16U;
 889:Drivers/STM32L0xx_HAL_Driver/Src/stm32l0xx_hal_flash_ex.c ****   tmp |= (OB_BOR | tmp1);
 890:Drivers/STM32L0xx_HAL_Driver/Src/stm32l0xx_hal_flash_ex.c ****     
 891:Drivers/STM32L0xx_HAL_Driver/Src/stm32l0xx_hal_flash_ex.c ****   /* Wait for last operation to be completed */
 892:Drivers/STM32L0xx_HAL_Driver/Src/stm32l0xx_hal_flash_ex.c ****   status = FLASH_WaitForLastOperation(FLASH_TIMEOUT_VALUE);
 893:Drivers/STM32L0xx_HAL_Driver/Src/stm32l0xx_hal_flash_ex.c ****   
 894:Drivers/STM32L0xx_HAL_Driver/Src/stm32l0xx_hal_flash_ex.c ****   if(status == HAL_OK)
 895:Drivers/STM32L0xx_HAL_Driver/Src/stm32l0xx_hal_flash_ex.c ****   {  
 896:Drivers/STM32L0xx_HAL_Driver/Src/stm32l0xx_hal_flash_ex.c ****     /* Clean the error context */
 897:Drivers/STM32L0xx_HAL_Driver/Src/stm32l0xx_hal_flash_ex.c ****     pFlash.ErrorCode = HAL_FLASH_ERROR_NONE;
 898:Drivers/STM32L0xx_HAL_Driver/Src/stm32l0xx_hal_flash_ex.c **** 
 899:Drivers/STM32L0xx_HAL_Driver/Src/stm32l0xx_hal_flash_ex.c ****     /* Write the BOR Option Byte */            
 900:Drivers/STM32L0xx_HAL_Driver/Src/stm32l0xx_hal_flash_ex.c ****     OB->USER = tmp;
 901:Drivers/STM32L0xx_HAL_Driver/Src/stm32l0xx_hal_flash_ex.c **** 
 902:Drivers/STM32L0xx_HAL_Driver/Src/stm32l0xx_hal_flash_ex.c ****     /* Wait for last operation to be completed */
 903:Drivers/STM32L0xx_HAL_Driver/Src/stm32l0xx_hal_flash_ex.c ****     status = FLASH_WaitForLastOperation(FLASH_TIMEOUT_VALUE);
 904:Drivers/STM32L0xx_HAL_Driver/Src/stm32l0xx_hal_flash_ex.c ****   }
 905:Drivers/STM32L0xx_HAL_Driver/Src/stm32l0xx_hal_flash_ex.c ****   
 906:Drivers/STM32L0xx_HAL_Driver/Src/stm32l0xx_hal_flash_ex.c ****   /* Return the Option Byte BOR programming Status */
 907:Drivers/STM32L0xx_HAL_Driver/Src/stm32l0xx_hal_flash_ex.c ****   return status;
 908:Drivers/STM32L0xx_HAL_Driver/Src/stm32l0xx_hal_flash_ex.c **** }
 909:Drivers/STM32L0xx_HAL_Driver/Src/stm32l0xx_hal_flash_ex.c **** 
 910:Drivers/STM32L0xx_HAL_Driver/Src/stm32l0xx_hal_flash_ex.c **** /**
 911:Drivers/STM32L0xx_HAL_Driver/Src/stm32l0xx_hal_flash_ex.c ****   * @brief  Sets or resets the BOOT bit1 option bit.
 912:Drivers/STM32L0xx_HAL_Driver/Src/stm32l0xx_hal_flash_ex.c ****   * @param  OB_BootBit1 Set or Reset the BOOT bit1 option bit.
 913:Drivers/STM32L0xx_HAL_Driver/Src/stm32l0xx_hal_flash_ex.c ****   *          This parameter can be one of the following values:
 914:Drivers/STM32L0xx_HAL_Driver/Src/stm32l0xx_hal_flash_ex.c ****   *             @arg @ref OB_BOOT_BIT1_RESET BOOT1 option bit reset
 915:Drivers/STM32L0xx_HAL_Driver/Src/stm32l0xx_hal_flash_ex.c ****   *             @arg @ref OB_BOOT_BIT1_SET BOOT1 option bit set
 916:Drivers/STM32L0xx_HAL_Driver/Src/stm32l0xx_hal_flash_ex.c ****   * @retval HAL status
 917:Drivers/STM32L0xx_HAL_Driver/Src/stm32l0xx_hal_flash_ex.c ****   */
 918:Drivers/STM32L0xx_HAL_Driver/Src/stm32l0xx_hal_flash_ex.c **** static HAL_StatusTypeDef  FLASH_OB_BOOTBit1Config(uint8_t OB_BootBit1)
 919:Drivers/STM32L0xx_HAL_Driver/Src/stm32l0xx_hal_flash_ex.c **** {
 920:Drivers/STM32L0xx_HAL_Driver/Src/stm32l0xx_hal_flash_ex.c ****   HAL_StatusTypeDef status = HAL_OK; 
 921:Drivers/STM32L0xx_HAL_Driver/Src/stm32l0xx_hal_flash_ex.c ****   uint32_t tmp = 0, tmp1 = 0, OB_Bits = ((uint32_t) OB_BootBit1) << 15;
 922:Drivers/STM32L0xx_HAL_Driver/Src/stm32l0xx_hal_flash_ex.c **** 
 923:Drivers/STM32L0xx_HAL_Driver/Src/stm32l0xx_hal_flash_ex.c ****   /* Check the parameters */
 924:Drivers/STM32L0xx_HAL_Driver/Src/stm32l0xx_hal_flash_ex.c ****   assert_param(IS_OB_BOOT1(OB_BootBit1));
 925:Drivers/STM32L0xx_HAL_Driver/Src/stm32l0xx_hal_flash_ex.c **** 
 926:Drivers/STM32L0xx_HAL_Driver/Src/stm32l0xx_hal_flash_ex.c ****   /* Get the User Option byte register */
 927:Drivers/STM32L0xx_HAL_Driver/Src/stm32l0xx_hal_flash_ex.c ****   tmp1 = OB->USER & ((~FLASH_OPTR_BOOT1) >> 16U);
 928:Drivers/STM32L0xx_HAL_Driver/Src/stm32l0xx_hal_flash_ex.c **** 
 929:Drivers/STM32L0xx_HAL_Driver/Src/stm32l0xx_hal_flash_ex.c ****   /* Calculate the user option byte to write */ 
 930:Drivers/STM32L0xx_HAL_Driver/Src/stm32l0xx_hal_flash_ex.c ****   tmp = (~(OB_Bits | tmp1)) << 16U;
 931:Drivers/STM32L0xx_HAL_Driver/Src/stm32l0xx_hal_flash_ex.c ****   tmp |= OB_Bits | tmp1;
 932:Drivers/STM32L0xx_HAL_Driver/Src/stm32l0xx_hal_flash_ex.c ****     
 933:Drivers/STM32L0xx_HAL_Driver/Src/stm32l0xx_hal_flash_ex.c ****   /* Wait for last operation to be completed */
 934:Drivers/STM32L0xx_HAL_Driver/Src/stm32l0xx_hal_flash_ex.c ****   status = FLASH_WaitForLastOperation(FLASH_TIMEOUT_VALUE);
 935:Drivers/STM32L0xx_HAL_Driver/Src/stm32l0xx_hal_flash_ex.c ****   
 936:Drivers/STM32L0xx_HAL_Driver/Src/stm32l0xx_hal_flash_ex.c ****   if(status == HAL_OK)
 937:Drivers/STM32L0xx_HAL_Driver/Src/stm32l0xx_hal_flash_ex.c ****   {  
 938:Drivers/STM32L0xx_HAL_Driver/Src/stm32l0xx_hal_flash_ex.c ****     /* Clean the error context */
 939:Drivers/STM32L0xx_HAL_Driver/Src/stm32l0xx_hal_flash_ex.c ****     pFlash.ErrorCode = HAL_FLASH_ERROR_NONE;
 940:Drivers/STM32L0xx_HAL_Driver/Src/stm32l0xx_hal_flash_ex.c ****     /* Program OB */
 941:Drivers/STM32L0xx_HAL_Driver/Src/stm32l0xx_hal_flash_ex.c ****     OB->USER = tmp; 
 942:Drivers/STM32L0xx_HAL_Driver/Src/stm32l0xx_hal_flash_ex.c ****     /* Wait for last operation to be completed */
 943:Drivers/STM32L0xx_HAL_Driver/Src/stm32l0xx_hal_flash_ex.c ****     status = FLASH_WaitForLastOperation(FLASH_TIMEOUT_VALUE);
ARM GAS  /tmp/ccLymQqc.s 			page 18


 944:Drivers/STM32L0xx_HAL_Driver/Src/stm32l0xx_hal_flash_ex.c ****   }
 945:Drivers/STM32L0xx_HAL_Driver/Src/stm32l0xx_hal_flash_ex.c **** 
 946:Drivers/STM32L0xx_HAL_Driver/Src/stm32l0xx_hal_flash_ex.c ****   return status;
 947:Drivers/STM32L0xx_HAL_Driver/Src/stm32l0xx_hal_flash_ex.c **** }
 948:Drivers/STM32L0xx_HAL_Driver/Src/stm32l0xx_hal_flash_ex.c **** 
 949:Drivers/STM32L0xx_HAL_Driver/Src/stm32l0xx_hal_flash_ex.c **** /**
 950:Drivers/STM32L0xx_HAL_Driver/Src/stm32l0xx_hal_flash_ex.c ****   * @brief  Returns the FLASH User Option Bytes values.
 951:Drivers/STM32L0xx_HAL_Driver/Src/stm32l0xx_hal_flash_ex.c ****   * @retval The FLASH User Option Bytes.
 952:Drivers/STM32L0xx_HAL_Driver/Src/stm32l0xx_hal_flash_ex.c ****   */
 953:Drivers/STM32L0xx_HAL_Driver/Src/stm32l0xx_hal_flash_ex.c **** static uint8_t FLASH_OB_GetUser(void)
 954:Drivers/STM32L0xx_HAL_Driver/Src/stm32l0xx_hal_flash_ex.c **** {
 955:Drivers/STM32L0xx_HAL_Driver/Src/stm32l0xx_hal_flash_ex.c ****   /* Return the User Option Byte */
 956:Drivers/STM32L0xx_HAL_Driver/Src/stm32l0xx_hal_flash_ex.c ****   return (uint8_t)((FLASH->OPTR & FLASH_OPTR_USER) >> 16U);
 957:Drivers/STM32L0xx_HAL_Driver/Src/stm32l0xx_hal_flash_ex.c **** }
 958:Drivers/STM32L0xx_HAL_Driver/Src/stm32l0xx_hal_flash_ex.c **** 
 959:Drivers/STM32L0xx_HAL_Driver/Src/stm32l0xx_hal_flash_ex.c **** /**
 960:Drivers/STM32L0xx_HAL_Driver/Src/stm32l0xx_hal_flash_ex.c ****   * @brief  Returns the FLASH Read Protection level.
 961:Drivers/STM32L0xx_HAL_Driver/Src/stm32l0xx_hal_flash_ex.c ****   * @retval FLASH RDP level
 962:Drivers/STM32L0xx_HAL_Driver/Src/stm32l0xx_hal_flash_ex.c ****   *         This parameter can be one of the following values:
 963:Drivers/STM32L0xx_HAL_Driver/Src/stm32l0xx_hal_flash_ex.c ****   *            @arg @ref OB_RDP_LEVEL_0 No protection
 964:Drivers/STM32L0xx_HAL_Driver/Src/stm32l0xx_hal_flash_ex.c ****   *            @arg @ref OB_RDP_LEVEL_1 Read protection of the memory
 965:Drivers/STM32L0xx_HAL_Driver/Src/stm32l0xx_hal_flash_ex.c ****   *            @arg @ref OB_RDP_LEVEL_2 Full chip protection
 966:Drivers/STM32L0xx_HAL_Driver/Src/stm32l0xx_hal_flash_ex.c ****   */
 967:Drivers/STM32L0xx_HAL_Driver/Src/stm32l0xx_hal_flash_ex.c **** static uint8_t FLASH_OB_GetRDP(void)
 968:Drivers/STM32L0xx_HAL_Driver/Src/stm32l0xx_hal_flash_ex.c **** {
 969:Drivers/STM32L0xx_HAL_Driver/Src/stm32l0xx_hal_flash_ex.c ****   uint8_t rdp_level = READ_BIT(FLASH->OPTR, FLASH_OPTR_RDPROT);
 970:Drivers/STM32L0xx_HAL_Driver/Src/stm32l0xx_hal_flash_ex.c **** 
 971:Drivers/STM32L0xx_HAL_Driver/Src/stm32l0xx_hal_flash_ex.c ****   if ((rdp_level != OB_RDP_LEVEL_0) && (rdp_level != OB_RDP_LEVEL_2))
 972:Drivers/STM32L0xx_HAL_Driver/Src/stm32l0xx_hal_flash_ex.c ****   {
 973:Drivers/STM32L0xx_HAL_Driver/Src/stm32l0xx_hal_flash_ex.c ****     return (OB_RDP_LEVEL_1);
 974:Drivers/STM32L0xx_HAL_Driver/Src/stm32l0xx_hal_flash_ex.c ****   }
 975:Drivers/STM32L0xx_HAL_Driver/Src/stm32l0xx_hal_flash_ex.c ****   else
 976:Drivers/STM32L0xx_HAL_Driver/Src/stm32l0xx_hal_flash_ex.c ****   {
 977:Drivers/STM32L0xx_HAL_Driver/Src/stm32l0xx_hal_flash_ex.c ****     return rdp_level;
 978:Drivers/STM32L0xx_HAL_Driver/Src/stm32l0xx_hal_flash_ex.c ****   }
 979:Drivers/STM32L0xx_HAL_Driver/Src/stm32l0xx_hal_flash_ex.c **** }
 980:Drivers/STM32L0xx_HAL_Driver/Src/stm32l0xx_hal_flash_ex.c **** 
 981:Drivers/STM32L0xx_HAL_Driver/Src/stm32l0xx_hal_flash_ex.c **** /**
 982:Drivers/STM32L0xx_HAL_Driver/Src/stm32l0xx_hal_flash_ex.c ****   * @brief  Returns the FLASH BOR level.
 983:Drivers/STM32L0xx_HAL_Driver/Src/stm32l0xx_hal_flash_ex.c ****   * @retval The BOR level Option Bytes.
 984:Drivers/STM32L0xx_HAL_Driver/Src/stm32l0xx_hal_flash_ex.c ****   */
 985:Drivers/STM32L0xx_HAL_Driver/Src/stm32l0xx_hal_flash_ex.c **** static uint8_t FLASH_OB_GetBOR(void)
 986:Drivers/STM32L0xx_HAL_Driver/Src/stm32l0xx_hal_flash_ex.c **** {
 987:Drivers/STM32L0xx_HAL_Driver/Src/stm32l0xx_hal_flash_ex.c ****   /* Return the BOR level */
 988:Drivers/STM32L0xx_HAL_Driver/Src/stm32l0xx_hal_flash_ex.c ****   return (uint8_t)((FLASH->OPTR & (uint32_t)FLASH_OPTR_BOR_LEV) >> 16U);
 989:Drivers/STM32L0xx_HAL_Driver/Src/stm32l0xx_hal_flash_ex.c **** }
 990:Drivers/STM32L0xx_HAL_Driver/Src/stm32l0xx_hal_flash_ex.c **** 
 991:Drivers/STM32L0xx_HAL_Driver/Src/stm32l0xx_hal_flash_ex.c **** /**
 992:Drivers/STM32L0xx_HAL_Driver/Src/stm32l0xx_hal_flash_ex.c ****   * @brief  Returns the FLASH BOOT bit1 value.
 993:Drivers/STM32L0xx_HAL_Driver/Src/stm32l0xx_hal_flash_ex.c ****   * @retval The BOOT bit 1 value Option Bytes.
 994:Drivers/STM32L0xx_HAL_Driver/Src/stm32l0xx_hal_flash_ex.c ****   */
 995:Drivers/STM32L0xx_HAL_Driver/Src/stm32l0xx_hal_flash_ex.c **** static uint8_t FLASH_OB_GetBOOTBit1(void)
 996:Drivers/STM32L0xx_HAL_Driver/Src/stm32l0xx_hal_flash_ex.c **** {
 997:Drivers/STM32L0xx_HAL_Driver/Src/stm32l0xx_hal_flash_ex.c ****   /* Return the BOR level */
 998:Drivers/STM32L0xx_HAL_Driver/Src/stm32l0xx_hal_flash_ex.c ****   return (FLASH->OPTR & FLASH_OPTR_BOOT1) >> FLASH_OPTR_BOOT1_Pos;
 999:Drivers/STM32L0xx_HAL_Driver/Src/stm32l0xx_hal_flash_ex.c **** 
1000:Drivers/STM32L0xx_HAL_Driver/Src/stm32l0xx_hal_flash_ex.c **** }
ARM GAS  /tmp/ccLymQqc.s 			page 19


1001:Drivers/STM32L0xx_HAL_Driver/Src/stm32l0xx_hal_flash_ex.c **** 
1002:Drivers/STM32L0xx_HAL_Driver/Src/stm32l0xx_hal_flash_ex.c **** /**
1003:Drivers/STM32L0xx_HAL_Driver/Src/stm32l0xx_hal_flash_ex.c ****   * @brief  Returns the FLASH Write Protection Option Bytes value.
1004:Drivers/STM32L0xx_HAL_Driver/Src/stm32l0xx_hal_flash_ex.c ****   * @retval The FLASH Write Protection Option Bytes value.
1005:Drivers/STM32L0xx_HAL_Driver/Src/stm32l0xx_hal_flash_ex.c ****   */
1006:Drivers/STM32L0xx_HAL_Driver/Src/stm32l0xx_hal_flash_ex.c **** static uint32_t FLASH_OB_GetWRP(void)
1007:Drivers/STM32L0xx_HAL_Driver/Src/stm32l0xx_hal_flash_ex.c **** {
1008:Drivers/STM32L0xx_HAL_Driver/Src/stm32l0xx_hal_flash_ex.c ****   /* Return the FLASH write protection Register value */
1009:Drivers/STM32L0xx_HAL_Driver/Src/stm32l0xx_hal_flash_ex.c ****   return (uint32_t)(FLASH->WRPR);
1010:Drivers/STM32L0xx_HAL_Driver/Src/stm32l0xx_hal_flash_ex.c **** }
1011:Drivers/STM32L0xx_HAL_Driver/Src/stm32l0xx_hal_flash_ex.c **** 
1012:Drivers/STM32L0xx_HAL_Driver/Src/stm32l0xx_hal_flash_ex.c **** #if defined(STM32L071xx) || defined(STM32L072xx) || defined(STM32L073xx) || defined(STM32L081xx) ||
1013:Drivers/STM32L0xx_HAL_Driver/Src/stm32l0xx_hal_flash_ex.c **** /**
1014:Drivers/STM32L0xx_HAL_Driver/Src/stm32l0xx_hal_flash_ex.c ****   * @brief  Returns the FLASH Write Protection Option Bytes value.
1015:Drivers/STM32L0xx_HAL_Driver/Src/stm32l0xx_hal_flash_ex.c ****   * @retval The FLASH Write Protection Option Bytes value.
1016:Drivers/STM32L0xx_HAL_Driver/Src/stm32l0xx_hal_flash_ex.c ****   */
1017:Drivers/STM32L0xx_HAL_Driver/Src/stm32l0xx_hal_flash_ex.c **** static uint32_t FLASH_OB_GetWRP2(void)
1018:Drivers/STM32L0xx_HAL_Driver/Src/stm32l0xx_hal_flash_ex.c **** {
1019:Drivers/STM32L0xx_HAL_Driver/Src/stm32l0xx_hal_flash_ex.c ****   /* Return the FLASH write protection Register value */
1020:Drivers/STM32L0xx_HAL_Driver/Src/stm32l0xx_hal_flash_ex.c ****   return (uint32_t)(FLASH->WRPR2);
1021:Drivers/STM32L0xx_HAL_Driver/Src/stm32l0xx_hal_flash_ex.c **** }
1022:Drivers/STM32L0xx_HAL_Driver/Src/stm32l0xx_hal_flash_ex.c **** #endif /* STM32L071xx || STM32L072xx || STM32L073xx || STM32L081xx || STM32L082xx || STM32L083xx */
1023:Drivers/STM32L0xx_HAL_Driver/Src/stm32l0xx_hal_flash_ex.c **** 
1024:Drivers/STM32L0xx_HAL_Driver/Src/stm32l0xx_hal_flash_ex.c **** #if defined(STM32L071xx) || defined(STM32L072xx) || defined(STM32L073xx) || defined(STM32L081xx) ||
1025:Drivers/STM32L0xx_HAL_Driver/Src/stm32l0xx_hal_flash_ex.c **** /**
1026:Drivers/STM32L0xx_HAL_Driver/Src/stm32l0xx_hal_flash_ex.c ****   * @brief  Write Option Byte of the desired pages of the Flash.
1027:Drivers/STM32L0xx_HAL_Driver/Src/stm32l0xx_hal_flash_ex.c ****   * @param  Sector specifies the sectors to be write protected.
1028:Drivers/STM32L0xx_HAL_Driver/Src/stm32l0xx_hal_flash_ex.c ****   * @param  Sector2 specifies the sectors to be write protected (only stm32l07xxx and stm32l08xxx d
1029:Drivers/STM32L0xx_HAL_Driver/Src/stm32l0xx_hal_flash_ex.c ****   * @param  NewState new state of the specified FLASH Pages Write protection.
1030:Drivers/STM32L0xx_HAL_Driver/Src/stm32l0xx_hal_flash_ex.c ****   *   This parameter can be: 
1031:Drivers/STM32L0xx_HAL_Driver/Src/stm32l0xx_hal_flash_ex.c ****   *        @arg @ref OB_WRPSTATE_ENABLE
1032:Drivers/STM32L0xx_HAL_Driver/Src/stm32l0xx_hal_flash_ex.c ****   *        @arg @ref OB_WRPSTATE_DISABLE
1033:Drivers/STM32L0xx_HAL_Driver/Src/stm32l0xx_hal_flash_ex.c ****   * @retval HAL_StatusTypeDef
1034:Drivers/STM32L0xx_HAL_Driver/Src/stm32l0xx_hal_flash_ex.c ****   */
1035:Drivers/STM32L0xx_HAL_Driver/Src/stm32l0xx_hal_flash_ex.c **** static HAL_StatusTypeDef FLASH_OB_ProtectedSectorsConfig(uint32_t Sector, uint32_t Sector2, uint32_
1036:Drivers/STM32L0xx_HAL_Driver/Src/stm32l0xx_hal_flash_ex.c **** #else
1037:Drivers/STM32L0xx_HAL_Driver/Src/stm32l0xx_hal_flash_ex.c **** /**
1038:Drivers/STM32L0xx_HAL_Driver/Src/stm32l0xx_hal_flash_ex.c ****   * @brief  Write Option Byte of the desired pages of the Flash.
1039:Drivers/STM32L0xx_HAL_Driver/Src/stm32l0xx_hal_flash_ex.c ****   * @param  Sector specifies the sectors to be write protected.
1040:Drivers/STM32L0xx_HAL_Driver/Src/stm32l0xx_hal_flash_ex.c ****   * @param  NewState new state of the specified FLASH Pages Write protection.
1041:Drivers/STM32L0xx_HAL_Driver/Src/stm32l0xx_hal_flash_ex.c ****   *   This parameter can be: 
1042:Drivers/STM32L0xx_HAL_Driver/Src/stm32l0xx_hal_flash_ex.c ****   *        @arg @ref OB_WRPSTATE_ENABLE
1043:Drivers/STM32L0xx_HAL_Driver/Src/stm32l0xx_hal_flash_ex.c ****   *        @arg @ref OB_WRPSTATE_DISABLE
1044:Drivers/STM32L0xx_HAL_Driver/Src/stm32l0xx_hal_flash_ex.c ****   * @retval HAL_StatusTypeDef
1045:Drivers/STM32L0xx_HAL_Driver/Src/stm32l0xx_hal_flash_ex.c ****   */
1046:Drivers/STM32L0xx_HAL_Driver/Src/stm32l0xx_hal_flash_ex.c **** static HAL_StatusTypeDef FLASH_OB_ProtectedSectorsConfig(uint32_t Sector, uint32_t NewState)
1047:Drivers/STM32L0xx_HAL_Driver/Src/stm32l0xx_hal_flash_ex.c **** #endif
1048:Drivers/STM32L0xx_HAL_Driver/Src/stm32l0xx_hal_flash_ex.c **** {
  28              		.loc 1 1048 1 view -0
  29              		.cfi_startproc
  30              		@ args = 0, pretend = 0, frame = 0
  31              		@ frame_needed = 0, uses_anonymous_args = 0
1049:Drivers/STM32L0xx_HAL_Driver/Src/stm32l0xx_hal_flash_ex.c ****   HAL_StatusTypeDef status = HAL_OK;
  32              		.loc 1 1049 3 view .LVU1
1050:Drivers/STM32L0xx_HAL_Driver/Src/stm32l0xx_hal_flash_ex.c ****   uint32_t WRP_Data = 0;
  33              		.loc 1 1050 3 view .LVU2
1051:Drivers/STM32L0xx_HAL_Driver/Src/stm32l0xx_hal_flash_ex.c ****   uint32_t OB_WRP = Sector;
ARM GAS  /tmp/ccLymQqc.s 			page 20


  34              		.loc 1 1051 3 view .LVU3
1048:Drivers/STM32L0xx_HAL_Driver/Src/stm32l0xx_hal_flash_ex.c ****   HAL_StatusTypeDef status = HAL_OK;
  35              		.loc 1 1048 1 is_stmt 0 view .LVU4
  36 0000 70B5     		push	{r4, r5, r6, lr}
  37              	.LCFI0:
  38              		.cfi_def_cfa_offset 16
  39              		.cfi_offset 4, -16
  40              		.cfi_offset 5, -12
  41              		.cfi_offset 6, -8
  42              		.cfi_offset 14, -4
1048:Drivers/STM32L0xx_HAL_Driver/Src/stm32l0xx_hal_flash_ex.c ****   HAL_StatusTypeDef status = HAL_OK;
  43              		.loc 1 1048 1 view .LVU5
  44 0002 0500     		movs	r5, r0
  45              	.LVL1:
1052:Drivers/STM32L0xx_HAL_Driver/Src/stm32l0xx_hal_flash_ex.c ****   
1053:Drivers/STM32L0xx_HAL_Driver/Src/stm32l0xx_hal_flash_ex.c ****   /* Wait for last operation to be completed */
1054:Drivers/STM32L0xx_HAL_Driver/Src/stm32l0xx_hal_flash_ex.c ****   status = FLASH_WaitForLastOperation(FLASH_TIMEOUT_VALUE);
  46              		.loc 1 1054 3 is_stmt 1 view .LVU6
  47              		.loc 1 1054 12 is_stmt 0 view .LVU7
  48 0004 1148     		ldr	r0, .L13
  49              	.LVL2:
1048:Drivers/STM32L0xx_HAL_Driver/Src/stm32l0xx_hal_flash_ex.c ****   HAL_StatusTypeDef status = HAL_OK;
  50              		.loc 1 1048 1 view .LVU8
  51 0006 0C00     		movs	r4, r1
  52              		.loc 1 1054 12 view .LVU9
  53 0008 FFF7FEFF 		bl	FLASH_WaitForLastOperation
  54              	.LVL3:
1055:Drivers/STM32L0xx_HAL_Driver/Src/stm32l0xx_hal_flash_ex.c ****  
1056:Drivers/STM32L0xx_HAL_Driver/Src/stm32l0xx_hal_flash_ex.c ****   if(status == HAL_OK)
  55              		.loc 1 1056 3 is_stmt 1 view .LVU10
  56              		.loc 1 1056 5 is_stmt 0 view .LVU11
  57 000c 0028     		cmp	r0, #0
  58 000e 0FD1     		bne	.L3
1057:Drivers/STM32L0xx_HAL_Driver/Src/stm32l0xx_hal_flash_ex.c ****   {
1058:Drivers/STM32L0xx_HAL_Driver/Src/stm32l0xx_hal_flash_ex.c ****     /* Clean the error context */
1059:Drivers/STM32L0xx_HAL_Driver/Src/stm32l0xx_hal_flash_ex.c ****     pFlash.ErrorCode = HAL_FLASH_ERROR_NONE;
  59              		.loc 1 1059 5 is_stmt 1 view .LVU12
  60              		.loc 1 1059 22 is_stmt 0 view .LVU13
  61 0010 0F4B     		ldr	r3, .L13+4
  62 0012 5861     		str	r0, [r3, #20]
1060:Drivers/STM32L0xx_HAL_Driver/Src/stm32l0xx_hal_flash_ex.c **** 
1061:Drivers/STM32L0xx_HAL_Driver/Src/stm32l0xx_hal_flash_ex.c ****     /* Update WRP only if at least 1 selected sector */
1062:Drivers/STM32L0xx_HAL_Driver/Src/stm32l0xx_hal_flash_ex.c ****     if (OB_WRP != 0x00000000U)
  63              		.loc 1 1062 5 is_stmt 1 view .LVU14
  64              		.loc 1 1062 8 is_stmt 0 view .LVU15
  65 0014 002D     		cmp	r5, #0
  66 0016 0BD0     		beq	.L3
1063:Drivers/STM32L0xx_HAL_Driver/Src/stm32l0xx_hal_flash_ex.c ****     {
1064:Drivers/STM32L0xx_HAL_Driver/Src/stm32l0xx_hal_flash_ex.c ****       if ((OB_WRP & WRP_MASK_LOW) != 0x00000000U)
  67              		.loc 1 1064 7 is_stmt 1 view .LVU16
  68              		.loc 1 1064 19 is_stmt 0 view .LVU17
  69 0018 2B04     		lsls	r3, r5, #16
  70              		.loc 1 1064 10 view .LVU18
  71 001a 09D0     		beq	.L3
1065:Drivers/STM32L0xx_HAL_Driver/Src/stm32l0xx_hal_flash_ex.c ****       {
1066:Drivers/STM32L0xx_HAL_Driver/Src/stm32l0xx_hal_flash_ex.c ****         if (NewState != OB_WRPSTATE_DISABLE)
  72              		.loc 1 1066 9 is_stmt 1 view .LVU19
ARM GAS  /tmp/ccLymQqc.s 			page 21


  73              		.loc 1 1066 12 is_stmt 0 view .LVU20
  74 001c 002C     		cmp	r4, #0
  75 001e 0BD0     		beq	.L5
1067:Drivers/STM32L0xx_HAL_Driver/Src/stm32l0xx_hal_flash_ex.c ****         {
1068:Drivers/STM32L0xx_HAL_Driver/Src/stm32l0xx_hal_flash_ex.c ****           WRP_Data = (uint16_t)(((OB_WRP & WRP_MASK_LOW) | OB->WRP01));
  76              		.loc 1 1068 11 is_stmt 1 view .LVU21
  77              		.loc 1 1068 62 is_stmt 0 view .LVU22
  78 0020 0C4B     		ldr	r3, .L13+8
  79 0022 9868     		ldr	r0, [r3, #8]
  80              	.LVL4:
  81              		.loc 1 1068 22 view .LVU23
  82 0024 2843     		orrs	r0, r5
  83              		.loc 1 1068 20 view .LVU24
  84 0026 80B2     		uxth	r0, r0
  85              	.LVL5:
1069:Drivers/STM32L0xx_HAL_Driver/Src/stm32l0xx_hal_flash_ex.c ****           OB->WRP01 = (uint32_t)(~(WRP_Data) << 16U) | (WRP_Data);
  86              		.loc 1 1069 11 is_stmt 1 view .LVU25
  87              		.loc 1 1069 34 is_stmt 0 view .LVU26
  88 0028 C543     		mvns	r5, r0
  89              	.LVL6:
  90              		.loc 1 1069 46 view .LVU27
  91 002a 2D04     		lsls	r5, r5, #16
  92              		.loc 1 1069 54 view .LVU28
  93 002c 2843     		orrs	r0, r5
  94              	.LVL7:
  95              		.loc 1 1069 21 view .LVU29
  96 002e 9860     		str	r0, [r3, #8]
  97              	.L3:
1070:Drivers/STM32L0xx_HAL_Driver/Src/stm32l0xx_hal_flash_ex.c ****         }             
1071:Drivers/STM32L0xx_HAL_Driver/Src/stm32l0xx_hal_flash_ex.c ****         else
1072:Drivers/STM32L0xx_HAL_Driver/Src/stm32l0xx_hal_flash_ex.c ****         {
1073:Drivers/STM32L0xx_HAL_Driver/Src/stm32l0xx_hal_flash_ex.c ****           WRP_Data = (uint16_t)(~OB_WRP & (WRP_MASK_LOW & OB->WRP01));
1074:Drivers/STM32L0xx_HAL_Driver/Src/stm32l0xx_hal_flash_ex.c ****           OB->WRP01 =  (uint32_t)((~WRP_Data) << 16U) | (WRP_Data);
1075:Drivers/STM32L0xx_HAL_Driver/Src/stm32l0xx_hal_flash_ex.c ****         }
1076:Drivers/STM32L0xx_HAL_Driver/Src/stm32l0xx_hal_flash_ex.c ****       }
1077:Drivers/STM32L0xx_HAL_Driver/Src/stm32l0xx_hal_flash_ex.c ****     }
1078:Drivers/STM32L0xx_HAL_Driver/Src/stm32l0xx_hal_flash_ex.c **** #if defined(STM32L071xx) || defined(STM32L072xx) || defined(STM32L073xx) || defined(STM32L081xx) ||
1079:Drivers/STM32L0xx_HAL_Driver/Src/stm32l0xx_hal_flash_ex.c ****     /* Update WRP only if at least 1 selected sector */
1080:Drivers/STM32L0xx_HAL_Driver/Src/stm32l0xx_hal_flash_ex.c ****     if (OB_WRP != 0x00000000U)
1081:Drivers/STM32L0xx_HAL_Driver/Src/stm32l0xx_hal_flash_ex.c ****     {
1082:Drivers/STM32L0xx_HAL_Driver/Src/stm32l0xx_hal_flash_ex.c ****       if ((OB_WRP & WRP_MASK_HIGH) != 0x00000000U)
1083:Drivers/STM32L0xx_HAL_Driver/Src/stm32l0xx_hal_flash_ex.c ****       {
1084:Drivers/STM32L0xx_HAL_Driver/Src/stm32l0xx_hal_flash_ex.c ****         if (NewState != OB_WRPSTATE_DISABLE)
1085:Drivers/STM32L0xx_HAL_Driver/Src/stm32l0xx_hal_flash_ex.c ****         {
1086:Drivers/STM32L0xx_HAL_Driver/Src/stm32l0xx_hal_flash_ex.c ****           WRP_Data = (uint16_t)((((OB_WRP & WRP_MASK_HIGH) >> 16U | OB->WRP23))); 
1087:Drivers/STM32L0xx_HAL_Driver/Src/stm32l0xx_hal_flash_ex.c ****           OB->WRP23 = (uint32_t)(~(WRP_Data) << 16U) | (WRP_Data);
1088:Drivers/STM32L0xx_HAL_Driver/Src/stm32l0xx_hal_flash_ex.c ****         }             
1089:Drivers/STM32L0xx_HAL_Driver/Src/stm32l0xx_hal_flash_ex.c ****         else
1090:Drivers/STM32L0xx_HAL_Driver/Src/stm32l0xx_hal_flash_ex.c ****         {
1091:Drivers/STM32L0xx_HAL_Driver/Src/stm32l0xx_hal_flash_ex.c ****           WRP_Data = (uint16_t)((((~OB_WRP & WRP_MASK_HIGH) >> 16U & OB->WRP23))); 
1092:Drivers/STM32L0xx_HAL_Driver/Src/stm32l0xx_hal_flash_ex.c ****           OB->WRP23 = (uint32_t)((~WRP_Data) << 16U) | (WRP_Data);
1093:Drivers/STM32L0xx_HAL_Driver/Src/stm32l0xx_hal_flash_ex.c ****         } 
1094:Drivers/STM32L0xx_HAL_Driver/Src/stm32l0xx_hal_flash_ex.c ****       }
1095:Drivers/STM32L0xx_HAL_Driver/Src/stm32l0xx_hal_flash_ex.c ****     }
1096:Drivers/STM32L0xx_HAL_Driver/Src/stm32l0xx_hal_flash_ex.c **** 
1097:Drivers/STM32L0xx_HAL_Driver/Src/stm32l0xx_hal_flash_ex.c ****     OB_WRP = Sector2;
1098:Drivers/STM32L0xx_HAL_Driver/Src/stm32l0xx_hal_flash_ex.c ****     /* Update WRP only if at least 1 selected sector */
ARM GAS  /tmp/ccLymQqc.s 			page 22


1099:Drivers/STM32L0xx_HAL_Driver/Src/stm32l0xx_hal_flash_ex.c ****     if (OB_WRP != 0x00000000U)
1100:Drivers/STM32L0xx_HAL_Driver/Src/stm32l0xx_hal_flash_ex.c ****     {
1101:Drivers/STM32L0xx_HAL_Driver/Src/stm32l0xx_hal_flash_ex.c ****       if ((OB_WRP & WRP_MASK_LOW) != 0x00000000U)
1102:Drivers/STM32L0xx_HAL_Driver/Src/stm32l0xx_hal_flash_ex.c ****       {
1103:Drivers/STM32L0xx_HAL_Driver/Src/stm32l0xx_hal_flash_ex.c ****         if (NewState != OB_WRPSTATE_DISABLE)
1104:Drivers/STM32L0xx_HAL_Driver/Src/stm32l0xx_hal_flash_ex.c ****         {
1105:Drivers/STM32L0xx_HAL_Driver/Src/stm32l0xx_hal_flash_ex.c ****           WRP_Data = (uint16_t)(((OB_WRP & WRP_MASK_LOW) | OB->WRP45));
1106:Drivers/STM32L0xx_HAL_Driver/Src/stm32l0xx_hal_flash_ex.c ****           OB->WRP45 =(uint32_t)(~(WRP_Data) << 16U) | (WRP_Data);
1107:Drivers/STM32L0xx_HAL_Driver/Src/stm32l0xx_hal_flash_ex.c ****         }             
1108:Drivers/STM32L0xx_HAL_Driver/Src/stm32l0xx_hal_flash_ex.c ****         else
1109:Drivers/STM32L0xx_HAL_Driver/Src/stm32l0xx_hal_flash_ex.c ****         {
1110:Drivers/STM32L0xx_HAL_Driver/Src/stm32l0xx_hal_flash_ex.c ****           WRP_Data = (uint16_t)(~OB_WRP & (WRP_MASK_LOW & OB->WRP45));
1111:Drivers/STM32L0xx_HAL_Driver/Src/stm32l0xx_hal_flash_ex.c ****           OB->WRP45 = (uint32_t)((~WRP_Data) << 16U) | (WRP_Data);
1112:Drivers/STM32L0xx_HAL_Driver/Src/stm32l0xx_hal_flash_ex.c ****         }
1113:Drivers/STM32L0xx_HAL_Driver/Src/stm32l0xx_hal_flash_ex.c ****       }
1114:Drivers/STM32L0xx_HAL_Driver/Src/stm32l0xx_hal_flash_ex.c ****     }
1115:Drivers/STM32L0xx_HAL_Driver/Src/stm32l0xx_hal_flash_ex.c **** #endif /* STM32L071xx || STM32L072xx || STM32L073xx || STM32L081xx || STM32L082xx || STM32L083xx */
1116:Drivers/STM32L0xx_HAL_Driver/Src/stm32l0xx_hal_flash_ex.c ****   }
1117:Drivers/STM32L0xx_HAL_Driver/Src/stm32l0xx_hal_flash_ex.c ****   /* Wait for last operation to be completed */
1118:Drivers/STM32L0xx_HAL_Driver/Src/stm32l0xx_hal_flash_ex.c ****   status = FLASH_WaitForLastOperation(FLASH_TIMEOUT_VALUE);
  98              		.loc 1 1118 3 is_stmt 1 view .LVU30
  99              		.loc 1 1118 12 is_stmt 0 view .LVU31
 100 0030 0648     		ldr	r0, .L13
 101 0032 FFF7FEFF 		bl	FLASH_WaitForLastOperation
 102              	.LVL8:
1119:Drivers/STM32L0xx_HAL_Driver/Src/stm32l0xx_hal_flash_ex.c **** 
1120:Drivers/STM32L0xx_HAL_Driver/Src/stm32l0xx_hal_flash_ex.c ****   /* Return the write protection operation Status */
1121:Drivers/STM32L0xx_HAL_Driver/Src/stm32l0xx_hal_flash_ex.c ****   return status;      
 103              		.loc 1 1121 3 is_stmt 1 view .LVU32
1122:Drivers/STM32L0xx_HAL_Driver/Src/stm32l0xx_hal_flash_ex.c **** }
 104              		.loc 1 1122 1 is_stmt 0 view .LVU33
 105              		@ sp needed
 106              	.LVL9:
 107              		.loc 1 1122 1 view .LVU34
 108 0036 70BD     		pop	{r4, r5, r6, pc}
 109              	.LVL10:
 110              	.L5:
1073:Drivers/STM32L0xx_HAL_Driver/Src/stm32l0xx_hal_flash_ex.c ****           OB->WRP01 =  (uint32_t)((~WRP_Data) << 16U) | (WRP_Data);
 111              		.loc 1 1073 11 is_stmt 1 view .LVU35
1073:Drivers/STM32L0xx_HAL_Driver/Src/stm32l0xx_hal_flash_ex.c ****           OB->WRP01 =  (uint32_t)((~WRP_Data) << 16U) | (WRP_Data);
 112              		.loc 1 1073 61 is_stmt 0 view .LVU36
 113 0038 0649     		ldr	r1, .L13+8
 114 003a 8B68     		ldr	r3, [r1, #8]
1073:Drivers/STM32L0xx_HAL_Driver/Src/stm32l0xx_hal_flash_ex.c ****           OB->WRP01 =  (uint32_t)((~WRP_Data) << 16U) | (WRP_Data);
 115              		.loc 1 1073 22 view .LVU37
 116 003c AB43     		bics	r3, r5
1073:Drivers/STM32L0xx_HAL_Driver/Src/stm32l0xx_hal_flash_ex.c ****           OB->WRP01 =  (uint32_t)((~WRP_Data) << 16U) | (WRP_Data);
 117              		.loc 1 1073 20 view .LVU38
 118 003e 9BB2     		uxth	r3, r3
 119              	.LVL11:
1074:Drivers/STM32L0xx_HAL_Driver/Src/stm32l0xx_hal_flash_ex.c ****         }
 120              		.loc 1 1074 11 is_stmt 1 view .LVU39
1074:Drivers/STM32L0xx_HAL_Driver/Src/stm32l0xx_hal_flash_ex.c ****         }
 121              		.loc 1 1074 36 is_stmt 0 view .LVU40
 122 0040 DA43     		mvns	r2, r3
1074:Drivers/STM32L0xx_HAL_Driver/Src/stm32l0xx_hal_flash_ex.c ****         }
 123              		.loc 1 1074 47 view .LVU41
ARM GAS  /tmp/ccLymQqc.s 			page 23


 124 0042 1204     		lsls	r2, r2, #16
1074:Drivers/STM32L0xx_HAL_Driver/Src/stm32l0xx_hal_flash_ex.c ****         }
 125              		.loc 1 1074 55 view .LVU42
 126 0044 1343     		orrs	r3, r2
 127              	.LVL12:
1074:Drivers/STM32L0xx_HAL_Driver/Src/stm32l0xx_hal_flash_ex.c ****         }
 128              		.loc 1 1074 21 view .LVU43
 129 0046 8B60     		str	r3, [r1, #8]
 130 0048 F2E7     		b	.L3
 131              	.L14:
 132 004a C046     		.align	2
 133              	.L13:
 134 004c 50C30000 		.word	50000
 135 0050 00000000 		.word	pFlash
 136 0054 0000F81F 		.word	536346624
 137              		.cfi_endproc
 138              	.LFE56:
 140              		.section	.text.HAL_FLASHEx_Erase,"ax",%progbits
 141              		.align	1
 142              		.p2align 2,,3
 143              		.global	HAL_FLASHEx_Erase
 144              		.syntax unified
 145              		.code	16
 146              		.thumb_func
 147              		.fpu softvfp
 149              	HAL_FLASHEx_Erase:
 150              	.LVL13:
 151              	.LFB34:
 172:Drivers/STM32L0xx_HAL_Driver/Src/stm32l0xx_hal_flash_ex.c ****   HAL_StatusTypeDef status = HAL_ERROR;
 152              		.loc 1 172 1 is_stmt 1 view -0
 153              		.cfi_startproc
 154              		@ args = 0, pretend = 0, frame = 0
 155              		@ frame_needed = 0, uses_anonymous_args = 0
 173:Drivers/STM32L0xx_HAL_Driver/Src/stm32l0xx_hal_flash_ex.c ****   uint32_t address = 0U;
 156              		.loc 1 173 3 view .LVU45
 174:Drivers/STM32L0xx_HAL_Driver/Src/stm32l0xx_hal_flash_ex.c ****   
 157              		.loc 1 174 3 view .LVU46
 177:Drivers/STM32L0xx_HAL_Driver/Src/stm32l0xx_hal_flash_ex.c **** 
 158              		.loc 1 177 3 view .LVU47
 177:Drivers/STM32L0xx_HAL_Driver/Src/stm32l0xx_hal_flash_ex.c **** 
 159              		.loc 1 177 3 view .LVU48
 172:Drivers/STM32L0xx_HAL_Driver/Src/stm32l0xx_hal_flash_ex.c ****   HAL_StatusTypeDef status = HAL_ERROR;
 160              		.loc 1 172 1 is_stmt 0 view .LVU49
 161 0000 F8B5     		push	{r3, r4, r5, r6, r7, lr}
 162              	.LCFI1:
 163              		.cfi_def_cfa_offset 24
 164              		.cfi_offset 3, -24
 165              		.cfi_offset 4, -20
 166              		.cfi_offset 5, -16
 167              		.cfi_offset 6, -12
 168              		.cfi_offset 7, -8
 169              		.cfi_offset 14, -4
 170 0002 5746     		mov	r7, r10
 171 0004 4E46     		mov	r6, r9
 172 0006 4546     		mov	r5, r8
 173 0008 DE46     		mov	lr, fp
 174 000a E0B5     		push	{r5, r6, r7, lr}
ARM GAS  /tmp/ccLymQqc.s 			page 24


 175              	.LCFI2:
 176              		.cfi_def_cfa_offset 40
 177              		.cfi_offset 8, -40
 178              		.cfi_offset 9, -36
 179              		.cfi_offset 10, -32
 180              		.cfi_offset 11, -28
 177:Drivers/STM32L0xx_HAL_Driver/Src/stm32l0xx_hal_flash_ex.c **** 
 181              		.loc 1 177 3 view .LVU50
 182 000c 284B     		ldr	r3, .L24
 172:Drivers/STM32L0xx_HAL_Driver/Src/stm32l0xx_hal_flash_ex.c ****   HAL_StatusTypeDef status = HAL_ERROR;
 183              		.loc 1 172 1 view .LVU51
 184 000e 0600     		movs	r6, r0
 177:Drivers/STM32L0xx_HAL_Driver/Src/stm32l0xx_hal_flash_ex.c **** 
 185              		.loc 1 177 3 view .LVU52
 186 0010 9846     		mov	r8, r3
 187 0012 1B7C     		ldrb	r3, [r3, #16]
 172:Drivers/STM32L0xx_HAL_Driver/Src/stm32l0xx_hal_flash_ex.c ****   HAL_StatusTypeDef status = HAL_ERROR;
 188              		.loc 1 172 1 view .LVU53
 189 0014 8A46     		mov	r10, r1
 177:Drivers/STM32L0xx_HAL_Driver/Src/stm32l0xx_hal_flash_ex.c **** 
 190              		.loc 1 177 3 view .LVU54
 191 0016 012B     		cmp	r3, #1
 192 0018 46D0     		beq	.L21
 177:Drivers/STM32L0xx_HAL_Driver/Src/stm32l0xx_hal_flash_ex.c **** 
 193              		.loc 1 177 3 is_stmt 1 discriminator 2 view .LVU55
 194 001a 0123     		movs	r3, #1
 195 001c 4246     		mov	r2, r8
 180:Drivers/STM32L0xx_HAL_Driver/Src/stm32l0xx_hal_flash_ex.c **** 
 196              		.loc 1 180 12 is_stmt 0 discriminator 2 view .LVU56
 197 001e 2548     		ldr	r0, .L24+4
 198              	.LVL14:
 177:Drivers/STM32L0xx_HAL_Driver/Src/stm32l0xx_hal_flash_ex.c **** 
 199              		.loc 1 177 3 discriminator 2 view .LVU57
 200 0020 1374     		strb	r3, [r2, #16]
 177:Drivers/STM32L0xx_HAL_Driver/Src/stm32l0xx_hal_flash_ex.c **** 
 201              		.loc 1 177 3 is_stmt 1 discriminator 2 view .LVU58
 180:Drivers/STM32L0xx_HAL_Driver/Src/stm32l0xx_hal_flash_ex.c **** 
 202              		.loc 1 180 3 discriminator 2 view .LVU59
 180:Drivers/STM32L0xx_HAL_Driver/Src/stm32l0xx_hal_flash_ex.c **** 
 203              		.loc 1 180 12 is_stmt 0 discriminator 2 view .LVU60
 204 0022 FFF7FEFF 		bl	FLASH_WaitForLastOperation
 205              	.LVL15:
 180:Drivers/STM32L0xx_HAL_Driver/Src/stm32l0xx_hal_flash_ex.c **** 
 206              		.loc 1 180 12 discriminator 2 view .LVU61
 207 0026 8146     		mov	r9, r0
 208              	.LVL16:
 182:Drivers/STM32L0xx_HAL_Driver/Src/stm32l0xx_hal_flash_ex.c ****   {
 209              		.loc 1 182 3 is_stmt 1 discriminator 2 view .LVU62
 182:Drivers/STM32L0xx_HAL_Driver/Src/stm32l0xx_hal_flash_ex.c ****   {
 210              		.loc 1 182 6 is_stmt 0 discriminator 2 view .LVU63
 211 0028 031E     		subs	r3, r0, #0
 212 002a 33D1     		bne	.L17
 185:Drivers/STM32L0xx_HAL_Driver/Src/stm32l0xx_hal_flash_ex.c **** 
 213              		.loc 1 185 5 is_stmt 1 view .LVU64
 185:Drivers/STM32L0xx_HAL_Driver/Src/stm32l0xx_hal_flash_ex.c **** 
 214              		.loc 1 185 16 is_stmt 0 view .LVU65
 215 002c 5246     		mov	r2, r10
ARM GAS  /tmp/ccLymQqc.s 			page 25


 216 002e 013B     		subs	r3, r3, #1
 217 0030 1360     		str	r3, [r2]
 188:Drivers/STM32L0xx_HAL_Driver/Src/stm32l0xx_hal_flash_ex.c ****     assert_param(IS_FLASH_TYPEERASE(pEraseInit->TypeErase));
 218              		.loc 1 188 5 is_stmt 1 view .LVU66
 189:Drivers/STM32L0xx_HAL_Driver/Src/stm32l0xx_hal_flash_ex.c ****     assert_param(IS_FLASH_PROGRAM_ADDRESS(pEraseInit->PageAddress));
 219              		.loc 1 189 5 view .LVU67
 190:Drivers/STM32L0xx_HAL_Driver/Src/stm32l0xx_hal_flash_ex.c ****     assert_param(IS_FLASH_PROGRAM_ADDRESS((pEraseInit->PageAddress & ~(FLASH_PAGE_SIZE - 1U)) + pEr
 220              		.loc 1 190 5 view .LVU68
 191:Drivers/STM32L0xx_HAL_Driver/Src/stm32l0xx_hal_flash_ex.c **** 
 221              		.loc 1 191 5 view .LVU69
 194:Drivers/STM32L0xx_HAL_Driver/Src/stm32l0xx_hal_flash_ex.c ****         address < ((pEraseInit->NbPages * FLASH_PAGE_SIZE) + pEraseInit->PageAddress);
 222              		.loc 1 194 5 view .LVU70
 195:Drivers/STM32L0xx_HAL_Driver/Src/stm32l0xx_hal_flash_ex.c ****         address += FLASH_PAGE_SIZE)
 223              		.loc 1 195 41 is_stmt 0 view .LVU71
 224 0032 B368     		ldr	r3, [r6, #8]
 194:Drivers/STM32L0xx_HAL_Driver/Src/stm32l0xx_hal_flash_ex.c ****         address < ((pEraseInit->NbPages * FLASH_PAGE_SIZE) + pEraseInit->PageAddress);
 225              		.loc 1 194 17 view .LVU72
 226 0034 7568     		ldr	r5, [r6, #4]
 227              	.LVL17:
 195:Drivers/STM32L0xx_HAL_Driver/Src/stm32l0xx_hal_flash_ex.c ****         address += FLASH_PAGE_SIZE)
 228              		.loc 1 195 9 is_stmt 1 view .LVU73
 195:Drivers/STM32L0xx_HAL_Driver/Src/stm32l0xx_hal_flash_ex.c ****         address += FLASH_PAGE_SIZE)
 229              		.loc 1 195 41 is_stmt 0 view .LVU74
 230 0036 DB01     		lsls	r3, r3, #7
 195:Drivers/STM32L0xx_HAL_Driver/Src/stm32l0xx_hal_flash_ex.c ****         address += FLASH_PAGE_SIZE)
 231              		.loc 1 195 60 view .LVU75
 232 0038 5B19     		adds	r3, r3, r5
 194:Drivers/STM32L0xx_HAL_Driver/Src/stm32l0xx_hal_flash_ex.c ****         address < ((pEraseInit->NbPages * FLASH_PAGE_SIZE) + pEraseInit->PageAddress);
 233              		.loc 1 194 5 view .LVU76
 234 003a 9D42     		cmp	r5, r3
 235 003c 2AD2     		bcs	.L17
 236              	.LBB22:
 237              	.LBB23:
1123:Drivers/STM32L0xx_HAL_Driver/Src/stm32l0xx_hal_flash_ex.c **** 
1124:Drivers/STM32L0xx_HAL_Driver/Src/stm32l0xx_hal_flash_ex.c **** /**
1125:Drivers/STM32L0xx_HAL_Driver/Src/stm32l0xx_hal_flash_ex.c ****   * @brief  Programs the FLASH User Option Byte: IWDG_SW / RST_STOP / RST_STDBY.
1126:Drivers/STM32L0xx_HAL_Driver/Src/stm32l0xx_hal_flash_ex.c ****   * @param  OB_IWDG Selects the WDG mode.
1127:Drivers/STM32L0xx_HAL_Driver/Src/stm32l0xx_hal_flash_ex.c ****   *   This parameter can be one of the following values:
1128:Drivers/STM32L0xx_HAL_Driver/Src/stm32l0xx_hal_flash_ex.c ****   *     @arg @ref OB_IWDG_SW Software WDG selected
1129:Drivers/STM32L0xx_HAL_Driver/Src/stm32l0xx_hal_flash_ex.c ****   *     @arg @ref OB_IWDG_HW Hardware WDG selected
1130:Drivers/STM32L0xx_HAL_Driver/Src/stm32l0xx_hal_flash_ex.c ****   * @param  OB_STOP Reset event when entering STOP mode.
1131:Drivers/STM32L0xx_HAL_Driver/Src/stm32l0xx_hal_flash_ex.c ****   *   This parameter can be one of the following values:
1132:Drivers/STM32L0xx_HAL_Driver/Src/stm32l0xx_hal_flash_ex.c ****   *     @arg @ref OB_STOP_NORST No reset generated when entering in STOP
1133:Drivers/STM32L0xx_HAL_Driver/Src/stm32l0xx_hal_flash_ex.c ****   *     @arg @ref OB_STOP_RST Reset generated when entering in STOP
1134:Drivers/STM32L0xx_HAL_Driver/Src/stm32l0xx_hal_flash_ex.c ****   * @param  OB_STDBY Reset event when entering Standby mode.
1135:Drivers/STM32L0xx_HAL_Driver/Src/stm32l0xx_hal_flash_ex.c ****   *   This parameter can be one of the following values:
1136:Drivers/STM32L0xx_HAL_Driver/Src/stm32l0xx_hal_flash_ex.c ****   *     @arg @ref OB_STDBY_NORST No reset generated when entering in STANDBY
1137:Drivers/STM32L0xx_HAL_Driver/Src/stm32l0xx_hal_flash_ex.c ****   *     @arg @ref OB_STDBY_RST Reset generated when entering in STANDBY
1138:Drivers/STM32L0xx_HAL_Driver/Src/stm32l0xx_hal_flash_ex.c ****   * @retval HAL status
1139:Drivers/STM32L0xx_HAL_Driver/Src/stm32l0xx_hal_flash_ex.c ****   */
1140:Drivers/STM32L0xx_HAL_Driver/Src/stm32l0xx_hal_flash_ex.c **** static HAL_StatusTypeDef FLASH_OB_UserConfig(uint8_t OB_IWDG, uint8_t OB_STOP, uint8_t OB_STDBY)
1141:Drivers/STM32L0xx_HAL_Driver/Src/stm32l0xx_hal_flash_ex.c **** {
1142:Drivers/STM32L0xx_HAL_Driver/Src/stm32l0xx_hal_flash_ex.c ****   HAL_StatusTypeDef status = HAL_OK; 
1143:Drivers/STM32L0xx_HAL_Driver/Src/stm32l0xx_hal_flash_ex.c ****   uint32_t tmp = 0, tmp1 = 0;
1144:Drivers/STM32L0xx_HAL_Driver/Src/stm32l0xx_hal_flash_ex.c **** 
1145:Drivers/STM32L0xx_HAL_Driver/Src/stm32l0xx_hal_flash_ex.c ****   /* Check the parameters */
1146:Drivers/STM32L0xx_HAL_Driver/Src/stm32l0xx_hal_flash_ex.c ****   assert_param(IS_OB_IWDG_SOURCE(OB_IWDG));
ARM GAS  /tmp/ccLymQqc.s 			page 26


1147:Drivers/STM32L0xx_HAL_Driver/Src/stm32l0xx_hal_flash_ex.c ****   assert_param(IS_OB_STOP_SOURCE(OB_STOP));
1148:Drivers/STM32L0xx_HAL_Driver/Src/stm32l0xx_hal_flash_ex.c ****   assert_param(IS_OB_STDBY_SOURCE(OB_STDBY));
1149:Drivers/STM32L0xx_HAL_Driver/Src/stm32l0xx_hal_flash_ex.c **** 
1150:Drivers/STM32L0xx_HAL_Driver/Src/stm32l0xx_hal_flash_ex.c ****   /* Get the User Option byte register */
1151:Drivers/STM32L0xx_HAL_Driver/Src/stm32l0xx_hal_flash_ex.c ****   tmp1 = OB->USER & ((~FLASH_OPTR_USER) >> 16U);
1152:Drivers/STM32L0xx_HAL_Driver/Src/stm32l0xx_hal_flash_ex.c **** 
1153:Drivers/STM32L0xx_HAL_Driver/Src/stm32l0xx_hal_flash_ex.c ****   /* Calculate the user option byte to write */ 
1154:Drivers/STM32L0xx_HAL_Driver/Src/stm32l0xx_hal_flash_ex.c ****   tmp = (uint32_t)(((uint32_t)~((uint32_t)((uint32_t)(OB_IWDG) | (uint32_t)(OB_STOP) | (uint32_t)(O
1155:Drivers/STM32L0xx_HAL_Driver/Src/stm32l0xx_hal_flash_ex.c ****   tmp |= ((uint32_t)(OB_IWDG) | ((uint32_t)OB_STOP) | (uint32_t)(OB_STDBY) | tmp1);
1156:Drivers/STM32L0xx_HAL_Driver/Src/stm32l0xx_hal_flash_ex.c ****   
1157:Drivers/STM32L0xx_HAL_Driver/Src/stm32l0xx_hal_flash_ex.c ****   /* Wait for last operation to be completed */
1158:Drivers/STM32L0xx_HAL_Driver/Src/stm32l0xx_hal_flash_ex.c ****   status = FLASH_WaitForLastOperation(FLASH_TIMEOUT_VALUE);
1159:Drivers/STM32L0xx_HAL_Driver/Src/stm32l0xx_hal_flash_ex.c ****   
1160:Drivers/STM32L0xx_HAL_Driver/Src/stm32l0xx_hal_flash_ex.c ****   if(status == HAL_OK)
1161:Drivers/STM32L0xx_HAL_Driver/Src/stm32l0xx_hal_flash_ex.c ****   {  
1162:Drivers/STM32L0xx_HAL_Driver/Src/stm32l0xx_hal_flash_ex.c ****     /* Clean the error context */
1163:Drivers/STM32L0xx_HAL_Driver/Src/stm32l0xx_hal_flash_ex.c ****     pFlash.ErrorCode = HAL_FLASH_ERROR_NONE;
1164:Drivers/STM32L0xx_HAL_Driver/Src/stm32l0xx_hal_flash_ex.c **** 
1165:Drivers/STM32L0xx_HAL_Driver/Src/stm32l0xx_hal_flash_ex.c ****     /* Write the User Option Byte */
1166:Drivers/STM32L0xx_HAL_Driver/Src/stm32l0xx_hal_flash_ex.c ****     OB->USER = tmp;
1167:Drivers/STM32L0xx_HAL_Driver/Src/stm32l0xx_hal_flash_ex.c ****     
1168:Drivers/STM32L0xx_HAL_Driver/Src/stm32l0xx_hal_flash_ex.c ****     /* Wait for last operation to be completed */
1169:Drivers/STM32L0xx_HAL_Driver/Src/stm32l0xx_hal_flash_ex.c ****     status = FLASH_WaitForLastOperation(FLASH_TIMEOUT_VALUE);
1170:Drivers/STM32L0xx_HAL_Driver/Src/stm32l0xx_hal_flash_ex.c ****   }
1171:Drivers/STM32L0xx_HAL_Driver/Src/stm32l0xx_hal_flash_ex.c **** 
1172:Drivers/STM32L0xx_HAL_Driver/Src/stm32l0xx_hal_flash_ex.c ****   /* Return the Option Byte program Status */
1173:Drivers/STM32L0xx_HAL_Driver/Src/stm32l0xx_hal_flash_ex.c ****   return status;
1174:Drivers/STM32L0xx_HAL_Driver/Src/stm32l0xx_hal_flash_ex.c **** }
1175:Drivers/STM32L0xx_HAL_Driver/Src/stm32l0xx_hal_flash_ex.c **** 
1176:Drivers/STM32L0xx_HAL_Driver/Src/stm32l0xx_hal_flash_ex.c **** #if defined(FLASH_OPTR_BFB2)
1177:Drivers/STM32L0xx_HAL_Driver/Src/stm32l0xx_hal_flash_ex.c **** /**
1178:Drivers/STM32L0xx_HAL_Driver/Src/stm32l0xx_hal_flash_ex.c ****   * @brief  Configures to boot from Bank1 or Bank2.
1179:Drivers/STM32L0xx_HAL_Driver/Src/stm32l0xx_hal_flash_ex.c ****   * @param  OB_BOOT select the FLASH Bank to boot from.
1180:Drivers/STM32L0xx_HAL_Driver/Src/stm32l0xx_hal_flash_ex.c ****   *   This parameter can be one of the following values:
1181:Drivers/STM32L0xx_HAL_Driver/Src/stm32l0xx_hal_flash_ex.c ****   *          This parameter can be one of the following values:
1182:Drivers/STM32L0xx_HAL_Driver/Src/stm32l0xx_hal_flash_ex.c ****   *             @arg @ref OB_BOOT_BANK1 BFB2 option bit reset
1183:Drivers/STM32L0xx_HAL_Driver/Src/stm32l0xx_hal_flash_ex.c ****   *             @arg @ref OB_BOOT_BANK2 BFB2 option bit set
1184:Drivers/STM32L0xx_HAL_Driver/Src/stm32l0xx_hal_flash_ex.c ****   * @retval HAL status
1185:Drivers/STM32L0xx_HAL_Driver/Src/stm32l0xx_hal_flash_ex.c ****   */
1186:Drivers/STM32L0xx_HAL_Driver/Src/stm32l0xx_hal_flash_ex.c **** static HAL_StatusTypeDef FLASH_OB_BootConfig(uint8_t OB_BOOT)
1187:Drivers/STM32L0xx_HAL_Driver/Src/stm32l0xx_hal_flash_ex.c **** {
1188:Drivers/STM32L0xx_HAL_Driver/Src/stm32l0xx_hal_flash_ex.c ****   HAL_StatusTypeDef status = HAL_OK; 
1189:Drivers/STM32L0xx_HAL_Driver/Src/stm32l0xx_hal_flash_ex.c ****   uint32_t tmp = 0U, tmp1 = 0U;
1190:Drivers/STM32L0xx_HAL_Driver/Src/stm32l0xx_hal_flash_ex.c **** 
1191:Drivers/STM32L0xx_HAL_Driver/Src/stm32l0xx_hal_flash_ex.c ****   /* Check the parameters */
1192:Drivers/STM32L0xx_HAL_Driver/Src/stm32l0xx_hal_flash_ex.c ****   assert_param(IS_OB_BOOT_BANK(OB_BOOT));
1193:Drivers/STM32L0xx_HAL_Driver/Src/stm32l0xx_hal_flash_ex.c **** 
1194:Drivers/STM32L0xx_HAL_Driver/Src/stm32l0xx_hal_flash_ex.c ****   /* Get the User Option byte register  and BOR Level*/
1195:Drivers/STM32L0xx_HAL_Driver/Src/stm32l0xx_hal_flash_ex.c ****   tmp1 = OB->USER & ((~FLASH_OPTR_BFB2) >> 16U);
1196:Drivers/STM32L0xx_HAL_Driver/Src/stm32l0xx_hal_flash_ex.c **** 
1197:Drivers/STM32L0xx_HAL_Driver/Src/stm32l0xx_hal_flash_ex.c ****   /* Calculate the option byte to write */
1198:Drivers/STM32L0xx_HAL_Driver/Src/stm32l0xx_hal_flash_ex.c ****   tmp = (uint32_t)~(OB_BOOT | tmp1) << 16U;
1199:Drivers/STM32L0xx_HAL_Driver/Src/stm32l0xx_hal_flash_ex.c ****   tmp |= (OB_BOOT | tmp1);
1200:Drivers/STM32L0xx_HAL_Driver/Src/stm32l0xx_hal_flash_ex.c **** 
1201:Drivers/STM32L0xx_HAL_Driver/Src/stm32l0xx_hal_flash_ex.c ****   /* Wait for last operation to be completed */
1202:Drivers/STM32L0xx_HAL_Driver/Src/stm32l0xx_hal_flash_ex.c ****   status = FLASH_WaitForLastOperation(FLASH_TIMEOUT_VALUE);
1203:Drivers/STM32L0xx_HAL_Driver/Src/stm32l0xx_hal_flash_ex.c **** 
ARM GAS  /tmp/ccLymQqc.s 			page 27


1204:Drivers/STM32L0xx_HAL_Driver/Src/stm32l0xx_hal_flash_ex.c ****   if(status == HAL_OK)
1205:Drivers/STM32L0xx_HAL_Driver/Src/stm32l0xx_hal_flash_ex.c ****   {  
1206:Drivers/STM32L0xx_HAL_Driver/Src/stm32l0xx_hal_flash_ex.c ****     /* Clean the error context */
1207:Drivers/STM32L0xx_HAL_Driver/Src/stm32l0xx_hal_flash_ex.c ****     pFlash.ErrorCode = HAL_FLASH_ERROR_NONE;
1208:Drivers/STM32L0xx_HAL_Driver/Src/stm32l0xx_hal_flash_ex.c **** 
1209:Drivers/STM32L0xx_HAL_Driver/Src/stm32l0xx_hal_flash_ex.c ****     /* Write the BOOT Option Byte */
1210:Drivers/STM32L0xx_HAL_Driver/Src/stm32l0xx_hal_flash_ex.c ****     OB->USER = tmp;
1211:Drivers/STM32L0xx_HAL_Driver/Src/stm32l0xx_hal_flash_ex.c ****     
1212:Drivers/STM32L0xx_HAL_Driver/Src/stm32l0xx_hal_flash_ex.c ****     /* Wait for last operation to be completed */
1213:Drivers/STM32L0xx_HAL_Driver/Src/stm32l0xx_hal_flash_ex.c ****     status = FLASH_WaitForLastOperation(FLASH_TIMEOUT_VALUE);
1214:Drivers/STM32L0xx_HAL_Driver/Src/stm32l0xx_hal_flash_ex.c ****   }
1215:Drivers/STM32L0xx_HAL_Driver/Src/stm32l0xx_hal_flash_ex.c **** 
1216:Drivers/STM32L0xx_HAL_Driver/Src/stm32l0xx_hal_flash_ex.c ****   /* Return the Option Byte program Status */
1217:Drivers/STM32L0xx_HAL_Driver/Src/stm32l0xx_hal_flash_ex.c ****   return status;
1218:Drivers/STM32L0xx_HAL_Driver/Src/stm32l0xx_hal_flash_ex.c **** }
1219:Drivers/STM32L0xx_HAL_Driver/Src/stm32l0xx_hal_flash_ex.c **** 
1220:Drivers/STM32L0xx_HAL_Driver/Src/stm32l0xx_hal_flash_ex.c **** #endif /* FLASH_OPTR_BFB2 */
1221:Drivers/STM32L0xx_HAL_Driver/Src/stm32l0xx_hal_flash_ex.c **** 
1222:Drivers/STM32L0xx_HAL_Driver/Src/stm32l0xx_hal_flash_ex.c **** /**
1223:Drivers/STM32L0xx_HAL_Driver/Src/stm32l0xx_hal_flash_ex.c ****   * @}
1224:Drivers/STM32L0xx_HAL_Driver/Src/stm32l0xx_hal_flash_ex.c ****   */
1225:Drivers/STM32L0xx_HAL_Driver/Src/stm32l0xx_hal_flash_ex.c **** 
1226:Drivers/STM32L0xx_HAL_Driver/Src/stm32l0xx_hal_flash_ex.c **** /**
1227:Drivers/STM32L0xx_HAL_Driver/Src/stm32l0xx_hal_flash_ex.c ****   * @}
1228:Drivers/STM32L0xx_HAL_Driver/Src/stm32l0xx_hal_flash_ex.c ****   */
1229:Drivers/STM32L0xx_HAL_Driver/Src/stm32l0xx_hal_flash_ex.c **** 
1230:Drivers/STM32L0xx_HAL_Driver/Src/stm32l0xx_hal_flash_ex.c **** /** @addtogroup FLASH
1231:Drivers/STM32L0xx_HAL_Driver/Src/stm32l0xx_hal_flash_ex.c ****   * @{
1232:Drivers/STM32L0xx_HAL_Driver/Src/stm32l0xx_hal_flash_ex.c ****   */
1233:Drivers/STM32L0xx_HAL_Driver/Src/stm32l0xx_hal_flash_ex.c **** 
1234:Drivers/STM32L0xx_HAL_Driver/Src/stm32l0xx_hal_flash_ex.c **** 
1235:Drivers/STM32L0xx_HAL_Driver/Src/stm32l0xx_hal_flash_ex.c **** /** @addtogroup FLASH_Private_Functions
1236:Drivers/STM32L0xx_HAL_Driver/Src/stm32l0xx_hal_flash_ex.c ****  * @{
1237:Drivers/STM32L0xx_HAL_Driver/Src/stm32l0xx_hal_flash_ex.c ****  */
1238:Drivers/STM32L0xx_HAL_Driver/Src/stm32l0xx_hal_flash_ex.c **** 
1239:Drivers/STM32L0xx_HAL_Driver/Src/stm32l0xx_hal_flash_ex.c **** /**
1240:Drivers/STM32L0xx_HAL_Driver/Src/stm32l0xx_hal_flash_ex.c ****   * @brief  Erases a specified page in program memory.
1241:Drivers/STM32L0xx_HAL_Driver/Src/stm32l0xx_hal_flash_ex.c ****   * @param  PageAddress The page address in program memory to be erased.
1242:Drivers/STM32L0xx_HAL_Driver/Src/stm32l0xx_hal_flash_ex.c ****   * @note   A Page is erased in the Program memory only if the address to load 
1243:Drivers/STM32L0xx_HAL_Driver/Src/stm32l0xx_hal_flash_ex.c ****   *         is the start address of a page (multiple of @ref FLASH_PAGE_SIZE bytes).
1244:Drivers/STM32L0xx_HAL_Driver/Src/stm32l0xx_hal_flash_ex.c ****   * @retval None
1245:Drivers/STM32L0xx_HAL_Driver/Src/stm32l0xx_hal_flash_ex.c ****   */
1246:Drivers/STM32L0xx_HAL_Driver/Src/stm32l0xx_hal_flash_ex.c **** void FLASH_PageErase(uint32_t PageAddress)
1247:Drivers/STM32L0xx_HAL_Driver/Src/stm32l0xx_hal_flash_ex.c **** {
1248:Drivers/STM32L0xx_HAL_Driver/Src/stm32l0xx_hal_flash_ex.c ****   /* Clean the error context */
1249:Drivers/STM32L0xx_HAL_Driver/Src/stm32l0xx_hal_flash_ex.c ****   pFlash.ErrorCode = HAL_FLASH_ERROR_NONE;
 238              		.loc 1 1249 20 view .LVU77
 239 003e 0027     		movs	r7, #0
1250:Drivers/STM32L0xx_HAL_Driver/Src/stm32l0xx_hal_flash_ex.c **** 
1251:Drivers/STM32L0xx_HAL_Driver/Src/stm32l0xx_hal_flash_ex.c ****   /* Set the ERASE bit */
1252:Drivers/STM32L0xx_HAL_Driver/Src/stm32l0xx_hal_flash_ex.c ****   SET_BIT(FLASH->PECR, FLASH_PECR_ERASE);
 240              		.loc 1 1252 3 view .LVU78
 241 0040 1D4C     		ldr	r4, .L24+8
 242 0042 07E0     		b	.L18
 243              	.LVL18:
 244              	.L19:
 245              		.loc 1 1252 3 view .LVU79
ARM GAS  /tmp/ccLymQqc.s 			page 28


 246              	.LBE23:
 247              	.LBE22:
 196:Drivers/STM32L0xx_HAL_Driver/Src/stm32l0xx_hal_flash_ex.c ****     {
 248              		.loc 1 196 9 is_stmt 1 view .LVU80
 195:Drivers/STM32L0xx_HAL_Driver/Src/stm32l0xx_hal_flash_ex.c ****         address += FLASH_PAGE_SIZE)
 249              		.loc 1 195 60 is_stmt 0 view .LVU81
 250 0044 7268     		ldr	r2, [r6, #4]
 195:Drivers/STM32L0xx_HAL_Driver/Src/stm32l0xx_hal_flash_ex.c ****         address += FLASH_PAGE_SIZE)
 251              		.loc 1 195 41 view .LVU82
 252 0046 B368     		ldr	r3, [r6, #8]
 195:Drivers/STM32L0xx_HAL_Driver/Src/stm32l0xx_hal_flash_ex.c ****         address += FLASH_PAGE_SIZE)
 253              		.loc 1 195 60 view .LVU83
 254 0048 9446     		mov	ip, r2
 195:Drivers/STM32L0xx_HAL_Driver/Src/stm32l0xx_hal_flash_ex.c ****         address += FLASH_PAGE_SIZE)
 255              		.loc 1 195 41 view .LVU84
 256 004a DB01     		lsls	r3, r3, #7
 196:Drivers/STM32L0xx_HAL_Driver/Src/stm32l0xx_hal_flash_ex.c ****     {
 257              		.loc 1 196 17 view .LVU85
 258 004c 8035     		adds	r5, r5, #128
 259              	.LVL19:
 195:Drivers/STM32L0xx_HAL_Driver/Src/stm32l0xx_hal_flash_ex.c ****         address += FLASH_PAGE_SIZE)
 260              		.loc 1 195 9 is_stmt 1 view .LVU86
 195:Drivers/STM32L0xx_HAL_Driver/Src/stm32l0xx_hal_flash_ex.c ****         address += FLASH_PAGE_SIZE)
 261              		.loc 1 195 60 is_stmt 0 view .LVU87
 262 004e 6344     		add	r3, r3, ip
 194:Drivers/STM32L0xx_HAL_Driver/Src/stm32l0xx_hal_flash_ex.c ****         address < ((pEraseInit->NbPages * FLASH_PAGE_SIZE) + pEraseInit->PageAddress);
 263              		.loc 1 194 5 view .LVU88
 264 0050 AB42     		cmp	r3, r5
 265 0052 1FD9     		bls	.L17
 266              	.L18:
 198:Drivers/STM32L0xx_HAL_Driver/Src/stm32l0xx_hal_flash_ex.c **** 
 267              		.loc 1 198 7 is_stmt 1 view .LVU89
 268              	.LVL20:
 269              	.LBB25:
 270              	.LBI22:
1246:Drivers/STM32L0xx_HAL_Driver/Src/stm32l0xx_hal_flash_ex.c **** {
 271              		.loc 1 1246 6 view .LVU90
 272              	.LBB24:
1249:Drivers/STM32L0xx_HAL_Driver/Src/stm32l0xx_hal_flash_ex.c **** 
 273              		.loc 1 1249 3 view .LVU91
1249:Drivers/STM32L0xx_HAL_Driver/Src/stm32l0xx_hal_flash_ex.c **** 
 274              		.loc 1 1249 20 is_stmt 0 view .LVU92
 275 0054 4346     		mov	r3, r8
 276 0056 5F61     		str	r7, [r3, #20]
 277              		.loc 1 1252 3 is_stmt 1 view .LVU93
 278 0058 8023     		movs	r3, #128
 279 005a 6268     		ldr	r2, [r4, #4]
 280 005c 9B00     		lsls	r3, r3, #2
 281 005e 1343     		orrs	r3, r2
1253:Drivers/STM32L0xx_HAL_Driver/Src/stm32l0xx_hal_flash_ex.c **** 
1254:Drivers/STM32L0xx_HAL_Driver/Src/stm32l0xx_hal_flash_ex.c ****   /* Set PROG bit */
1255:Drivers/STM32L0xx_HAL_Driver/Src/stm32l0xx_hal_flash_ex.c ****   SET_BIT(FLASH->PECR, FLASH_PECR_PROG);
 282              		.loc 1 1255 3 is_stmt 0 view .LVU94
 283 0060 0822     		movs	r2, #8
1252:Drivers/STM32L0xx_HAL_Driver/Src/stm32l0xx_hal_flash_ex.c **** 
 284              		.loc 1 1252 3 view .LVU95
 285 0062 6360     		str	r3, [r4, #4]
ARM GAS  /tmp/ccLymQqc.s 			page 29


 286              		.loc 1 1255 3 is_stmt 1 view .LVU96
 287 0064 6368     		ldr	r3, [r4, #4]
 288 0066 9346     		mov	fp, r2
 289 0068 1343     		orrs	r3, r2
 290 006a 6360     		str	r3, [r4, #4]
1256:Drivers/STM32L0xx_HAL_Driver/Src/stm32l0xx_hal_flash_ex.c **** 
1257:Drivers/STM32L0xx_HAL_Driver/Src/stm32l0xx_hal_flash_ex.c ****   /* Write 00000000h to the first word of the program page to erase */
1258:Drivers/STM32L0xx_HAL_Driver/Src/stm32l0xx_hal_flash_ex.c ****   *(__IO uint32_t *)(uint32_t)(PageAddress & ~(FLASH_PAGE_SIZE - 1)) = 0x00000000;
 291              		.loc 1 1258 3 view .LVU97
 292              		.loc 1 1258 21 is_stmt 0 view .LVU98
 293 006c 2A00     		movs	r2, r5
 294 006e 7F23     		movs	r3, #127
 295 0070 9A43     		bics	r2, r3
 296              		.loc 1 1258 70 view .LVU99
 297 0072 1760     		str	r7, [r2]
 298              	.LVL21:
 299              		.loc 1 1258 70 view .LVU100
 300              	.LBE24:
 301              	.LBE25:
 201:Drivers/STM32L0xx_HAL_Driver/Src/stm32l0xx_hal_flash_ex.c **** 
 302              		.loc 1 201 7 is_stmt 1 view .LVU101
 201:Drivers/STM32L0xx_HAL_Driver/Src/stm32l0xx_hal_flash_ex.c **** 
 303              		.loc 1 201 16 is_stmt 0 view .LVU102
 304 0074 0F48     		ldr	r0, .L24+4
 305 0076 FFF7FEFF 		bl	FLASH_WaitForLastOperation
 306              	.LVL22:
 204:Drivers/STM32L0xx_HAL_Driver/Src/stm32l0xx_hal_flash_ex.c ****       CLEAR_BIT(FLASH->PECR, FLASH_PECR_ERASE);
 307              		.loc 1 204 7 is_stmt 1 view .LVU103
 308 007a 5A46     		mov	r2, fp
 309 007c 6368     		ldr	r3, [r4, #4]
 310 007e 9343     		bics	r3, r2
 311 0080 6360     		str	r3, [r4, #4]
 205:Drivers/STM32L0xx_HAL_Driver/Src/stm32l0xx_hal_flash_ex.c **** 
 312              		.loc 1 205 7 view .LVU104
 313 0082 6368     		ldr	r3, [r4, #4]
 314 0084 0D4A     		ldr	r2, .L24+12
 315 0086 1340     		ands	r3, r2
 316 0088 6360     		str	r3, [r4, #4]
 207:Drivers/STM32L0xx_HAL_Driver/Src/stm32l0xx_hal_flash_ex.c ****       {
 317              		.loc 1 207 7 view .LVU105
 207:Drivers/STM32L0xx_HAL_Driver/Src/stm32l0xx_hal_flash_ex.c ****       {
 318              		.loc 1 207 10 is_stmt 0 view .LVU106
 319 008a 0028     		cmp	r0, #0
 320 008c DAD0     		beq	.L19
 210:Drivers/STM32L0xx_HAL_Driver/Src/stm32l0xx_hal_flash_ex.c ****         break;
 321              		.loc 1 210 9 is_stmt 1 view .LVU107
 210:Drivers/STM32L0xx_HAL_Driver/Src/stm32l0xx_hal_flash_ex.c ****         break;
 322              		.loc 1 210 20 is_stmt 0 view .LVU108
 323 008e 5346     		mov	r3, r10
 201:Drivers/STM32L0xx_HAL_Driver/Src/stm32l0xx_hal_flash_ex.c **** 
 324              		.loc 1 201 16 view .LVU109
 325 0090 8146     		mov	r9, r0
 210:Drivers/STM32L0xx_HAL_Driver/Src/stm32l0xx_hal_flash_ex.c ****         break;
 326              		.loc 1 210 20 view .LVU110
 327 0092 1D60     		str	r5, [r3]
 211:Drivers/STM32L0xx_HAL_Driver/Src/stm32l0xx_hal_flash_ex.c ****       }
 328              		.loc 1 211 9 is_stmt 1 view .LVU111
ARM GAS  /tmp/ccLymQqc.s 			page 30


 329              	.LVL23:
 330              	.L17:
 217:Drivers/STM32L0xx_HAL_Driver/Src/stm32l0xx_hal_flash_ex.c **** 
 331              		.loc 1 217 3 view .LVU112
 217:Drivers/STM32L0xx_HAL_Driver/Src/stm32l0xx_hal_flash_ex.c **** 
 332              		.loc 1 217 3 view .LVU113
 333 0094 0023     		movs	r3, #0
 334 0096 4246     		mov	r2, r8
 335 0098 1374     		strb	r3, [r2, #16]
 217:Drivers/STM32L0xx_HAL_Driver/Src/stm32l0xx_hal_flash_ex.c **** 
 336              		.loc 1 217 3 view .LVU114
 219:Drivers/STM32L0xx_HAL_Driver/Src/stm32l0xx_hal_flash_ex.c **** }
 337              		.loc 1 219 3 view .LVU115
 338              	.LVL24:
 339              	.L16:
 220:Drivers/STM32L0xx_HAL_Driver/Src/stm32l0xx_hal_flash_ex.c **** 
 340              		.loc 1 220 1 is_stmt 0 view .LVU116
 341 009a 4846     		mov	r0, r9
 342              		@ sp needed
 343              	.LVL25:
 344              	.LVL26:
 220:Drivers/STM32L0xx_HAL_Driver/Src/stm32l0xx_hal_flash_ex.c **** 
 345              		.loc 1 220 1 view .LVU117
 346 009c 3CBC     		pop	{r2, r3, r4, r5}
 347 009e 9046     		mov	r8, r2
 348 00a0 9946     		mov	r9, r3
 349 00a2 A246     		mov	r10, r4
 350 00a4 AB46     		mov	fp, r5
 351 00a6 F8BD     		pop	{r3, r4, r5, r6, r7, pc}
 352              	.LVL27:
 353              	.L21:
 177:Drivers/STM32L0xx_HAL_Driver/Src/stm32l0xx_hal_flash_ex.c **** 
 354              		.loc 1 177 3 view .LVU118
 355 00a8 0223     		movs	r3, #2
 356 00aa 9946     		mov	r9, r3
 357 00ac F5E7     		b	.L16
 358              	.L25:
 359 00ae C046     		.align	2
 360              	.L24:
 361 00b0 00000000 		.word	pFlash
 362 00b4 50C30000 		.word	50000
 363 00b8 00200240 		.word	1073881088
 364 00bc FFFDFFFF 		.word	-513
 365              		.cfi_endproc
 366              	.LFE34:
 368              		.section	.text.HAL_FLASHEx_Erase_IT,"ax",%progbits
 369              		.align	1
 370              		.p2align 2,,3
 371              		.global	HAL_FLASHEx_Erase_IT
 372              		.syntax unified
 373              		.code	16
 374              		.thumb_func
 375              		.fpu softvfp
 377              	HAL_FLASHEx_Erase_IT:
 378              	.LVL28:
 379              	.LFB35:
 236:Drivers/STM32L0xx_HAL_Driver/Src/stm32l0xx_hal_flash_ex.c ****   HAL_StatusTypeDef status = HAL_ERROR;
ARM GAS  /tmp/ccLymQqc.s 			page 31


 380              		.loc 1 236 1 is_stmt 1 view -0
 381              		.cfi_startproc
 382              		@ args = 0, pretend = 0, frame = 0
 383              		@ frame_needed = 0, uses_anonymous_args = 0
 237:Drivers/STM32L0xx_HAL_Driver/Src/stm32l0xx_hal_flash_ex.c **** 
 384              		.loc 1 237 3 view .LVU120
 240:Drivers/STM32L0xx_HAL_Driver/Src/stm32l0xx_hal_flash_ex.c ****   {
 385              		.loc 1 240 3 view .LVU121
 236:Drivers/STM32L0xx_HAL_Driver/Src/stm32l0xx_hal_flash_ex.c ****   HAL_StatusTypeDef status = HAL_ERROR;
 386              		.loc 1 236 1 is_stmt 0 view .LVU122
 387 0000 F8B5     		push	{r3, r4, r5, r6, r7, lr}
 388              	.LCFI3:
 389              		.cfi_def_cfa_offset 24
 390              		.cfi_offset 3, -24
 391              		.cfi_offset 4, -20
 392              		.cfi_offset 5, -16
 393              		.cfi_offset 6, -12
 394              		.cfi_offset 7, -8
 395              		.cfi_offset 14, -4
 240:Drivers/STM32L0xx_HAL_Driver/Src/stm32l0xx_hal_flash_ex.c ****   {
 396              		.loc 1 240 13 view .LVU123
 397 0002 174C     		ldr	r4, .L32
 236:Drivers/STM32L0xx_HAL_Driver/Src/stm32l0xx_hal_flash_ex.c ****   HAL_StatusTypeDef status = HAL_ERROR;
 398              		.loc 1 236 1 view .LVU124
 399 0004 0600     		movs	r6, r0
 240:Drivers/STM32L0xx_HAL_Driver/Src/stm32l0xx_hal_flash_ex.c ****   {
 400              		.loc 1 240 13 view .LVU125
 401 0006 2378     		ldrb	r3, [r4]
 402 0008 DDB2     		uxtb	r5, r3
 240:Drivers/STM32L0xx_HAL_Driver/Src/stm32l0xx_hal_flash_ex.c ****   {
 403              		.loc 1 240 6 view .LVU126
 404 000a 002B     		cmp	r3, #0
 405 000c 24D1     		bne	.L29
 246:Drivers/STM32L0xx_HAL_Driver/Src/stm32l0xx_hal_flash_ex.c ****   assert_param(IS_FLASH_TYPEERASE(pEraseInit->TypeErase));
 406              		.loc 1 246 3 is_stmt 1 view .LVU127
 247:Drivers/STM32L0xx_HAL_Driver/Src/stm32l0xx_hal_flash_ex.c ****   assert_param(IS_FLASH_PROGRAM_ADDRESS(pEraseInit->PageAddress));
 407              		.loc 1 247 3 view .LVU128
 248:Drivers/STM32L0xx_HAL_Driver/Src/stm32l0xx_hal_flash_ex.c ****   assert_param(IS_FLASH_PROGRAM_ADDRESS((pEraseInit->PageAddress & ~(FLASH_PAGE_SIZE - 1)) + pErase
 408              		.loc 1 248 3 view .LVU129
 249:Drivers/STM32L0xx_HAL_Driver/Src/stm32l0xx_hal_flash_ex.c **** 
 409              		.loc 1 249 3 view .LVU130
 252:Drivers/STM32L0xx_HAL_Driver/Src/stm32l0xx_hal_flash_ex.c **** 
 410              		.loc 1 252 3 view .LVU131
 252:Drivers/STM32L0xx_HAL_Driver/Src/stm32l0xx_hal_flash_ex.c **** 
 411              		.loc 1 252 3 view .LVU132
 412 000e 237C     		ldrb	r3, [r4, #16]
 413 0010 012B     		cmp	r3, #1
 414 0012 23D0     		beq	.L30
 252:Drivers/STM32L0xx_HAL_Driver/Src/stm32l0xx_hal_flash_ex.c **** 
 415              		.loc 1 252 3 discriminator 2 view .LVU133
 416 0014 0127     		movs	r7, #1
 255:Drivers/STM32L0xx_HAL_Driver/Src/stm32l0xx_hal_flash_ex.c ****   
 417              		.loc 1 255 12 is_stmt 0 discriminator 2 view .LVU134
 418 0016 1348     		ldr	r0, .L32+4
 419              	.LVL29:
 252:Drivers/STM32L0xx_HAL_Driver/Src/stm32l0xx_hal_flash_ex.c **** 
 420              		.loc 1 252 3 discriminator 2 view .LVU135
ARM GAS  /tmp/ccLymQqc.s 			page 32


 421 0018 2774     		strb	r7, [r4, #16]
 252:Drivers/STM32L0xx_HAL_Driver/Src/stm32l0xx_hal_flash_ex.c **** 
 422              		.loc 1 252 3 is_stmt 1 discriminator 2 view .LVU136
 255:Drivers/STM32L0xx_HAL_Driver/Src/stm32l0xx_hal_flash_ex.c ****   
 423              		.loc 1 255 3 discriminator 2 view .LVU137
 255:Drivers/STM32L0xx_HAL_Driver/Src/stm32l0xx_hal_flash_ex.c ****   
 424              		.loc 1 255 12 is_stmt 0 discriminator 2 view .LVU138
 425 001a FFF7FEFF 		bl	FLASH_WaitForLastOperation
 426              	.LVL30:
 257:Drivers/STM32L0xx_HAL_Driver/Src/stm32l0xx_hal_flash_ex.c ****   {
 427              		.loc 1 257 3 is_stmt 1 discriminator 2 view .LVU139
 257:Drivers/STM32L0xx_HAL_Driver/Src/stm32l0xx_hal_flash_ex.c ****   {
 428              		.loc 1 257 6 is_stmt 0 discriminator 2 view .LVU140
 429 001e 0028     		cmp	r0, #0
 430 0020 01D0     		beq	.L31
 272:Drivers/STM32L0xx_HAL_Driver/Src/stm32l0xx_hal_flash_ex.c ****   }
 431              		.loc 1 272 5 is_stmt 1 view .LVU141
 272:Drivers/STM32L0xx_HAL_Driver/Src/stm32l0xx_hal_flash_ex.c ****   }
 432              		.loc 1 272 5 view .LVU142
 433 0022 2574     		strb	r5, [r4, #16]
 434              	.LVL31:
 435              	.L27:
 276:Drivers/STM32L0xx_HAL_Driver/Src/stm32l0xx_hal_flash_ex.c **** 
 436              		.loc 1 276 1 is_stmt 0 view .LVU143
 437              		@ sp needed
 438              	.LVL32:
 276:Drivers/STM32L0xx_HAL_Driver/Src/stm32l0xx_hal_flash_ex.c **** 
 439              		.loc 1 276 1 view .LVU144
 440 0024 F8BD     		pop	{r3, r4, r5, r6, r7, pc}
 441              	.LVL33:
 442              	.L31:
 260:Drivers/STM32L0xx_HAL_Driver/Src/stm32l0xx_hal_flash_ex.c ****     
 443              		.loc 1 260 5 is_stmt 1 view .LVU145
 444 0026 C022     		movs	r2, #192
 445 0028 0F4B     		ldr	r3, .L32+8
 446 002a 9202     		lsls	r2, r2, #10
 447 002c 5968     		ldr	r1, [r3, #4]
 448 002e 0A43     		orrs	r2, r1
 449              	.LBB26:
 450              	.LBB27:
1252:Drivers/STM32L0xx_HAL_Driver/Src/stm32l0xx_hal_flash_ex.c **** 
 451              		.loc 1 1252 3 is_stmt 0 view .LVU146
 452 0030 8021     		movs	r1, #128
 453              	.LBE27:
 454              	.LBE26:
 260:Drivers/STM32L0xx_HAL_Driver/Src/stm32l0xx_hal_flash_ex.c ****     
 455              		.loc 1 260 5 view .LVU147
 456 0032 5A60     		str	r2, [r3, #4]
 262:Drivers/STM32L0xx_HAL_Driver/Src/stm32l0xx_hal_flash_ex.c ****     pFlash.NbPagesToErase = pEraseInit->NbPages;
 457              		.loc 1 262 5 is_stmt 1 view .LVU148
 263:Drivers/STM32L0xx_HAL_Driver/Src/stm32l0xx_hal_flash_ex.c ****     pFlash.Page = pEraseInit->PageAddress;
 458              		.loc 1 263 27 is_stmt 0 view .LVU149
 459 0034 B268     		ldr	r2, [r6, #8]
 262:Drivers/STM32L0xx_HAL_Driver/Src/stm32l0xx_hal_flash_ex.c ****     pFlash.NbPagesToErase = pEraseInit->NbPages;
 460              		.loc 1 262 29 view .LVU150
 461 0036 2770     		strb	r7, [r4]
 263:Drivers/STM32L0xx_HAL_Driver/Src/stm32l0xx_hal_flash_ex.c ****     pFlash.Page = pEraseInit->PageAddress;
ARM GAS  /tmp/ccLymQqc.s 			page 33


 462              		.loc 1 263 5 is_stmt 1 view .LVU151
 263:Drivers/STM32L0xx_HAL_Driver/Src/stm32l0xx_hal_flash_ex.c ****     pFlash.Page = pEraseInit->PageAddress;
 463              		.loc 1 263 27 is_stmt 0 view .LVU152
 464 0038 6260     		str	r2, [r4, #4]
 264:Drivers/STM32L0xx_HAL_Driver/Src/stm32l0xx_hal_flash_ex.c **** 
 465              		.loc 1 264 5 is_stmt 1 view .LVU153
 264:Drivers/STM32L0xx_HAL_Driver/Src/stm32l0xx_hal_flash_ex.c **** 
 466              		.loc 1 264 29 is_stmt 0 view .LVU154
 467 003a 7268     		ldr	r2, [r6, #4]
 468              	.LBB30:
 469              	.LBB28:
1252:Drivers/STM32L0xx_HAL_Driver/Src/stm32l0xx_hal_flash_ex.c **** 
 470              		.loc 1 1252 3 view .LVU155
 471 003c 8900     		lsls	r1, r1, #2
 472              	.LBE28:
 473              	.LBE30:
 264:Drivers/STM32L0xx_HAL_Driver/Src/stm32l0xx_hal_flash_ex.c **** 
 474              		.loc 1 264 17 view .LVU156
 475 003e E260     		str	r2, [r4, #12]
 267:Drivers/STM32L0xx_HAL_Driver/Src/stm32l0xx_hal_flash_ex.c ****   }
 476              		.loc 1 267 5 is_stmt 1 view .LVU157
 477              	.LVL34:
 478              	.LBB31:
 479              	.LBI26:
1246:Drivers/STM32L0xx_HAL_Driver/Src/stm32l0xx_hal_flash_ex.c **** {
 480              		.loc 1 1246 6 view .LVU158
 481              	.LBB29:
1249:Drivers/STM32L0xx_HAL_Driver/Src/stm32l0xx_hal_flash_ex.c **** 
 482              		.loc 1 1249 3 view .LVU159
1249:Drivers/STM32L0xx_HAL_Driver/Src/stm32l0xx_hal_flash_ex.c **** 
 483              		.loc 1 1249 20 is_stmt 0 view .LVU160
 484 0040 6061     		str	r0, [r4, #20]
1252:Drivers/STM32L0xx_HAL_Driver/Src/stm32l0xx_hal_flash_ex.c **** 
 485              		.loc 1 1252 3 is_stmt 1 view .LVU161
 486 0042 5C68     		ldr	r4, [r3, #4]
 487 0044 2143     		orrs	r1, r4
1255:Drivers/STM32L0xx_HAL_Driver/Src/stm32l0xx_hal_flash_ex.c **** 
 488              		.loc 1 1255 3 is_stmt 0 view .LVU162
 489 0046 0824     		movs	r4, #8
1252:Drivers/STM32L0xx_HAL_Driver/Src/stm32l0xx_hal_flash_ex.c **** 
 490              		.loc 1 1252 3 view .LVU163
 491 0048 5960     		str	r1, [r3, #4]
1255:Drivers/STM32L0xx_HAL_Driver/Src/stm32l0xx_hal_flash_ex.c **** 
 492              		.loc 1 1255 3 is_stmt 1 view .LVU164
 493 004a 5968     		ldr	r1, [r3, #4]
 494 004c 2143     		orrs	r1, r4
 495 004e 5960     		str	r1, [r3, #4]
 496              		.loc 1 1258 3 view .LVU165
 497              		.loc 1 1258 21 is_stmt 0 view .LVU166
 498 0050 7F23     		movs	r3, #127
 499 0052 9A43     		bics	r2, r3
 500              	.LVL35:
 501              		.loc 1 1258 70 view .LVU167
 502 0054 1060     		str	r0, [r2]
1259:Drivers/STM32L0xx_HAL_Driver/Src/stm32l0xx_hal_flash_ex.c **** }
 503              		.loc 1 1259 1 view .LVU168
 504 0056 E5E7     		b	.L27
ARM GAS  /tmp/ccLymQqc.s 			page 34


 505              	.LVL36:
 506              	.L29:
 507              		.loc 1 1259 1 view .LVU169
 508              	.LBE29:
 509              	.LBE31:
 242:Drivers/STM32L0xx_HAL_Driver/Src/stm32l0xx_hal_flash_ex.c ****   }
 510              		.loc 1 242 12 view .LVU170
 511 0058 0120     		movs	r0, #1
 512              	.LVL37:
 242:Drivers/STM32L0xx_HAL_Driver/Src/stm32l0xx_hal_flash_ex.c ****   }
 513              		.loc 1 242 12 view .LVU171
 514 005a E3E7     		b	.L27
 515              	.LVL38:
 516              	.L30:
 252:Drivers/STM32L0xx_HAL_Driver/Src/stm32l0xx_hal_flash_ex.c **** 
 517              		.loc 1 252 3 view .LVU172
 518 005c 0220     		movs	r0, #2
 519              	.LVL39:
 252:Drivers/STM32L0xx_HAL_Driver/Src/stm32l0xx_hal_flash_ex.c **** 
 520              		.loc 1 252 3 view .LVU173
 521 005e E1E7     		b	.L27
 522              	.L33:
 523              		.align	2
 524              	.L32:
 525 0060 00000000 		.word	pFlash
 526 0064 50C30000 		.word	50000
 527 0068 00200240 		.word	1073881088
 528              		.cfi_endproc
 529              	.LFE35:
 531              		.section	.text.HAL_FLASHEx_OBProgram,"ax",%progbits
 532              		.align	1
 533              		.p2align 2,,3
 534              		.global	HAL_FLASHEx_OBProgram
 535              		.syntax unified
 536              		.code	16
 537              		.thumb_func
 538              		.fpu softvfp
 540              	HAL_FLASHEx_OBProgram:
 541              	.LVL40:
 542              	.LFB36:
 328:Drivers/STM32L0xx_HAL_Driver/Src/stm32l0xx_hal_flash_ex.c ****   HAL_StatusTypeDef status = HAL_ERROR;
 543              		.loc 1 328 1 is_stmt 1 view -0
 544              		.cfi_startproc
 545              		@ args = 0, pretend = 0, frame = 0
 546              		@ frame_needed = 0, uses_anonymous_args = 0
 329:Drivers/STM32L0xx_HAL_Driver/Src/stm32l0xx_hal_flash_ex.c ****   
 547              		.loc 1 329 3 view .LVU175
 332:Drivers/STM32L0xx_HAL_Driver/Src/stm32l0xx_hal_flash_ex.c **** 
 548              		.loc 1 332 3 view .LVU176
 332:Drivers/STM32L0xx_HAL_Driver/Src/stm32l0xx_hal_flash_ex.c **** 
 549              		.loc 1 332 3 view .LVU177
 328:Drivers/STM32L0xx_HAL_Driver/Src/stm32l0xx_hal_flash_ex.c ****   HAL_StatusTypeDef status = HAL_ERROR;
 550              		.loc 1 328 1 is_stmt 0 view .LVU178
 551 0000 F0B5     		push	{r4, r5, r6, r7, lr}
 552              	.LCFI4:
 553              		.cfi_def_cfa_offset 20
 554              		.cfi_offset 4, -20
ARM GAS  /tmp/ccLymQqc.s 			page 35


 555              		.cfi_offset 5, -16
 556              		.cfi_offset 6, -12
 557              		.cfi_offset 7, -8
 558              		.cfi_offset 14, -4
 559 0002 C646     		mov	lr, r8
 560 0004 00B5     		push	{lr}
 561              	.LCFI5:
 562              		.cfi_def_cfa_offset 24
 563              		.cfi_offset 8, -24
 332:Drivers/STM32L0xx_HAL_Driver/Src/stm32l0xx_hal_flash_ex.c **** 
 564              		.loc 1 332 3 view .LVU179
 565 0006 454D     		ldr	r5, .L65
 328:Drivers/STM32L0xx_HAL_Driver/Src/stm32l0xx_hal_flash_ex.c ****   HAL_StatusTypeDef status = HAL_ERROR;
 566              		.loc 1 328 1 view .LVU180
 567 0008 0400     		movs	r4, r0
 332:Drivers/STM32L0xx_HAL_Driver/Src/stm32l0xx_hal_flash_ex.c **** 
 568              		.loc 1 332 3 view .LVU181
 569 000a 2B7C     		ldrb	r3, [r5, #16]
 570 000c 012B     		cmp	r3, #1
 571 000e 00D1     		bne	.LCB483
 572 0010 82E0     		b	.L45	@long jump
 573              	.LCB483:
 332:Drivers/STM32L0xx_HAL_Driver/Src/stm32l0xx_hal_flash_ex.c **** 
 574              		.loc 1 332 3 is_stmt 1 discriminator 2 view .LVU182
 575 0012 0122     		movs	r2, #1
 576 0014 2A74     		strb	r2, [r5, #16]
 332:Drivers/STM32L0xx_HAL_Driver/Src/stm32l0xx_hal_flash_ex.c **** 
 577              		.loc 1 332 3 discriminator 2 view .LVU183
 335:Drivers/STM32L0xx_HAL_Driver/Src/stm32l0xx_hal_flash_ex.c **** 
 578              		.loc 1 335 3 discriminator 2 view .LVU184
 338:Drivers/STM32L0xx_HAL_Driver/Src/stm32l0xx_hal_flash_ex.c ****   {
 579              		.loc 1 338 3 discriminator 2 view .LVU185
 338:Drivers/STM32L0xx_HAL_Driver/Src/stm32l0xx_hal_flash_ex.c ****   {
 580              		.loc 1 338 14 is_stmt 0 discriminator 2 view .LVU186
 581 0016 0368     		ldr	r3, [r0]
 329:Drivers/STM32L0xx_HAL_Driver/Src/stm32l0xx_hal_flash_ex.c ****   
 582              		.loc 1 329 21 discriminator 2 view .LVU187
 583 0018 0120     		movs	r0, #1
 584              	.LVL41:
 338:Drivers/STM32L0xx_HAL_Driver/Src/stm32l0xx_hal_flash_ex.c ****   {
 585              		.loc 1 338 5 discriminator 2 view .LVU188
 586 001a 1A42     		tst	r2, r3
 587 001c 43D1     		bne	.L60
 588              	.LVL42:
 355:Drivers/STM32L0xx_HAL_Driver/Src/stm32l0xx_hal_flash_ex.c ****   {
 589              		.loc 1 355 3 is_stmt 1 view .LVU189
 355:Drivers/STM32L0xx_HAL_Driver/Src/stm32l0xx_hal_flash_ex.c ****   {
 590              		.loc 1 355 5 is_stmt 0 view .LVU190
 591 001e 9A07     		lsls	r2, r3, #30
 592 0020 4AD4     		bmi	.L61
 593              	.LVL43:
 594              	.L38:
 367:Drivers/STM32L0xx_HAL_Driver/Src/stm32l0xx_hal_flash_ex.c ****   {
 595              		.loc 1 367 3 is_stmt 1 view .LVU191
 367:Drivers/STM32L0xx_HAL_Driver/Src/stm32l0xx_hal_flash_ex.c ****   {
 596              		.loc 1 367 5 is_stmt 0 view .LVU192
 597 0022 5A07     		lsls	r2, r3, #29
ARM GAS  /tmp/ccLymQqc.s 			page 36


 598 0024 08D4     		bmi	.L62
 381:Drivers/STM32L0xx_HAL_Driver/Src/stm32l0xx_hal_flash_ex.c ****   {
 599              		.loc 1 381 3 is_stmt 1 view .LVU193
 381:Drivers/STM32L0xx_HAL_Driver/Src/stm32l0xx_hal_flash_ex.c ****   {
 600              		.loc 1 381 5 is_stmt 0 view .LVU194
 601 0026 1A07     		lsls	r2, r3, #28
 602 0028 22D4     		bmi	.L63
 603              	.L42:
 393:Drivers/STM32L0xx_HAL_Driver/Src/stm32l0xx_hal_flash_ex.c ****   {
 604              		.loc 1 393 3 is_stmt 1 view .LVU195
 393:Drivers/STM32L0xx_HAL_Driver/Src/stm32l0xx_hal_flash_ex.c ****   {
 605              		.loc 1 393 6 is_stmt 0 view .LVU196
 606 002a DB06     		lsls	r3, r3, #27
 607 002c 5FD4     		bmi	.L64
 608              	.LVL44:
 609              	.L44:
 398:Drivers/STM32L0xx_HAL_Driver/Src/stm32l0xx_hal_flash_ex.c **** 
 610              		.loc 1 398 3 is_stmt 1 view .LVU197
 398:Drivers/STM32L0xx_HAL_Driver/Src/stm32l0xx_hal_flash_ex.c **** 
 611              		.loc 1 398 3 view .LVU198
 612 002e 0023     		movs	r3, #0
 613 0030 2B74     		strb	r3, [r5, #16]
 398:Drivers/STM32L0xx_HAL_Driver/Src/stm32l0xx_hal_flash_ex.c **** 
 614              		.loc 1 398 3 view .LVU199
 400:Drivers/STM32L0xx_HAL_Driver/Src/stm32l0xx_hal_flash_ex.c **** }
 615              		.loc 1 400 3 view .LVU200
 616              	.LVL45:
 617              	.L35:
 401:Drivers/STM32L0xx_HAL_Driver/Src/stm32l0xx_hal_flash_ex.c **** 
 618              		.loc 1 401 1 is_stmt 0 view .LVU201
 619              		@ sp needed
 620 0032 04BC     		pop	{r2}
 621 0034 9046     		mov	r8, r2
 622 0036 F0BD     		pop	{r4, r5, r6, r7, pc}
 623              	.LVL46:
 624              	.L62:
 369:Drivers/STM32L0xx_HAL_Driver/Src/stm32l0xx_hal_flash_ex.c ****                                  pOBInit->USERConfig & OB_STOP_NORST,
 625              		.loc 1 369 5 is_stmt 1 view .LVU202
 369:Drivers/STM32L0xx_HAL_Driver/Src/stm32l0xx_hal_flash_ex.c ****                                  pOBInit->USERConfig & OB_STOP_NORST,
 626              		.loc 1 369 41 is_stmt 0 view .LVU203
 627 0038 A37B     		ldrb	r3, [r4, #14]
 628              	.LBB40:
 629              	.LBB41:
1151:Drivers/STM32L0xx_HAL_Driver/Src/stm32l0xx_hal_flash_ex.c **** 
 630              		.loc 1 1151 12 view .LVU204
 631 003a 394F     		ldr	r7, .L65+4
1158:Drivers/STM32L0xx_HAL_Driver/Src/stm32l0xx_hal_flash_ex.c ****   
 632              		.loc 1 1158 12 view .LVU205
 633 003c 3948     		ldr	r0, .L65+8
 634              	.LVL47:
1158:Drivers/STM32L0xx_HAL_Driver/Src/stm32l0xx_hal_flash_ex.c ****   
 635              		.loc 1 1158 12 view .LVU206
 636              	.LBE41:
 637              	.LBE40:
 369:Drivers/STM32L0xx_HAL_Driver/Src/stm32l0xx_hal_flash_ex.c ****                                  pOBInit->USERConfig & OB_STOP_NORST,
 638              		.loc 1 369 41 view .LVU207
 639 003e 9846     		mov	r8, r3
ARM GAS  /tmp/ccLymQqc.s 			page 37


 640              	.LVL48:
 641              	.LBB43:
 642              	.LBI40:
1140:Drivers/STM32L0xx_HAL_Driver/Src/stm32l0xx_hal_flash_ex.c **** {
 643              		.loc 1 1140 26 is_stmt 1 view .LVU208
 644              	.LBB42:
1142:Drivers/STM32L0xx_HAL_Driver/Src/stm32l0xx_hal_flash_ex.c ****   uint32_t tmp = 0, tmp1 = 0;
 645              		.loc 1 1142 3 view .LVU209
1143:Drivers/STM32L0xx_HAL_Driver/Src/stm32l0xx_hal_flash_ex.c **** 
 646              		.loc 1 1143 3 view .LVU210
1146:Drivers/STM32L0xx_HAL_Driver/Src/stm32l0xx_hal_flash_ex.c ****   assert_param(IS_OB_STOP_SOURCE(OB_STOP));
 647              		.loc 1 1146 3 view .LVU211
1147:Drivers/STM32L0xx_HAL_Driver/Src/stm32l0xx_hal_flash_ex.c ****   assert_param(IS_OB_STDBY_SOURCE(OB_STDBY));
 648              		.loc 1 1147 3 view .LVU212
1148:Drivers/STM32L0xx_HAL_Driver/Src/stm32l0xx_hal_flash_ex.c **** 
 649              		.loc 1 1148 3 view .LVU213
1151:Drivers/STM32L0xx_HAL_Driver/Src/stm32l0xx_hal_flash_ex.c **** 
 650              		.loc 1 1151 3 view .LVU214
1151:Drivers/STM32L0xx_HAL_Driver/Src/stm32l0xx_hal_flash_ex.c **** 
 651              		.loc 1 1151 12 is_stmt 0 view .LVU215
 652 0040 7E68     		ldr	r6, [r7, #4]
 653              	.LVL49:
1154:Drivers/STM32L0xx_HAL_Driver/Src/stm32l0xx_hal_flash_ex.c ****   tmp |= ((uint32_t)(OB_IWDG) | ((uint32_t)OB_STOP) | (uint32_t)(OB_STDBY) | tmp1);
 654              		.loc 1 1154 3 is_stmt 1 view .LVU216
1155:Drivers/STM32L0xx_HAL_Driver/Src/stm32l0xx_hal_flash_ex.c ****   
 655              		.loc 1 1155 3 view .LVU217
1158:Drivers/STM32L0xx_HAL_Driver/Src/stm32l0xx_hal_flash_ex.c ****   
 656              		.loc 1 1158 3 view .LVU218
1158:Drivers/STM32L0xx_HAL_Driver/Src/stm32l0xx_hal_flash_ex.c ****   
 657              		.loc 1 1158 12 is_stmt 0 view .LVU219
 658 0042 FFF7FEFF 		bl	FLASH_WaitForLastOperation
 659              	.LVL50:
1160:Drivers/STM32L0xx_HAL_Driver/Src/stm32l0xx_hal_flash_ex.c ****   {  
 660              		.loc 1 1160 3 is_stmt 1 view .LVU220
1160:Drivers/STM32L0xx_HAL_Driver/Src/stm32l0xx_hal_flash_ex.c ****   {  
 661              		.loc 1 1160 5 is_stmt 0 view .LVU221
 662 0046 0028     		cmp	r0, #0
 663 0048 F1D1     		bne	.L44
1151:Drivers/STM32L0xx_HAL_Driver/Src/stm32l0xx_hal_flash_ex.c **** 
 664              		.loc 1 1151 8 view .LVU222
 665 004a 374B     		ldr	r3, .L65+12
1154:Drivers/STM32L0xx_HAL_Driver/Src/stm32l0xx_hal_flash_ex.c ****   tmp |= ((uint32_t)(OB_IWDG) | ((uint32_t)OB_STOP) | (uint32_t)(OB_STDBY) | tmp1);
 666              		.loc 1 1154 86 view .LVU223
 667 004c 4246     		mov	r2, r8
1151:Drivers/STM32L0xx_HAL_Driver/Src/stm32l0xx_hal_flash_ex.c **** 
 668              		.loc 1 1151 8 view .LVU224
 669 004e 1E40     		ands	r6, r3
 670              	.LVL51:
1154:Drivers/STM32L0xx_HAL_Driver/Src/stm32l0xx_hal_flash_ex.c ****   tmp |= ((uint32_t)(OB_IWDG) | ((uint32_t)OB_STOP) | (uint32_t)(OB_STDBY) | tmp1);
 671              		.loc 1 1154 86 view .LVU225
 672 0050 7023     		movs	r3, #112
 673 0052 1340     		ands	r3, r2
1154:Drivers/STM32L0xx_HAL_Driver/Src/stm32l0xx_hal_flash_ex.c ****   tmp |= ((uint32_t)(OB_IWDG) | ((uint32_t)OB_STOP) | (uint32_t)(OB_STDBY) | tmp1);
 674              		.loc 1 1154 33 view .LVU226
 675 0054 3343     		orrs	r3, r6
1163:Drivers/STM32L0xx_HAL_Driver/Src/stm32l0xx_hal_flash_ex.c **** 
 676              		.loc 1 1163 5 is_stmt 1 view .LVU227
ARM GAS  /tmp/ccLymQqc.s 			page 38


1154:Drivers/STM32L0xx_HAL_Driver/Src/stm32l0xx_hal_flash_ex.c ****   tmp |= ((uint32_t)(OB_IWDG) | ((uint32_t)OB_STOP) | (uint32_t)(OB_STDBY) | tmp1);
 677              		.loc 1 1154 21 is_stmt 0 view .LVU228
 678 0056 DA43     		mvns	r2, r3
1154:Drivers/STM32L0xx_HAL_Driver/Src/stm32l0xx_hal_flash_ex.c ****   tmp |= ((uint32_t)(OB_IWDG) | ((uint32_t)OB_STOP) | (uint32_t)(OB_STDBY) | tmp1);
 679              		.loc 1 1154 7 view .LVU229
 680 0058 1204     		lsls	r2, r2, #16
1155:Drivers/STM32L0xx_HAL_Driver/Src/stm32l0xx_hal_flash_ex.c ****   
 681              		.loc 1 1155 7 view .LVU230
 682 005a 1343     		orrs	r3, r2
1163:Drivers/STM32L0xx_HAL_Driver/Src/stm32l0xx_hal_flash_ex.c **** 
 683              		.loc 1 1163 22 view .LVU231
 684 005c 6861     		str	r0, [r5, #20]
1166:Drivers/STM32L0xx_HAL_Driver/Src/stm32l0xx_hal_flash_ex.c ****     
 685              		.loc 1 1166 5 is_stmt 1 view .LVU232
1169:Drivers/STM32L0xx_HAL_Driver/Src/stm32l0xx_hal_flash_ex.c ****   }
 686              		.loc 1 1169 14 is_stmt 0 view .LVU233
 687 005e 3148     		ldr	r0, .L65+8
 688              	.LVL52:
1166:Drivers/STM32L0xx_HAL_Driver/Src/stm32l0xx_hal_flash_ex.c ****     
 689              		.loc 1 1166 14 view .LVU234
 690 0060 7B60     		str	r3, [r7, #4]
1169:Drivers/STM32L0xx_HAL_Driver/Src/stm32l0xx_hal_flash_ex.c ****   }
 691              		.loc 1 1169 5 is_stmt 1 view .LVU235
1169:Drivers/STM32L0xx_HAL_Driver/Src/stm32l0xx_hal_flash_ex.c ****   }
 692              		.loc 1 1169 14 is_stmt 0 view .LVU236
 693 0062 FFF7FEFF 		bl	FLASH_WaitForLastOperation
 694              	.LVL53:
1173:Drivers/STM32L0xx_HAL_Driver/Src/stm32l0xx_hal_flash_ex.c **** }
 695              		.loc 1 1173 3 is_stmt 1 view .LVU237
1173:Drivers/STM32L0xx_HAL_Driver/Src/stm32l0xx_hal_flash_ex.c **** }
 696              		.loc 1 1173 3 is_stmt 0 view .LVU238
 697              	.LBE42:
 698              	.LBE43:
 372:Drivers/STM32L0xx_HAL_Driver/Src/stm32l0xx_hal_flash_ex.c ****     {
 699              		.loc 1 372 5 is_stmt 1 view .LVU239
 372:Drivers/STM32L0xx_HAL_Driver/Src/stm32l0xx_hal_flash_ex.c ****     {
 700              		.loc 1 372 8 is_stmt 0 view .LVU240
 701 0066 0028     		cmp	r0, #0
 702 0068 E1D1     		bne	.L44
 703 006a 2368     		ldr	r3, [r4]
 381:Drivers/STM32L0xx_HAL_Driver/Src/stm32l0xx_hal_flash_ex.c ****   {
 704              		.loc 1 381 3 is_stmt 1 view .LVU241
 381:Drivers/STM32L0xx_HAL_Driver/Src/stm32l0xx_hal_flash_ex.c ****   {
 705              		.loc 1 381 5 is_stmt 0 view .LVU242
 706 006c 1A07     		lsls	r2, r3, #28
 707 006e DCD5     		bpl	.L42
 708              	.L63:
 383:Drivers/STM32L0xx_HAL_Driver/Src/stm32l0xx_hal_flash_ex.c ****     if (status != HAL_OK)
 709              		.loc 1 383 5 is_stmt 1 view .LVU243
 383:Drivers/STM32L0xx_HAL_Driver/Src/stm32l0xx_hal_flash_ex.c ****     if (status != HAL_OK)
 710              		.loc 1 383 14 is_stmt 0 view .LVU244
 711 0070 637B     		ldrb	r3, [r4, #13]
 712              	.LBB44:
 713              	.LBB45:
 885:Drivers/STM32L0xx_HAL_Driver/Src/stm32l0xx_hal_flash_ex.c **** 
 714              		.loc 1 885 12 view .LVU245
 715 0072 2B4F     		ldr	r7, .L65+4
ARM GAS  /tmp/ccLymQqc.s 			page 39


 892:Drivers/STM32L0xx_HAL_Driver/Src/stm32l0xx_hal_flash_ex.c ****   
 716              		.loc 1 892 12 view .LVU246
 717 0074 2B48     		ldr	r0, .L65+8
 718              	.LVL54:
 892:Drivers/STM32L0xx_HAL_Driver/Src/stm32l0xx_hal_flash_ex.c ****   
 719              		.loc 1 892 12 view .LVU247
 720              	.LBE45:
 721              	.LBE44:
 383:Drivers/STM32L0xx_HAL_Driver/Src/stm32l0xx_hal_flash_ex.c ****     if (status != HAL_OK)
 722              		.loc 1 383 14 view .LVU248
 723 0076 9846     		mov	r8, r3
 724              	.LVL55:
 725              	.LBB47:
 726              	.LBI44:
 876:Drivers/STM32L0xx_HAL_Driver/Src/stm32l0xx_hal_flash_ex.c **** {
 727              		.loc 1 876 26 is_stmt 1 view .LVU249
 728              	.LBB46:
 878:Drivers/STM32L0xx_HAL_Driver/Src/stm32l0xx_hal_flash_ex.c ****   uint32_t tmp = 0, tmp1 = 0;
 729              		.loc 1 878 3 view .LVU250
 879:Drivers/STM32L0xx_HAL_Driver/Src/stm32l0xx_hal_flash_ex.c **** 
 730              		.loc 1 879 3 view .LVU251
 882:Drivers/STM32L0xx_HAL_Driver/Src/stm32l0xx_hal_flash_ex.c **** 
 731              		.loc 1 882 3 view .LVU252
 885:Drivers/STM32L0xx_HAL_Driver/Src/stm32l0xx_hal_flash_ex.c **** 
 732              		.loc 1 885 3 view .LVU253
 885:Drivers/STM32L0xx_HAL_Driver/Src/stm32l0xx_hal_flash_ex.c **** 
 733              		.loc 1 885 12 is_stmt 0 view .LVU254
 734 0078 7E68     		ldr	r6, [r7, #4]
 735              	.LVL56:
 888:Drivers/STM32L0xx_HAL_Driver/Src/stm32l0xx_hal_flash_ex.c ****   tmp |= (OB_BOR | tmp1);
 736              		.loc 1 888 3 is_stmt 1 view .LVU255
 889:Drivers/STM32L0xx_HAL_Driver/Src/stm32l0xx_hal_flash_ex.c ****     
 737              		.loc 1 889 3 view .LVU256
 892:Drivers/STM32L0xx_HAL_Driver/Src/stm32l0xx_hal_flash_ex.c ****   
 738              		.loc 1 892 3 view .LVU257
 892:Drivers/STM32L0xx_HAL_Driver/Src/stm32l0xx_hal_flash_ex.c ****   
 739              		.loc 1 892 12 is_stmt 0 view .LVU258
 740 007a FFF7FEFF 		bl	FLASH_WaitForLastOperation
 741              	.LVL57:
 894:Drivers/STM32L0xx_HAL_Driver/Src/stm32l0xx_hal_flash_ex.c ****   {  
 742              		.loc 1 894 3 is_stmt 1 view .LVU259
 894:Drivers/STM32L0xx_HAL_Driver/Src/stm32l0xx_hal_flash_ex.c ****   {  
 743              		.loc 1 894 5 is_stmt 0 view .LVU260
 744 007e 0028     		cmp	r0, #0
 745 0080 D5D1     		bne	.L44
 888:Drivers/STM32L0xx_HAL_Driver/Src/stm32l0xx_hal_flash_ex.c ****   tmp |= (OB_BOR | tmp1);
 746              		.loc 1 888 29 view .LVU261
 747 0082 4246     		mov	r2, r8
 885:Drivers/STM32L0xx_HAL_Driver/Src/stm32l0xx_hal_flash_ex.c **** 
 748              		.loc 1 885 8 view .LVU262
 749 0084 294B     		ldr	r3, .L65+16
 897:Drivers/STM32L0xx_HAL_Driver/Src/stm32l0xx_hal_flash_ex.c **** 
 750              		.loc 1 897 22 view .LVU263
 751 0086 6861     		str	r0, [r5, #20]
 885:Drivers/STM32L0xx_HAL_Driver/Src/stm32l0xx_hal_flash_ex.c **** 
 752              		.loc 1 885 8 view .LVU264
 753 0088 3340     		ands	r3, r6
ARM GAS  /tmp/ccLymQqc.s 			page 40


 754              	.LVL58:
 888:Drivers/STM32L0xx_HAL_Driver/Src/stm32l0xx_hal_flash_ex.c ****   tmp |= (OB_BOR | tmp1);
 755              		.loc 1 888 29 view .LVU265
 756 008a 1343     		orrs	r3, r2
 757              	.LVL59:
 897:Drivers/STM32L0xx_HAL_Driver/Src/stm32l0xx_hal_flash_ex.c **** 
 758              		.loc 1 897 5 is_stmt 1 view .LVU266
 900:Drivers/STM32L0xx_HAL_Driver/Src/stm32l0xx_hal_flash_ex.c **** 
 759              		.loc 1 900 5 view .LVU267
 888:Drivers/STM32L0xx_HAL_Driver/Src/stm32l0xx_hal_flash_ex.c ****   tmp |= (OB_BOR | tmp1);
 760              		.loc 1 888 9 is_stmt 0 view .LVU268
 761 008c DA43     		mvns	r2, r3
 888:Drivers/STM32L0xx_HAL_Driver/Src/stm32l0xx_hal_flash_ex.c ****   tmp |= (OB_BOR | tmp1);
 762              		.loc 1 888 7 view .LVU269
 763 008e 1204     		lsls	r2, r2, #16
 889:Drivers/STM32L0xx_HAL_Driver/Src/stm32l0xx_hal_flash_ex.c ****     
 764              		.loc 1 889 7 view .LVU270
 765 0090 1343     		orrs	r3, r2
 903:Drivers/STM32L0xx_HAL_Driver/Src/stm32l0xx_hal_flash_ex.c ****   }
 766              		.loc 1 903 14 view .LVU271
 767 0092 2448     		ldr	r0, .L65+8
 768              	.LVL60:
 900:Drivers/STM32L0xx_HAL_Driver/Src/stm32l0xx_hal_flash_ex.c **** 
 769              		.loc 1 900 14 view .LVU272
 770 0094 7B60     		str	r3, [r7, #4]
 903:Drivers/STM32L0xx_HAL_Driver/Src/stm32l0xx_hal_flash_ex.c ****   }
 771              		.loc 1 903 5 is_stmt 1 view .LVU273
 903:Drivers/STM32L0xx_HAL_Driver/Src/stm32l0xx_hal_flash_ex.c ****   }
 772              		.loc 1 903 14 is_stmt 0 view .LVU274
 773 0096 FFF7FEFF 		bl	FLASH_WaitForLastOperation
 774              	.LVL61:
 907:Drivers/STM32L0xx_HAL_Driver/Src/stm32l0xx_hal_flash_ex.c **** }
 775              		.loc 1 907 3 is_stmt 1 view .LVU275
 907:Drivers/STM32L0xx_HAL_Driver/Src/stm32l0xx_hal_flash_ex.c **** }
 776              		.loc 1 907 3 is_stmt 0 view .LVU276
 777              	.LBE46:
 778              	.LBE47:
 384:Drivers/STM32L0xx_HAL_Driver/Src/stm32l0xx_hal_flash_ex.c ****     {
 779              		.loc 1 384 5 is_stmt 1 view .LVU277
 384:Drivers/STM32L0xx_HAL_Driver/Src/stm32l0xx_hal_flash_ex.c ****     {
 780              		.loc 1 384 8 is_stmt 0 view .LVU278
 781 009a 0028     		cmp	r0, #0
 782 009c C7D1     		bne	.L44
 783 009e 2368     		ldr	r3, [r4]
 393:Drivers/STM32L0xx_HAL_Driver/Src/stm32l0xx_hal_flash_ex.c ****   {
 784              		.loc 1 393 3 is_stmt 1 view .LVU279
 393:Drivers/STM32L0xx_HAL_Driver/Src/stm32l0xx_hal_flash_ex.c ****   {
 785              		.loc 1 393 6 is_stmt 0 view .LVU280
 786 00a0 DB06     		lsls	r3, r3, #27
 787 00a2 C4D5     		bpl	.L44
 788 00a4 23E0     		b	.L64
 789              	.LVL62:
 790              	.L60:
 340:Drivers/STM32L0xx_HAL_Driver/Src/stm32l0xx_hal_flash_ex.c **** #if defined(STM32L071xx) || defined(STM32L072xx) || defined(STM32L073xx) || defined(STM32L081xx) ||
 791              		.loc 1 340 5 is_stmt 1 view .LVU281
 344:Drivers/STM32L0xx_HAL_Driver/Src/stm32l0xx_hal_flash_ex.c **** #endif
 792              		.loc 1 344 5 view .LVU282
ARM GAS  /tmp/ccLymQqc.s 			page 41


 344:Drivers/STM32L0xx_HAL_Driver/Src/stm32l0xx_hal_flash_ex.c **** #endif
 793              		.loc 1 344 14 is_stmt 0 view .LVU283
 794 00a6 6168     		ldr	r1, [r4, #4]
 795 00a8 A068     		ldr	r0, [r4, #8]
 796 00aa FFF7FEFF 		bl	FLASH_OB_ProtectedSectorsConfig
 797              	.LVL63:
 346:Drivers/STM32L0xx_HAL_Driver/Src/stm32l0xx_hal_flash_ex.c ****     {
 798              		.loc 1 346 5 is_stmt 1 view .LVU284
 346:Drivers/STM32L0xx_HAL_Driver/Src/stm32l0xx_hal_flash_ex.c ****     {
 799              		.loc 1 346 8 is_stmt 0 view .LVU285
 800 00ae 0028     		cmp	r0, #0
 801 00b0 BDD1     		bne	.L44
 802 00b2 2368     		ldr	r3, [r4]
 355:Drivers/STM32L0xx_HAL_Driver/Src/stm32l0xx_hal_flash_ex.c ****   {
 803              		.loc 1 355 3 is_stmt 1 view .LVU286
 355:Drivers/STM32L0xx_HAL_Driver/Src/stm32l0xx_hal_flash_ex.c ****   {
 804              		.loc 1 355 5 is_stmt 0 view .LVU287
 805 00b4 9A07     		lsls	r2, r3, #30
 806 00b6 B4D5     		bpl	.L38
 807              	.L61:
 357:Drivers/STM32L0xx_HAL_Driver/Src/stm32l0xx_hal_flash_ex.c ****     if (status != HAL_OK)
 808              		.loc 1 357 5 is_stmt 1 view .LVU288
 357:Drivers/STM32L0xx_HAL_Driver/Src/stm32l0xx_hal_flash_ex.c ****     if (status != HAL_OK)
 809              		.loc 1 357 14 is_stmt 0 view .LVU289
 810 00b8 237B     		ldrb	r3, [r4, #12]
 811              	.LBB48:
 812              	.LBB49:
 833:Drivers/STM32L0xx_HAL_Driver/Src/stm32l0xx_hal_flash_ex.c ****   
 813              		.loc 1 833 23 view .LVU290
 814 00ba 194F     		ldr	r7, .L65+4
 845:Drivers/STM32L0xx_HAL_Driver/Src/stm32l0xx_hal_flash_ex.c **** 
 815              		.loc 1 845 14 view .LVU291
 816 00bc 1948     		ldr	r0, .L65+8
 817              	.LVL64:
 845:Drivers/STM32L0xx_HAL_Driver/Src/stm32l0xx_hal_flash_ex.c **** 
 818              		.loc 1 845 14 view .LVU292
 819              	.LBE49:
 820              	.LBE48:
 357:Drivers/STM32L0xx_HAL_Driver/Src/stm32l0xx_hal_flash_ex.c ****     if (status != HAL_OK)
 821              		.loc 1 357 14 view .LVU293
 822 00be 9846     		mov	r8, r3
 823              	.LVL65:
 824              	.LBB51:
 825              	.LBI48:
 825:Drivers/STM32L0xx_HAL_Driver/Src/stm32l0xx_hal_flash_ex.c **** {
 826              		.loc 1 825 26 is_stmt 1 view .LVU294
 827              	.LBB50:
 827:Drivers/STM32L0xx_HAL_Driver/Src/stm32l0xx_hal_flash_ex.c ****   uint32_t tmp1 = 0U, tmp2 = 0U, tmp3 = 0U;
 828              		.loc 1 827 3 view .LVU295
 828:Drivers/STM32L0xx_HAL_Driver/Src/stm32l0xx_hal_flash_ex.c ****   
 829              		.loc 1 828 3 view .LVU296
 831:Drivers/STM32L0xx_HAL_Driver/Src/stm32l0xx_hal_flash_ex.c ****   
 830              		.loc 1 831 3 view .LVU297
 833:Drivers/STM32L0xx_HAL_Driver/Src/stm32l0xx_hal_flash_ex.c ****   
 831              		.loc 1 833 3 view .LVU298
 833:Drivers/STM32L0xx_HAL_Driver/Src/stm32l0xx_hal_flash_ex.c ****   
 832              		.loc 1 833 23 is_stmt 0 view .LVU299
ARM GAS  /tmp/ccLymQqc.s 			page 42


 833 00c0 3B68     		ldr	r3, [r7]
 834              	.LVL66:
 837:Drivers/STM32L0xx_HAL_Driver/Src/stm32l0xx_hal_flash_ex.c **** #endif
 835              		.loc 1 837 5 is_stmt 1 view .LVU300
 837:Drivers/STM32L0xx_HAL_Driver/Src/stm32l0xx_hal_flash_ex.c **** #endif
 836              		.loc 1 837 25 is_stmt 0 view .LVU301
 837 00c2 3E68     		ldr	r6, [r7]
 838              	.LVL67:
 841:Drivers/STM32L0xx_HAL_Driver/Src/stm32l0xx_hal_flash_ex.c ****     tmp2 = (uint32_t)(((uint32_t)((uint32_t)(tmp1) << 16U)) | ((uint32_t)(OB_RDP | tmp3)));
 839              		.loc 1 841 5 is_stmt 1 view .LVU302
 842:Drivers/STM32L0xx_HAL_Driver/Src/stm32l0xx_hal_flash_ex.c **** 
 840              		.loc 1 842 5 view .LVU303
 845:Drivers/STM32L0xx_HAL_Driver/Src/stm32l0xx_hal_flash_ex.c **** 
 841              		.loc 1 845 5 view .LVU304
 845:Drivers/STM32L0xx_HAL_Driver/Src/stm32l0xx_hal_flash_ex.c **** 
 842              		.loc 1 845 14 is_stmt 0 view .LVU305
 843 00c4 FFF7FEFF 		bl	FLASH_WaitForLastOperation
 844              	.LVL68:
 847:Drivers/STM32L0xx_HAL_Driver/Src/stm32l0xx_hal_flash_ex.c ****     {
 845              		.loc 1 847 5 is_stmt 1 view .LVU306
 847:Drivers/STM32L0xx_HAL_Driver/Src/stm32l0xx_hal_flash_ex.c ****     {
 846              		.loc 1 847 7 is_stmt 0 view .LVU307
 847 00c8 0028     		cmp	r0, #0
 848 00ca B0D1     		bne	.L44
 837:Drivers/STM32L0xx_HAL_Driver/Src/stm32l0xx_hal_flash_ex.c **** #endif
 849              		.loc 1 837 10 view .LVU308
 850 00cc 8023     		movs	r3, #128
 841:Drivers/STM32L0xx_HAL_Driver/Src/stm32l0xx_hal_flash_ex.c ****     tmp2 = (uint32_t)(((uint32_t)((uint32_t)(tmp1) << 16U)) | ((uint32_t)(OB_RDP | tmp3)));
 851              		.loc 1 841 15 view .LVU309
 852 00ce 4246     		mov	r2, r8
 837:Drivers/STM32L0xx_HAL_Driver/Src/stm32l0xx_hal_flash_ex.c **** #endif
 853              		.loc 1 837 10 view .LVU310
 854 00d0 5B00     		lsls	r3, r3, #1
 855 00d2 3340     		ands	r3, r6
 841:Drivers/STM32L0xx_HAL_Driver/Src/stm32l0xx_hal_flash_ex.c ****     tmp2 = (uint32_t)(((uint32_t)((uint32_t)(tmp1) << 16U)) | ((uint32_t)(OB_RDP | tmp3)));
 856              		.loc 1 841 15 view .LVU311
 857 00d4 1343     		orrs	r3, r2
 850:Drivers/STM32L0xx_HAL_Driver/Src/stm32l0xx_hal_flash_ex.c **** 
 858              		.loc 1 850 7 is_stmt 1 view .LVU312
 841:Drivers/STM32L0xx_HAL_Driver/Src/stm32l0xx_hal_flash_ex.c ****     tmp2 = (uint32_t)(((uint32_t)((uint32_t)(tmp1) << 16U)) | ((uint32_t)(OB_RDP | tmp3)));
 859              		.loc 1 841 10 is_stmt 0 view .LVU313
 860 00d6 DA43     		mvns	r2, r3
 842:Drivers/STM32L0xx_HAL_Driver/Src/stm32l0xx_hal_flash_ex.c **** 
 861              		.loc 1 842 24 view .LVU314
 862 00d8 1204     		lsls	r2, r2, #16
 842:Drivers/STM32L0xx_HAL_Driver/Src/stm32l0xx_hal_flash_ex.c **** 
 863              		.loc 1 842 10 view .LVU315
 864 00da 1343     		orrs	r3, r2
 850:Drivers/STM32L0xx_HAL_Driver/Src/stm32l0xx_hal_flash_ex.c **** 
 865              		.loc 1 850 24 view .LVU316
 866 00dc 6861     		str	r0, [r5, #20]
 853:Drivers/STM32L0xx_HAL_Driver/Src/stm32l0xx_hal_flash_ex.c **** 
 867              		.loc 1 853 7 is_stmt 1 view .LVU317
 856:Drivers/STM32L0xx_HAL_Driver/Src/stm32l0xx_hal_flash_ex.c ****     }
 868              		.loc 1 856 16 is_stmt 0 view .LVU318
 869 00de 1148     		ldr	r0, .L65+8
 870              	.LVL69:
ARM GAS  /tmp/ccLymQqc.s 			page 43


 853:Drivers/STM32L0xx_HAL_Driver/Src/stm32l0xx_hal_flash_ex.c **** 
 871              		.loc 1 853 15 view .LVU319
 872 00e0 3B60     		str	r3, [r7]
 856:Drivers/STM32L0xx_HAL_Driver/Src/stm32l0xx_hal_flash_ex.c ****     }
 873              		.loc 1 856 7 is_stmt 1 view .LVU320
 856:Drivers/STM32L0xx_HAL_Driver/Src/stm32l0xx_hal_flash_ex.c ****     }
 874              		.loc 1 856 16 is_stmt 0 view .LVU321
 875 00e2 FFF7FEFF 		bl	FLASH_WaitForLastOperation
 876              	.LVL70:
 860:Drivers/STM32L0xx_HAL_Driver/Src/stm32l0xx_hal_flash_ex.c **** }
 877              		.loc 1 860 3 is_stmt 1 view .LVU322
 860:Drivers/STM32L0xx_HAL_Driver/Src/stm32l0xx_hal_flash_ex.c **** }
 878              		.loc 1 860 3 is_stmt 0 view .LVU323
 879              	.LBE50:
 880              	.LBE51:
 358:Drivers/STM32L0xx_HAL_Driver/Src/stm32l0xx_hal_flash_ex.c ****     {
 881              		.loc 1 358 5 is_stmt 1 view .LVU324
 358:Drivers/STM32L0xx_HAL_Driver/Src/stm32l0xx_hal_flash_ex.c ****     {
 882              		.loc 1 358 8 is_stmt 0 view .LVU325
 883 00e6 0028     		cmp	r0, #0
 884 00e8 A1D1     		bne	.L44
 885 00ea 2368     		ldr	r3, [r4]
 886 00ec 99E7     		b	.L38
 887              	.L64:
 395:Drivers/STM32L0xx_HAL_Driver/Src/stm32l0xx_hal_flash_ex.c ****   }
 888              		.loc 1 395 5 is_stmt 1 view .LVU326
 889              	.LBB52:
 890              	.LBB53:
 927:Drivers/STM32L0xx_HAL_Driver/Src/stm32l0xx_hal_flash_ex.c **** 
 891              		.loc 1 927 12 is_stmt 0 view .LVU327
 892 00ee 0C4F     		ldr	r7, .L65+4
 934:Drivers/STM32L0xx_HAL_Driver/Src/stm32l0xx_hal_flash_ex.c ****   
 893              		.loc 1 934 12 view .LVU328
 894 00f0 0C48     		ldr	r0, .L65+8
 895              	.LVL71:
 934:Drivers/STM32L0xx_HAL_Driver/Src/stm32l0xx_hal_flash_ex.c ****   
 896              		.loc 1 934 12 view .LVU329
 897              	.LBE53:
 898              	.LBE52:
 395:Drivers/STM32L0xx_HAL_Driver/Src/stm32l0xx_hal_flash_ex.c ****   }
 899              		.loc 1 395 14 view .LVU330
 900 00f2 E47B     		ldrb	r4, [r4, #15]
 901              	.LVL72:
 902              	.LBB55:
 903              	.LBI52:
 918:Drivers/STM32L0xx_HAL_Driver/Src/stm32l0xx_hal_flash_ex.c **** {
 904              		.loc 1 918 27 is_stmt 1 view .LVU331
 905              	.LBB54:
 920:Drivers/STM32L0xx_HAL_Driver/Src/stm32l0xx_hal_flash_ex.c ****   uint32_t tmp = 0, tmp1 = 0, OB_Bits = ((uint32_t) OB_BootBit1) << 15;
 906              		.loc 1 920 3 view .LVU332
 921:Drivers/STM32L0xx_HAL_Driver/Src/stm32l0xx_hal_flash_ex.c **** 
 907              		.loc 1 921 3 view .LVU333
 924:Drivers/STM32L0xx_HAL_Driver/Src/stm32l0xx_hal_flash_ex.c **** 
 908              		.loc 1 924 3 view .LVU334
 927:Drivers/STM32L0xx_HAL_Driver/Src/stm32l0xx_hal_flash_ex.c **** 
 909              		.loc 1 927 3 view .LVU335
 927:Drivers/STM32L0xx_HAL_Driver/Src/stm32l0xx_hal_flash_ex.c **** 
ARM GAS  /tmp/ccLymQqc.s 			page 44


 910              		.loc 1 927 12 is_stmt 0 view .LVU336
 911 00f4 7E68     		ldr	r6, [r7, #4]
 912              	.LVL73:
 930:Drivers/STM32L0xx_HAL_Driver/Src/stm32l0xx_hal_flash_ex.c ****   tmp |= OB_Bits | tmp1;
 913              		.loc 1 930 3 is_stmt 1 view .LVU337
 931:Drivers/STM32L0xx_HAL_Driver/Src/stm32l0xx_hal_flash_ex.c ****     
 914              		.loc 1 931 3 view .LVU338
 934:Drivers/STM32L0xx_HAL_Driver/Src/stm32l0xx_hal_flash_ex.c ****   
 915              		.loc 1 934 3 view .LVU339
 934:Drivers/STM32L0xx_HAL_Driver/Src/stm32l0xx_hal_flash_ex.c ****   
 916              		.loc 1 934 12 is_stmt 0 view .LVU340
 917 00f6 FFF7FEFF 		bl	FLASH_WaitForLastOperation
 918              	.LVL74:
 936:Drivers/STM32L0xx_HAL_Driver/Src/stm32l0xx_hal_flash_ex.c ****   {  
 919              		.loc 1 936 3 is_stmt 1 view .LVU341
 936:Drivers/STM32L0xx_HAL_Driver/Src/stm32l0xx_hal_flash_ex.c ****   {  
 920              		.loc 1 936 5 is_stmt 0 view .LVU342
 921 00fa 0028     		cmp	r0, #0
 922 00fc 97D1     		bne	.L44
 927:Drivers/STM32L0xx_HAL_Driver/Src/stm32l0xx_hal_flash_ex.c **** 
 923              		.loc 1 927 8 view .LVU343
 924 00fe 7604     		lsls	r6, r6, #17
 925              	.LVL75:
 927:Drivers/STM32L0xx_HAL_Driver/Src/stm32l0xx_hal_flash_ex.c **** 
 926              		.loc 1 927 8 view .LVU344
 927 0100 760C     		lsrs	r6, r6, #17
 921:Drivers/STM32L0xx_HAL_Driver/Src/stm32l0xx_hal_flash_ex.c **** 
 928              		.loc 1 921 31 view .LVU345
 929 0102 E403     		lsls	r4, r4, #15
 930              	.LVL76:
 930:Drivers/STM32L0xx_HAL_Driver/Src/stm32l0xx_hal_flash_ex.c ****   tmp |= OB_Bits | tmp1;
 931              		.loc 1 930 20 view .LVU346
 932 0104 3443     		orrs	r4, r6
 939:Drivers/STM32L0xx_HAL_Driver/Src/stm32l0xx_hal_flash_ex.c ****     /* Program OB */
 933              		.loc 1 939 5 is_stmt 1 view .LVU347
 930:Drivers/STM32L0xx_HAL_Driver/Src/stm32l0xx_hal_flash_ex.c ****   tmp |= OB_Bits | tmp1;
 934              		.loc 1 930 10 is_stmt 0 view .LVU348
 935 0106 E343     		mvns	r3, r4
 930:Drivers/STM32L0xx_HAL_Driver/Src/stm32l0xx_hal_flash_ex.c ****   tmp |= OB_Bits | tmp1;
 936              		.loc 1 930 7 view .LVU349
 937 0108 1B04     		lsls	r3, r3, #16
 931:Drivers/STM32L0xx_HAL_Driver/Src/stm32l0xx_hal_flash_ex.c ****     
 938              		.loc 1 931 7 view .LVU350
 939 010a 1C43     		orrs	r4, r3
 939:Drivers/STM32L0xx_HAL_Driver/Src/stm32l0xx_hal_flash_ex.c ****     /* Program OB */
 940              		.loc 1 939 22 view .LVU351
 941 010c 6861     		str	r0, [r5, #20]
 941:Drivers/STM32L0xx_HAL_Driver/Src/stm32l0xx_hal_flash_ex.c ****     /* Wait for last operation to be completed */
 942              		.loc 1 941 5 is_stmt 1 view .LVU352
 941:Drivers/STM32L0xx_HAL_Driver/Src/stm32l0xx_hal_flash_ex.c ****     /* Wait for last operation to be completed */
 943              		.loc 1 941 14 is_stmt 0 view .LVU353
 944 010e 7C60     		str	r4, [r7, #4]
 943:Drivers/STM32L0xx_HAL_Driver/Src/stm32l0xx_hal_flash_ex.c ****   }
 945              		.loc 1 943 5 is_stmt 1 view .LVU354
 943:Drivers/STM32L0xx_HAL_Driver/Src/stm32l0xx_hal_flash_ex.c ****   }
 946              		.loc 1 943 14 is_stmt 0 view .LVU355
 947 0110 0448     		ldr	r0, .L65+8
ARM GAS  /tmp/ccLymQqc.s 			page 45


 948              	.LVL77:
 943:Drivers/STM32L0xx_HAL_Driver/Src/stm32l0xx_hal_flash_ex.c ****   }
 949              		.loc 1 943 14 view .LVU356
 950 0112 FFF7FEFF 		bl	FLASH_WaitForLastOperation
 951              	.LVL78:
 943:Drivers/STM32L0xx_HAL_Driver/Src/stm32l0xx_hal_flash_ex.c ****   }
 952              		.loc 1 943 14 view .LVU357
 953 0116 8AE7     		b	.L44
 954              	.LVL79:
 955              	.L45:
 943:Drivers/STM32L0xx_HAL_Driver/Src/stm32l0xx_hal_flash_ex.c ****   }
 956              		.loc 1 943 14 view .LVU358
 957              	.LBE54:
 958              	.LBE55:
 332:Drivers/STM32L0xx_HAL_Driver/Src/stm32l0xx_hal_flash_ex.c **** 
 959              		.loc 1 332 3 view .LVU359
 960 0118 0220     		movs	r0, #2
 961              	.LVL80:
 332:Drivers/STM32L0xx_HAL_Driver/Src/stm32l0xx_hal_flash_ex.c **** 
 962              		.loc 1 332 3 view .LVU360
 963 011a 8AE7     		b	.L35
 964              	.L66:
 965              		.align	2
 966              	.L65:
 967 011c 00000000 		.word	pFlash
 968 0120 0000F81F 		.word	536346624
 969 0124 50C30000 		.word	50000
 970 0128 8FFF0000 		.word	65423
 971 012c F0FF0000 		.word	65520
 972              		.cfi_endproc
 973              	.LFE36:
 975              		.section	.text.HAL_FLASHEx_OBGetConfig,"ax",%progbits
 976              		.align	1
 977              		.p2align 2,,3
 978              		.global	HAL_FLASHEx_OBGetConfig
 979              		.syntax unified
 980              		.code	16
 981              		.thumb_func
 982              		.fpu softvfp
 984              	HAL_FLASHEx_OBGetConfig:
 985              	.LVL81:
 986              	.LFB37:
 411:Drivers/STM32L0xx_HAL_Driver/Src/stm32l0xx_hal_flash_ex.c ****   pOBInit->OptionType = OPTIONBYTE_WRP | OPTIONBYTE_RDP | OPTIONBYTE_USER | OPTIONBYTE_BOR;
 987              		.loc 1 411 1 is_stmt 1 view -0
 988              		.cfi_startproc
 989              		@ args = 0, pretend = 0, frame = 0
 990              		@ frame_needed = 0, uses_anonymous_args = 0
 991              		@ link register save eliminated.
 412:Drivers/STM32L0xx_HAL_Driver/Src/stm32l0xx_hal_flash_ex.c **** 
 992              		.loc 1 412 3 view .LVU362
 412:Drivers/STM32L0xx_HAL_Driver/Src/stm32l0xx_hal_flash_ex.c **** 
 993              		.loc 1 412 23 is_stmt 0 view .LVU363
 994 0000 0F23     		movs	r3, #15
 995 0002 0360     		str	r3, [r0]
 415:Drivers/STM32L0xx_HAL_Driver/Src/stm32l0xx_hal_flash_ex.c **** 
 996              		.loc 1 415 3 is_stmt 1 view .LVU364
 997              	.LBB56:
ARM GAS  /tmp/ccLymQqc.s 			page 46


 998              	.LBI56:
1006:Drivers/STM32L0xx_HAL_Driver/Src/stm32l0xx_hal_flash_ex.c **** {
 999              		.loc 1 1006 17 view .LVU365
 1000              	.LBB57:
1009:Drivers/STM32L0xx_HAL_Driver/Src/stm32l0xx_hal_flash_ex.c **** }
 1001              		.loc 1 1009 3 view .LVU366
1009:Drivers/STM32L0xx_HAL_Driver/Src/stm32l0xx_hal_flash_ex.c **** }
 1002              		.loc 1 1009 10 is_stmt 0 view .LVU367
 1003 0004 0C4B     		ldr	r3, .L73
 1004 0006 1A6A     		ldr	r2, [r3, #32]
 1005              	.LBE57:
 1006              	.LBE56:
 415:Drivers/STM32L0xx_HAL_Driver/Src/stm32l0xx_hal_flash_ex.c **** 
 1007              		.loc 1 415 22 view .LVU368
 1008 0008 8260     		str	r2, [r0, #8]
 422:Drivers/STM32L0xx_HAL_Driver/Src/stm32l0xx_hal_flash_ex.c **** 
 1009              		.loc 1 422 3 is_stmt 1 view .LVU369
 1010              	.LBB58:
 1011              	.LBI58:
 967:Drivers/STM32L0xx_HAL_Driver/Src/stm32l0xx_hal_flash_ex.c **** {
 1012              		.loc 1 967 16 view .LVU370
 1013              	.LBB59:
 969:Drivers/STM32L0xx_HAL_Driver/Src/stm32l0xx_hal_flash_ex.c **** 
 1014              		.loc 1 969 3 view .LVU371
 969:Drivers/STM32L0xx_HAL_Driver/Src/stm32l0xx_hal_flash_ex.c **** 
 1015              		.loc 1 969 23 is_stmt 0 view .LVU372
 1016 000a DB69     		ldr	r3, [r3, #28]
 969:Drivers/STM32L0xx_HAL_Driver/Src/stm32l0xx_hal_flash_ex.c **** 
 1017              		.loc 1 969 11 view .LVU373
 1018 000c DBB2     		uxtb	r3, r3
 1019              	.LVL82:
 971:Drivers/STM32L0xx_HAL_Driver/Src/stm32l0xx_hal_flash_ex.c ****   {
 1020              		.loc 1 971 3 is_stmt 1 view .LVU374
 971:Drivers/STM32L0xx_HAL_Driver/Src/stm32l0xx_hal_flash_ex.c ****   {
 1021              		.loc 1 971 6 is_stmt 0 view .LVU375
 1022 000e AA2B     		cmp	r3, #170
 1023 0010 02D0     		beq	.L68
 971:Drivers/STM32L0xx_HAL_Driver/Src/stm32l0xx_hal_flash_ex.c ****   {
 1024              		.loc 1 971 37 view .LVU376
 1025 0012 CC2B     		cmp	r3, #204
 1026 0014 00D0     		beq	.L68
 973:Drivers/STM32L0xx_HAL_Driver/Src/stm32l0xx_hal_flash_ex.c ****   }
 1027              		.loc 1 973 12 view .LVU377
 1028 0016 BB23     		movs	r3, #187
 1029              	.LVL83:
 1030              	.L68:
 973:Drivers/STM32L0xx_HAL_Driver/Src/stm32l0xx_hal_flash_ex.c ****   }
 1031              		.loc 1 973 12 view .LVU378
 1032              	.LBE59:
 1033              	.LBE58:
 422:Drivers/STM32L0xx_HAL_Driver/Src/stm32l0xx_hal_flash_ex.c **** 
 1034              		.loc 1 422 23 view .LVU379
 1035 0018 0373     		strb	r3, [r0, #12]
 425:Drivers/STM32L0xx_HAL_Driver/Src/stm32l0xx_hal_flash_ex.c **** 
 1036              		.loc 1 425 3 is_stmt 1 view .LVU380
 1037              	.LBB60:
 1038              	.LBI60:
ARM GAS  /tmp/ccLymQqc.s 			page 47


 953:Drivers/STM32L0xx_HAL_Driver/Src/stm32l0xx_hal_flash_ex.c **** {
 1039              		.loc 1 953 16 view .LVU381
 1040              	.LBB61:
 956:Drivers/STM32L0xx_HAL_Driver/Src/stm32l0xx_hal_flash_ex.c **** }
 1041              		.loc 1 956 3 view .LVU382
 956:Drivers/STM32L0xx_HAL_Driver/Src/stm32l0xx_hal_flash_ex.c **** }
 1042              		.loc 1 956 10 is_stmt 0 view .LVU383
 1043 001a 7023     		movs	r3, #112
 956:Drivers/STM32L0xx_HAL_Driver/Src/stm32l0xx_hal_flash_ex.c **** }
 1044              		.loc 1 956 26 view .LVU384
 1045 001c 064A     		ldr	r2, .L73
 1046              	.LBE61:
 1047              	.LBE60:
 432:Drivers/STM32L0xx_HAL_Driver/Src/stm32l0xx_hal_flash_ex.c **** 
 1048              		.loc 1 432 1 view .LVU385
 1049              		@ sp needed
 1050              	.LBB63:
 1051              	.LBB62:
 956:Drivers/STM32L0xx_HAL_Driver/Src/stm32l0xx_hal_flash_ex.c **** }
 1052              		.loc 1 956 26 view .LVU386
 1053 001e D169     		ldr	r1, [r2, #28]
 956:Drivers/STM32L0xx_HAL_Driver/Src/stm32l0xx_hal_flash_ex.c **** }
 1054              		.loc 1 956 52 view .LVU387
 1055 0020 090C     		lsrs	r1, r1, #16
 956:Drivers/STM32L0xx_HAL_Driver/Src/stm32l0xx_hal_flash_ex.c **** }
 1056              		.loc 1 956 10 view .LVU388
 1057 0022 0B40     		ands	r3, r1
 1058              	.LBE62:
 1059              	.LBE63:
 425:Drivers/STM32L0xx_HAL_Driver/Src/stm32l0xx_hal_flash_ex.c **** 
 1060              		.loc 1 425 23 view .LVU389
 1061 0024 8373     		strb	r3, [r0, #14]
 428:Drivers/STM32L0xx_HAL_Driver/Src/stm32l0xx_hal_flash_ex.c **** 
 1062              		.loc 1 428 3 is_stmt 1 view .LVU390
 1063              	.LBB64:
 1064              	.LBI64:
 985:Drivers/STM32L0xx_HAL_Driver/Src/stm32l0xx_hal_flash_ex.c **** {
 1065              		.loc 1 985 16 view .LVU391
 1066              	.LBB65:
 988:Drivers/STM32L0xx_HAL_Driver/Src/stm32l0xx_hal_flash_ex.c **** }
 1067              		.loc 1 988 3 view .LVU392
 988:Drivers/STM32L0xx_HAL_Driver/Src/stm32l0xx_hal_flash_ex.c **** }
 1068              		.loc 1 988 26 is_stmt 0 view .LVU393
 1069 0026 D369     		ldr	r3, [r2, #28]
 988:Drivers/STM32L0xx_HAL_Driver/Src/stm32l0xx_hal_flash_ex.c **** }
 1070              		.loc 1 988 10 view .LVU394
 1071 0028 1B03     		lsls	r3, r3, #12
 1072 002a 1B0F     		lsrs	r3, r3, #28
 1073              	.LBE65:
 1074              	.LBE64:
 428:Drivers/STM32L0xx_HAL_Driver/Src/stm32l0xx_hal_flash_ex.c **** 
 1075              		.loc 1 428 23 view .LVU395
 1076 002c 4373     		strb	r3, [r0, #13]
 431:Drivers/STM32L0xx_HAL_Driver/Src/stm32l0xx_hal_flash_ex.c **** }
 1077              		.loc 1 431 3 is_stmt 1 view .LVU396
 1078              	.LBB66:
 1079              	.LBI66:
ARM GAS  /tmp/ccLymQqc.s 			page 48


 995:Drivers/STM32L0xx_HAL_Driver/Src/stm32l0xx_hal_flash_ex.c **** {
 1080              		.loc 1 995 16 view .LVU397
 1081              	.LBB67:
 998:Drivers/STM32L0xx_HAL_Driver/Src/stm32l0xx_hal_flash_ex.c **** 
 1082              		.loc 1 998 3 view .LVU398
 998:Drivers/STM32L0xx_HAL_Driver/Src/stm32l0xx_hal_flash_ex.c **** 
 1083              		.loc 1 998 16 is_stmt 0 view .LVU399
 1084 002e D369     		ldr	r3, [r2, #28]
 998:Drivers/STM32L0xx_HAL_Driver/Src/stm32l0xx_hal_flash_ex.c **** 
 1085              		.loc 1 998 43 view .LVU400
 1086 0030 DB0F     		lsrs	r3, r3, #31
 1087              	.LBE67:
 1088              	.LBE66:
 431:Drivers/STM32L0xx_HAL_Driver/Src/stm32l0xx_hal_flash_ex.c **** }
 1089              		.loc 1 431 27 view .LVU401
 1090 0032 C373     		strb	r3, [r0, #15]
 432:Drivers/STM32L0xx_HAL_Driver/Src/stm32l0xx_hal_flash_ex.c **** 
 1091              		.loc 1 432 1 view .LVU402
 1092 0034 7047     		bx	lr
 1093              	.L74:
 1094 0036 C046     		.align	2
 1095              	.L73:
 1096 0038 00200240 		.word	1073881088
 1097              		.cfi_endproc
 1098              	.LFE37:
 1100              		.section	.text.HAL_FLASHEx_AdvOBProgram,"ax",%progbits
 1101              		.align	1
 1102              		.p2align 2,,3
 1103              		.global	HAL_FLASHEx_AdvOBProgram
 1104              		.syntax unified
 1105              		.code	16
 1106              		.thumb_func
 1107              		.fpu softvfp
 1109              	HAL_FLASHEx_AdvOBProgram:
 1110              	.LVL84:
 1111              	.LFB38:
 444:Drivers/STM32L0xx_HAL_Driver/Src/stm32l0xx_hal_flash_ex.c ****   HAL_StatusTypeDef status = HAL_ERROR;
 1112              		.loc 1 444 1 is_stmt 1 view -0
 1113              		.cfi_startproc
 1114              		@ args = 0, pretend = 0, frame = 0
 1115              		@ frame_needed = 0, uses_anonymous_args = 0
 445:Drivers/STM32L0xx_HAL_Driver/Src/stm32l0xx_hal_flash_ex.c ****   
 1116              		.loc 1 445 3 view .LVU404
 448:Drivers/STM32L0xx_HAL_Driver/Src/stm32l0xx_hal_flash_ex.c **** 
 1117              		.loc 1 448 3 view .LVU405
 453:Drivers/STM32L0xx_HAL_Driver/Src/stm32l0xx_hal_flash_ex.c ****   {
 1118              		.loc 1 453 3 view .LVU406
 444:Drivers/STM32L0xx_HAL_Driver/Src/stm32l0xx_hal_flash_ex.c ****   HAL_StatusTypeDef status = HAL_ERROR;
 1119              		.loc 1 444 1 is_stmt 0 view .LVU407
 1120 0000 0300     		movs	r3, r0
 453:Drivers/STM32L0xx_HAL_Driver/Src/stm32l0xx_hal_flash_ex.c ****   {
 1121              		.loc 1 453 6 view .LVU408
 1122 0002 1A68     		ldr	r2, [r3]
 445:Drivers/STM32L0xx_HAL_Driver/Src/stm32l0xx_hal_flash_ex.c ****   
 1123              		.loc 1 445 21 view .LVU409
 1124 0004 0120     		movs	r0, #1
 1125              	.LVL85:
ARM GAS  /tmp/ccLymQqc.s 			page 49


 444:Drivers/STM32L0xx_HAL_Driver/Src/stm32l0xx_hal_flash_ex.c ****   HAL_StatusTypeDef status = HAL_ERROR;
 1126              		.loc 1 444 1 view .LVU410
 1127 0006 10B5     		push	{r4, lr}
 1128              	.LCFI6:
 1129              		.cfi_def_cfa_offset 8
 1130              		.cfi_offset 4, -8
 1131              		.cfi_offset 14, -4
 453:Drivers/STM32L0xx_HAL_Driver/Src/stm32l0xx_hal_flash_ex.c ****   {
 1132              		.loc 1 453 6 view .LVU411
 1133 0008 D207     		lsls	r2, r2, #31
 1134 000a 00D4     		bmi	.L79
 1135              	.LVL86:
 1136              	.L76:
 476:Drivers/STM32L0xx_HAL_Driver/Src/stm32l0xx_hal_flash_ex.c **** }
 1137              		.loc 1 476 3 is_stmt 1 view .LVU412
 477:Drivers/STM32L0xx_HAL_Driver/Src/stm32l0xx_hal_flash_ex.c **** 
 1138              		.loc 1 477 1 is_stmt 0 view .LVU413
 1139              		@ sp needed
 1140 000c 10BD     		pop	{r4, pc}
 1141              	.LVL87:
 1142              	.L79:
 456:Drivers/STM32L0xx_HAL_Driver/Src/stm32l0xx_hal_flash_ex.c **** #if defined(STM32L071xx) || defined(STM32L072xx) || defined(STM32L073xx) || defined(STM32L081xx) ||
 1143              		.loc 1 456 5 is_stmt 1 view .LVU414
 460:Drivers/STM32L0xx_HAL_Driver/Src/stm32l0xx_hal_flash_ex.c **** #endif
 1144              		.loc 1 460 5 view .LVU415
 460:Drivers/STM32L0xx_HAL_Driver/Src/stm32l0xx_hal_flash_ex.c **** #endif
 1145              		.loc 1 460 14 is_stmt 0 view .LVU416
 1146 000e 5968     		ldr	r1, [r3, #4]
 1147 0010 9868     		ldr	r0, [r3, #8]
 1148 0012 FFF7FEFF 		bl	FLASH_OB_ProtectedSectorsConfig
 1149              	.LVL88:
 460:Drivers/STM32L0xx_HAL_Driver/Src/stm32l0xx_hal_flash_ex.c **** #endif
 1150              		.loc 1 460 14 view .LVU417
 1151 0016 F9E7     		b	.L76
 1152              		.cfi_endproc
 1153              	.LFE38:
 1155              		.section	.text.HAL_FLASHEx_AdvOBGetConfig,"ax",%progbits
 1156              		.align	1
 1157              		.p2align 2,,3
 1158              		.global	HAL_FLASHEx_AdvOBGetConfig
 1159              		.syntax unified
 1160              		.code	16
 1161              		.thumb_func
 1162              		.fpu softvfp
 1164              	HAL_FLASHEx_AdvOBGetConfig:
 1165              	.LVL89:
 1166              	.LFB39:
 487:Drivers/STM32L0xx_HAL_Driver/Src/stm32l0xx_hal_flash_ex.c ****   pAdvOBInit->OptionType = 0;
 1167              		.loc 1 487 1 is_stmt 1 view -0
 1168              		.cfi_startproc
 1169              		@ args = 0, pretend = 0, frame = 0
 1170              		@ frame_needed = 0, uses_anonymous_args = 0
 1171              		@ link register save eliminated.
 488:Drivers/STM32L0xx_HAL_Driver/Src/stm32l0xx_hal_flash_ex.c ****   
 1172              		.loc 1 488 3 view .LVU419
 492:Drivers/STM32L0xx_HAL_Driver/Src/stm32l0xx_hal_flash_ex.c **** 
 1173              		.loc 1 492 3 view .LVU420
ARM GAS  /tmp/ccLymQqc.s 			page 50


 492:Drivers/STM32L0xx_HAL_Driver/Src/stm32l0xx_hal_flash_ex.c **** 
 1174              		.loc 1 492 26 is_stmt 0 view .LVU421
 1175 0000 0123     		movs	r3, #1
 496:Drivers/STM32L0xx_HAL_Driver/Src/stm32l0xx_hal_flash_ex.c ****   /* Get PCROP protected sector */
 1176              		.loc 1 496 34 view .LVU422
 1177 0002 0449     		ldr	r1, .L81
 492:Drivers/STM32L0xx_HAL_Driver/Src/stm32l0xx_hal_flash_ex.c **** 
 1178              		.loc 1 492 26 view .LVU423
 1179 0004 0360     		str	r3, [r0]
 496:Drivers/STM32L0xx_HAL_Driver/Src/stm32l0xx_hal_flash_ex.c ****   /* Get PCROP protected sector */
 1180              		.loc 1 496 3 is_stmt 1 view .LVU424
 496:Drivers/STM32L0xx_HAL_Driver/Src/stm32l0xx_hal_flash_ex.c ****   /* Get PCROP protected sector */
 1181              		.loc 1 496 34 is_stmt 0 view .LVU425
 1182 0006 CA69     		ldr	r2, [r1, #28]
 514:Drivers/STM32L0xx_HAL_Driver/Src/stm32l0xx_hal_flash_ex.c **** 
 1183              		.loc 1 514 1 view .LVU426
 1184              		@ sp needed
 496:Drivers/STM32L0xx_HAL_Driver/Src/stm32l0xx_hal_flash_ex.c ****   /* Get PCROP protected sector */
 1185              		.loc 1 496 62 view .LVU427
 1186 0008 120A     		lsrs	r2, r2, #8
 1187 000a 1340     		ands	r3, r2
 496:Drivers/STM32L0xx_HAL_Driver/Src/stm32l0xx_hal_flash_ex.c ****   /* Get PCROP protected sector */
 1188              		.loc 1 496 26 view .LVU428
 1189 000c 4360     		str	r3, [r0, #4]
 498:Drivers/STM32L0xx_HAL_Driver/Src/stm32l0xx_hal_flash_ex.c **** 
 1190              		.loc 1 498 3 is_stmt 1 view .LVU429
 498:Drivers/STM32L0xx_HAL_Driver/Src/stm32l0xx_hal_flash_ex.c **** 
 1191              		.loc 1 498 34 is_stmt 0 view .LVU430
 1192 000e 0B6A     		ldr	r3, [r1, #32]
 498:Drivers/STM32L0xx_HAL_Driver/Src/stm32l0xx_hal_flash_ex.c **** 
 1193              		.loc 1 498 27 view .LVU431
 1194 0010 8360     		str	r3, [r0, #8]
 514:Drivers/STM32L0xx_HAL_Driver/Src/stm32l0xx_hal_flash_ex.c **** 
 1195              		.loc 1 514 1 view .LVU432
 1196 0012 7047     		bx	lr
 1197              	.L82:
 1198              		.align	2
 1199              	.L81:
 1200 0014 00200240 		.word	1073881088
 1201              		.cfi_endproc
 1202              	.LFE39:
 1204              		.section	.text.HAL_FLASHEx_OB_SelectPCROP,"ax",%progbits
 1205              		.align	1
 1206              		.p2align 2,,3
 1207              		.global	HAL_FLASHEx_OB_SelectPCROP
 1208              		.syntax unified
 1209              		.code	16
 1210              		.thumb_func
 1211              		.fpu softvfp
 1213              	HAL_FLASHEx_OB_SelectPCROP:
 1214              	.LFB40:
 527:Drivers/STM32L0xx_HAL_Driver/Src/stm32l0xx_hal_flash_ex.c ****   HAL_StatusTypeDef status = HAL_OK;
 1215              		.loc 1 527 1 is_stmt 1 view -0
 1216              		.cfi_startproc
 1217              		@ args = 0, pretend = 0, frame = 0
 1218              		@ frame_needed = 0, uses_anonymous_args = 0
 528:Drivers/STM32L0xx_HAL_Driver/Src/stm32l0xx_hal_flash_ex.c ****   uint16_t tmp1 = 0;
ARM GAS  /tmp/ccLymQqc.s 			page 51


 1219              		.loc 1 528 3 view .LVU434
 1220              	.LVL90:
 529:Drivers/STM32L0xx_HAL_Driver/Src/stm32l0xx_hal_flash_ex.c ****   uint32_t tmp2 = 0;
 1221              		.loc 1 529 3 view .LVU435
 530:Drivers/STM32L0xx_HAL_Driver/Src/stm32l0xx_hal_flash_ex.c ****   uint8_t optiontmp = 0;
 1222              		.loc 1 530 3 view .LVU436
 531:Drivers/STM32L0xx_HAL_Driver/Src/stm32l0xx_hal_flash_ex.c ****   uint16_t optiontmp2 = 0;
 1223              		.loc 1 531 3 view .LVU437
 532:Drivers/STM32L0xx_HAL_Driver/Src/stm32l0xx_hal_flash_ex.c ****   
 1224              		.loc 1 532 3 view .LVU438
 534:Drivers/STM32L0xx_HAL_Driver/Src/stm32l0xx_hal_flash_ex.c ****   
 1225              		.loc 1 534 3 view .LVU439
 527:Drivers/STM32L0xx_HAL_Driver/Src/stm32l0xx_hal_flash_ex.c ****   HAL_StatusTypeDef status = HAL_OK;
 1226              		.loc 1 527 1 is_stmt 0 view .LVU440
 1227 0000 10B5     		push	{r4, lr}
 1228              	.LCFI7:
 1229              		.cfi_def_cfa_offset 8
 1230              		.cfi_offset 4, -8
 1231              		.cfi_offset 14, -4
 534:Drivers/STM32L0xx_HAL_Driver/Src/stm32l0xx_hal_flash_ex.c ****   
 1232              		.loc 1 534 12 view .LVU441
 1233 0002 0B48     		ldr	r0, .L86
 1234 0004 FFF7FEFF 		bl	FLASH_WaitForLastOperation
 1235              	.LVL91:
 537:Drivers/STM32L0xx_HAL_Driver/Src/stm32l0xx_hal_flash_ex.c ****   
 1236              		.loc 1 537 3 is_stmt 1 view .LVU442
 537:Drivers/STM32L0xx_HAL_Driver/Src/stm32l0xx_hal_flash_ex.c ****   
 1237              		.loc 1 537 13 is_stmt 0 view .LVU443
 1238 0008 0A4A     		ldr	r2, .L86+4
 1239 000a 1378     		ldrb	r3, [r2]
 1240 000c DBB2     		uxtb	r3, r3
 1241              	.LVL92:
 540:Drivers/STM32L0xx_HAL_Driver/Src/stm32l0xx_hal_flash_ex.c ****   
 1242              		.loc 1 540 3 is_stmt 1 view .LVU444
 543:Drivers/STM32L0xx_HAL_Driver/Src/stm32l0xx_hal_flash_ex.c ****   tmp2 = (uint32_t)(((uint32_t)((uint32_t)(tmp1) << 16U)) | ((uint32_t)optiontmp2));
 1243              		.loc 1 543 3 view .LVU445
 544:Drivers/STM32L0xx_HAL_Driver/Src/stm32l0xx_hal_flash_ex.c ****   
 1244              		.loc 1 544 3 view .LVU446
 546:Drivers/STM32L0xx_HAL_Driver/Src/stm32l0xx_hal_flash_ex.c ****   {         
 1245              		.loc 1 546 3 view .LVU447
 546:Drivers/STM32L0xx_HAL_Driver/Src/stm32l0xx_hal_flash_ex.c ****   {         
 1246              		.loc 1 546 5 is_stmt 0 view .LVU448
 1247 000e 0028     		cmp	r0, #0
 1248 0010 00D0     		beq	.L85
 1249              	.LVL93:
 1250              	.L84:
 559:Drivers/STM32L0xx_HAL_Driver/Src/stm32l0xx_hal_flash_ex.c **** }
 1251              		.loc 1 559 3 is_stmt 1 view .LVU449
 560:Drivers/STM32L0xx_HAL_Driver/Src/stm32l0xx_hal_flash_ex.c **** 
 1252              		.loc 1 560 1 is_stmt 0 view .LVU450
 1253              		@ sp needed
 1254 0012 10BD     		pop	{r4, pc}
 1255              	.LVL94:
 1256              	.L85:
 540:Drivers/STM32L0xx_HAL_Driver/Src/stm32l0xx_hal_flash_ex.c ****   
 1257              		.loc 1 540 45 view .LVU451
 1258 0014 8021     		movs	r1, #128
ARM GAS  /tmp/ccLymQqc.s 			page 52


 1259 0016 4900     		lsls	r1, r1, #1
 1260 0018 1943     		orrs	r1, r3
 549:Drivers/STM32L0xx_HAL_Driver/Src/stm32l0xx_hal_flash_ex.c **** 
 1261              		.loc 1 549 5 is_stmt 1 view .LVU452
 549:Drivers/STM32L0xx_HAL_Driver/Src/stm32l0xx_hal_flash_ex.c **** 
 1262              		.loc 1 549 22 is_stmt 0 view .LVU453
 1263 001a 074B     		ldr	r3, .L86+8
 1264              	.LVL95:
 549:Drivers/STM32L0xx_HAL_Driver/Src/stm32l0xx_hal_flash_ex.c **** 
 1265              		.loc 1 549 22 view .LVU454
 1266 001c 5861     		str	r0, [r3, #20]
 552:Drivers/STM32L0xx_HAL_Driver/Src/stm32l0xx_hal_flash_ex.c ****     
 1267              		.loc 1 552 5 is_stmt 1 view .LVU455
 543:Drivers/STM32L0xx_HAL_Driver/Src/stm32l0xx_hal_flash_ex.c ****   tmp2 = (uint32_t)(((uint32_t)((uint32_t)(tmp1) << 16U)) | ((uint32_t)optiontmp2));
 1268              		.loc 1 543 8 is_stmt 0 view .LVU456
 1269 001e CB43     		mvns	r3, r1
 544:Drivers/STM32L0xx_HAL_Driver/Src/stm32l0xx_hal_flash_ex.c ****   
 1270              		.loc 1 544 22 view .LVU457
 1271 0020 1B04     		lsls	r3, r3, #16
 544:Drivers/STM32L0xx_HAL_Driver/Src/stm32l0xx_hal_flash_ex.c ****   
 1272              		.loc 1 544 8 view .LVU458
 1273 0022 0B43     		orrs	r3, r1
 552:Drivers/STM32L0xx_HAL_Driver/Src/stm32l0xx_hal_flash_ex.c ****     
 1274              		.loc 1 552 13 view .LVU459
 1275 0024 1360     		str	r3, [r2]
 555:Drivers/STM32L0xx_HAL_Driver/Src/stm32l0xx_hal_flash_ex.c ****   }
 1276              		.loc 1 555 5 is_stmt 1 view .LVU460
 555:Drivers/STM32L0xx_HAL_Driver/Src/stm32l0xx_hal_flash_ex.c ****   }
 1277              		.loc 1 555 14 is_stmt 0 view .LVU461
 1278 0026 0248     		ldr	r0, .L86
 1279              	.LVL96:
 555:Drivers/STM32L0xx_HAL_Driver/Src/stm32l0xx_hal_flash_ex.c ****   }
 1280              		.loc 1 555 14 view .LVU462
 1281 0028 FFF7FEFF 		bl	FLASH_WaitForLastOperation
 1282              	.LVL97:
 555:Drivers/STM32L0xx_HAL_Driver/Src/stm32l0xx_hal_flash_ex.c ****   }
 1283              		.loc 1 555 14 view .LVU463
 1284 002c F1E7     		b	.L84
 1285              	.L87:
 1286 002e C046     		.align	2
 1287              	.L86:
 1288 0030 50C30000 		.word	50000
 1289 0034 0000F81F 		.word	536346624
 1290 0038 00000000 		.word	pFlash
 1291              		.cfi_endproc
 1292              	.LFE40:
 1294              		.section	.text.HAL_FLASHEx_OB_DeSelectPCROP,"ax",%progbits
 1295              		.align	1
 1296              		.p2align 2,,3
 1297              		.global	HAL_FLASHEx_OB_DeSelectPCROP
 1298              		.syntax unified
 1299              		.code	16
 1300              		.thumb_func
 1301              		.fpu softvfp
 1303              	HAL_FLASHEx_OB_DeSelectPCROP:
 1304              	.LFB41:
 569:Drivers/STM32L0xx_HAL_Driver/Src/stm32l0xx_hal_flash_ex.c ****   HAL_StatusTypeDef status = HAL_OK;
ARM GAS  /tmp/ccLymQqc.s 			page 53


 1305              		.loc 1 569 1 is_stmt 1 view -0
 1306              		.cfi_startproc
 1307              		@ args = 0, pretend = 0, frame = 0
 1308              		@ frame_needed = 0, uses_anonymous_args = 0
 570:Drivers/STM32L0xx_HAL_Driver/Src/stm32l0xx_hal_flash_ex.c ****   uint16_t tmp1 = 0;
 1309              		.loc 1 570 3 view .LVU465
 1310              	.LVL98:
 571:Drivers/STM32L0xx_HAL_Driver/Src/stm32l0xx_hal_flash_ex.c ****   uint32_t tmp2 = 0;
 1311              		.loc 1 571 3 view .LVU466
 572:Drivers/STM32L0xx_HAL_Driver/Src/stm32l0xx_hal_flash_ex.c ****   uint8_t optiontmp = 0;
 1312              		.loc 1 572 3 view .LVU467
 573:Drivers/STM32L0xx_HAL_Driver/Src/stm32l0xx_hal_flash_ex.c ****   uint16_t optiontmp2 = 0;
 1313              		.loc 1 573 3 view .LVU468
 574:Drivers/STM32L0xx_HAL_Driver/Src/stm32l0xx_hal_flash_ex.c ****   
 1314              		.loc 1 574 3 view .LVU469
 576:Drivers/STM32L0xx_HAL_Driver/Src/stm32l0xx_hal_flash_ex.c ****   
 1315              		.loc 1 576 3 view .LVU470
 569:Drivers/STM32L0xx_HAL_Driver/Src/stm32l0xx_hal_flash_ex.c ****   HAL_StatusTypeDef status = HAL_OK;
 1316              		.loc 1 569 1 is_stmt 0 view .LVU471
 1317 0000 10B5     		push	{r4, lr}
 1318              	.LCFI8:
 1319              		.cfi_def_cfa_offset 8
 1320              		.cfi_offset 4, -8
 1321              		.cfi_offset 14, -4
 576:Drivers/STM32L0xx_HAL_Driver/Src/stm32l0xx_hal_flash_ex.c ****   
 1322              		.loc 1 576 12 view .LVU472
 1323 0002 0948     		ldr	r0, .L91
 1324 0004 FFF7FEFF 		bl	FLASH_WaitForLastOperation
 1325              	.LVL99:
 579:Drivers/STM32L0xx_HAL_Driver/Src/stm32l0xx_hal_flash_ex.c ****   
 1326              		.loc 1 579 3 is_stmt 1 view .LVU473
 579:Drivers/STM32L0xx_HAL_Driver/Src/stm32l0xx_hal_flash_ex.c ****   
 1327              		.loc 1 579 13 is_stmt 0 view .LVU474
 1328 0008 084A     		ldr	r2, .L91+4
 1329 000a 1378     		ldrb	r3, [r2]
 1330 000c DBB2     		uxtb	r3, r3
 1331              	.LVL100:
 582:Drivers/STM32L0xx_HAL_Driver/Src/stm32l0xx_hal_flash_ex.c ****   
 1332              		.loc 1 582 3 is_stmt 1 view .LVU475
 585:Drivers/STM32L0xx_HAL_Driver/Src/stm32l0xx_hal_flash_ex.c ****   tmp2 = (uint32_t)(((uint32_t)((uint32_t)(tmp1) << 16U)) | ((uint32_t)optiontmp2));
 1333              		.loc 1 585 3 view .LVU476
 586:Drivers/STM32L0xx_HAL_Driver/Src/stm32l0xx_hal_flash_ex.c ****   
 1334              		.loc 1 586 3 view .LVU477
 588:Drivers/STM32L0xx_HAL_Driver/Src/stm32l0xx_hal_flash_ex.c ****   {         
 1335              		.loc 1 588 3 view .LVU478
 588:Drivers/STM32L0xx_HAL_Driver/Src/stm32l0xx_hal_flash_ex.c ****   {         
 1336              		.loc 1 588 5 is_stmt 0 view .LVU479
 1337 000e 0028     		cmp	r0, #0
 1338 0010 00D0     		beq	.L90
 1339              	.LVL101:
 1340              	.L89:
 601:Drivers/STM32L0xx_HAL_Driver/Src/stm32l0xx_hal_flash_ex.c **** }
 1341              		.loc 1 601 3 is_stmt 1 view .LVU480
 602:Drivers/STM32L0xx_HAL_Driver/Src/stm32l0xx_hal_flash_ex.c **** 
 1342              		.loc 1 602 1 is_stmt 0 view .LVU481
 1343              		@ sp needed
 1344 0012 10BD     		pop	{r4, pc}
ARM GAS  /tmp/ccLymQqc.s 			page 54


 1345              	.LVL102:
 1346              	.L90:
 591:Drivers/STM32L0xx_HAL_Driver/Src/stm32l0xx_hal_flash_ex.c **** 
 1347              		.loc 1 591 5 is_stmt 1 view .LVU482
 591:Drivers/STM32L0xx_HAL_Driver/Src/stm32l0xx_hal_flash_ex.c **** 
 1348              		.loc 1 591 22 is_stmt 0 view .LVU483
 1349 0014 0649     		ldr	r1, .L91+8
 1350 0016 4861     		str	r0, [r1, #20]
 594:Drivers/STM32L0xx_HAL_Driver/Src/stm32l0xx_hal_flash_ex.c ****     
 1351              		.loc 1 594 5 is_stmt 1 view .LVU484
 585:Drivers/STM32L0xx_HAL_Driver/Src/stm32l0xx_hal_flash_ex.c ****   tmp2 = (uint32_t)(((uint32_t)((uint32_t)(tmp1) << 16U)) | ((uint32_t)optiontmp2));
 1352              		.loc 1 585 8 is_stmt 0 view .LVU485
 1353 0018 D943     		mvns	r1, r3
 586:Drivers/STM32L0xx_HAL_Driver/Src/stm32l0xx_hal_flash_ex.c ****   
 1354              		.loc 1 586 22 view .LVU486
 1355 001a 0904     		lsls	r1, r1, #16
 586:Drivers/STM32L0xx_HAL_Driver/Src/stm32l0xx_hal_flash_ex.c ****   
 1356              		.loc 1 586 8 view .LVU487
 1357 001c 0B43     		orrs	r3, r1
 1358              	.LVL103:
 594:Drivers/STM32L0xx_HAL_Driver/Src/stm32l0xx_hal_flash_ex.c ****     
 1359              		.loc 1 594 13 view .LVU488
 1360 001e 1360     		str	r3, [r2]
 597:Drivers/STM32L0xx_HAL_Driver/Src/stm32l0xx_hal_flash_ex.c ****   }
 1361              		.loc 1 597 5 is_stmt 1 view .LVU489
 597:Drivers/STM32L0xx_HAL_Driver/Src/stm32l0xx_hal_flash_ex.c ****   }
 1362              		.loc 1 597 14 is_stmt 0 view .LVU490
 1363 0020 0148     		ldr	r0, .L91
 1364              	.LVL104:
 597:Drivers/STM32L0xx_HAL_Driver/Src/stm32l0xx_hal_flash_ex.c ****   }
 1365              		.loc 1 597 14 view .LVU491
 1366 0022 FFF7FEFF 		bl	FLASH_WaitForLastOperation
 1367              	.LVL105:
 597:Drivers/STM32L0xx_HAL_Driver/Src/stm32l0xx_hal_flash_ex.c ****   }
 1368              		.loc 1 597 14 view .LVU492
 1369 0026 F4E7     		b	.L89
 1370              	.L92:
 1371              		.align	2
 1372              	.L91:
 1373 0028 50C30000 		.word	50000
 1374 002c 0000F81F 		.word	536346624
 1375 0030 00000000 		.word	pFlash
 1376              		.cfi_endproc
 1377              	.LFE41:
 1379              		.section	.text.HAL_FLASHEx_DATAEEPROM_Unlock,"ax",%progbits
 1380              		.align	1
 1381              		.p2align 2,,3
 1382              		.global	HAL_FLASHEx_DATAEEPROM_Unlock
 1383              		.syntax unified
 1384              		.code	16
 1385              		.thumb_func
 1386              		.fpu softvfp
 1388              	HAL_FLASHEx_DATAEEPROM_Unlock:
 1389              	.LFB42:
 635:Drivers/STM32L0xx_HAL_Driver/Src/stm32l0xx_hal_flash_ex.c ****   uint32_t primask_bit;
 1390              		.loc 1 635 1 is_stmt 1 view -0
 1391              		.cfi_startproc
ARM GAS  /tmp/ccLymQqc.s 			page 55


 1392              		@ args = 0, pretend = 0, frame = 0
 1393              		@ frame_needed = 0, uses_anonymous_args = 0
 1394              		@ link register save eliminated.
 636:Drivers/STM32L0xx_HAL_Driver/Src/stm32l0xx_hal_flash_ex.c **** 
 1395              		.loc 1 636 3 view .LVU494
 638:Drivers/STM32L0xx_HAL_Driver/Src/stm32l0xx_hal_flash_ex.c ****   {  
 1396              		.loc 1 638 3 view .LVU495
 638:Drivers/STM32L0xx_HAL_Driver/Src/stm32l0xx_hal_flash_ex.c ****   {  
 1397              		.loc 1 638 19 is_stmt 0 view .LVU496
 1398 0000 0122     		movs	r2, #1
 638:Drivers/STM32L0xx_HAL_Driver/Src/stm32l0xx_hal_flash_ex.c ****   {  
 1399              		.loc 1 638 12 view .LVU497
 1400 0002 084B     		ldr	r3, .L97
 657:Drivers/STM32L0xx_HAL_Driver/Src/stm32l0xx_hal_flash_ex.c **** }
 1401              		.loc 1 657 10 view .LVU498
 1402 0004 0020     		movs	r0, #0
 638:Drivers/STM32L0xx_HAL_Driver/Src/stm32l0xx_hal_flash_ex.c ****   {  
 1403              		.loc 1 638 12 view .LVU499
 1404 0006 5968     		ldr	r1, [r3, #4]
 638:Drivers/STM32L0xx_HAL_Driver/Src/stm32l0xx_hal_flash_ex.c ****   {  
 1405              		.loc 1 638 5 view .LVU500
 1406 0008 0A42     		tst	r2, r1
 1407 000a 0AD0     		beq	.L94
 641:Drivers/STM32L0xx_HAL_Driver/Src/stm32l0xx_hal_flash_ex.c ****     __disable_irq();
 1408              		.loc 1 641 5 is_stmt 1 view .LVU501
 1409              	.LBB68:
 1410              	.LBI68:
 1411              		.file 2 "Drivers/CMSIS/Include/cmsis_gcc.h"
   1:Drivers/CMSIS/Include/cmsis_gcc.h **** /**************************************************************************//**
   2:Drivers/CMSIS/Include/cmsis_gcc.h ****  * @file     cmsis_gcc.h
   3:Drivers/CMSIS/Include/cmsis_gcc.h ****  * @brief    CMSIS Cortex-M Core Function/Instruction Header File
   4:Drivers/CMSIS/Include/cmsis_gcc.h ****  * @version  V4.30
   5:Drivers/CMSIS/Include/cmsis_gcc.h ****  * @date     20. October 2015
   6:Drivers/CMSIS/Include/cmsis_gcc.h ****  ******************************************************************************/
   7:Drivers/CMSIS/Include/cmsis_gcc.h **** /* Copyright (c) 2009 - 2015 ARM LIMITED
   8:Drivers/CMSIS/Include/cmsis_gcc.h **** 
   9:Drivers/CMSIS/Include/cmsis_gcc.h ****    All rights reserved.
  10:Drivers/CMSIS/Include/cmsis_gcc.h ****    Redistribution and use in source and binary forms, with or without
  11:Drivers/CMSIS/Include/cmsis_gcc.h ****    modification, are permitted provided that the following conditions are met:
  12:Drivers/CMSIS/Include/cmsis_gcc.h ****    - Redistributions of source code must retain the above copyright
  13:Drivers/CMSIS/Include/cmsis_gcc.h ****      notice, this list of conditions and the following disclaimer.
  14:Drivers/CMSIS/Include/cmsis_gcc.h ****    - Redistributions in binary form must reproduce the above copyright
  15:Drivers/CMSIS/Include/cmsis_gcc.h ****      notice, this list of conditions and the following disclaimer in the
  16:Drivers/CMSIS/Include/cmsis_gcc.h ****      documentation and/or other materials provided with the distribution.
  17:Drivers/CMSIS/Include/cmsis_gcc.h ****    - Neither the name of ARM nor the names of its contributors may be used
  18:Drivers/CMSIS/Include/cmsis_gcc.h ****      to endorse or promote products derived from this software without
  19:Drivers/CMSIS/Include/cmsis_gcc.h ****      specific prior written permission.
  20:Drivers/CMSIS/Include/cmsis_gcc.h ****    *
  21:Drivers/CMSIS/Include/cmsis_gcc.h ****    THIS SOFTWARE IS PROVIDED BY THE COPYRIGHT HOLDERS AND CONTRIBUTORS "AS IS"
  22:Drivers/CMSIS/Include/cmsis_gcc.h ****    AND ANY EXPRESS OR IMPLIED WARRANTIES, INCLUDING, BUT NOT LIMITED TO, THE
  23:Drivers/CMSIS/Include/cmsis_gcc.h ****    IMPLIED WARRANTIES OF MERCHANTABILITY AND FITNESS FOR A PARTICULAR PURPOSE
  24:Drivers/CMSIS/Include/cmsis_gcc.h ****    ARE DISCLAIMED. IN NO EVENT SHALL COPYRIGHT HOLDERS AND CONTRIBUTORS BE
  25:Drivers/CMSIS/Include/cmsis_gcc.h ****    LIABLE FOR ANY DIRECT, INDIRECT, INCIDENTAL, SPECIAL, EXEMPLARY, OR
  26:Drivers/CMSIS/Include/cmsis_gcc.h ****    CONSEQUENTIAL DAMAGES (INCLUDING, BUT NOT LIMITED TO, PROCUREMENT OF
  27:Drivers/CMSIS/Include/cmsis_gcc.h ****    SUBSTITUTE GOODS OR SERVICES; LOSS OF USE, DATA, OR PROFITS; OR BUSINESS
  28:Drivers/CMSIS/Include/cmsis_gcc.h ****    INTERRUPTION) HOWEVER CAUSED AND ON ANY THEORY OF LIABILITY, WHETHER IN
  29:Drivers/CMSIS/Include/cmsis_gcc.h ****    CONTRACT, STRICT LIABILITY, OR TORT (INCLUDING NEGLIGENCE OR OTHERWISE)
ARM GAS  /tmp/ccLymQqc.s 			page 56


  30:Drivers/CMSIS/Include/cmsis_gcc.h ****    ARISING IN ANY WAY OUT OF THE USE OF THIS SOFTWARE, EVEN IF ADVISED OF THE
  31:Drivers/CMSIS/Include/cmsis_gcc.h ****    POSSIBILITY OF SUCH DAMAGE.
  32:Drivers/CMSIS/Include/cmsis_gcc.h ****    ---------------------------------------------------------------------------*/
  33:Drivers/CMSIS/Include/cmsis_gcc.h **** 
  34:Drivers/CMSIS/Include/cmsis_gcc.h **** 
  35:Drivers/CMSIS/Include/cmsis_gcc.h **** #ifndef __CMSIS_GCC_H
  36:Drivers/CMSIS/Include/cmsis_gcc.h **** #define __CMSIS_GCC_H
  37:Drivers/CMSIS/Include/cmsis_gcc.h **** 
  38:Drivers/CMSIS/Include/cmsis_gcc.h **** /* ignore some GCC warnings */
  39:Drivers/CMSIS/Include/cmsis_gcc.h **** #if defined ( __GNUC__ )
  40:Drivers/CMSIS/Include/cmsis_gcc.h **** #pragma GCC diagnostic push
  41:Drivers/CMSIS/Include/cmsis_gcc.h **** #pragma GCC diagnostic ignored "-Wsign-conversion"
  42:Drivers/CMSIS/Include/cmsis_gcc.h **** #pragma GCC diagnostic ignored "-Wconversion"
  43:Drivers/CMSIS/Include/cmsis_gcc.h **** #pragma GCC diagnostic ignored "-Wunused-parameter"
  44:Drivers/CMSIS/Include/cmsis_gcc.h **** #endif
  45:Drivers/CMSIS/Include/cmsis_gcc.h **** 
  46:Drivers/CMSIS/Include/cmsis_gcc.h **** 
  47:Drivers/CMSIS/Include/cmsis_gcc.h **** /* ###########################  Core Function Access  ########################### */
  48:Drivers/CMSIS/Include/cmsis_gcc.h **** /** \ingroup  CMSIS_Core_FunctionInterface
  49:Drivers/CMSIS/Include/cmsis_gcc.h ****     \defgroup CMSIS_Core_RegAccFunctions CMSIS Core Register Access Functions
  50:Drivers/CMSIS/Include/cmsis_gcc.h ****   @{
  51:Drivers/CMSIS/Include/cmsis_gcc.h ****  */
  52:Drivers/CMSIS/Include/cmsis_gcc.h **** 
  53:Drivers/CMSIS/Include/cmsis_gcc.h **** /**
  54:Drivers/CMSIS/Include/cmsis_gcc.h ****   \brief   Enable IRQ Interrupts
  55:Drivers/CMSIS/Include/cmsis_gcc.h ****   \details Enables IRQ interrupts by clearing the I-bit in the CPSR.
  56:Drivers/CMSIS/Include/cmsis_gcc.h ****            Can only be executed in Privileged modes.
  57:Drivers/CMSIS/Include/cmsis_gcc.h ****  */
  58:Drivers/CMSIS/Include/cmsis_gcc.h **** __attribute__( ( always_inline ) ) __STATIC_INLINE void __enable_irq(void)
  59:Drivers/CMSIS/Include/cmsis_gcc.h **** {
  60:Drivers/CMSIS/Include/cmsis_gcc.h ****   __ASM volatile ("cpsie i" : : : "memory");
  61:Drivers/CMSIS/Include/cmsis_gcc.h **** }
  62:Drivers/CMSIS/Include/cmsis_gcc.h **** 
  63:Drivers/CMSIS/Include/cmsis_gcc.h **** 
  64:Drivers/CMSIS/Include/cmsis_gcc.h **** /**
  65:Drivers/CMSIS/Include/cmsis_gcc.h ****   \brief   Disable IRQ Interrupts
  66:Drivers/CMSIS/Include/cmsis_gcc.h ****   \details Disables IRQ interrupts by setting the I-bit in the CPSR.
  67:Drivers/CMSIS/Include/cmsis_gcc.h ****   Can only be executed in Privileged modes.
  68:Drivers/CMSIS/Include/cmsis_gcc.h ****  */
  69:Drivers/CMSIS/Include/cmsis_gcc.h **** __attribute__( ( always_inline ) ) __STATIC_INLINE void __disable_irq(void)
  70:Drivers/CMSIS/Include/cmsis_gcc.h **** {
  71:Drivers/CMSIS/Include/cmsis_gcc.h ****   __ASM volatile ("cpsid i" : : : "memory");
  72:Drivers/CMSIS/Include/cmsis_gcc.h **** }
  73:Drivers/CMSIS/Include/cmsis_gcc.h **** 
  74:Drivers/CMSIS/Include/cmsis_gcc.h **** 
  75:Drivers/CMSIS/Include/cmsis_gcc.h **** /**
  76:Drivers/CMSIS/Include/cmsis_gcc.h ****   \brief   Get Control Register
  77:Drivers/CMSIS/Include/cmsis_gcc.h ****   \details Returns the content of the Control Register.
  78:Drivers/CMSIS/Include/cmsis_gcc.h ****   \return               Control Register value
  79:Drivers/CMSIS/Include/cmsis_gcc.h ****  */
  80:Drivers/CMSIS/Include/cmsis_gcc.h **** __attribute__( ( always_inline ) ) __STATIC_INLINE uint32_t __get_CONTROL(void)
  81:Drivers/CMSIS/Include/cmsis_gcc.h **** {
  82:Drivers/CMSIS/Include/cmsis_gcc.h ****   uint32_t result;
  83:Drivers/CMSIS/Include/cmsis_gcc.h **** 
  84:Drivers/CMSIS/Include/cmsis_gcc.h ****   __ASM volatile ("MRS %0, control" : "=r" (result) );
  85:Drivers/CMSIS/Include/cmsis_gcc.h ****   return(result);
  86:Drivers/CMSIS/Include/cmsis_gcc.h **** }
ARM GAS  /tmp/ccLymQqc.s 			page 57


  87:Drivers/CMSIS/Include/cmsis_gcc.h **** 
  88:Drivers/CMSIS/Include/cmsis_gcc.h **** 
  89:Drivers/CMSIS/Include/cmsis_gcc.h **** /**
  90:Drivers/CMSIS/Include/cmsis_gcc.h ****   \brief   Set Control Register
  91:Drivers/CMSIS/Include/cmsis_gcc.h ****   \details Writes the given value to the Control Register.
  92:Drivers/CMSIS/Include/cmsis_gcc.h ****   \param [in]    control  Control Register value to set
  93:Drivers/CMSIS/Include/cmsis_gcc.h ****  */
  94:Drivers/CMSIS/Include/cmsis_gcc.h **** __attribute__( ( always_inline ) ) __STATIC_INLINE void __set_CONTROL(uint32_t control)
  95:Drivers/CMSIS/Include/cmsis_gcc.h **** {
  96:Drivers/CMSIS/Include/cmsis_gcc.h ****   __ASM volatile ("MSR control, %0" : : "r" (control) : "memory");
  97:Drivers/CMSIS/Include/cmsis_gcc.h **** }
  98:Drivers/CMSIS/Include/cmsis_gcc.h **** 
  99:Drivers/CMSIS/Include/cmsis_gcc.h **** 
 100:Drivers/CMSIS/Include/cmsis_gcc.h **** /**
 101:Drivers/CMSIS/Include/cmsis_gcc.h ****   \brief   Get IPSR Register
 102:Drivers/CMSIS/Include/cmsis_gcc.h ****   \details Returns the content of the IPSR Register.
 103:Drivers/CMSIS/Include/cmsis_gcc.h ****   \return               IPSR Register value
 104:Drivers/CMSIS/Include/cmsis_gcc.h ****  */
 105:Drivers/CMSIS/Include/cmsis_gcc.h **** __attribute__( ( always_inline ) ) __STATIC_INLINE uint32_t __get_IPSR(void)
 106:Drivers/CMSIS/Include/cmsis_gcc.h **** {
 107:Drivers/CMSIS/Include/cmsis_gcc.h ****   uint32_t result;
 108:Drivers/CMSIS/Include/cmsis_gcc.h **** 
 109:Drivers/CMSIS/Include/cmsis_gcc.h ****   __ASM volatile ("MRS %0, ipsr" : "=r" (result) );
 110:Drivers/CMSIS/Include/cmsis_gcc.h ****   return(result);
 111:Drivers/CMSIS/Include/cmsis_gcc.h **** }
 112:Drivers/CMSIS/Include/cmsis_gcc.h **** 
 113:Drivers/CMSIS/Include/cmsis_gcc.h **** 
 114:Drivers/CMSIS/Include/cmsis_gcc.h **** /**
 115:Drivers/CMSIS/Include/cmsis_gcc.h ****   \brief   Get APSR Register
 116:Drivers/CMSIS/Include/cmsis_gcc.h ****   \details Returns the content of the APSR Register.
 117:Drivers/CMSIS/Include/cmsis_gcc.h ****   \return               APSR Register value
 118:Drivers/CMSIS/Include/cmsis_gcc.h ****  */
 119:Drivers/CMSIS/Include/cmsis_gcc.h **** __attribute__( ( always_inline ) ) __STATIC_INLINE uint32_t __get_APSR(void)
 120:Drivers/CMSIS/Include/cmsis_gcc.h **** {
 121:Drivers/CMSIS/Include/cmsis_gcc.h ****   uint32_t result;
 122:Drivers/CMSIS/Include/cmsis_gcc.h **** 
 123:Drivers/CMSIS/Include/cmsis_gcc.h ****   __ASM volatile ("MRS %0, apsr" : "=r" (result) );
 124:Drivers/CMSIS/Include/cmsis_gcc.h ****   return(result);
 125:Drivers/CMSIS/Include/cmsis_gcc.h **** }
 126:Drivers/CMSIS/Include/cmsis_gcc.h **** 
 127:Drivers/CMSIS/Include/cmsis_gcc.h **** 
 128:Drivers/CMSIS/Include/cmsis_gcc.h **** /**
 129:Drivers/CMSIS/Include/cmsis_gcc.h ****   \brief   Get xPSR Register
 130:Drivers/CMSIS/Include/cmsis_gcc.h ****   \details Returns the content of the xPSR Register.
 131:Drivers/CMSIS/Include/cmsis_gcc.h **** 
 132:Drivers/CMSIS/Include/cmsis_gcc.h ****     \return               xPSR Register value
 133:Drivers/CMSIS/Include/cmsis_gcc.h ****  */
 134:Drivers/CMSIS/Include/cmsis_gcc.h **** __attribute__( ( always_inline ) ) __STATIC_INLINE uint32_t __get_xPSR(void)
 135:Drivers/CMSIS/Include/cmsis_gcc.h **** {
 136:Drivers/CMSIS/Include/cmsis_gcc.h ****   uint32_t result;
 137:Drivers/CMSIS/Include/cmsis_gcc.h **** 
 138:Drivers/CMSIS/Include/cmsis_gcc.h ****   __ASM volatile ("MRS %0, xpsr" : "=r" (result) );
 139:Drivers/CMSIS/Include/cmsis_gcc.h ****   return(result);
 140:Drivers/CMSIS/Include/cmsis_gcc.h **** }
 141:Drivers/CMSIS/Include/cmsis_gcc.h **** 
 142:Drivers/CMSIS/Include/cmsis_gcc.h **** 
 143:Drivers/CMSIS/Include/cmsis_gcc.h **** /**
ARM GAS  /tmp/ccLymQqc.s 			page 58


 144:Drivers/CMSIS/Include/cmsis_gcc.h ****   \brief   Get Process Stack Pointer
 145:Drivers/CMSIS/Include/cmsis_gcc.h ****   \details Returns the current value of the Process Stack Pointer (PSP).
 146:Drivers/CMSIS/Include/cmsis_gcc.h ****   \return               PSP Register value
 147:Drivers/CMSIS/Include/cmsis_gcc.h ****  */
 148:Drivers/CMSIS/Include/cmsis_gcc.h **** __attribute__( ( always_inline ) ) __STATIC_INLINE uint32_t __get_PSP(void)
 149:Drivers/CMSIS/Include/cmsis_gcc.h **** {
 150:Drivers/CMSIS/Include/cmsis_gcc.h ****   register uint32_t result;
 151:Drivers/CMSIS/Include/cmsis_gcc.h **** 
 152:Drivers/CMSIS/Include/cmsis_gcc.h ****   __ASM volatile ("MRS %0, psp\n"  : "=r" (result) );
 153:Drivers/CMSIS/Include/cmsis_gcc.h ****   return(result);
 154:Drivers/CMSIS/Include/cmsis_gcc.h **** }
 155:Drivers/CMSIS/Include/cmsis_gcc.h **** 
 156:Drivers/CMSIS/Include/cmsis_gcc.h **** 
 157:Drivers/CMSIS/Include/cmsis_gcc.h **** /**
 158:Drivers/CMSIS/Include/cmsis_gcc.h ****   \brief   Set Process Stack Pointer
 159:Drivers/CMSIS/Include/cmsis_gcc.h ****   \details Assigns the given value to the Process Stack Pointer (PSP).
 160:Drivers/CMSIS/Include/cmsis_gcc.h ****   \param [in]    topOfProcStack  Process Stack Pointer value to set
 161:Drivers/CMSIS/Include/cmsis_gcc.h ****  */
 162:Drivers/CMSIS/Include/cmsis_gcc.h **** __attribute__( ( always_inline ) ) __STATIC_INLINE void __set_PSP(uint32_t topOfProcStack)
 163:Drivers/CMSIS/Include/cmsis_gcc.h **** {
 164:Drivers/CMSIS/Include/cmsis_gcc.h ****   __ASM volatile ("MSR psp, %0\n" : : "r" (topOfProcStack) : "sp");
 165:Drivers/CMSIS/Include/cmsis_gcc.h **** }
 166:Drivers/CMSIS/Include/cmsis_gcc.h **** 
 167:Drivers/CMSIS/Include/cmsis_gcc.h **** 
 168:Drivers/CMSIS/Include/cmsis_gcc.h **** /**
 169:Drivers/CMSIS/Include/cmsis_gcc.h ****   \brief   Get Main Stack Pointer
 170:Drivers/CMSIS/Include/cmsis_gcc.h ****   \details Returns the current value of the Main Stack Pointer (MSP).
 171:Drivers/CMSIS/Include/cmsis_gcc.h ****   \return               MSP Register value
 172:Drivers/CMSIS/Include/cmsis_gcc.h ****  */
 173:Drivers/CMSIS/Include/cmsis_gcc.h **** __attribute__( ( always_inline ) ) __STATIC_INLINE uint32_t __get_MSP(void)
 174:Drivers/CMSIS/Include/cmsis_gcc.h **** {
 175:Drivers/CMSIS/Include/cmsis_gcc.h ****   register uint32_t result;
 176:Drivers/CMSIS/Include/cmsis_gcc.h **** 
 177:Drivers/CMSIS/Include/cmsis_gcc.h ****   __ASM volatile ("MRS %0, msp\n" : "=r" (result) );
 178:Drivers/CMSIS/Include/cmsis_gcc.h ****   return(result);
 179:Drivers/CMSIS/Include/cmsis_gcc.h **** }
 180:Drivers/CMSIS/Include/cmsis_gcc.h **** 
 181:Drivers/CMSIS/Include/cmsis_gcc.h **** 
 182:Drivers/CMSIS/Include/cmsis_gcc.h **** /**
 183:Drivers/CMSIS/Include/cmsis_gcc.h ****   \brief   Set Main Stack Pointer
 184:Drivers/CMSIS/Include/cmsis_gcc.h ****   \details Assigns the given value to the Main Stack Pointer (MSP).
 185:Drivers/CMSIS/Include/cmsis_gcc.h **** 
 186:Drivers/CMSIS/Include/cmsis_gcc.h ****     \param [in]    topOfMainStack  Main Stack Pointer value to set
 187:Drivers/CMSIS/Include/cmsis_gcc.h ****  */
 188:Drivers/CMSIS/Include/cmsis_gcc.h **** __attribute__( ( always_inline ) ) __STATIC_INLINE void __set_MSP(uint32_t topOfMainStack)
 189:Drivers/CMSIS/Include/cmsis_gcc.h **** {
 190:Drivers/CMSIS/Include/cmsis_gcc.h ****   __ASM volatile ("MSR msp, %0\n" : : "r" (topOfMainStack) : "sp");
 191:Drivers/CMSIS/Include/cmsis_gcc.h **** }
 192:Drivers/CMSIS/Include/cmsis_gcc.h **** 
 193:Drivers/CMSIS/Include/cmsis_gcc.h **** 
 194:Drivers/CMSIS/Include/cmsis_gcc.h **** /**
 195:Drivers/CMSIS/Include/cmsis_gcc.h ****   \brief   Get Priority Mask
 196:Drivers/CMSIS/Include/cmsis_gcc.h ****   \details Returns the current state of the priority mask bit from the Priority Mask Register.
 197:Drivers/CMSIS/Include/cmsis_gcc.h ****   \return               Priority Mask value
 198:Drivers/CMSIS/Include/cmsis_gcc.h ****  */
 199:Drivers/CMSIS/Include/cmsis_gcc.h **** __attribute__( ( always_inline ) ) __STATIC_INLINE uint32_t __get_PRIMASK(void)
 1412              		.loc 2 199 61 view .LVU502
ARM GAS  /tmp/ccLymQqc.s 			page 59


 1413              	.LBB69:
 200:Drivers/CMSIS/Include/cmsis_gcc.h **** {
 201:Drivers/CMSIS/Include/cmsis_gcc.h ****   uint32_t result;
 1414              		.loc 2 201 3 view .LVU503
 202:Drivers/CMSIS/Include/cmsis_gcc.h **** 
 203:Drivers/CMSIS/Include/cmsis_gcc.h ****   __ASM volatile ("MRS %0, primask" : "=r" (result) );
 1415              		.loc 2 203 3 view .LVU504
 1416              		.syntax divided
 1417              	@ 203 "Drivers/CMSIS/Include/cmsis_gcc.h" 1
 1418 000c EFF31081 		MRS r1, primask
 1419              	@ 0 "" 2
 1420              	.LVL106:
 204:Drivers/CMSIS/Include/cmsis_gcc.h ****   return(result);
 1421              		.loc 2 204 3 view .LVU505
 1422              		.loc 2 204 3 is_stmt 0 view .LVU506
 1423              		.thumb
 1424              		.syntax unified
 1425              	.LBE69:
 1426              	.LBE68:
 642:Drivers/STM32L0xx_HAL_Driver/Src/stm32l0xx_hal_flash_ex.c **** 
 1427              		.loc 1 642 5 is_stmt 1 view .LVU507
 1428              	.LBB70:
 1429              	.LBI70:
  69:Drivers/CMSIS/Include/cmsis_gcc.h **** {
 1430              		.loc 2 69 57 view .LVU508
 1431              	.LBB71:
  71:Drivers/CMSIS/Include/cmsis_gcc.h **** }
 1432              		.loc 2 71 3 view .LVU509
 1433              		.syntax divided
 1434              	@ 71 "Drivers/CMSIS/Include/cmsis_gcc.h" 1
 1435 0010 72B6     		cpsid i
 1436              	@ 0 "" 2
 1437              		.thumb
 1438              		.syntax unified
 1439              	.LBE71:
 1440              	.LBE70:
 645:Drivers/STM32L0xx_HAL_Driver/Src/stm32l0xx_hal_flash_ex.c ****     FLASH->PEKEYR = FLASH_PEKEY2;
 1441              		.loc 1 645 5 view .LVU510
 645:Drivers/STM32L0xx_HAL_Driver/Src/stm32l0xx_hal_flash_ex.c ****     FLASH->PEKEYR = FLASH_PEKEY2;
 1442              		.loc 1 645 19 is_stmt 0 view .LVU511
 1443 0012 0548     		ldr	r0, .L97+4
 1444 0014 D860     		str	r0, [r3, #12]
 646:Drivers/STM32L0xx_HAL_Driver/Src/stm32l0xx_hal_flash_ex.c **** 
 1445              		.loc 1 646 5 is_stmt 1 view .LVU512
 646:Drivers/STM32L0xx_HAL_Driver/Src/stm32l0xx_hal_flash_ex.c **** 
 1446              		.loc 1 646 19 is_stmt 0 view .LVU513
 1447 0016 0548     		ldr	r0, .L97+8
 1448 0018 D860     		str	r0, [r3, #12]
 649:Drivers/STM32L0xx_HAL_Driver/Src/stm32l0xx_hal_flash_ex.c **** 
 1449              		.loc 1 649 5 is_stmt 1 view .LVU514
 1450              	.LVL107:
 1451              	.LBB72:
 1452              	.LBI72:
 205:Drivers/CMSIS/Include/cmsis_gcc.h **** }
 206:Drivers/CMSIS/Include/cmsis_gcc.h **** 
 207:Drivers/CMSIS/Include/cmsis_gcc.h **** 
 208:Drivers/CMSIS/Include/cmsis_gcc.h **** /**
ARM GAS  /tmp/ccLymQqc.s 			page 60


 209:Drivers/CMSIS/Include/cmsis_gcc.h ****   \brief   Set Priority Mask
 210:Drivers/CMSIS/Include/cmsis_gcc.h ****   \details Assigns the given value to the Priority Mask Register.
 211:Drivers/CMSIS/Include/cmsis_gcc.h ****   \param [in]    priMask  Priority Mask
 212:Drivers/CMSIS/Include/cmsis_gcc.h ****  */
 213:Drivers/CMSIS/Include/cmsis_gcc.h **** __attribute__( ( always_inline ) ) __STATIC_INLINE void __set_PRIMASK(uint32_t priMask)
 1453              		.loc 2 213 57 view .LVU515
 1454              	.LBB73:
 214:Drivers/CMSIS/Include/cmsis_gcc.h **** {
 215:Drivers/CMSIS/Include/cmsis_gcc.h ****   __ASM volatile ("MSR primask, %0" : : "r" (priMask) : "memory");
 1455              		.loc 2 215 3 view .LVU516
 1456              		.syntax divided
 1457              	@ 215 "Drivers/CMSIS/Include/cmsis_gcc.h" 1
 1458 001a 81F31088 		MSR primask, r1
 1459              	@ 0 "" 2
 1460              	.LVL108:
 1461              		.loc 2 215 3 is_stmt 0 view .LVU517
 1462              		.thumb
 1463              		.syntax unified
 1464              	.LBE73:
 1465              	.LBE72:
 651:Drivers/STM32L0xx_HAL_Driver/Src/stm32l0xx_hal_flash_ex.c ****     {
 1466              		.loc 1 651 5 is_stmt 1 view .LVU518
 651:Drivers/STM32L0xx_HAL_Driver/Src/stm32l0xx_hal_flash_ex.c ****     {
 1467              		.loc 1 651 14 is_stmt 0 view .LVU519
 1468 001e 5868     		ldr	r0, [r3, #4]
 651:Drivers/STM32L0xx_HAL_Driver/Src/stm32l0xx_hal_flash_ex.c ****     {
 1469              		.loc 1 651 7 view .LVU520
 1470 0020 1040     		ands	r0, r2
 1471              	.LVL109:
 1472              	.L94:
 658:Drivers/STM32L0xx_HAL_Driver/Src/stm32l0xx_hal_flash_ex.c **** 
 1473              		.loc 1 658 1 view .LVU521
 1474              		@ sp needed
 1475 0022 7047     		bx	lr
 1476              	.L98:
 1477              		.align	2
 1478              	.L97:
 1479 0024 00200240 		.word	1073881088
 1480 0028 EFCDAB89 		.word	-1985229329
 1481 002c 05040302 		.word	33752069
 1482              		.cfi_endproc
 1483              	.LFE42:
 1485              		.section	.text.HAL_FLASHEx_DATAEEPROM_Lock,"ax",%progbits
 1486              		.align	1
 1487              		.p2align 2,,3
 1488              		.global	HAL_FLASHEx_DATAEEPROM_Lock
 1489              		.syntax unified
 1490              		.code	16
 1491              		.thumb_func
 1492              		.fpu softvfp
 1494              	HAL_FLASHEx_DATAEEPROM_Lock:
 1495              	.LFB43:
 665:Drivers/STM32L0xx_HAL_Driver/Src/stm32l0xx_hal_flash_ex.c ****   /* Set the PELOCK Bit to lock the data memory and FLASH_PECR register access */
 1496              		.loc 1 665 1 is_stmt 1 view -0
 1497              		.cfi_startproc
 1498              		@ args = 0, pretend = 0, frame = 0
 1499              		@ frame_needed = 0, uses_anonymous_args = 0
ARM GAS  /tmp/ccLymQqc.s 			page 61


 1500              		@ link register save eliminated.
 667:Drivers/STM32L0xx_HAL_Driver/Src/stm32l0xx_hal_flash_ex.c ****   
 1501              		.loc 1 667 3 view .LVU523
 1502 0000 0121     		movs	r1, #1
 1503 0002 034A     		ldr	r2, .L100
 670:Drivers/STM32L0xx_HAL_Driver/Src/stm32l0xx_hal_flash_ex.c **** 
 1504              		.loc 1 670 1 is_stmt 0 view .LVU524
 1505 0004 0020     		movs	r0, #0
 667:Drivers/STM32L0xx_HAL_Driver/Src/stm32l0xx_hal_flash_ex.c ****   
 1506              		.loc 1 667 3 view .LVU525
 1507 0006 5368     		ldr	r3, [r2, #4]
 670:Drivers/STM32L0xx_HAL_Driver/Src/stm32l0xx_hal_flash_ex.c **** 
 1508              		.loc 1 670 1 view .LVU526
 1509              		@ sp needed
 667:Drivers/STM32L0xx_HAL_Driver/Src/stm32l0xx_hal_flash_ex.c ****   
 1510              		.loc 1 667 3 view .LVU527
 1511 0008 0B43     		orrs	r3, r1
 1512 000a 5360     		str	r3, [r2, #4]
 669:Drivers/STM32L0xx_HAL_Driver/Src/stm32l0xx_hal_flash_ex.c **** }
 1513              		.loc 1 669 3 is_stmt 1 view .LVU528
 670:Drivers/STM32L0xx_HAL_Driver/Src/stm32l0xx_hal_flash_ex.c **** 
 1514              		.loc 1 670 1 is_stmt 0 view .LVU529
 1515 000c 7047     		bx	lr
 1516              	.L101:
 1517 000e C046     		.align	2
 1518              	.L100:
 1519 0010 00200240 		.word	1073881088
 1520              		.cfi_endproc
 1521              	.LFE43:
 1523              		.section	.text.HAL_FLASHEx_DATAEEPROM_Erase,"ax",%progbits
 1524              		.align	1
 1525              		.p2align 2,,3
 1526              		.global	HAL_FLASHEx_DATAEEPROM_Erase
 1527              		.syntax unified
 1528              		.code	16
 1529              		.thumb_func
 1530              		.fpu softvfp
 1532              	HAL_FLASHEx_DATAEEPROM_Erase:
 1533              	.LVL110:
 1534              	.LFB44:
 683:Drivers/STM32L0xx_HAL_Driver/Src/stm32l0xx_hal_flash_ex.c ****   HAL_StatusTypeDef status = HAL_OK;
 1535              		.loc 1 683 1 is_stmt 1 view -0
 1536              		.cfi_startproc
 1537              		@ args = 0, pretend = 0, frame = 0
 1538              		@ frame_needed = 0, uses_anonymous_args = 0
 684:Drivers/STM32L0xx_HAL_Driver/Src/stm32l0xx_hal_flash_ex.c ****   
 1539              		.loc 1 684 3 view .LVU531
 687:Drivers/STM32L0xx_HAL_Driver/Src/stm32l0xx_hal_flash_ex.c ****   
 1540              		.loc 1 687 3 view .LVU532
 690:Drivers/STM32L0xx_HAL_Driver/Src/stm32l0xx_hal_flash_ex.c ****   
 1541              		.loc 1 690 3 view .LVU533
 683:Drivers/STM32L0xx_HAL_Driver/Src/stm32l0xx_hal_flash_ex.c ****   HAL_StatusTypeDef status = HAL_OK;
 1542              		.loc 1 683 1 is_stmt 0 view .LVU534
 1543 0000 10B5     		push	{r4, lr}
 1544              	.LCFI9:
 1545              		.cfi_def_cfa_offset 8
 1546              		.cfi_offset 4, -8
ARM GAS  /tmp/ccLymQqc.s 			page 62


 1547              		.cfi_offset 14, -4
 683:Drivers/STM32L0xx_HAL_Driver/Src/stm32l0xx_hal_flash_ex.c ****   HAL_StatusTypeDef status = HAL_OK;
 1548              		.loc 1 683 1 view .LVU535
 1549 0002 0400     		movs	r4, r0
 690:Drivers/STM32L0xx_HAL_Driver/Src/stm32l0xx_hal_flash_ex.c ****   
 1550              		.loc 1 690 12 view .LVU536
 1551 0004 0648     		ldr	r0, .L105
 1552              	.LVL111:
 690:Drivers/STM32L0xx_HAL_Driver/Src/stm32l0xx_hal_flash_ex.c ****   
 1553              		.loc 1 690 12 view .LVU537
 1554 0006 FFF7FEFF 		bl	FLASH_WaitForLastOperation
 1555              	.LVL112:
 692:Drivers/STM32L0xx_HAL_Driver/Src/stm32l0xx_hal_flash_ex.c ****   {
 1556              		.loc 1 692 3 is_stmt 1 view .LVU538
 692:Drivers/STM32L0xx_HAL_Driver/Src/stm32l0xx_hal_flash_ex.c ****   {
 1557              		.loc 1 692 5 is_stmt 0 view .LVU539
 1558 000a 0028     		cmp	r0, #0
 1559 000c 00D0     		beq	.L104
 1560              	.LVL113:
 1561              	.L103:
 704:Drivers/STM32L0xx_HAL_Driver/Src/stm32l0xx_hal_flash_ex.c **** }  
 1562              		.loc 1 704 3 is_stmt 1 view .LVU540
 705:Drivers/STM32L0xx_HAL_Driver/Src/stm32l0xx_hal_flash_ex.c **** 
 1563              		.loc 1 705 1 is_stmt 0 view .LVU541
 1564              		@ sp needed
 1565              	.LVL114:
 705:Drivers/STM32L0xx_HAL_Driver/Src/stm32l0xx_hal_flash_ex.c **** 
 1566              		.loc 1 705 1 view .LVU542
 1567 000e 10BD     		pop	{r4, pc}
 1568              	.LVL115:
 1569              	.L104:
 695:Drivers/STM32L0xx_HAL_Driver/Src/stm32l0xx_hal_flash_ex.c **** 
 1570              		.loc 1 695 5 is_stmt 1 view .LVU543
 695:Drivers/STM32L0xx_HAL_Driver/Src/stm32l0xx_hal_flash_ex.c **** 
 1571              		.loc 1 695 22 is_stmt 0 view .LVU544
 1572 0010 044B     		ldr	r3, .L105+4
 1573 0012 5861     		str	r0, [r3, #20]
 698:Drivers/STM32L0xx_HAL_Driver/Src/stm32l0xx_hal_flash_ex.c **** 
 1574              		.loc 1 698 7 is_stmt 1 view .LVU545
 698:Drivers/STM32L0xx_HAL_Driver/Src/stm32l0xx_hal_flash_ex.c **** 
 1575              		.loc 1 698 34 is_stmt 0 view .LVU546
 1576 0014 2060     		str	r0, [r4]
 700:Drivers/STM32L0xx_HAL_Driver/Src/stm32l0xx_hal_flash_ex.c ****   }
 1577              		.loc 1 700 5 is_stmt 1 view .LVU547
 700:Drivers/STM32L0xx_HAL_Driver/Src/stm32l0xx_hal_flash_ex.c ****   }
 1578              		.loc 1 700 14 is_stmt 0 view .LVU548
 1579 0016 0248     		ldr	r0, .L105
 1580              	.LVL116:
 700:Drivers/STM32L0xx_HAL_Driver/Src/stm32l0xx_hal_flash_ex.c ****   }
 1581              		.loc 1 700 14 view .LVU549
 1582 0018 FFF7FEFF 		bl	FLASH_WaitForLastOperation
 1583              	.LVL117:
 700:Drivers/STM32L0xx_HAL_Driver/Src/stm32l0xx_hal_flash_ex.c ****   }
 1584              		.loc 1 700 14 view .LVU550
 1585 001c F7E7     		b	.L103
 1586              	.L106:
 1587 001e C046     		.align	2
ARM GAS  /tmp/ccLymQqc.s 			page 63


 1588              	.L105:
 1589 0020 50C30000 		.word	50000
 1590 0024 00000000 		.word	pFlash
 1591              		.cfi_endproc
 1592              	.LFE44:
 1594              		.section	.text.HAL_FLASHEx_DATAEEPROM_Program,"ax",%progbits
 1595              		.align	1
 1596              		.p2align 2,,3
 1597              		.global	HAL_FLASHEx_DATAEEPROM_Program
 1598              		.syntax unified
 1599              		.code	16
 1600              		.thumb_func
 1601              		.fpu softvfp
 1603              	HAL_FLASHEx_DATAEEPROM_Program:
 1604              	.LVL118:
 1605              	.LFB45:
 725:Drivers/STM32L0xx_HAL_Driver/Src/stm32l0xx_hal_flash_ex.c ****   HAL_StatusTypeDef status = HAL_ERROR;
 1606              		.loc 1 725 1 is_stmt 1 view -0
 1607              		.cfi_startproc
 1608              		@ args = 0, pretend = 0, frame = 0
 1609              		@ frame_needed = 0, uses_anonymous_args = 0
 726:Drivers/STM32L0xx_HAL_Driver/Src/stm32l0xx_hal_flash_ex.c ****   
 1610              		.loc 1 726 3 view .LVU552
 729:Drivers/STM32L0xx_HAL_Driver/Src/stm32l0xx_hal_flash_ex.c **** 
 1611              		.loc 1 729 3 view .LVU553
 729:Drivers/STM32L0xx_HAL_Driver/Src/stm32l0xx_hal_flash_ex.c **** 
 1612              		.loc 1 729 3 view .LVU554
 725:Drivers/STM32L0xx_HAL_Driver/Src/stm32l0xx_hal_flash_ex.c ****   HAL_StatusTypeDef status = HAL_ERROR;
 1613              		.loc 1 725 1 is_stmt 0 view .LVU555
 1614 0000 F8B5     		push	{r3, r4, r5, r6, r7, lr}
 1615              	.LCFI10:
 1616              		.cfi_def_cfa_offset 24
 1617              		.cfi_offset 3, -24
 1618              		.cfi_offset 4, -20
 1619              		.cfi_offset 5, -16
 1620              		.cfi_offset 6, -12
 1621              		.cfi_offset 7, -8
 1622              		.cfi_offset 14, -4
 729:Drivers/STM32L0xx_HAL_Driver/Src/stm32l0xx_hal_flash_ex.c **** 
 1623              		.loc 1 729 3 view .LVU556
 1624 0002 124C     		ldr	r4, .L117
 725:Drivers/STM32L0xx_HAL_Driver/Src/stm32l0xx_hal_flash_ex.c ****   HAL_StatusTypeDef status = HAL_ERROR;
 1625              		.loc 1 725 1 view .LVU557
 1626 0004 0500     		movs	r5, r0
 729:Drivers/STM32L0xx_HAL_Driver/Src/stm32l0xx_hal_flash_ex.c **** 
 1627              		.loc 1 729 3 view .LVU558
 1628 0006 237C     		ldrb	r3, [r4, #16]
 725:Drivers/STM32L0xx_HAL_Driver/Src/stm32l0xx_hal_flash_ex.c ****   HAL_StatusTypeDef status = HAL_ERROR;
 1629              		.loc 1 725 1 view .LVU559
 1630 0008 0F00     		movs	r7, r1
 1631 000a 1600     		movs	r6, r2
 729:Drivers/STM32L0xx_HAL_Driver/Src/stm32l0xx_hal_flash_ex.c **** 
 1632              		.loc 1 729 3 view .LVU560
 1633 000c 012B     		cmp	r3, #1
 1634 000e 12D0     		beq	.L113
 729:Drivers/STM32L0xx_HAL_Driver/Src/stm32l0xx_hal_flash_ex.c **** 
 1635              		.loc 1 729 3 is_stmt 1 discriminator 2 view .LVU561
ARM GAS  /tmp/ccLymQqc.s 			page 64


 1636 0010 0123     		movs	r3, #1
 736:Drivers/STM32L0xx_HAL_Driver/Src/stm32l0xx_hal_flash_ex.c ****   
 1637              		.loc 1 736 12 is_stmt 0 discriminator 2 view .LVU562
 1638 0012 0F48     		ldr	r0, .L117+4
 1639              	.LVL119:
 729:Drivers/STM32L0xx_HAL_Driver/Src/stm32l0xx_hal_flash_ex.c **** 
 1640              		.loc 1 729 3 discriminator 2 view .LVU563
 1641 0014 2374     		strb	r3, [r4, #16]
 729:Drivers/STM32L0xx_HAL_Driver/Src/stm32l0xx_hal_flash_ex.c **** 
 1642              		.loc 1 729 3 is_stmt 1 discriminator 2 view .LVU564
 732:Drivers/STM32L0xx_HAL_Driver/Src/stm32l0xx_hal_flash_ex.c ****   assert_param(IS_FLASH_DATA_ADDRESS(Address));
 1643              		.loc 1 732 3 discriminator 2 view .LVU565
 733:Drivers/STM32L0xx_HAL_Driver/Src/stm32l0xx_hal_flash_ex.c **** 
 1644              		.loc 1 733 3 discriminator 2 view .LVU566
 736:Drivers/STM32L0xx_HAL_Driver/Src/stm32l0xx_hal_flash_ex.c ****   
 1645              		.loc 1 736 3 discriminator 2 view .LVU567
 736:Drivers/STM32L0xx_HAL_Driver/Src/stm32l0xx_hal_flash_ex.c ****   
 1646              		.loc 1 736 12 is_stmt 0 discriminator 2 view .LVU568
 1647 0016 FFF7FEFF 		bl	FLASH_WaitForLastOperation
 1648              	.LVL120:
 738:Drivers/STM32L0xx_HAL_Driver/Src/stm32l0xx_hal_flash_ex.c ****   {
 1649              		.loc 1 738 3 is_stmt 1 discriminator 2 view .LVU569
 738:Drivers/STM32L0xx_HAL_Driver/Src/stm32l0xx_hal_flash_ex.c ****   {
 1650              		.loc 1 738 5 is_stmt 0 discriminator 2 view .LVU570
 1651 001a 0028     		cmp	r0, #0
 1652 001c 08D1     		bne	.L109
 741:Drivers/STM32L0xx_HAL_Driver/Src/stm32l0xx_hal_flash_ex.c **** 
 1653              		.loc 1 741 5 is_stmt 1 view .LVU571
 741:Drivers/STM32L0xx_HAL_Driver/Src/stm32l0xx_hal_flash_ex.c **** 
 1654              		.loc 1 741 22 is_stmt 0 view .LVU572
 1655 001e 6061     		str	r0, [r4, #20]
 743:Drivers/STM32L0xx_HAL_Driver/Src/stm32l0xx_hal_flash_ex.c ****     {
 1656              		.loc 1 743 5 is_stmt 1 view .LVU573
 743:Drivers/STM32L0xx_HAL_Driver/Src/stm32l0xx_hal_flash_ex.c ****     {
 1657              		.loc 1 743 7 is_stmt 0 view .LVU574
 1658 0020 022D     		cmp	r5, #2
 1659 0022 0DD0     		beq	.L114
 748:Drivers/STM32L0xx_HAL_Driver/Src/stm32l0xx_hal_flash_ex.c ****     {
 1660              		.loc 1 748 10 is_stmt 1 view .LVU575
 748:Drivers/STM32L0xx_HAL_Driver/Src/stm32l0xx_hal_flash_ex.c ****     {
 1661              		.loc 1 748 12 is_stmt 0 view .LVU576
 1662 0024 012D     		cmp	r5, #1
 1663 0026 08D0     		beq	.L115
 753:Drivers/STM32L0xx_HAL_Driver/Src/stm32l0xx_hal_flash_ex.c ****     {
 1664              		.loc 1 753 10 is_stmt 1 view .LVU577
 753:Drivers/STM32L0xx_HAL_Driver/Src/stm32l0xx_hal_flash_ex.c ****     {
 1665              		.loc 1 753 12 is_stmt 0 view .LVU578
 1666 0028 002D     		cmp	r5, #0
 1667 002a 0BD1     		bne	.L116
 756:Drivers/STM32L0xx_HAL_Driver/Src/stm32l0xx_hal_flash_ex.c ****     }
 1668              		.loc 1 756 7 is_stmt 1 view .LVU579
 756:Drivers/STM32L0xx_HAL_Driver/Src/stm32l0xx_hal_flash_ex.c ****     }
 1669              		.loc 1 756 34 is_stmt 0 view .LVU580
 1670 002c F6B2     		uxtb	r6, r6
 1671              	.LVL121:
 756:Drivers/STM32L0xx_HAL_Driver/Src/stm32l0xx_hal_flash_ex.c ****     }
 1672              		.loc 1 756 32 view .LVU581
ARM GAS  /tmp/ccLymQqc.s 			page 65


 1673 002e 3E70     		strb	r6, [r7]
 1674              	.LVL122:
 1675              	.L109:
 771:Drivers/STM32L0xx_HAL_Driver/Src/stm32l0xx_hal_flash_ex.c **** 
 1676              		.loc 1 771 3 is_stmt 1 view .LVU582
 771:Drivers/STM32L0xx_HAL_Driver/Src/stm32l0xx_hal_flash_ex.c **** 
 1677              		.loc 1 771 3 view .LVU583
 1678 0030 0023     		movs	r3, #0
 1679 0032 2374     		strb	r3, [r4, #16]
 771:Drivers/STM32L0xx_HAL_Driver/Src/stm32l0xx_hal_flash_ex.c **** 
 1680              		.loc 1 771 3 view .LVU584
 773:Drivers/STM32L0xx_HAL_Driver/Src/stm32l0xx_hal_flash_ex.c **** }
 1681              		.loc 1 773 3 view .LVU585
 1682              	.LVL123:
 1683              	.L108:
 774:Drivers/STM32L0xx_HAL_Driver/Src/stm32l0xx_hal_flash_ex.c **** 
 1684              		.loc 1 774 1 is_stmt 0 view .LVU586
 1685              		@ sp needed
 1686              	.LVL124:
 1687              	.LVL125:
 774:Drivers/STM32L0xx_HAL_Driver/Src/stm32l0xx_hal_flash_ex.c **** 
 1688              		.loc 1 774 1 view .LVU587
 1689 0034 F8BD     		pop	{r3, r4, r5, r6, r7, pc}
 1690              	.LVL126:
 1691              	.L113:
 729:Drivers/STM32L0xx_HAL_Driver/Src/stm32l0xx_hal_flash_ex.c **** 
 1692              		.loc 1 729 3 view .LVU588
 1693 0036 0220     		movs	r0, #2
 1694              	.LVL127:
 729:Drivers/STM32L0xx_HAL_Driver/Src/stm32l0xx_hal_flash_ex.c **** 
 1695              		.loc 1 729 3 view .LVU589
 1696 0038 FCE7     		b	.L108
 1697              	.LVL128:
 1698              	.L115:
 751:Drivers/STM32L0xx_HAL_Driver/Src/stm32l0xx_hal_flash_ex.c ****     }
 1699              		.loc 1 751 7 is_stmt 1 view .LVU590
 751:Drivers/STM32L0xx_HAL_Driver/Src/stm32l0xx_hal_flash_ex.c ****     }
 1700              		.loc 1 751 35 is_stmt 0 view .LVU591
 1701 003a B6B2     		uxth	r6, r6
 1702              	.LVL129:
 751:Drivers/STM32L0xx_HAL_Driver/Src/stm32l0xx_hal_flash_ex.c ****     }
 1703              		.loc 1 751 33 view .LVU592
 1704 003c 3E80     		strh	r6, [r7]
 1705 003e F7E7     		b	.L109
 1706              	.LVL130:
 1707              	.L114:
 746:Drivers/STM32L0xx_HAL_Driver/Src/stm32l0xx_hal_flash_ex.c ****     }
 1708              		.loc 1 746 7 is_stmt 1 view .LVU593
 746:Drivers/STM32L0xx_HAL_Driver/Src/stm32l0xx_hal_flash_ex.c ****     }
 1709              		.loc 1 746 33 is_stmt 0 view .LVU594
 1710 0040 3E60     		str	r6, [r7]
 1711 0042 F5E7     		b	.L109
 1712              	.L116:
 1713              	.LVL131:
 763:Drivers/STM32L0xx_HAL_Driver/Src/stm32l0xx_hal_flash_ex.c ****     {
 1714              		.loc 1 763 5 is_stmt 1 view .LVU595
 766:Drivers/STM32L0xx_HAL_Driver/Src/stm32l0xx_hal_flash_ex.c ****     }
ARM GAS  /tmp/ccLymQqc.s 			page 66


 1715              		.loc 1 766 7 view .LVU596
 766:Drivers/STM32L0xx_HAL_Driver/Src/stm32l0xx_hal_flash_ex.c ****     }
 1716              		.loc 1 766 16 is_stmt 0 view .LVU597
 1717 0044 0248     		ldr	r0, .L117+4
 1718 0046 FFF7FEFF 		bl	FLASH_WaitForLastOperation
 1719              	.LVL132:
 766:Drivers/STM32L0xx_HAL_Driver/Src/stm32l0xx_hal_flash_ex.c ****     }
 1720              		.loc 1 766 16 view .LVU598
 1721 004a F1E7     		b	.L109
 1722              	.L118:
 1723              		.align	2
 1724              	.L117:
 1725 004c 00000000 		.word	pFlash
 1726 0050 50C30000 		.word	50000
 1727              		.cfi_endproc
 1728              	.LFE45:
 1730              		.section	.text.HAL_FLASHEx_DATAEEPROM_EnableFixedTimeProgram,"ax",%progbits
 1731              		.align	1
 1732              		.p2align 2,,3
 1733              		.global	HAL_FLASHEx_DATAEEPROM_EnableFixedTimeProgram
 1734              		.syntax unified
 1735              		.code	16
 1736              		.thumb_func
 1737              		.fpu softvfp
 1739              	HAL_FLASHEx_DATAEEPROM_EnableFixedTimeProgram:
 1740              	.LFB46:
 781:Drivers/STM32L0xx_HAL_Driver/Src/stm32l0xx_hal_flash_ex.c ****   SET_BIT(FLASH->PECR, FLASH_PECR_FIX);
 1741              		.loc 1 781 1 is_stmt 1 view -0
 1742              		.cfi_startproc
 1743              		@ args = 0, pretend = 0, frame = 0
 1744              		@ frame_needed = 0, uses_anonymous_args = 0
 1745              		@ link register save eliminated.
 782:Drivers/STM32L0xx_HAL_Driver/Src/stm32l0xx_hal_flash_ex.c **** }
 1746              		.loc 1 782 3 view .LVU600
 1747 0000 8023     		movs	r3, #128
 1748 0002 034A     		ldr	r2, .L120
 1749 0004 5B00     		lsls	r3, r3, #1
 1750 0006 5168     		ldr	r1, [r2, #4]
 783:Drivers/STM32L0xx_HAL_Driver/Src/stm32l0xx_hal_flash_ex.c **** 
 1751              		.loc 1 783 1 is_stmt 0 view .LVU601
 1752              		@ sp needed
 782:Drivers/STM32L0xx_HAL_Driver/Src/stm32l0xx_hal_flash_ex.c **** }
 1753              		.loc 1 782 3 view .LVU602
 1754 0008 0B43     		orrs	r3, r1
 1755 000a 5360     		str	r3, [r2, #4]
 783:Drivers/STM32L0xx_HAL_Driver/Src/stm32l0xx_hal_flash_ex.c **** 
 1756              		.loc 1 783 1 view .LVU603
 1757 000c 7047     		bx	lr
 1758              	.L121:
 1759 000e C046     		.align	2
 1760              	.L120:
 1761 0010 00200240 		.word	1073881088
 1762              		.cfi_endproc
 1763              	.LFE46:
 1765              		.section	.text.HAL_FLASHEx_DATAEEPROM_DisableFixedTimeProgram,"ax",%progbits
 1766              		.align	1
 1767              		.p2align 2,,3
ARM GAS  /tmp/ccLymQqc.s 			page 67


 1768              		.global	HAL_FLASHEx_DATAEEPROM_DisableFixedTimeProgram
 1769              		.syntax unified
 1770              		.code	16
 1771              		.thumb_func
 1772              		.fpu softvfp
 1774              	HAL_FLASHEx_DATAEEPROM_DisableFixedTimeProgram:
 1775              	.LFB47:
 790:Drivers/STM32L0xx_HAL_Driver/Src/stm32l0xx_hal_flash_ex.c ****   CLEAR_BIT(FLASH->PECR, FLASH_PECR_FIX);
 1776              		.loc 1 790 1 is_stmt 1 view -0
 1777              		.cfi_startproc
 1778              		@ args = 0, pretend = 0, frame = 0
 1779              		@ frame_needed = 0, uses_anonymous_args = 0
 1780              		@ link register save eliminated.
 791:Drivers/STM32L0xx_HAL_Driver/Src/stm32l0xx_hal_flash_ex.c **** }
 1781              		.loc 1 791 3 view .LVU605
 1782 0000 024A     		ldr	r2, .L123
 1783 0002 0349     		ldr	r1, .L123+4
 1784 0004 5368     		ldr	r3, [r2, #4]
 792:Drivers/STM32L0xx_HAL_Driver/Src/stm32l0xx_hal_flash_ex.c **** 
 1785              		.loc 1 792 1 is_stmt 0 view .LVU606
 1786              		@ sp needed
 791:Drivers/STM32L0xx_HAL_Driver/Src/stm32l0xx_hal_flash_ex.c **** }
 1787              		.loc 1 791 3 view .LVU607
 1788 0006 0B40     		ands	r3, r1
 1789 0008 5360     		str	r3, [r2, #4]
 792:Drivers/STM32L0xx_HAL_Driver/Src/stm32l0xx_hal_flash_ex.c **** 
 1790              		.loc 1 792 1 view .LVU608
 1791 000a 7047     		bx	lr
 1792              	.L124:
 1793              		.align	2
 1794              	.L123:
 1795 000c 00200240 		.word	1073881088
 1796 0010 FFFEFFFF 		.word	-257
 1797              		.cfi_endproc
 1798              	.LFE47:
 1800              		.section	.text.FLASH_PageErase,"ax",%progbits
 1801              		.align	1
 1802              		.p2align 2,,3
 1803              		.global	FLASH_PageErase
 1804              		.syntax unified
 1805              		.code	16
 1806              		.thumb_func
 1807              		.fpu softvfp
 1809              	FLASH_PageErase:
 1810              	.LVL133:
 1811              	.LFB58:
1247:Drivers/STM32L0xx_HAL_Driver/Src/stm32l0xx_hal_flash_ex.c ****   /* Clean the error context */
 1812              		.loc 1 1247 1 is_stmt 1 view -0
 1813              		.cfi_startproc
 1814              		@ args = 0, pretend = 0, frame = 0
 1815              		@ frame_needed = 0, uses_anonymous_args = 0
1249:Drivers/STM32L0xx_HAL_Driver/Src/stm32l0xx_hal_flash_ex.c **** 
 1816              		.loc 1 1249 3 view .LVU610
1249:Drivers/STM32L0xx_HAL_Driver/Src/stm32l0xx_hal_flash_ex.c **** 
 1817              		.loc 1 1249 20 is_stmt 0 view .LVU611
 1818 0000 0021     		movs	r1, #0
1252:Drivers/STM32L0xx_HAL_Driver/Src/stm32l0xx_hal_flash_ex.c **** 
ARM GAS  /tmp/ccLymQqc.s 			page 68


 1819              		.loc 1 1252 3 view .LVU612
 1820 0002 8022     		movs	r2, #128
1249:Drivers/STM32L0xx_HAL_Driver/Src/stm32l0xx_hal_flash_ex.c **** 
 1821              		.loc 1 1249 20 view .LVU613
 1822 0004 074B     		ldr	r3, .L126
1247:Drivers/STM32L0xx_HAL_Driver/Src/stm32l0xx_hal_flash_ex.c ****   /* Clean the error context */
 1823              		.loc 1 1247 1 view .LVU614
 1824 0006 10B5     		push	{r4, lr}
 1825              	.LCFI11:
 1826              		.cfi_def_cfa_offset 8
 1827              		.cfi_offset 4, -8
 1828              		.cfi_offset 14, -4
1249:Drivers/STM32L0xx_HAL_Driver/Src/stm32l0xx_hal_flash_ex.c **** 
 1829              		.loc 1 1249 20 view .LVU615
 1830 0008 5961     		str	r1, [r3, #20]
1252:Drivers/STM32L0xx_HAL_Driver/Src/stm32l0xx_hal_flash_ex.c **** 
 1831              		.loc 1 1252 3 is_stmt 1 view .LVU616
 1832 000a 074B     		ldr	r3, .L126+4
 1833 000c 9200     		lsls	r2, r2, #2
 1834 000e 5C68     		ldr	r4, [r3, #4]
 1835              		.loc 1 1259 1 is_stmt 0 view .LVU617
 1836              		@ sp needed
1252:Drivers/STM32L0xx_HAL_Driver/Src/stm32l0xx_hal_flash_ex.c **** 
 1837              		.loc 1 1252 3 view .LVU618
 1838 0010 2243     		orrs	r2, r4
1255:Drivers/STM32L0xx_HAL_Driver/Src/stm32l0xx_hal_flash_ex.c **** 
 1839              		.loc 1 1255 3 view .LVU619
 1840 0012 0824     		movs	r4, #8
1252:Drivers/STM32L0xx_HAL_Driver/Src/stm32l0xx_hal_flash_ex.c **** 
 1841              		.loc 1 1252 3 view .LVU620
 1842 0014 5A60     		str	r2, [r3, #4]
1255:Drivers/STM32L0xx_HAL_Driver/Src/stm32l0xx_hal_flash_ex.c **** 
 1843              		.loc 1 1255 3 is_stmt 1 view .LVU621
 1844 0016 5A68     		ldr	r2, [r3, #4]
 1845 0018 2243     		orrs	r2, r4
 1846 001a 5A60     		str	r2, [r3, #4]
1258:Drivers/STM32L0xx_HAL_Driver/Src/stm32l0xx_hal_flash_ex.c **** }
 1847              		.loc 1 1258 3 view .LVU622
1258:Drivers/STM32L0xx_HAL_Driver/Src/stm32l0xx_hal_flash_ex.c **** }
 1848              		.loc 1 1258 21 is_stmt 0 view .LVU623
 1849 001c 7F23     		movs	r3, #127
 1850 001e 9843     		bics	r0, r3
 1851              	.LVL134:
1258:Drivers/STM32L0xx_HAL_Driver/Src/stm32l0xx_hal_flash_ex.c **** }
 1852              		.loc 1 1258 70 view .LVU624
 1853 0020 0160     		str	r1, [r0]
 1854              		.loc 1 1259 1 view .LVU625
 1855 0022 10BD     		pop	{r4, pc}
 1856              	.L127:
 1857              		.align	2
 1858              	.L126:
 1859 0024 00000000 		.word	pFlash
 1860 0028 00200240 		.word	1073881088
 1861              		.cfi_endproc
 1862              	.LFE58:
 1864              		.text
 1865              	.Letext0:
ARM GAS  /tmp/ccLymQqc.s 			page 69


 1866              		.file 3 "/usr/lib/gcc/arm-none-eabi/9.2.1/include/stdint.h"
 1867              		.file 4 "Drivers/CMSIS/Device/ST/STM32L0xx/Include/system_stm32l0xx.h"
 1868              		.file 5 "Drivers/CMSIS/Device/ST/STM32L0xx/Include/stm32l031xx.h"
 1869              		.file 6 "Drivers/CMSIS/Device/ST/STM32L0xx/Include/stm32l0xx.h"
 1870              		.file 7 "Drivers/STM32L0xx_HAL_Driver/Inc/stm32l0xx_hal_def.h"
 1871              		.file 8 "Drivers/STM32L0xx_HAL_Driver/Inc/stm32l0xx_hal_flash.h"
 1872              		.file 9 "Drivers/STM32L0xx_HAL_Driver/Inc/stm32l0xx_hal_flash_ex.h"
 1873              		.file 10 "Drivers/STM32L0xx_HAL_Driver/Inc/stm32l0xx_hal.h"
ARM GAS  /tmp/ccLymQqc.s 			page 70


DEFINED SYMBOLS
                            *ABS*:0000000000000000 stm32l0xx_hal_flash_ex.c
     /tmp/ccLymQqc.s:16     .text.FLASH_OB_ProtectedSectorsConfig:0000000000000000 $t
     /tmp/ccLymQqc.s:24     .text.FLASH_OB_ProtectedSectorsConfig:0000000000000000 FLASH_OB_ProtectedSectorsConfig
     /tmp/ccLymQqc.s:134    .text.FLASH_OB_ProtectedSectorsConfig:000000000000004c $d
     /tmp/ccLymQqc.s:141    .text.HAL_FLASHEx_Erase:0000000000000000 $t
     /tmp/ccLymQqc.s:149    .text.HAL_FLASHEx_Erase:0000000000000000 HAL_FLASHEx_Erase
     /tmp/ccLymQqc.s:361    .text.HAL_FLASHEx_Erase:00000000000000b0 $d
     /tmp/ccLymQqc.s:369    .text.HAL_FLASHEx_Erase_IT:0000000000000000 $t
     /tmp/ccLymQqc.s:377    .text.HAL_FLASHEx_Erase_IT:0000000000000000 HAL_FLASHEx_Erase_IT
     /tmp/ccLymQqc.s:525    .text.HAL_FLASHEx_Erase_IT:0000000000000060 $d
     /tmp/ccLymQqc.s:532    .text.HAL_FLASHEx_OBProgram:0000000000000000 $t
     /tmp/ccLymQqc.s:540    .text.HAL_FLASHEx_OBProgram:0000000000000000 HAL_FLASHEx_OBProgram
     /tmp/ccLymQqc.s:967    .text.HAL_FLASHEx_OBProgram:000000000000011c $d
     /tmp/ccLymQqc.s:976    .text.HAL_FLASHEx_OBGetConfig:0000000000000000 $t
     /tmp/ccLymQqc.s:984    .text.HAL_FLASHEx_OBGetConfig:0000000000000000 HAL_FLASHEx_OBGetConfig
     /tmp/ccLymQqc.s:1096   .text.HAL_FLASHEx_OBGetConfig:0000000000000038 $d
     /tmp/ccLymQqc.s:1101   .text.HAL_FLASHEx_AdvOBProgram:0000000000000000 $t
     /tmp/ccLymQqc.s:1109   .text.HAL_FLASHEx_AdvOBProgram:0000000000000000 HAL_FLASHEx_AdvOBProgram
     /tmp/ccLymQqc.s:1156   .text.HAL_FLASHEx_AdvOBGetConfig:0000000000000000 $t
     /tmp/ccLymQqc.s:1164   .text.HAL_FLASHEx_AdvOBGetConfig:0000000000000000 HAL_FLASHEx_AdvOBGetConfig
     /tmp/ccLymQqc.s:1200   .text.HAL_FLASHEx_AdvOBGetConfig:0000000000000014 $d
     /tmp/ccLymQqc.s:1205   .text.HAL_FLASHEx_OB_SelectPCROP:0000000000000000 $t
     /tmp/ccLymQqc.s:1213   .text.HAL_FLASHEx_OB_SelectPCROP:0000000000000000 HAL_FLASHEx_OB_SelectPCROP
     /tmp/ccLymQqc.s:1288   .text.HAL_FLASHEx_OB_SelectPCROP:0000000000000030 $d
     /tmp/ccLymQqc.s:1295   .text.HAL_FLASHEx_OB_DeSelectPCROP:0000000000000000 $t
     /tmp/ccLymQqc.s:1303   .text.HAL_FLASHEx_OB_DeSelectPCROP:0000000000000000 HAL_FLASHEx_OB_DeSelectPCROP
     /tmp/ccLymQqc.s:1373   .text.HAL_FLASHEx_OB_DeSelectPCROP:0000000000000028 $d
     /tmp/ccLymQqc.s:1380   .text.HAL_FLASHEx_DATAEEPROM_Unlock:0000000000000000 $t
     /tmp/ccLymQqc.s:1388   .text.HAL_FLASHEx_DATAEEPROM_Unlock:0000000000000000 HAL_FLASHEx_DATAEEPROM_Unlock
     /tmp/ccLymQqc.s:1479   .text.HAL_FLASHEx_DATAEEPROM_Unlock:0000000000000024 $d
     /tmp/ccLymQqc.s:1486   .text.HAL_FLASHEx_DATAEEPROM_Lock:0000000000000000 $t
     /tmp/ccLymQqc.s:1494   .text.HAL_FLASHEx_DATAEEPROM_Lock:0000000000000000 HAL_FLASHEx_DATAEEPROM_Lock
     /tmp/ccLymQqc.s:1519   .text.HAL_FLASHEx_DATAEEPROM_Lock:0000000000000010 $d
     /tmp/ccLymQqc.s:1524   .text.HAL_FLASHEx_DATAEEPROM_Erase:0000000000000000 $t
     /tmp/ccLymQqc.s:1532   .text.HAL_FLASHEx_DATAEEPROM_Erase:0000000000000000 HAL_FLASHEx_DATAEEPROM_Erase
     /tmp/ccLymQqc.s:1589   .text.HAL_FLASHEx_DATAEEPROM_Erase:0000000000000020 $d
     /tmp/ccLymQqc.s:1595   .text.HAL_FLASHEx_DATAEEPROM_Program:0000000000000000 $t
     /tmp/ccLymQqc.s:1603   .text.HAL_FLASHEx_DATAEEPROM_Program:0000000000000000 HAL_FLASHEx_DATAEEPROM_Program
     /tmp/ccLymQqc.s:1725   .text.HAL_FLASHEx_DATAEEPROM_Program:000000000000004c $d
     /tmp/ccLymQqc.s:1731   .text.HAL_FLASHEx_DATAEEPROM_EnableFixedTimeProgram:0000000000000000 $t
     /tmp/ccLymQqc.s:1739   .text.HAL_FLASHEx_DATAEEPROM_EnableFixedTimeProgram:0000000000000000 HAL_FLASHEx_DATAEEPROM_EnableFixedTimeProgram
     /tmp/ccLymQqc.s:1761   .text.HAL_FLASHEx_DATAEEPROM_EnableFixedTimeProgram:0000000000000010 $d
     /tmp/ccLymQqc.s:1766   .text.HAL_FLASHEx_DATAEEPROM_DisableFixedTimeProgram:0000000000000000 $t
     /tmp/ccLymQqc.s:1774   .text.HAL_FLASHEx_DATAEEPROM_DisableFixedTimeProgram:0000000000000000 HAL_FLASHEx_DATAEEPROM_DisableFixedTimeProgram
     /tmp/ccLymQqc.s:1795   .text.HAL_FLASHEx_DATAEEPROM_DisableFixedTimeProgram:000000000000000c $d
     /tmp/ccLymQqc.s:1801   .text.FLASH_PageErase:0000000000000000 $t
     /tmp/ccLymQqc.s:1809   .text.FLASH_PageErase:0000000000000000 FLASH_PageErase
     /tmp/ccLymQqc.s:1859   .text.FLASH_PageErase:0000000000000024 $d

UNDEFINED SYMBOLS
FLASH_WaitForLastOperation
pFlash
