ARM GAS  /tmp/ccJpVmYc.s 			page 1


   1              		.cpu cortex-m0plus
   2              		.eabi_attribute 20, 1
   3              		.eabi_attribute 21, 1
   4              		.eabi_attribute 23, 3
   5              		.eabi_attribute 24, 1
   6              		.eabi_attribute 25, 1
   7              		.eabi_attribute 26, 1
   8              		.eabi_attribute 30, 2
   9              		.eabi_attribute 34, 0
  10              		.eabi_attribute 18, 4
  11              		.file	"stm32l0xx_ll_rtc.c"
  12              		.text
  13              	.Ltext0:
  14              		.cfi_sections	.debug_frame
  15              		.section	.text.LL_RTC_StructInit,"ax",%progbits
  16              		.align	1
  17              		.p2align 2,,3
  18              		.global	LL_RTC_StructInit
  19              		.arch armv6s-m
  20              		.syntax unified
  21              		.code	16
  22              		.thumb_func
  23              		.fpu softvfp
  25              	LL_RTC_StructInit:
  26              	.LVL0:
  27              	.LFB263:
  28              		.file 1 "Drivers/STM32L0xx_HAL_Driver/Src/stm32l0xx_ll_rtc.c"
   1:Drivers/STM32L0xx_HAL_Driver/Src/stm32l0xx_ll_rtc.c **** /**
   2:Drivers/STM32L0xx_HAL_Driver/Src/stm32l0xx_ll_rtc.c ****   ******************************************************************************
   3:Drivers/STM32L0xx_HAL_Driver/Src/stm32l0xx_ll_rtc.c ****   * @file    stm32l0xx_ll_rtc.c
   4:Drivers/STM32L0xx_HAL_Driver/Src/stm32l0xx_ll_rtc.c ****   * @author  MCD Application Team
   5:Drivers/STM32L0xx_HAL_Driver/Src/stm32l0xx_ll_rtc.c ****   * @brief   RTC LL module driver.
   6:Drivers/STM32L0xx_HAL_Driver/Src/stm32l0xx_ll_rtc.c ****   ******************************************************************************
   7:Drivers/STM32L0xx_HAL_Driver/Src/stm32l0xx_ll_rtc.c ****   * @attention
   8:Drivers/STM32L0xx_HAL_Driver/Src/stm32l0xx_ll_rtc.c ****   *
   9:Drivers/STM32L0xx_HAL_Driver/Src/stm32l0xx_ll_rtc.c ****   * <h2><center>&copy; Copyright (c) 2016 STMicroelectronics.
  10:Drivers/STM32L0xx_HAL_Driver/Src/stm32l0xx_ll_rtc.c ****   * All rights reserved.</center></h2>
  11:Drivers/STM32L0xx_HAL_Driver/Src/stm32l0xx_ll_rtc.c ****   *
  12:Drivers/STM32L0xx_HAL_Driver/Src/stm32l0xx_ll_rtc.c ****   * This software component is licensed by ST under BSD 3-Clause license,
  13:Drivers/STM32L0xx_HAL_Driver/Src/stm32l0xx_ll_rtc.c ****   * the "License"; You may not use this file except in compliance with the
  14:Drivers/STM32L0xx_HAL_Driver/Src/stm32l0xx_ll_rtc.c ****   * License. You may obtain a copy of the License at:
  15:Drivers/STM32L0xx_HAL_Driver/Src/stm32l0xx_ll_rtc.c ****   *                        opensource.org/licenses/BSD-3-Clause
  16:Drivers/STM32L0xx_HAL_Driver/Src/stm32l0xx_ll_rtc.c ****   *
  17:Drivers/STM32L0xx_HAL_Driver/Src/stm32l0xx_ll_rtc.c ****   ******************************************************************************
  18:Drivers/STM32L0xx_HAL_Driver/Src/stm32l0xx_ll_rtc.c ****   */
  19:Drivers/STM32L0xx_HAL_Driver/Src/stm32l0xx_ll_rtc.c **** #if defined(USE_FULL_LL_DRIVER)
  20:Drivers/STM32L0xx_HAL_Driver/Src/stm32l0xx_ll_rtc.c **** 
  21:Drivers/STM32L0xx_HAL_Driver/Src/stm32l0xx_ll_rtc.c **** /* Includes ------------------------------------------------------------------*/
  22:Drivers/STM32L0xx_HAL_Driver/Src/stm32l0xx_ll_rtc.c **** #include "stm32l0xx_ll_rtc.h"
  23:Drivers/STM32L0xx_HAL_Driver/Src/stm32l0xx_ll_rtc.c **** #include "stm32l0xx_ll_cortex.h"
  24:Drivers/STM32L0xx_HAL_Driver/Src/stm32l0xx_ll_rtc.c **** #ifdef  USE_FULL_ASSERT
  25:Drivers/STM32L0xx_HAL_Driver/Src/stm32l0xx_ll_rtc.c **** #include "stm32_assert.h"
  26:Drivers/STM32L0xx_HAL_Driver/Src/stm32l0xx_ll_rtc.c **** #else
  27:Drivers/STM32L0xx_HAL_Driver/Src/stm32l0xx_ll_rtc.c **** #define assert_param(expr) ((void)0U)
  28:Drivers/STM32L0xx_HAL_Driver/Src/stm32l0xx_ll_rtc.c **** #endif
  29:Drivers/STM32L0xx_HAL_Driver/Src/stm32l0xx_ll_rtc.c **** 
  30:Drivers/STM32L0xx_HAL_Driver/Src/stm32l0xx_ll_rtc.c **** /** @addtogroup STM32L0xx_LL_Driver
ARM GAS  /tmp/ccJpVmYc.s 			page 2


  31:Drivers/STM32L0xx_HAL_Driver/Src/stm32l0xx_ll_rtc.c ****   * @{
  32:Drivers/STM32L0xx_HAL_Driver/Src/stm32l0xx_ll_rtc.c ****   */
  33:Drivers/STM32L0xx_HAL_Driver/Src/stm32l0xx_ll_rtc.c **** 
  34:Drivers/STM32L0xx_HAL_Driver/Src/stm32l0xx_ll_rtc.c **** #if defined(RTC)
  35:Drivers/STM32L0xx_HAL_Driver/Src/stm32l0xx_ll_rtc.c **** 
  36:Drivers/STM32L0xx_HAL_Driver/Src/stm32l0xx_ll_rtc.c **** /** @addtogroup RTC_LL
  37:Drivers/STM32L0xx_HAL_Driver/Src/stm32l0xx_ll_rtc.c ****   * @{
  38:Drivers/STM32L0xx_HAL_Driver/Src/stm32l0xx_ll_rtc.c ****   */
  39:Drivers/STM32L0xx_HAL_Driver/Src/stm32l0xx_ll_rtc.c **** 
  40:Drivers/STM32L0xx_HAL_Driver/Src/stm32l0xx_ll_rtc.c **** /* Private types -------------------------------------------------------------*/
  41:Drivers/STM32L0xx_HAL_Driver/Src/stm32l0xx_ll_rtc.c **** /* Private variables ---------------------------------------------------------*/
  42:Drivers/STM32L0xx_HAL_Driver/Src/stm32l0xx_ll_rtc.c **** /* Private constants ---------------------------------------------------------*/
  43:Drivers/STM32L0xx_HAL_Driver/Src/stm32l0xx_ll_rtc.c **** /** @addtogroup RTC_LL_Private_Constants
  44:Drivers/STM32L0xx_HAL_Driver/Src/stm32l0xx_ll_rtc.c ****   * @{
  45:Drivers/STM32L0xx_HAL_Driver/Src/stm32l0xx_ll_rtc.c ****   */
  46:Drivers/STM32L0xx_HAL_Driver/Src/stm32l0xx_ll_rtc.c **** /* Default values used for prescaler */
  47:Drivers/STM32L0xx_HAL_Driver/Src/stm32l0xx_ll_rtc.c **** #define RTC_ASYNCH_PRESC_DEFAULT     0x0000007FU
  48:Drivers/STM32L0xx_HAL_Driver/Src/stm32l0xx_ll_rtc.c **** #define RTC_SYNCH_PRESC_DEFAULT      0x000000FFU
  49:Drivers/STM32L0xx_HAL_Driver/Src/stm32l0xx_ll_rtc.c **** 
  50:Drivers/STM32L0xx_HAL_Driver/Src/stm32l0xx_ll_rtc.c **** /* Values used for timeout */
  51:Drivers/STM32L0xx_HAL_Driver/Src/stm32l0xx_ll_rtc.c **** #define RTC_INITMODE_TIMEOUT         1000U /* 1s when tick set to 1ms */
  52:Drivers/STM32L0xx_HAL_Driver/Src/stm32l0xx_ll_rtc.c **** #define RTC_SYNCHRO_TIMEOUT          1000U /* 1s when tick set to 1ms */
  53:Drivers/STM32L0xx_HAL_Driver/Src/stm32l0xx_ll_rtc.c **** /**
  54:Drivers/STM32L0xx_HAL_Driver/Src/stm32l0xx_ll_rtc.c ****   * @}
  55:Drivers/STM32L0xx_HAL_Driver/Src/stm32l0xx_ll_rtc.c ****   */
  56:Drivers/STM32L0xx_HAL_Driver/Src/stm32l0xx_ll_rtc.c **** 
  57:Drivers/STM32L0xx_HAL_Driver/Src/stm32l0xx_ll_rtc.c **** /* Private macros ------------------------------------------------------------*/
  58:Drivers/STM32L0xx_HAL_Driver/Src/stm32l0xx_ll_rtc.c **** /** @addtogroup RTC_LL_Private_Macros
  59:Drivers/STM32L0xx_HAL_Driver/Src/stm32l0xx_ll_rtc.c ****   * @{
  60:Drivers/STM32L0xx_HAL_Driver/Src/stm32l0xx_ll_rtc.c ****   */
  61:Drivers/STM32L0xx_HAL_Driver/Src/stm32l0xx_ll_rtc.c **** 
  62:Drivers/STM32L0xx_HAL_Driver/Src/stm32l0xx_ll_rtc.c **** #define IS_LL_RTC_HOURFORMAT(__VALUE__) (((__VALUE__) == LL_RTC_HOURFORMAT_24HOUR) \
  63:Drivers/STM32L0xx_HAL_Driver/Src/stm32l0xx_ll_rtc.c ****                                       || ((__VALUE__) == LL_RTC_HOURFORMAT_AMPM))
  64:Drivers/STM32L0xx_HAL_Driver/Src/stm32l0xx_ll_rtc.c **** 
  65:Drivers/STM32L0xx_HAL_Driver/Src/stm32l0xx_ll_rtc.c **** #define IS_LL_RTC_ASYNCH_PREDIV(__VALUE__)   ((__VALUE__) <= 0x7FU)
  66:Drivers/STM32L0xx_HAL_Driver/Src/stm32l0xx_ll_rtc.c **** 
  67:Drivers/STM32L0xx_HAL_Driver/Src/stm32l0xx_ll_rtc.c **** #define IS_LL_RTC_SYNCH_PREDIV(__VALUE__)    ((__VALUE__) <= 0x7FFFU)
  68:Drivers/STM32L0xx_HAL_Driver/Src/stm32l0xx_ll_rtc.c **** 
  69:Drivers/STM32L0xx_HAL_Driver/Src/stm32l0xx_ll_rtc.c **** #define IS_LL_RTC_FORMAT(__VALUE__) (((__VALUE__) == LL_RTC_FORMAT_BIN) \
  70:Drivers/STM32L0xx_HAL_Driver/Src/stm32l0xx_ll_rtc.c ****                                   || ((__VALUE__) == LL_RTC_FORMAT_BCD))
  71:Drivers/STM32L0xx_HAL_Driver/Src/stm32l0xx_ll_rtc.c **** 
  72:Drivers/STM32L0xx_HAL_Driver/Src/stm32l0xx_ll_rtc.c **** #define IS_LL_RTC_TIME_FORMAT(__VALUE__) (((__VALUE__) == LL_RTC_TIME_FORMAT_AM_OR_24) \
  73:Drivers/STM32L0xx_HAL_Driver/Src/stm32l0xx_ll_rtc.c ****                                        || ((__VALUE__) == LL_RTC_TIME_FORMAT_PM))
  74:Drivers/STM32L0xx_HAL_Driver/Src/stm32l0xx_ll_rtc.c **** 
  75:Drivers/STM32L0xx_HAL_Driver/Src/stm32l0xx_ll_rtc.c **** #define IS_LL_RTC_HOUR12(__HOUR__)            (((__HOUR__) > 0U) && ((__HOUR__) <= 12U))
  76:Drivers/STM32L0xx_HAL_Driver/Src/stm32l0xx_ll_rtc.c **** #define IS_LL_RTC_HOUR24(__HOUR__)            ((__HOUR__) <= 23U)
  77:Drivers/STM32L0xx_HAL_Driver/Src/stm32l0xx_ll_rtc.c **** #define IS_LL_RTC_MINUTES(__MINUTES__)        ((__MINUTES__) <= 59U)
  78:Drivers/STM32L0xx_HAL_Driver/Src/stm32l0xx_ll_rtc.c **** #define IS_LL_RTC_SECONDS(__SECONDS__)        ((__SECONDS__) <= 59U)
  79:Drivers/STM32L0xx_HAL_Driver/Src/stm32l0xx_ll_rtc.c **** 
  80:Drivers/STM32L0xx_HAL_Driver/Src/stm32l0xx_ll_rtc.c **** #define IS_LL_RTC_WEEKDAY(__VALUE__) (((__VALUE__) == LL_RTC_WEEKDAY_MONDAY) \
  81:Drivers/STM32L0xx_HAL_Driver/Src/stm32l0xx_ll_rtc.c ****                                    || ((__VALUE__) == LL_RTC_WEEKDAY_TUESDAY) \
  82:Drivers/STM32L0xx_HAL_Driver/Src/stm32l0xx_ll_rtc.c ****                                    || ((__VALUE__) == LL_RTC_WEEKDAY_WEDNESDAY) \
  83:Drivers/STM32L0xx_HAL_Driver/Src/stm32l0xx_ll_rtc.c ****                                    || ((__VALUE__) == LL_RTC_WEEKDAY_THURSDAY) \
  84:Drivers/STM32L0xx_HAL_Driver/Src/stm32l0xx_ll_rtc.c ****                                    || ((__VALUE__) == LL_RTC_WEEKDAY_FRIDAY) \
  85:Drivers/STM32L0xx_HAL_Driver/Src/stm32l0xx_ll_rtc.c ****                                    || ((__VALUE__) == LL_RTC_WEEKDAY_SATURDAY) \
  86:Drivers/STM32L0xx_HAL_Driver/Src/stm32l0xx_ll_rtc.c ****                                    || ((__VALUE__) == LL_RTC_WEEKDAY_SUNDAY))
  87:Drivers/STM32L0xx_HAL_Driver/Src/stm32l0xx_ll_rtc.c **** 
ARM GAS  /tmp/ccJpVmYc.s 			page 3


  88:Drivers/STM32L0xx_HAL_Driver/Src/stm32l0xx_ll_rtc.c **** #define IS_LL_RTC_DAY(__DAY__)    (((__DAY__) >= 1U) && ((__DAY__) <= 31U))
  89:Drivers/STM32L0xx_HAL_Driver/Src/stm32l0xx_ll_rtc.c **** 
  90:Drivers/STM32L0xx_HAL_Driver/Src/stm32l0xx_ll_rtc.c **** #define IS_LL_RTC_MONTH(__VALUE__) (((__VALUE__) == LL_RTC_MONTH_JANUARY) \
  91:Drivers/STM32L0xx_HAL_Driver/Src/stm32l0xx_ll_rtc.c ****                                  || ((__VALUE__) == LL_RTC_MONTH_FEBRUARY) \
  92:Drivers/STM32L0xx_HAL_Driver/Src/stm32l0xx_ll_rtc.c ****                                  || ((__VALUE__) == LL_RTC_MONTH_MARCH) \
  93:Drivers/STM32L0xx_HAL_Driver/Src/stm32l0xx_ll_rtc.c ****                                  || ((__VALUE__) == LL_RTC_MONTH_APRIL) \
  94:Drivers/STM32L0xx_HAL_Driver/Src/stm32l0xx_ll_rtc.c ****                                  || ((__VALUE__) == LL_RTC_MONTH_MAY) \
  95:Drivers/STM32L0xx_HAL_Driver/Src/stm32l0xx_ll_rtc.c ****                                  || ((__VALUE__) == LL_RTC_MONTH_JUNE) \
  96:Drivers/STM32L0xx_HAL_Driver/Src/stm32l0xx_ll_rtc.c ****                                  || ((__VALUE__) == LL_RTC_MONTH_JULY) \
  97:Drivers/STM32L0xx_HAL_Driver/Src/stm32l0xx_ll_rtc.c ****                                  || ((__VALUE__) == LL_RTC_MONTH_AUGUST) \
  98:Drivers/STM32L0xx_HAL_Driver/Src/stm32l0xx_ll_rtc.c ****                                  || ((__VALUE__) == LL_RTC_MONTH_SEPTEMBER) \
  99:Drivers/STM32L0xx_HAL_Driver/Src/stm32l0xx_ll_rtc.c ****                                  || ((__VALUE__) == LL_RTC_MONTH_OCTOBER) \
 100:Drivers/STM32L0xx_HAL_Driver/Src/stm32l0xx_ll_rtc.c ****                                  || ((__VALUE__) == LL_RTC_MONTH_NOVEMBER) \
 101:Drivers/STM32L0xx_HAL_Driver/Src/stm32l0xx_ll_rtc.c ****                                  || ((__VALUE__) == LL_RTC_MONTH_DECEMBER))
 102:Drivers/STM32L0xx_HAL_Driver/Src/stm32l0xx_ll_rtc.c **** 
 103:Drivers/STM32L0xx_HAL_Driver/Src/stm32l0xx_ll_rtc.c **** #define IS_LL_RTC_YEAR(__YEAR__) ((__YEAR__) <= 99U)
 104:Drivers/STM32L0xx_HAL_Driver/Src/stm32l0xx_ll_rtc.c **** 
 105:Drivers/STM32L0xx_HAL_Driver/Src/stm32l0xx_ll_rtc.c **** #define IS_LL_RTC_ALMA_MASK(__VALUE__) (((__VALUE__) == LL_RTC_ALMA_MASK_NONE) \
 106:Drivers/STM32L0xx_HAL_Driver/Src/stm32l0xx_ll_rtc.c ****                                      || ((__VALUE__) == LL_RTC_ALMA_MASK_DATEWEEKDAY) \
 107:Drivers/STM32L0xx_HAL_Driver/Src/stm32l0xx_ll_rtc.c ****                                      || ((__VALUE__) == LL_RTC_ALMA_MASK_HOURS) \
 108:Drivers/STM32L0xx_HAL_Driver/Src/stm32l0xx_ll_rtc.c ****                                      || ((__VALUE__) == LL_RTC_ALMA_MASK_MINUTES) \
 109:Drivers/STM32L0xx_HAL_Driver/Src/stm32l0xx_ll_rtc.c ****                                      || ((__VALUE__) == LL_RTC_ALMA_MASK_SECONDS) \
 110:Drivers/STM32L0xx_HAL_Driver/Src/stm32l0xx_ll_rtc.c ****                                      || ((__VALUE__) == LL_RTC_ALMA_MASK_ALL))
 111:Drivers/STM32L0xx_HAL_Driver/Src/stm32l0xx_ll_rtc.c **** 
 112:Drivers/STM32L0xx_HAL_Driver/Src/stm32l0xx_ll_rtc.c **** #define IS_LL_RTC_ALMB_MASK(__VALUE__) (((__VALUE__) == LL_RTC_ALMB_MASK_NONE) \
 113:Drivers/STM32L0xx_HAL_Driver/Src/stm32l0xx_ll_rtc.c ****                                      || ((__VALUE__) == LL_RTC_ALMB_MASK_DATEWEEKDAY) \
 114:Drivers/STM32L0xx_HAL_Driver/Src/stm32l0xx_ll_rtc.c ****                                      || ((__VALUE__) == LL_RTC_ALMB_MASK_HOURS) \
 115:Drivers/STM32L0xx_HAL_Driver/Src/stm32l0xx_ll_rtc.c ****                                      || ((__VALUE__) == LL_RTC_ALMB_MASK_MINUTES) \
 116:Drivers/STM32L0xx_HAL_Driver/Src/stm32l0xx_ll_rtc.c ****                                      || ((__VALUE__) == LL_RTC_ALMB_MASK_SECONDS) \
 117:Drivers/STM32L0xx_HAL_Driver/Src/stm32l0xx_ll_rtc.c ****                                      || ((__VALUE__) == LL_RTC_ALMB_MASK_ALL))
 118:Drivers/STM32L0xx_HAL_Driver/Src/stm32l0xx_ll_rtc.c **** 
 119:Drivers/STM32L0xx_HAL_Driver/Src/stm32l0xx_ll_rtc.c **** 
 120:Drivers/STM32L0xx_HAL_Driver/Src/stm32l0xx_ll_rtc.c **** #define IS_LL_RTC_ALMA_DATE_WEEKDAY_SEL(__SEL__) (((__SEL__) == LL_RTC_ALMA_DATEWEEKDAYSEL_DATE) ||
 121:Drivers/STM32L0xx_HAL_Driver/Src/stm32l0xx_ll_rtc.c ****                                                   ((__SEL__) == LL_RTC_ALMA_DATEWEEKDAYSEL_WEEKDAY)
 122:Drivers/STM32L0xx_HAL_Driver/Src/stm32l0xx_ll_rtc.c **** 
 123:Drivers/STM32L0xx_HAL_Driver/Src/stm32l0xx_ll_rtc.c **** #define IS_LL_RTC_ALMB_DATE_WEEKDAY_SEL(__SEL__) (((__SEL__) == LL_RTC_ALMB_DATEWEEKDAYSEL_DATE) ||
 124:Drivers/STM32L0xx_HAL_Driver/Src/stm32l0xx_ll_rtc.c ****                                                   ((__SEL__) == LL_RTC_ALMB_DATEWEEKDAYSEL_WEEKDAY)
 125:Drivers/STM32L0xx_HAL_Driver/Src/stm32l0xx_ll_rtc.c **** 
 126:Drivers/STM32L0xx_HAL_Driver/Src/stm32l0xx_ll_rtc.c **** 
 127:Drivers/STM32L0xx_HAL_Driver/Src/stm32l0xx_ll_rtc.c **** /**
 128:Drivers/STM32L0xx_HAL_Driver/Src/stm32l0xx_ll_rtc.c ****   * @}
 129:Drivers/STM32L0xx_HAL_Driver/Src/stm32l0xx_ll_rtc.c ****   */
 130:Drivers/STM32L0xx_HAL_Driver/Src/stm32l0xx_ll_rtc.c **** /* Private function prototypes -----------------------------------------------*/
 131:Drivers/STM32L0xx_HAL_Driver/Src/stm32l0xx_ll_rtc.c **** /* Exported functions --------------------------------------------------------*/
 132:Drivers/STM32L0xx_HAL_Driver/Src/stm32l0xx_ll_rtc.c **** /** @addtogroup RTC_LL_Exported_Functions
 133:Drivers/STM32L0xx_HAL_Driver/Src/stm32l0xx_ll_rtc.c ****   * @{
 134:Drivers/STM32L0xx_HAL_Driver/Src/stm32l0xx_ll_rtc.c ****   */
 135:Drivers/STM32L0xx_HAL_Driver/Src/stm32l0xx_ll_rtc.c **** 
 136:Drivers/STM32L0xx_HAL_Driver/Src/stm32l0xx_ll_rtc.c **** /** @addtogroup RTC_LL_EF_Init
 137:Drivers/STM32L0xx_HAL_Driver/Src/stm32l0xx_ll_rtc.c ****   * @{
 138:Drivers/STM32L0xx_HAL_Driver/Src/stm32l0xx_ll_rtc.c ****   */
 139:Drivers/STM32L0xx_HAL_Driver/Src/stm32l0xx_ll_rtc.c **** 
 140:Drivers/STM32L0xx_HAL_Driver/Src/stm32l0xx_ll_rtc.c **** /**
 141:Drivers/STM32L0xx_HAL_Driver/Src/stm32l0xx_ll_rtc.c ****   * @brief  De-Initializes the RTC registers to their default reset values.
 142:Drivers/STM32L0xx_HAL_Driver/Src/stm32l0xx_ll_rtc.c ****   * @note   This function doesn't reset the RTC Clock source and RTC Backup Data
 143:Drivers/STM32L0xx_HAL_Driver/Src/stm32l0xx_ll_rtc.c ****   *         registers.
 144:Drivers/STM32L0xx_HAL_Driver/Src/stm32l0xx_ll_rtc.c ****   * @param  RTCx RTC Instance
ARM GAS  /tmp/ccJpVmYc.s 			page 4


 145:Drivers/STM32L0xx_HAL_Driver/Src/stm32l0xx_ll_rtc.c ****   * @retval An ErrorStatus enumeration value:
 146:Drivers/STM32L0xx_HAL_Driver/Src/stm32l0xx_ll_rtc.c ****   *          - SUCCESS: RTC registers are de-initialized
 147:Drivers/STM32L0xx_HAL_Driver/Src/stm32l0xx_ll_rtc.c ****   *          - ERROR: RTC registers are not de-initialized
 148:Drivers/STM32L0xx_HAL_Driver/Src/stm32l0xx_ll_rtc.c ****   */
 149:Drivers/STM32L0xx_HAL_Driver/Src/stm32l0xx_ll_rtc.c **** ErrorStatus LL_RTC_DeInit(RTC_TypeDef *RTCx)
 150:Drivers/STM32L0xx_HAL_Driver/Src/stm32l0xx_ll_rtc.c **** {
 151:Drivers/STM32L0xx_HAL_Driver/Src/stm32l0xx_ll_rtc.c ****   ErrorStatus status = ERROR;
 152:Drivers/STM32L0xx_HAL_Driver/Src/stm32l0xx_ll_rtc.c **** 
 153:Drivers/STM32L0xx_HAL_Driver/Src/stm32l0xx_ll_rtc.c ****   /* Check the parameter */
 154:Drivers/STM32L0xx_HAL_Driver/Src/stm32l0xx_ll_rtc.c ****   assert_param(IS_RTC_ALL_INSTANCE(RTCx));
 155:Drivers/STM32L0xx_HAL_Driver/Src/stm32l0xx_ll_rtc.c **** 
 156:Drivers/STM32L0xx_HAL_Driver/Src/stm32l0xx_ll_rtc.c ****   /* Disable the write protection for RTC registers */
 157:Drivers/STM32L0xx_HAL_Driver/Src/stm32l0xx_ll_rtc.c ****   LL_RTC_DisableWriteProtection(RTCx);
 158:Drivers/STM32L0xx_HAL_Driver/Src/stm32l0xx_ll_rtc.c **** 
 159:Drivers/STM32L0xx_HAL_Driver/Src/stm32l0xx_ll_rtc.c ****   /* Set Initialization mode */
 160:Drivers/STM32L0xx_HAL_Driver/Src/stm32l0xx_ll_rtc.c ****   if (LL_RTC_EnterInitMode(RTCx) != ERROR)
 161:Drivers/STM32L0xx_HAL_Driver/Src/stm32l0xx_ll_rtc.c ****   {
 162:Drivers/STM32L0xx_HAL_Driver/Src/stm32l0xx_ll_rtc.c ****     /* Reset TR, DR and CR registers */
 163:Drivers/STM32L0xx_HAL_Driver/Src/stm32l0xx_ll_rtc.c ****     WRITE_REG(RTCx->TR,       0x00000000U);
 164:Drivers/STM32L0xx_HAL_Driver/Src/stm32l0xx_ll_rtc.c **** #if defined(RTC_WAKEUP_SUPPORT)
 165:Drivers/STM32L0xx_HAL_Driver/Src/stm32l0xx_ll_rtc.c ****     WRITE_REG(RTCx->WUTR,     RTC_WUTR_WUT);
 166:Drivers/STM32L0xx_HAL_Driver/Src/stm32l0xx_ll_rtc.c **** #endif /* RTC_WAKEUP_SUPPORT */
 167:Drivers/STM32L0xx_HAL_Driver/Src/stm32l0xx_ll_rtc.c ****     WRITE_REG(RTCx->DR, (RTC_DR_WDU_0 | RTC_DR_MU_0 | RTC_DR_DU_0));
 168:Drivers/STM32L0xx_HAL_Driver/Src/stm32l0xx_ll_rtc.c ****     /* Reset All CR bits except CR[2:0] */
 169:Drivers/STM32L0xx_HAL_Driver/Src/stm32l0xx_ll_rtc.c **** #if defined(RTC_WAKEUP_SUPPORT)
 170:Drivers/STM32L0xx_HAL_Driver/Src/stm32l0xx_ll_rtc.c ****     WRITE_REG(RTCx->CR, (READ_REG(RTCx->CR) & RTC_CR_WUCKSEL));
 171:Drivers/STM32L0xx_HAL_Driver/Src/stm32l0xx_ll_rtc.c **** #else
 172:Drivers/STM32L0xx_HAL_Driver/Src/stm32l0xx_ll_rtc.c ****     WRITE_REG(RTCx, CR, 0x00000000U);
 173:Drivers/STM32L0xx_HAL_Driver/Src/stm32l0xx_ll_rtc.c **** #endif /* RTC_WAKEUP_SUPPORT */
 174:Drivers/STM32L0xx_HAL_Driver/Src/stm32l0xx_ll_rtc.c ****     WRITE_REG(RTCx->PRER, (RTC_PRER_PREDIV_A | RTC_SYNCH_PRESC_DEFAULT));
 175:Drivers/STM32L0xx_HAL_Driver/Src/stm32l0xx_ll_rtc.c ****     WRITE_REG(RTCx->ALRMAR,   0x00000000U);
 176:Drivers/STM32L0xx_HAL_Driver/Src/stm32l0xx_ll_rtc.c ****     WRITE_REG(RTCx->ALRMBR,   0x00000000U);
 177:Drivers/STM32L0xx_HAL_Driver/Src/stm32l0xx_ll_rtc.c ****     WRITE_REG(RTCx->SHIFTR,   0x00000000U);
 178:Drivers/STM32L0xx_HAL_Driver/Src/stm32l0xx_ll_rtc.c ****     WRITE_REG(RTCx->CALR,     0x00000000U);
 179:Drivers/STM32L0xx_HAL_Driver/Src/stm32l0xx_ll_rtc.c ****     WRITE_REG(RTCx->ALRMASSR, 0x00000000U);
 180:Drivers/STM32L0xx_HAL_Driver/Src/stm32l0xx_ll_rtc.c ****     WRITE_REG(RTCx->ALRMBSSR, 0x00000000U);
 181:Drivers/STM32L0xx_HAL_Driver/Src/stm32l0xx_ll_rtc.c **** 
 182:Drivers/STM32L0xx_HAL_Driver/Src/stm32l0xx_ll_rtc.c ****     /* Reset ISR register and exit initialization mode */
 183:Drivers/STM32L0xx_HAL_Driver/Src/stm32l0xx_ll_rtc.c ****     WRITE_REG(RTCx->ISR,      0x00000000U);
 184:Drivers/STM32L0xx_HAL_Driver/Src/stm32l0xx_ll_rtc.c **** 
 185:Drivers/STM32L0xx_HAL_Driver/Src/stm32l0xx_ll_rtc.c ****     /* Reset Tamper and alternate functions configuration register */
 186:Drivers/STM32L0xx_HAL_Driver/Src/stm32l0xx_ll_rtc.c ****     WRITE_REG(RTCx->TAMPCR, 0x00000000U);
 187:Drivers/STM32L0xx_HAL_Driver/Src/stm32l0xx_ll_rtc.c **** 
 188:Drivers/STM32L0xx_HAL_Driver/Src/stm32l0xx_ll_rtc.c ****     /* Reset Option register */
 189:Drivers/STM32L0xx_HAL_Driver/Src/stm32l0xx_ll_rtc.c ****     WRITE_REG(RTCx->OR, 0x00000000U);
 190:Drivers/STM32L0xx_HAL_Driver/Src/stm32l0xx_ll_rtc.c **** 
 191:Drivers/STM32L0xx_HAL_Driver/Src/stm32l0xx_ll_rtc.c ****     /* Wait till the RTC RSF flag is set */
 192:Drivers/STM32L0xx_HAL_Driver/Src/stm32l0xx_ll_rtc.c ****     status = LL_RTC_WaitForSynchro(RTCx);
 193:Drivers/STM32L0xx_HAL_Driver/Src/stm32l0xx_ll_rtc.c ****   }
 194:Drivers/STM32L0xx_HAL_Driver/Src/stm32l0xx_ll_rtc.c **** 
 195:Drivers/STM32L0xx_HAL_Driver/Src/stm32l0xx_ll_rtc.c ****   /* Enable the write protection for RTC registers */
 196:Drivers/STM32L0xx_HAL_Driver/Src/stm32l0xx_ll_rtc.c ****   LL_RTC_EnableWriteProtection(RTCx);
 197:Drivers/STM32L0xx_HAL_Driver/Src/stm32l0xx_ll_rtc.c **** 
 198:Drivers/STM32L0xx_HAL_Driver/Src/stm32l0xx_ll_rtc.c ****   return status;
 199:Drivers/STM32L0xx_HAL_Driver/Src/stm32l0xx_ll_rtc.c **** }
 200:Drivers/STM32L0xx_HAL_Driver/Src/stm32l0xx_ll_rtc.c **** 
 201:Drivers/STM32L0xx_HAL_Driver/Src/stm32l0xx_ll_rtc.c **** /**
ARM GAS  /tmp/ccJpVmYc.s 			page 5


 202:Drivers/STM32L0xx_HAL_Driver/Src/stm32l0xx_ll_rtc.c ****   * @brief  Initializes the RTC registers according to the specified parameters
 203:Drivers/STM32L0xx_HAL_Driver/Src/stm32l0xx_ll_rtc.c ****   *         in RTC_InitStruct.
 204:Drivers/STM32L0xx_HAL_Driver/Src/stm32l0xx_ll_rtc.c ****   * @param  RTCx RTC Instance
 205:Drivers/STM32L0xx_HAL_Driver/Src/stm32l0xx_ll_rtc.c ****   * @param  RTC_InitStruct pointer to a @ref LL_RTC_InitTypeDef structure that contains
 206:Drivers/STM32L0xx_HAL_Driver/Src/stm32l0xx_ll_rtc.c ****   *         the configuration information for the RTC peripheral.
 207:Drivers/STM32L0xx_HAL_Driver/Src/stm32l0xx_ll_rtc.c ****   * @note   The RTC Prescaler register is write protected and can be written in
 208:Drivers/STM32L0xx_HAL_Driver/Src/stm32l0xx_ll_rtc.c ****   *         initialization mode only.
 209:Drivers/STM32L0xx_HAL_Driver/Src/stm32l0xx_ll_rtc.c ****   * @retval An ErrorStatus enumeration value:
 210:Drivers/STM32L0xx_HAL_Driver/Src/stm32l0xx_ll_rtc.c ****   *          - SUCCESS: RTC registers are initialized
 211:Drivers/STM32L0xx_HAL_Driver/Src/stm32l0xx_ll_rtc.c ****   *          - ERROR: RTC registers are not initialized
 212:Drivers/STM32L0xx_HAL_Driver/Src/stm32l0xx_ll_rtc.c ****   */
 213:Drivers/STM32L0xx_HAL_Driver/Src/stm32l0xx_ll_rtc.c **** ErrorStatus LL_RTC_Init(RTC_TypeDef *RTCx, LL_RTC_InitTypeDef *RTC_InitStruct)
 214:Drivers/STM32L0xx_HAL_Driver/Src/stm32l0xx_ll_rtc.c **** {
 215:Drivers/STM32L0xx_HAL_Driver/Src/stm32l0xx_ll_rtc.c ****   ErrorStatus status = ERROR;
 216:Drivers/STM32L0xx_HAL_Driver/Src/stm32l0xx_ll_rtc.c **** 
 217:Drivers/STM32L0xx_HAL_Driver/Src/stm32l0xx_ll_rtc.c ****   /* Check the parameters */
 218:Drivers/STM32L0xx_HAL_Driver/Src/stm32l0xx_ll_rtc.c ****   assert_param(IS_RTC_ALL_INSTANCE(RTCx));
 219:Drivers/STM32L0xx_HAL_Driver/Src/stm32l0xx_ll_rtc.c ****   assert_param(IS_LL_RTC_HOURFORMAT(RTC_InitStruct->HourFormat));
 220:Drivers/STM32L0xx_HAL_Driver/Src/stm32l0xx_ll_rtc.c ****   assert_param(IS_LL_RTC_ASYNCH_PREDIV(RTC_InitStruct->AsynchPrescaler));
 221:Drivers/STM32L0xx_HAL_Driver/Src/stm32l0xx_ll_rtc.c ****   assert_param(IS_LL_RTC_SYNCH_PREDIV(RTC_InitStruct->SynchPrescaler));
 222:Drivers/STM32L0xx_HAL_Driver/Src/stm32l0xx_ll_rtc.c **** 
 223:Drivers/STM32L0xx_HAL_Driver/Src/stm32l0xx_ll_rtc.c ****   /* Disable the write protection for RTC registers */
 224:Drivers/STM32L0xx_HAL_Driver/Src/stm32l0xx_ll_rtc.c ****   LL_RTC_DisableWriteProtection(RTCx);
 225:Drivers/STM32L0xx_HAL_Driver/Src/stm32l0xx_ll_rtc.c **** 
 226:Drivers/STM32L0xx_HAL_Driver/Src/stm32l0xx_ll_rtc.c ****   /* Set Initialization mode */
 227:Drivers/STM32L0xx_HAL_Driver/Src/stm32l0xx_ll_rtc.c ****   if (LL_RTC_EnterInitMode(RTCx) != ERROR)
 228:Drivers/STM32L0xx_HAL_Driver/Src/stm32l0xx_ll_rtc.c ****   {
 229:Drivers/STM32L0xx_HAL_Driver/Src/stm32l0xx_ll_rtc.c ****     /* Set Hour Format */
 230:Drivers/STM32L0xx_HAL_Driver/Src/stm32l0xx_ll_rtc.c ****     LL_RTC_SetHourFormat(RTCx, RTC_InitStruct->HourFormat);
 231:Drivers/STM32L0xx_HAL_Driver/Src/stm32l0xx_ll_rtc.c **** 
 232:Drivers/STM32L0xx_HAL_Driver/Src/stm32l0xx_ll_rtc.c ****     /* Configure Synchronous and Asynchronous prescaler factor */
 233:Drivers/STM32L0xx_HAL_Driver/Src/stm32l0xx_ll_rtc.c ****     LL_RTC_SetSynchPrescaler(RTCx, RTC_InitStruct->SynchPrescaler);
 234:Drivers/STM32L0xx_HAL_Driver/Src/stm32l0xx_ll_rtc.c ****     LL_RTC_SetAsynchPrescaler(RTCx, RTC_InitStruct->AsynchPrescaler);
 235:Drivers/STM32L0xx_HAL_Driver/Src/stm32l0xx_ll_rtc.c **** 
 236:Drivers/STM32L0xx_HAL_Driver/Src/stm32l0xx_ll_rtc.c ****     /* Exit Initialization mode */
 237:Drivers/STM32L0xx_HAL_Driver/Src/stm32l0xx_ll_rtc.c ****     LL_RTC_DisableInitMode(RTCx);
 238:Drivers/STM32L0xx_HAL_Driver/Src/stm32l0xx_ll_rtc.c **** 
 239:Drivers/STM32L0xx_HAL_Driver/Src/stm32l0xx_ll_rtc.c ****     status = SUCCESS;
 240:Drivers/STM32L0xx_HAL_Driver/Src/stm32l0xx_ll_rtc.c ****   }
 241:Drivers/STM32L0xx_HAL_Driver/Src/stm32l0xx_ll_rtc.c ****   /* Enable the write protection for RTC registers */
 242:Drivers/STM32L0xx_HAL_Driver/Src/stm32l0xx_ll_rtc.c ****   LL_RTC_EnableWriteProtection(RTCx);
 243:Drivers/STM32L0xx_HAL_Driver/Src/stm32l0xx_ll_rtc.c **** 
 244:Drivers/STM32L0xx_HAL_Driver/Src/stm32l0xx_ll_rtc.c ****   return status;
 245:Drivers/STM32L0xx_HAL_Driver/Src/stm32l0xx_ll_rtc.c **** }
 246:Drivers/STM32L0xx_HAL_Driver/Src/stm32l0xx_ll_rtc.c **** 
 247:Drivers/STM32L0xx_HAL_Driver/Src/stm32l0xx_ll_rtc.c **** /**
 248:Drivers/STM32L0xx_HAL_Driver/Src/stm32l0xx_ll_rtc.c ****   * @brief  Set each @ref LL_RTC_InitTypeDef field to default value.
 249:Drivers/STM32L0xx_HAL_Driver/Src/stm32l0xx_ll_rtc.c ****   * @param  RTC_InitStruct pointer to a @ref LL_RTC_InitTypeDef structure which will be initialized
 250:Drivers/STM32L0xx_HAL_Driver/Src/stm32l0xx_ll_rtc.c ****   * @retval None
 251:Drivers/STM32L0xx_HAL_Driver/Src/stm32l0xx_ll_rtc.c ****   */
 252:Drivers/STM32L0xx_HAL_Driver/Src/stm32l0xx_ll_rtc.c **** void LL_RTC_StructInit(LL_RTC_InitTypeDef *RTC_InitStruct)
 253:Drivers/STM32L0xx_HAL_Driver/Src/stm32l0xx_ll_rtc.c **** {
  29              		.loc 1 253 1 view -0
  30              		.cfi_startproc
  31              		@ args = 0, pretend = 0, frame = 0
  32              		@ frame_needed = 0, uses_anonymous_args = 0
  33              		@ link register save eliminated.
ARM GAS  /tmp/ccJpVmYc.s 			page 6


 254:Drivers/STM32L0xx_HAL_Driver/Src/stm32l0xx_ll_rtc.c ****   /* Set RTC_InitStruct fields to default values */
 255:Drivers/STM32L0xx_HAL_Driver/Src/stm32l0xx_ll_rtc.c ****   RTC_InitStruct->HourFormat      = LL_RTC_HOURFORMAT_24HOUR;
  34              		.loc 1 255 3 view .LVU1
  35              		.loc 1 255 35 is_stmt 0 view .LVU2
  36 0000 0023     		movs	r3, #0
  37 0002 0360     		str	r3, [r0]
 256:Drivers/STM32L0xx_HAL_Driver/Src/stm32l0xx_ll_rtc.c ****   RTC_InitStruct->AsynchPrescaler = RTC_ASYNCH_PRESC_DEFAULT;
  38              		.loc 1 256 3 is_stmt 1 view .LVU3
  39              		.loc 1 256 35 is_stmt 0 view .LVU4
  40 0004 7F33     		adds	r3, r3, #127
  41 0006 4360     		str	r3, [r0, #4]
 257:Drivers/STM32L0xx_HAL_Driver/Src/stm32l0xx_ll_rtc.c ****   RTC_InitStruct->SynchPrescaler  = RTC_SYNCH_PRESC_DEFAULT;
  42              		.loc 1 257 3 is_stmt 1 view .LVU5
  43              		.loc 1 257 35 is_stmt 0 view .LVU6
  44 0008 8033     		adds	r3, r3, #128
 258:Drivers/STM32L0xx_HAL_Driver/Src/stm32l0xx_ll_rtc.c **** }
  45              		.loc 1 258 1 view .LVU7
  46              		@ sp needed
 257:Drivers/STM32L0xx_HAL_Driver/Src/stm32l0xx_ll_rtc.c ****   RTC_InitStruct->SynchPrescaler  = RTC_SYNCH_PRESC_DEFAULT;
  47              		.loc 1 257 35 view .LVU8
  48 000a 8360     		str	r3, [r0, #8]
  49              		.loc 1 258 1 view .LVU9
  50 000c 7047     		bx	lr
  51              		.cfi_endproc
  52              	.LFE263:
  54 000e C046     		.section	.text.LL_RTC_TIME_StructInit,"ax",%progbits
  55              		.align	1
  56              		.p2align 2,,3
  57              		.global	LL_RTC_TIME_StructInit
  58              		.syntax unified
  59              		.code	16
  60              		.thumb_func
  61              		.fpu softvfp
  63              	LL_RTC_TIME_StructInit:
  64              	.LVL1:
  65              	.LFB265:
 259:Drivers/STM32L0xx_HAL_Driver/Src/stm32l0xx_ll_rtc.c **** 
 260:Drivers/STM32L0xx_HAL_Driver/Src/stm32l0xx_ll_rtc.c **** /**
 261:Drivers/STM32L0xx_HAL_Driver/Src/stm32l0xx_ll_rtc.c ****   * @brief  Set the RTC current time.
 262:Drivers/STM32L0xx_HAL_Driver/Src/stm32l0xx_ll_rtc.c ****   * @param  RTCx RTC Instance
 263:Drivers/STM32L0xx_HAL_Driver/Src/stm32l0xx_ll_rtc.c ****   * @param  RTC_Format This parameter can be one of the following values:
 264:Drivers/STM32L0xx_HAL_Driver/Src/stm32l0xx_ll_rtc.c ****   *         @arg @ref LL_RTC_FORMAT_BIN
 265:Drivers/STM32L0xx_HAL_Driver/Src/stm32l0xx_ll_rtc.c ****   *         @arg @ref LL_RTC_FORMAT_BCD
 266:Drivers/STM32L0xx_HAL_Driver/Src/stm32l0xx_ll_rtc.c ****   * @param  RTC_TimeStruct pointer to a RTC_TimeTypeDef structure that contains
 267:Drivers/STM32L0xx_HAL_Driver/Src/stm32l0xx_ll_rtc.c ****   *                        the time configuration information for the RTC.
 268:Drivers/STM32L0xx_HAL_Driver/Src/stm32l0xx_ll_rtc.c ****   * @retval An ErrorStatus enumeration value:
 269:Drivers/STM32L0xx_HAL_Driver/Src/stm32l0xx_ll_rtc.c ****   *          - SUCCESS: RTC Time register is configured
 270:Drivers/STM32L0xx_HAL_Driver/Src/stm32l0xx_ll_rtc.c ****   *          - ERROR: RTC Time register is not configured
 271:Drivers/STM32L0xx_HAL_Driver/Src/stm32l0xx_ll_rtc.c ****   */
 272:Drivers/STM32L0xx_HAL_Driver/Src/stm32l0xx_ll_rtc.c **** ErrorStatus LL_RTC_TIME_Init(RTC_TypeDef *RTCx, uint32_t RTC_Format, LL_RTC_TimeTypeDef *RTC_TimeSt
 273:Drivers/STM32L0xx_HAL_Driver/Src/stm32l0xx_ll_rtc.c **** {
 274:Drivers/STM32L0xx_HAL_Driver/Src/stm32l0xx_ll_rtc.c ****   ErrorStatus status = ERROR;
 275:Drivers/STM32L0xx_HAL_Driver/Src/stm32l0xx_ll_rtc.c **** 
 276:Drivers/STM32L0xx_HAL_Driver/Src/stm32l0xx_ll_rtc.c ****   /* Check the parameters */
 277:Drivers/STM32L0xx_HAL_Driver/Src/stm32l0xx_ll_rtc.c ****   assert_param(IS_RTC_ALL_INSTANCE(RTCx));
 278:Drivers/STM32L0xx_HAL_Driver/Src/stm32l0xx_ll_rtc.c ****   assert_param(IS_LL_RTC_FORMAT(RTC_Format));
 279:Drivers/STM32L0xx_HAL_Driver/Src/stm32l0xx_ll_rtc.c **** 
ARM GAS  /tmp/ccJpVmYc.s 			page 7


 280:Drivers/STM32L0xx_HAL_Driver/Src/stm32l0xx_ll_rtc.c ****   if (RTC_Format == LL_RTC_FORMAT_BIN)
 281:Drivers/STM32L0xx_HAL_Driver/Src/stm32l0xx_ll_rtc.c ****   {
 282:Drivers/STM32L0xx_HAL_Driver/Src/stm32l0xx_ll_rtc.c ****     if (LL_RTC_GetHourFormat(RTCx) != LL_RTC_HOURFORMAT_24HOUR)
 283:Drivers/STM32L0xx_HAL_Driver/Src/stm32l0xx_ll_rtc.c ****     {
 284:Drivers/STM32L0xx_HAL_Driver/Src/stm32l0xx_ll_rtc.c ****       assert_param(IS_LL_RTC_HOUR12(RTC_TimeStruct->Hours));
 285:Drivers/STM32L0xx_HAL_Driver/Src/stm32l0xx_ll_rtc.c ****       assert_param(IS_LL_RTC_TIME_FORMAT(RTC_TimeStruct->TimeFormat));
 286:Drivers/STM32L0xx_HAL_Driver/Src/stm32l0xx_ll_rtc.c ****     }
 287:Drivers/STM32L0xx_HAL_Driver/Src/stm32l0xx_ll_rtc.c ****     else
 288:Drivers/STM32L0xx_HAL_Driver/Src/stm32l0xx_ll_rtc.c ****     {
 289:Drivers/STM32L0xx_HAL_Driver/Src/stm32l0xx_ll_rtc.c ****       RTC_TimeStruct->TimeFormat = 0x00U;
 290:Drivers/STM32L0xx_HAL_Driver/Src/stm32l0xx_ll_rtc.c ****       assert_param(IS_LL_RTC_HOUR24(RTC_TimeStruct->Hours));
 291:Drivers/STM32L0xx_HAL_Driver/Src/stm32l0xx_ll_rtc.c ****     }
 292:Drivers/STM32L0xx_HAL_Driver/Src/stm32l0xx_ll_rtc.c ****     assert_param(IS_LL_RTC_MINUTES(RTC_TimeStruct->Minutes));
 293:Drivers/STM32L0xx_HAL_Driver/Src/stm32l0xx_ll_rtc.c ****     assert_param(IS_LL_RTC_SECONDS(RTC_TimeStruct->Seconds));
 294:Drivers/STM32L0xx_HAL_Driver/Src/stm32l0xx_ll_rtc.c ****   }
 295:Drivers/STM32L0xx_HAL_Driver/Src/stm32l0xx_ll_rtc.c ****   else
 296:Drivers/STM32L0xx_HAL_Driver/Src/stm32l0xx_ll_rtc.c ****   {
 297:Drivers/STM32L0xx_HAL_Driver/Src/stm32l0xx_ll_rtc.c ****     if (LL_RTC_GetHourFormat(RTCx) != LL_RTC_HOURFORMAT_24HOUR)
 298:Drivers/STM32L0xx_HAL_Driver/Src/stm32l0xx_ll_rtc.c ****     {
 299:Drivers/STM32L0xx_HAL_Driver/Src/stm32l0xx_ll_rtc.c ****       assert_param(IS_LL_RTC_HOUR12(__LL_RTC_CONVERT_BCD2BIN(RTC_TimeStruct->Hours)));
 300:Drivers/STM32L0xx_HAL_Driver/Src/stm32l0xx_ll_rtc.c ****       assert_param(IS_LL_RTC_TIME_FORMAT(RTC_TimeStruct->TimeFormat));
 301:Drivers/STM32L0xx_HAL_Driver/Src/stm32l0xx_ll_rtc.c ****     }
 302:Drivers/STM32L0xx_HAL_Driver/Src/stm32l0xx_ll_rtc.c ****     else
 303:Drivers/STM32L0xx_HAL_Driver/Src/stm32l0xx_ll_rtc.c ****     {
 304:Drivers/STM32L0xx_HAL_Driver/Src/stm32l0xx_ll_rtc.c ****       RTC_TimeStruct->TimeFormat = 0x00U;
 305:Drivers/STM32L0xx_HAL_Driver/Src/stm32l0xx_ll_rtc.c ****       assert_param(IS_LL_RTC_HOUR24(__LL_RTC_CONVERT_BCD2BIN(RTC_TimeStruct->Hours)));
 306:Drivers/STM32L0xx_HAL_Driver/Src/stm32l0xx_ll_rtc.c ****     }
 307:Drivers/STM32L0xx_HAL_Driver/Src/stm32l0xx_ll_rtc.c ****     assert_param(IS_LL_RTC_MINUTES(__LL_RTC_CONVERT_BCD2BIN(RTC_TimeStruct->Minutes)));
 308:Drivers/STM32L0xx_HAL_Driver/Src/stm32l0xx_ll_rtc.c ****     assert_param(IS_LL_RTC_SECONDS(__LL_RTC_CONVERT_BCD2BIN(RTC_TimeStruct->Seconds)));
 309:Drivers/STM32L0xx_HAL_Driver/Src/stm32l0xx_ll_rtc.c ****   }
 310:Drivers/STM32L0xx_HAL_Driver/Src/stm32l0xx_ll_rtc.c **** 
 311:Drivers/STM32L0xx_HAL_Driver/Src/stm32l0xx_ll_rtc.c ****   /* Disable the write protection for RTC registers */
 312:Drivers/STM32L0xx_HAL_Driver/Src/stm32l0xx_ll_rtc.c ****   LL_RTC_DisableWriteProtection(RTCx);
 313:Drivers/STM32L0xx_HAL_Driver/Src/stm32l0xx_ll_rtc.c **** 
 314:Drivers/STM32L0xx_HAL_Driver/Src/stm32l0xx_ll_rtc.c ****   /* Set Initialization mode */
 315:Drivers/STM32L0xx_HAL_Driver/Src/stm32l0xx_ll_rtc.c ****   if (LL_RTC_EnterInitMode(RTCx) != ERROR)
 316:Drivers/STM32L0xx_HAL_Driver/Src/stm32l0xx_ll_rtc.c ****   {
 317:Drivers/STM32L0xx_HAL_Driver/Src/stm32l0xx_ll_rtc.c ****     /* Check the input parameters format */
 318:Drivers/STM32L0xx_HAL_Driver/Src/stm32l0xx_ll_rtc.c ****     if (RTC_Format != LL_RTC_FORMAT_BIN)
 319:Drivers/STM32L0xx_HAL_Driver/Src/stm32l0xx_ll_rtc.c ****     {
 320:Drivers/STM32L0xx_HAL_Driver/Src/stm32l0xx_ll_rtc.c ****       LL_RTC_TIME_Config(RTCx, RTC_TimeStruct->TimeFormat, RTC_TimeStruct->Hours,
 321:Drivers/STM32L0xx_HAL_Driver/Src/stm32l0xx_ll_rtc.c ****                          RTC_TimeStruct->Minutes, RTC_TimeStruct->Seconds);
 322:Drivers/STM32L0xx_HAL_Driver/Src/stm32l0xx_ll_rtc.c ****     }
 323:Drivers/STM32L0xx_HAL_Driver/Src/stm32l0xx_ll_rtc.c ****     else
 324:Drivers/STM32L0xx_HAL_Driver/Src/stm32l0xx_ll_rtc.c ****     {
 325:Drivers/STM32L0xx_HAL_Driver/Src/stm32l0xx_ll_rtc.c ****       LL_RTC_TIME_Config(RTCx, RTC_TimeStruct->TimeFormat, __LL_RTC_CONVERT_BIN2BCD(RTC_TimeStruct-
 326:Drivers/STM32L0xx_HAL_Driver/Src/stm32l0xx_ll_rtc.c ****                          __LL_RTC_CONVERT_BIN2BCD(RTC_TimeStruct->Minutes),
 327:Drivers/STM32L0xx_HAL_Driver/Src/stm32l0xx_ll_rtc.c ****                          __LL_RTC_CONVERT_BIN2BCD(RTC_TimeStruct->Seconds));
 328:Drivers/STM32L0xx_HAL_Driver/Src/stm32l0xx_ll_rtc.c ****     }
 329:Drivers/STM32L0xx_HAL_Driver/Src/stm32l0xx_ll_rtc.c **** 
 330:Drivers/STM32L0xx_HAL_Driver/Src/stm32l0xx_ll_rtc.c ****     /* Exit Initialization mode */
 331:Drivers/STM32L0xx_HAL_Driver/Src/stm32l0xx_ll_rtc.c ****     LL_RTC_DisableInitMode(RTC);
 332:Drivers/STM32L0xx_HAL_Driver/Src/stm32l0xx_ll_rtc.c **** 
 333:Drivers/STM32L0xx_HAL_Driver/Src/stm32l0xx_ll_rtc.c ****     /* If  RTC_CR_BYPSHAD bit = 0, wait for synchro else this check is not needed */
 334:Drivers/STM32L0xx_HAL_Driver/Src/stm32l0xx_ll_rtc.c ****     if (LL_RTC_IsShadowRegBypassEnabled(RTCx) == 0U)
 335:Drivers/STM32L0xx_HAL_Driver/Src/stm32l0xx_ll_rtc.c ****     {
 336:Drivers/STM32L0xx_HAL_Driver/Src/stm32l0xx_ll_rtc.c ****       status = LL_RTC_WaitForSynchro(RTCx);
ARM GAS  /tmp/ccJpVmYc.s 			page 8


 337:Drivers/STM32L0xx_HAL_Driver/Src/stm32l0xx_ll_rtc.c ****     }
 338:Drivers/STM32L0xx_HAL_Driver/Src/stm32l0xx_ll_rtc.c ****     else
 339:Drivers/STM32L0xx_HAL_Driver/Src/stm32l0xx_ll_rtc.c ****     {
 340:Drivers/STM32L0xx_HAL_Driver/Src/stm32l0xx_ll_rtc.c ****       status = SUCCESS;
 341:Drivers/STM32L0xx_HAL_Driver/Src/stm32l0xx_ll_rtc.c ****     }
 342:Drivers/STM32L0xx_HAL_Driver/Src/stm32l0xx_ll_rtc.c ****   }
 343:Drivers/STM32L0xx_HAL_Driver/Src/stm32l0xx_ll_rtc.c ****   /* Enable the write protection for RTC registers */
 344:Drivers/STM32L0xx_HAL_Driver/Src/stm32l0xx_ll_rtc.c ****   LL_RTC_EnableWriteProtection(RTCx);
 345:Drivers/STM32L0xx_HAL_Driver/Src/stm32l0xx_ll_rtc.c **** 
 346:Drivers/STM32L0xx_HAL_Driver/Src/stm32l0xx_ll_rtc.c ****   return status;
 347:Drivers/STM32L0xx_HAL_Driver/Src/stm32l0xx_ll_rtc.c **** }
 348:Drivers/STM32L0xx_HAL_Driver/Src/stm32l0xx_ll_rtc.c **** 
 349:Drivers/STM32L0xx_HAL_Driver/Src/stm32l0xx_ll_rtc.c **** /**
 350:Drivers/STM32L0xx_HAL_Driver/Src/stm32l0xx_ll_rtc.c ****   * @brief  Set each @ref LL_RTC_TimeTypeDef field to default value (Time = 00h:00min:00sec).
 351:Drivers/STM32L0xx_HAL_Driver/Src/stm32l0xx_ll_rtc.c ****   * @param  RTC_TimeStruct pointer to a @ref LL_RTC_TimeTypeDef structure which will be initialized
 352:Drivers/STM32L0xx_HAL_Driver/Src/stm32l0xx_ll_rtc.c ****   * @retval None
 353:Drivers/STM32L0xx_HAL_Driver/Src/stm32l0xx_ll_rtc.c ****   */
 354:Drivers/STM32L0xx_HAL_Driver/Src/stm32l0xx_ll_rtc.c **** void LL_RTC_TIME_StructInit(LL_RTC_TimeTypeDef *RTC_TimeStruct)
 355:Drivers/STM32L0xx_HAL_Driver/Src/stm32l0xx_ll_rtc.c **** {
  66              		.loc 1 355 1 is_stmt 1 view -0
  67              		.cfi_startproc
  68              		@ args = 0, pretend = 0, frame = 0
  69              		@ frame_needed = 0, uses_anonymous_args = 0
  70              		@ link register save eliminated.
 356:Drivers/STM32L0xx_HAL_Driver/Src/stm32l0xx_ll_rtc.c ****   /* Time = 00h:00min:00sec */
 357:Drivers/STM32L0xx_HAL_Driver/Src/stm32l0xx_ll_rtc.c ****   RTC_TimeStruct->TimeFormat = LL_RTC_TIME_FORMAT_AM_OR_24;
  71              		.loc 1 357 3 view .LVU11
 358:Drivers/STM32L0xx_HAL_Driver/Src/stm32l0xx_ll_rtc.c ****   RTC_TimeStruct->Hours      = 0U;
  72              		.loc 1 358 3 view .LVU12
 359:Drivers/STM32L0xx_HAL_Driver/Src/stm32l0xx_ll_rtc.c ****   RTC_TimeStruct->Minutes    = 0U;
  73              		.loc 1 359 3 view .LVU13
 360:Drivers/STM32L0xx_HAL_Driver/Src/stm32l0xx_ll_rtc.c ****   RTC_TimeStruct->Seconds    = 0U;
  74              		.loc 1 360 3 view .LVU14
 357:Drivers/STM32L0xx_HAL_Driver/Src/stm32l0xx_ll_rtc.c ****   RTC_TimeStruct->Hours      = 0U;
  75              		.loc 1 357 30 is_stmt 0 view .LVU15
  76 0000 0023     		movs	r3, #0
 361:Drivers/STM32L0xx_HAL_Driver/Src/stm32l0xx_ll_rtc.c **** }
  77              		.loc 1 361 1 view .LVU16
  78              		@ sp needed
 357:Drivers/STM32L0xx_HAL_Driver/Src/stm32l0xx_ll_rtc.c ****   RTC_TimeStruct->Hours      = 0U;
  79              		.loc 1 357 30 view .LVU17
  80 0002 0360     		str	r3, [r0]
 358:Drivers/STM32L0xx_HAL_Driver/Src/stm32l0xx_ll_rtc.c ****   RTC_TimeStruct->Minutes    = 0U;
  81              		.loc 1 358 30 view .LVU18
  82 0004 8380     		strh	r3, [r0, #4]
 360:Drivers/STM32L0xx_HAL_Driver/Src/stm32l0xx_ll_rtc.c **** }
  83              		.loc 1 360 30 view .LVU19
  84 0006 8371     		strb	r3, [r0, #6]
  85              		.loc 1 361 1 view .LVU20
  86 0008 7047     		bx	lr
  87              		.cfi_endproc
  88              	.LFE265:
  90 000a C046     		.section	.text.LL_RTC_DATE_StructInit,"ax",%progbits
  91              		.align	1
  92              		.p2align 2,,3
  93              		.global	LL_RTC_DATE_StructInit
  94              		.syntax unified
ARM GAS  /tmp/ccJpVmYc.s 			page 9


  95              		.code	16
  96              		.thumb_func
  97              		.fpu softvfp
  99              	LL_RTC_DATE_StructInit:
 100              	.LVL2:
 101              	.LFB267:
 362:Drivers/STM32L0xx_HAL_Driver/Src/stm32l0xx_ll_rtc.c **** 
 363:Drivers/STM32L0xx_HAL_Driver/Src/stm32l0xx_ll_rtc.c **** /**
 364:Drivers/STM32L0xx_HAL_Driver/Src/stm32l0xx_ll_rtc.c ****   * @brief  Set the RTC current date.
 365:Drivers/STM32L0xx_HAL_Driver/Src/stm32l0xx_ll_rtc.c ****   * @param  RTCx RTC Instance
 366:Drivers/STM32L0xx_HAL_Driver/Src/stm32l0xx_ll_rtc.c ****   * @param  RTC_Format This parameter can be one of the following values:
 367:Drivers/STM32L0xx_HAL_Driver/Src/stm32l0xx_ll_rtc.c ****   *         @arg @ref LL_RTC_FORMAT_BIN
 368:Drivers/STM32L0xx_HAL_Driver/Src/stm32l0xx_ll_rtc.c ****   *         @arg @ref LL_RTC_FORMAT_BCD
 369:Drivers/STM32L0xx_HAL_Driver/Src/stm32l0xx_ll_rtc.c ****   * @param  RTC_DateStruct pointer to a RTC_DateTypeDef structure that contains
 370:Drivers/STM32L0xx_HAL_Driver/Src/stm32l0xx_ll_rtc.c ****   *                        the date configuration information for the RTC.
 371:Drivers/STM32L0xx_HAL_Driver/Src/stm32l0xx_ll_rtc.c ****   * @retval An ErrorStatus enumeration value:
 372:Drivers/STM32L0xx_HAL_Driver/Src/stm32l0xx_ll_rtc.c ****   *          - SUCCESS: RTC Day register is configured
 373:Drivers/STM32L0xx_HAL_Driver/Src/stm32l0xx_ll_rtc.c ****   *          - ERROR: RTC Day register is not configured
 374:Drivers/STM32L0xx_HAL_Driver/Src/stm32l0xx_ll_rtc.c ****   */
 375:Drivers/STM32L0xx_HAL_Driver/Src/stm32l0xx_ll_rtc.c **** ErrorStatus LL_RTC_DATE_Init(RTC_TypeDef *RTCx, uint32_t RTC_Format, LL_RTC_DateTypeDef *RTC_DateSt
 376:Drivers/STM32L0xx_HAL_Driver/Src/stm32l0xx_ll_rtc.c **** {
 377:Drivers/STM32L0xx_HAL_Driver/Src/stm32l0xx_ll_rtc.c ****   ErrorStatus status = ERROR;
 378:Drivers/STM32L0xx_HAL_Driver/Src/stm32l0xx_ll_rtc.c **** 
 379:Drivers/STM32L0xx_HAL_Driver/Src/stm32l0xx_ll_rtc.c ****   /* Check the parameters */
 380:Drivers/STM32L0xx_HAL_Driver/Src/stm32l0xx_ll_rtc.c ****   assert_param(IS_RTC_ALL_INSTANCE(RTCx));
 381:Drivers/STM32L0xx_HAL_Driver/Src/stm32l0xx_ll_rtc.c ****   assert_param(IS_LL_RTC_FORMAT(RTC_Format));
 382:Drivers/STM32L0xx_HAL_Driver/Src/stm32l0xx_ll_rtc.c **** 
 383:Drivers/STM32L0xx_HAL_Driver/Src/stm32l0xx_ll_rtc.c ****   if ((RTC_Format == LL_RTC_FORMAT_BIN) && ((RTC_DateStruct->Month & 0x10U) == 0x10U))
 384:Drivers/STM32L0xx_HAL_Driver/Src/stm32l0xx_ll_rtc.c ****   {
 385:Drivers/STM32L0xx_HAL_Driver/Src/stm32l0xx_ll_rtc.c ****     RTC_DateStruct->Month = (RTC_DateStruct->Month & (uint8_t)~(0x10U)) + 0x0AU;
 386:Drivers/STM32L0xx_HAL_Driver/Src/stm32l0xx_ll_rtc.c ****   }
 387:Drivers/STM32L0xx_HAL_Driver/Src/stm32l0xx_ll_rtc.c ****   if (RTC_Format == LL_RTC_FORMAT_BIN)
 388:Drivers/STM32L0xx_HAL_Driver/Src/stm32l0xx_ll_rtc.c ****   {
 389:Drivers/STM32L0xx_HAL_Driver/Src/stm32l0xx_ll_rtc.c ****     assert_param(IS_LL_RTC_YEAR(RTC_DateStruct->Year));
 390:Drivers/STM32L0xx_HAL_Driver/Src/stm32l0xx_ll_rtc.c ****     assert_param(IS_LL_RTC_MONTH(RTC_DateStruct->Month));
 391:Drivers/STM32L0xx_HAL_Driver/Src/stm32l0xx_ll_rtc.c ****     assert_param(IS_LL_RTC_DAY(RTC_DateStruct->Day));
 392:Drivers/STM32L0xx_HAL_Driver/Src/stm32l0xx_ll_rtc.c ****   }
 393:Drivers/STM32L0xx_HAL_Driver/Src/stm32l0xx_ll_rtc.c ****   else
 394:Drivers/STM32L0xx_HAL_Driver/Src/stm32l0xx_ll_rtc.c ****   {
 395:Drivers/STM32L0xx_HAL_Driver/Src/stm32l0xx_ll_rtc.c ****     assert_param(IS_LL_RTC_YEAR(__LL_RTC_CONVERT_BCD2BIN(RTC_DateStruct->Year)));
 396:Drivers/STM32L0xx_HAL_Driver/Src/stm32l0xx_ll_rtc.c ****     assert_param(IS_LL_RTC_MONTH(__LL_RTC_CONVERT_BCD2BIN(RTC_DateStruct->Month)));
 397:Drivers/STM32L0xx_HAL_Driver/Src/stm32l0xx_ll_rtc.c ****     assert_param(IS_LL_RTC_DAY(__LL_RTC_CONVERT_BCD2BIN(RTC_DateStruct->Day)));
 398:Drivers/STM32L0xx_HAL_Driver/Src/stm32l0xx_ll_rtc.c ****   }
 399:Drivers/STM32L0xx_HAL_Driver/Src/stm32l0xx_ll_rtc.c ****   assert_param(IS_LL_RTC_WEEKDAY(RTC_DateStruct->WeekDay));
 400:Drivers/STM32L0xx_HAL_Driver/Src/stm32l0xx_ll_rtc.c **** 
 401:Drivers/STM32L0xx_HAL_Driver/Src/stm32l0xx_ll_rtc.c ****   /* Disable the write protection for RTC registers */
 402:Drivers/STM32L0xx_HAL_Driver/Src/stm32l0xx_ll_rtc.c ****   LL_RTC_DisableWriteProtection(RTCx);
 403:Drivers/STM32L0xx_HAL_Driver/Src/stm32l0xx_ll_rtc.c **** 
 404:Drivers/STM32L0xx_HAL_Driver/Src/stm32l0xx_ll_rtc.c ****   /* Set Initialization mode */
 405:Drivers/STM32L0xx_HAL_Driver/Src/stm32l0xx_ll_rtc.c ****   if (LL_RTC_EnterInitMode(RTCx) != ERROR)
 406:Drivers/STM32L0xx_HAL_Driver/Src/stm32l0xx_ll_rtc.c ****   {
 407:Drivers/STM32L0xx_HAL_Driver/Src/stm32l0xx_ll_rtc.c ****     /* Check the input parameters format */
 408:Drivers/STM32L0xx_HAL_Driver/Src/stm32l0xx_ll_rtc.c ****     if (RTC_Format != LL_RTC_FORMAT_BIN)
 409:Drivers/STM32L0xx_HAL_Driver/Src/stm32l0xx_ll_rtc.c ****     {
 410:Drivers/STM32L0xx_HAL_Driver/Src/stm32l0xx_ll_rtc.c ****       LL_RTC_DATE_Config(RTCx, RTC_DateStruct->WeekDay, RTC_DateStruct->Day, RTC_DateStruct->Month,
 411:Drivers/STM32L0xx_HAL_Driver/Src/stm32l0xx_ll_rtc.c ****     }
 412:Drivers/STM32L0xx_HAL_Driver/Src/stm32l0xx_ll_rtc.c ****     else
ARM GAS  /tmp/ccJpVmYc.s 			page 10


 413:Drivers/STM32L0xx_HAL_Driver/Src/stm32l0xx_ll_rtc.c ****     {
 414:Drivers/STM32L0xx_HAL_Driver/Src/stm32l0xx_ll_rtc.c ****       LL_RTC_DATE_Config(RTCx, RTC_DateStruct->WeekDay, __LL_RTC_CONVERT_BIN2BCD(RTC_DateStruct->Da
 415:Drivers/STM32L0xx_HAL_Driver/Src/stm32l0xx_ll_rtc.c ****                          __LL_RTC_CONVERT_BIN2BCD(RTC_DateStruct->Month), __LL_RTC_CONVERT_BIN2BCD(
 416:Drivers/STM32L0xx_HAL_Driver/Src/stm32l0xx_ll_rtc.c ****     }
 417:Drivers/STM32L0xx_HAL_Driver/Src/stm32l0xx_ll_rtc.c **** 
 418:Drivers/STM32L0xx_HAL_Driver/Src/stm32l0xx_ll_rtc.c ****     /* Exit Initialization mode */
 419:Drivers/STM32L0xx_HAL_Driver/Src/stm32l0xx_ll_rtc.c ****     LL_RTC_DisableInitMode(RTC);
 420:Drivers/STM32L0xx_HAL_Driver/Src/stm32l0xx_ll_rtc.c **** 
 421:Drivers/STM32L0xx_HAL_Driver/Src/stm32l0xx_ll_rtc.c ****     /* If  RTC_CR_BYPSHAD bit = 0, wait for synchro else this check is not needed */
 422:Drivers/STM32L0xx_HAL_Driver/Src/stm32l0xx_ll_rtc.c ****     if (LL_RTC_IsShadowRegBypassEnabled(RTCx) == 0U)
 423:Drivers/STM32L0xx_HAL_Driver/Src/stm32l0xx_ll_rtc.c ****     {
 424:Drivers/STM32L0xx_HAL_Driver/Src/stm32l0xx_ll_rtc.c ****       status = LL_RTC_WaitForSynchro(RTCx);
 425:Drivers/STM32L0xx_HAL_Driver/Src/stm32l0xx_ll_rtc.c ****     }
 426:Drivers/STM32L0xx_HAL_Driver/Src/stm32l0xx_ll_rtc.c ****     else
 427:Drivers/STM32L0xx_HAL_Driver/Src/stm32l0xx_ll_rtc.c ****     {
 428:Drivers/STM32L0xx_HAL_Driver/Src/stm32l0xx_ll_rtc.c ****       status = SUCCESS;
 429:Drivers/STM32L0xx_HAL_Driver/Src/stm32l0xx_ll_rtc.c ****     }
 430:Drivers/STM32L0xx_HAL_Driver/Src/stm32l0xx_ll_rtc.c ****   }
 431:Drivers/STM32L0xx_HAL_Driver/Src/stm32l0xx_ll_rtc.c ****   /* Enable the write protection for RTC registers */
 432:Drivers/STM32L0xx_HAL_Driver/Src/stm32l0xx_ll_rtc.c ****   LL_RTC_EnableWriteProtection(RTCx);
 433:Drivers/STM32L0xx_HAL_Driver/Src/stm32l0xx_ll_rtc.c **** 
 434:Drivers/STM32L0xx_HAL_Driver/Src/stm32l0xx_ll_rtc.c ****   return status;
 435:Drivers/STM32L0xx_HAL_Driver/Src/stm32l0xx_ll_rtc.c **** }
 436:Drivers/STM32L0xx_HAL_Driver/Src/stm32l0xx_ll_rtc.c **** 
 437:Drivers/STM32L0xx_HAL_Driver/Src/stm32l0xx_ll_rtc.c **** /**
 438:Drivers/STM32L0xx_HAL_Driver/Src/stm32l0xx_ll_rtc.c ****   * @brief  Set each @ref LL_RTC_DateTypeDef field to default value (date = Monday, January 01 xx00
 439:Drivers/STM32L0xx_HAL_Driver/Src/stm32l0xx_ll_rtc.c ****   * @param  RTC_DateStruct pointer to a @ref LL_RTC_DateTypeDef structure which will be initialized
 440:Drivers/STM32L0xx_HAL_Driver/Src/stm32l0xx_ll_rtc.c ****   * @retval None
 441:Drivers/STM32L0xx_HAL_Driver/Src/stm32l0xx_ll_rtc.c ****   */
 442:Drivers/STM32L0xx_HAL_Driver/Src/stm32l0xx_ll_rtc.c **** void LL_RTC_DATE_StructInit(LL_RTC_DateTypeDef *RTC_DateStruct)
 443:Drivers/STM32L0xx_HAL_Driver/Src/stm32l0xx_ll_rtc.c **** {
 102              		.loc 1 443 1 is_stmt 1 view -0
 103              		.cfi_startproc
 104              		@ args = 0, pretend = 0, frame = 0
 105              		@ frame_needed = 0, uses_anonymous_args = 0
 106              		@ link register save eliminated.
 444:Drivers/STM32L0xx_HAL_Driver/Src/stm32l0xx_ll_rtc.c ****   /* Monday, January 01 xx00 */
 445:Drivers/STM32L0xx_HAL_Driver/Src/stm32l0xx_ll_rtc.c ****   RTC_DateStruct->WeekDay = LL_RTC_WEEKDAY_MONDAY;
 107              		.loc 1 445 3 view .LVU22
 108              		.loc 1 445 27 is_stmt 0 view .LVU23
 109 0000 0123     		movs	r3, #1
 110 0002 0370     		strb	r3, [r0]
 446:Drivers/STM32L0xx_HAL_Driver/Src/stm32l0xx_ll_rtc.c ****   RTC_DateStruct->Day     = 1U;
 111              		.loc 1 446 3 is_stmt 1 view .LVU24
 112              		.loc 1 446 27 is_stmt 0 view .LVU25
 113 0004 8370     		strb	r3, [r0, #2]
 447:Drivers/STM32L0xx_HAL_Driver/Src/stm32l0xx_ll_rtc.c ****   RTC_DateStruct->Month   = LL_RTC_MONTH_JANUARY;
 114              		.loc 1 447 3 is_stmt 1 view .LVU26
 115              		.loc 1 447 27 is_stmt 0 view .LVU27
 116 0006 4370     		strb	r3, [r0, #1]
 448:Drivers/STM32L0xx_HAL_Driver/Src/stm32l0xx_ll_rtc.c ****   RTC_DateStruct->Year    = 0U;
 117              		.loc 1 448 3 is_stmt 1 view .LVU28
 118              		.loc 1 448 27 is_stmt 0 view .LVU29
 119 0008 0023     		movs	r3, #0
 449:Drivers/STM32L0xx_HAL_Driver/Src/stm32l0xx_ll_rtc.c **** }
 120              		.loc 1 449 1 view .LVU30
 121              		@ sp needed
ARM GAS  /tmp/ccJpVmYc.s 			page 11


 448:Drivers/STM32L0xx_HAL_Driver/Src/stm32l0xx_ll_rtc.c ****   RTC_DateStruct->Year    = 0U;
 122              		.loc 1 448 27 view .LVU31
 123 000a C370     		strb	r3, [r0, #3]
 124              		.loc 1 449 1 view .LVU32
 125 000c 7047     		bx	lr
 126              		.cfi_endproc
 127              	.LFE267:
 129              		.global	__aeabi_uidiv
 130              		.global	__aeabi_uidivmod
 131 000e C046     		.section	.text.LL_RTC_ALMA_Init,"ax",%progbits
 132              		.align	1
 133              		.p2align 2,,3
 134              		.global	LL_RTC_ALMA_Init
 135              		.syntax unified
 136              		.code	16
 137              		.thumb_func
 138              		.fpu softvfp
 140              	LL_RTC_ALMA_Init:
 141              	.LVL3:
 142              	.LFB268:
 450:Drivers/STM32L0xx_HAL_Driver/Src/stm32l0xx_ll_rtc.c **** 
 451:Drivers/STM32L0xx_HAL_Driver/Src/stm32l0xx_ll_rtc.c **** /**
 452:Drivers/STM32L0xx_HAL_Driver/Src/stm32l0xx_ll_rtc.c ****   * @brief  Set the RTC Alarm A.
 453:Drivers/STM32L0xx_HAL_Driver/Src/stm32l0xx_ll_rtc.c ****   * @note   The Alarm register can only be written when the corresponding Alarm
 454:Drivers/STM32L0xx_HAL_Driver/Src/stm32l0xx_ll_rtc.c ****   *         is disabled (Use @ref LL_RTC_ALMA_Disable function).
 455:Drivers/STM32L0xx_HAL_Driver/Src/stm32l0xx_ll_rtc.c ****   * @param  RTCx RTC Instance
 456:Drivers/STM32L0xx_HAL_Driver/Src/stm32l0xx_ll_rtc.c ****   * @param  RTC_Format This parameter can be one of the following values:
 457:Drivers/STM32L0xx_HAL_Driver/Src/stm32l0xx_ll_rtc.c ****   *         @arg @ref LL_RTC_FORMAT_BIN
 458:Drivers/STM32L0xx_HAL_Driver/Src/stm32l0xx_ll_rtc.c ****   *         @arg @ref LL_RTC_FORMAT_BCD
 459:Drivers/STM32L0xx_HAL_Driver/Src/stm32l0xx_ll_rtc.c ****   * @param  RTC_AlarmStruct pointer to a @ref LL_RTC_AlarmTypeDef structure that
 460:Drivers/STM32L0xx_HAL_Driver/Src/stm32l0xx_ll_rtc.c ****   *                         contains the alarm configuration parameters.
 461:Drivers/STM32L0xx_HAL_Driver/Src/stm32l0xx_ll_rtc.c ****   * @retval An ErrorStatus enumeration value:
 462:Drivers/STM32L0xx_HAL_Driver/Src/stm32l0xx_ll_rtc.c ****   *          - SUCCESS: ALARMA registers are configured
 463:Drivers/STM32L0xx_HAL_Driver/Src/stm32l0xx_ll_rtc.c ****   *          - ERROR: ALARMA registers are not configured
 464:Drivers/STM32L0xx_HAL_Driver/Src/stm32l0xx_ll_rtc.c ****   */
 465:Drivers/STM32L0xx_HAL_Driver/Src/stm32l0xx_ll_rtc.c **** ErrorStatus LL_RTC_ALMA_Init(RTC_TypeDef *RTCx, uint32_t RTC_Format, LL_RTC_AlarmTypeDef *RTC_Alarm
 466:Drivers/STM32L0xx_HAL_Driver/Src/stm32l0xx_ll_rtc.c **** {
 143              		.loc 1 466 1 is_stmt 1 view -0
 144              		.cfi_startproc
 145              		@ args = 0, pretend = 0, frame = 0
 146              		@ frame_needed = 0, uses_anonymous_args = 0
 467:Drivers/STM32L0xx_HAL_Driver/Src/stm32l0xx_ll_rtc.c ****   /* Check the parameters */
 468:Drivers/STM32L0xx_HAL_Driver/Src/stm32l0xx_ll_rtc.c ****   assert_param(IS_RTC_ALL_INSTANCE(RTCx));
 147              		.loc 1 468 3 view .LVU34
 469:Drivers/STM32L0xx_HAL_Driver/Src/stm32l0xx_ll_rtc.c ****   assert_param(IS_LL_RTC_FORMAT(RTC_Format));
 148              		.loc 1 469 3 view .LVU35
 470:Drivers/STM32L0xx_HAL_Driver/Src/stm32l0xx_ll_rtc.c ****   assert_param(IS_LL_RTC_ALMA_MASK(RTC_AlarmStruct->AlarmMask));
 149              		.loc 1 470 3 view .LVU36
 471:Drivers/STM32L0xx_HAL_Driver/Src/stm32l0xx_ll_rtc.c ****   assert_param(IS_LL_RTC_ALMA_DATE_WEEKDAY_SEL(RTC_AlarmStruct->AlarmDateWeekDaySel));
 150              		.loc 1 471 3 view .LVU37
 472:Drivers/STM32L0xx_HAL_Driver/Src/stm32l0xx_ll_rtc.c **** 
 473:Drivers/STM32L0xx_HAL_Driver/Src/stm32l0xx_ll_rtc.c ****   if (RTC_Format == LL_RTC_FORMAT_BIN)
 151              		.loc 1 473 3 view .LVU38
 466:Drivers/STM32L0xx_HAL_Driver/Src/stm32l0xx_ll_rtc.c ****   /* Check the parameters */
 152              		.loc 1 466 1 is_stmt 0 view .LVU39
 153 0000 F8B5     		push	{r3, r4, r5, r6, r7, lr}
 154              	.LCFI0:
ARM GAS  /tmp/ccJpVmYc.s 			page 12


 155              		.cfi_def_cfa_offset 24
 156              		.cfi_offset 3, -24
 157              		.cfi_offset 4, -20
 158              		.cfi_offset 5, -16
 159              		.cfi_offset 6, -12
 160              		.cfi_offset 7, -8
 161              		.cfi_offset 14, -4
 162 0002 4546     		mov	r5, r8
 163 0004 DE46     		mov	lr, fp
 164 0006 5746     		mov	r7, r10
 165 0008 4E46     		mov	r6, r9
 166 000a 0400     		movs	r4, r0
 167 000c E0B5     		push	{r5, r6, r7, lr}
 168              	.LCFI1:
 169              		.cfi_def_cfa_offset 40
 170              		.cfi_offset 8, -40
 171              		.cfi_offset 9, -36
 172              		.cfi_offset 10, -32
 173              		.cfi_offset 11, -28
 174              	.LBB120:
 175              	.LBB121:
 176              		.file 2 "Drivers/STM32L0xx_HAL_Driver/Inc/stm32l0xx_ll_rtc.h"
   1:Drivers/STM32L0xx_HAL_Driver/Inc/stm32l0xx_ll_rtc.h **** /**
   2:Drivers/STM32L0xx_HAL_Driver/Inc/stm32l0xx_ll_rtc.h ****   ******************************************************************************
   3:Drivers/STM32L0xx_HAL_Driver/Inc/stm32l0xx_ll_rtc.h ****   * @file    stm32l0xx_ll_rtc.h
   4:Drivers/STM32L0xx_HAL_Driver/Inc/stm32l0xx_ll_rtc.h ****   * @author  MCD Application Team
   5:Drivers/STM32L0xx_HAL_Driver/Inc/stm32l0xx_ll_rtc.h ****   * @brief   Header file of RTC LL module.
   6:Drivers/STM32L0xx_HAL_Driver/Inc/stm32l0xx_ll_rtc.h ****   ******************************************************************************
   7:Drivers/STM32L0xx_HAL_Driver/Inc/stm32l0xx_ll_rtc.h ****   * @attention
   8:Drivers/STM32L0xx_HAL_Driver/Inc/stm32l0xx_ll_rtc.h ****   *
   9:Drivers/STM32L0xx_HAL_Driver/Inc/stm32l0xx_ll_rtc.h ****   * <h2><center>&copy; Copyright (c) 2016 STMicroelectronics.
  10:Drivers/STM32L0xx_HAL_Driver/Inc/stm32l0xx_ll_rtc.h ****   * All rights reserved.</center></h2>
  11:Drivers/STM32L0xx_HAL_Driver/Inc/stm32l0xx_ll_rtc.h ****   *
  12:Drivers/STM32L0xx_HAL_Driver/Inc/stm32l0xx_ll_rtc.h ****   * This software component is licensed by ST under BSD 3-Clause license,
  13:Drivers/STM32L0xx_HAL_Driver/Inc/stm32l0xx_ll_rtc.h ****   * the "License"; You may not use this file except in compliance with the
  14:Drivers/STM32L0xx_HAL_Driver/Inc/stm32l0xx_ll_rtc.h ****   * License. You may obtain a copy of the License at:
  15:Drivers/STM32L0xx_HAL_Driver/Inc/stm32l0xx_ll_rtc.h ****   *                        opensource.org/licenses/BSD-3-Clause
  16:Drivers/STM32L0xx_HAL_Driver/Inc/stm32l0xx_ll_rtc.h ****   *
  17:Drivers/STM32L0xx_HAL_Driver/Inc/stm32l0xx_ll_rtc.h ****   ******************************************************************************
  18:Drivers/STM32L0xx_HAL_Driver/Inc/stm32l0xx_ll_rtc.h ****   */
  19:Drivers/STM32L0xx_HAL_Driver/Inc/stm32l0xx_ll_rtc.h **** 
  20:Drivers/STM32L0xx_HAL_Driver/Inc/stm32l0xx_ll_rtc.h **** /* Define to prevent recursive inclusion -------------------------------------*/
  21:Drivers/STM32L0xx_HAL_Driver/Inc/stm32l0xx_ll_rtc.h **** #ifndef STM32L0xx_LL_RTC_H
  22:Drivers/STM32L0xx_HAL_Driver/Inc/stm32l0xx_ll_rtc.h **** #define STM32L0xx_LL_RTC_H
  23:Drivers/STM32L0xx_HAL_Driver/Inc/stm32l0xx_ll_rtc.h **** 
  24:Drivers/STM32L0xx_HAL_Driver/Inc/stm32l0xx_ll_rtc.h **** #ifdef __cplusplus
  25:Drivers/STM32L0xx_HAL_Driver/Inc/stm32l0xx_ll_rtc.h **** extern "C" {
  26:Drivers/STM32L0xx_HAL_Driver/Inc/stm32l0xx_ll_rtc.h **** #endif
  27:Drivers/STM32L0xx_HAL_Driver/Inc/stm32l0xx_ll_rtc.h **** 
  28:Drivers/STM32L0xx_HAL_Driver/Inc/stm32l0xx_ll_rtc.h **** /* Includes ------------------------------------------------------------------*/
  29:Drivers/STM32L0xx_HAL_Driver/Inc/stm32l0xx_ll_rtc.h **** #include "stm32l0xx.h"
  30:Drivers/STM32L0xx_HAL_Driver/Inc/stm32l0xx_ll_rtc.h **** 
  31:Drivers/STM32L0xx_HAL_Driver/Inc/stm32l0xx_ll_rtc.h **** /** @addtogroup STM32L0xx_LL_Driver
  32:Drivers/STM32L0xx_HAL_Driver/Inc/stm32l0xx_ll_rtc.h ****   * @{
  33:Drivers/STM32L0xx_HAL_Driver/Inc/stm32l0xx_ll_rtc.h ****   */
  34:Drivers/STM32L0xx_HAL_Driver/Inc/stm32l0xx_ll_rtc.h **** 
  35:Drivers/STM32L0xx_HAL_Driver/Inc/stm32l0xx_ll_rtc.h **** #if defined(RTC)
ARM GAS  /tmp/ccJpVmYc.s 			page 13


  36:Drivers/STM32L0xx_HAL_Driver/Inc/stm32l0xx_ll_rtc.h **** 
  37:Drivers/STM32L0xx_HAL_Driver/Inc/stm32l0xx_ll_rtc.h **** /** @defgroup RTC_LL RTC
  38:Drivers/STM32L0xx_HAL_Driver/Inc/stm32l0xx_ll_rtc.h ****   * @{
  39:Drivers/STM32L0xx_HAL_Driver/Inc/stm32l0xx_ll_rtc.h ****   */
  40:Drivers/STM32L0xx_HAL_Driver/Inc/stm32l0xx_ll_rtc.h **** 
  41:Drivers/STM32L0xx_HAL_Driver/Inc/stm32l0xx_ll_rtc.h **** /* Private types -------------------------------------------------------------*/
  42:Drivers/STM32L0xx_HAL_Driver/Inc/stm32l0xx_ll_rtc.h **** /* Private variables ---------------------------------------------------------*/
  43:Drivers/STM32L0xx_HAL_Driver/Inc/stm32l0xx_ll_rtc.h **** /* Private constants ---------------------------------------------------------*/
  44:Drivers/STM32L0xx_HAL_Driver/Inc/stm32l0xx_ll_rtc.h **** /** @defgroup RTC_LL_Private_Constants RTC Private Constants
  45:Drivers/STM32L0xx_HAL_Driver/Inc/stm32l0xx_ll_rtc.h ****   * @{
  46:Drivers/STM32L0xx_HAL_Driver/Inc/stm32l0xx_ll_rtc.h ****   */
  47:Drivers/STM32L0xx_HAL_Driver/Inc/stm32l0xx_ll_rtc.h **** /* Masks Definition */
  48:Drivers/STM32L0xx_HAL_Driver/Inc/stm32l0xx_ll_rtc.h **** #define RTC_LL_INIT_MASK                 (0xFFFFFFFFU)
  49:Drivers/STM32L0xx_HAL_Driver/Inc/stm32l0xx_ll_rtc.h **** #define RTC_LL_RSF_MASK                  (0xFFFFFF5FU)
  50:Drivers/STM32L0xx_HAL_Driver/Inc/stm32l0xx_ll_rtc.h **** 
  51:Drivers/STM32L0xx_HAL_Driver/Inc/stm32l0xx_ll_rtc.h **** /* Write protection defines */
  52:Drivers/STM32L0xx_HAL_Driver/Inc/stm32l0xx_ll_rtc.h **** #define RTC_WRITE_PROTECTION_DISABLE  ((uint8_t)0xFF)
  53:Drivers/STM32L0xx_HAL_Driver/Inc/stm32l0xx_ll_rtc.h **** #define RTC_WRITE_PROTECTION_ENABLE_1 ((uint8_t)0xCA)
  54:Drivers/STM32L0xx_HAL_Driver/Inc/stm32l0xx_ll_rtc.h **** #define RTC_WRITE_PROTECTION_ENABLE_2 ((uint8_t)0x53)
  55:Drivers/STM32L0xx_HAL_Driver/Inc/stm32l0xx_ll_rtc.h **** 
  56:Drivers/STM32L0xx_HAL_Driver/Inc/stm32l0xx_ll_rtc.h **** /* Defines used to combine date & time */
  57:Drivers/STM32L0xx_HAL_Driver/Inc/stm32l0xx_ll_rtc.h **** #define RTC_OFFSET_WEEKDAY            (24U)
  58:Drivers/STM32L0xx_HAL_Driver/Inc/stm32l0xx_ll_rtc.h **** #define RTC_OFFSET_DAY                (16U)
  59:Drivers/STM32L0xx_HAL_Driver/Inc/stm32l0xx_ll_rtc.h **** #define RTC_OFFSET_MONTH              (8U)
  60:Drivers/STM32L0xx_HAL_Driver/Inc/stm32l0xx_ll_rtc.h **** #define RTC_OFFSET_HOUR               (16U)
  61:Drivers/STM32L0xx_HAL_Driver/Inc/stm32l0xx_ll_rtc.h **** #define RTC_OFFSET_MINUTE             (8U)
  62:Drivers/STM32L0xx_HAL_Driver/Inc/stm32l0xx_ll_rtc.h **** 
  63:Drivers/STM32L0xx_HAL_Driver/Inc/stm32l0xx_ll_rtc.h **** /**
  64:Drivers/STM32L0xx_HAL_Driver/Inc/stm32l0xx_ll_rtc.h ****   * @}
  65:Drivers/STM32L0xx_HAL_Driver/Inc/stm32l0xx_ll_rtc.h ****   */
  66:Drivers/STM32L0xx_HAL_Driver/Inc/stm32l0xx_ll_rtc.h **** 
  67:Drivers/STM32L0xx_HAL_Driver/Inc/stm32l0xx_ll_rtc.h **** /* Private macros ------------------------------------------------------------*/
  68:Drivers/STM32L0xx_HAL_Driver/Inc/stm32l0xx_ll_rtc.h **** #if defined(USE_FULL_LL_DRIVER)
  69:Drivers/STM32L0xx_HAL_Driver/Inc/stm32l0xx_ll_rtc.h **** /** @defgroup RTC_LL_Private_Macros RTC Private Macros
  70:Drivers/STM32L0xx_HAL_Driver/Inc/stm32l0xx_ll_rtc.h ****   * @{
  71:Drivers/STM32L0xx_HAL_Driver/Inc/stm32l0xx_ll_rtc.h ****   */
  72:Drivers/STM32L0xx_HAL_Driver/Inc/stm32l0xx_ll_rtc.h **** /**
  73:Drivers/STM32L0xx_HAL_Driver/Inc/stm32l0xx_ll_rtc.h ****   * @}
  74:Drivers/STM32L0xx_HAL_Driver/Inc/stm32l0xx_ll_rtc.h ****   */
  75:Drivers/STM32L0xx_HAL_Driver/Inc/stm32l0xx_ll_rtc.h **** #endif /*USE_FULL_LL_DRIVER*/
  76:Drivers/STM32L0xx_HAL_Driver/Inc/stm32l0xx_ll_rtc.h **** 
  77:Drivers/STM32L0xx_HAL_Driver/Inc/stm32l0xx_ll_rtc.h **** /* Exported types ------------------------------------------------------------*/
  78:Drivers/STM32L0xx_HAL_Driver/Inc/stm32l0xx_ll_rtc.h **** #if defined(USE_FULL_LL_DRIVER)
  79:Drivers/STM32L0xx_HAL_Driver/Inc/stm32l0xx_ll_rtc.h **** /** @defgroup RTC_LL_ES_INIT RTC Exported Init structure
  80:Drivers/STM32L0xx_HAL_Driver/Inc/stm32l0xx_ll_rtc.h ****   * @{
  81:Drivers/STM32L0xx_HAL_Driver/Inc/stm32l0xx_ll_rtc.h ****   */
  82:Drivers/STM32L0xx_HAL_Driver/Inc/stm32l0xx_ll_rtc.h **** 
  83:Drivers/STM32L0xx_HAL_Driver/Inc/stm32l0xx_ll_rtc.h **** /**
  84:Drivers/STM32L0xx_HAL_Driver/Inc/stm32l0xx_ll_rtc.h ****   * @brief  RTC Init structures definition
  85:Drivers/STM32L0xx_HAL_Driver/Inc/stm32l0xx_ll_rtc.h ****   */
  86:Drivers/STM32L0xx_HAL_Driver/Inc/stm32l0xx_ll_rtc.h **** typedef struct
  87:Drivers/STM32L0xx_HAL_Driver/Inc/stm32l0xx_ll_rtc.h **** {
  88:Drivers/STM32L0xx_HAL_Driver/Inc/stm32l0xx_ll_rtc.h ****   uint32_t HourFormat;   /*!< Specifies the RTC Hours Format.
  89:Drivers/STM32L0xx_HAL_Driver/Inc/stm32l0xx_ll_rtc.h ****                               This parameter can be a value of @ref RTC_LL_EC_HOURFORMAT
  90:Drivers/STM32L0xx_HAL_Driver/Inc/stm32l0xx_ll_rtc.h **** 
  91:Drivers/STM32L0xx_HAL_Driver/Inc/stm32l0xx_ll_rtc.h ****                               This feature can be modified afterwards using unitary function
  92:Drivers/STM32L0xx_HAL_Driver/Inc/stm32l0xx_ll_rtc.h ****                               @ref LL_RTC_SetHourFormat(). */
ARM GAS  /tmp/ccJpVmYc.s 			page 14


  93:Drivers/STM32L0xx_HAL_Driver/Inc/stm32l0xx_ll_rtc.h **** 
  94:Drivers/STM32L0xx_HAL_Driver/Inc/stm32l0xx_ll_rtc.h ****   uint32_t AsynchPrescaler; /*!< Specifies the RTC Asynchronous Predivider value.
  95:Drivers/STM32L0xx_HAL_Driver/Inc/stm32l0xx_ll_rtc.h ****                               This parameter must be a number between Min_Data = 0x00 and Max_Data 
  96:Drivers/STM32L0xx_HAL_Driver/Inc/stm32l0xx_ll_rtc.h **** 
  97:Drivers/STM32L0xx_HAL_Driver/Inc/stm32l0xx_ll_rtc.h ****                               This feature can be modified afterwards using unitary function
  98:Drivers/STM32L0xx_HAL_Driver/Inc/stm32l0xx_ll_rtc.h ****                               @ref LL_RTC_SetAsynchPrescaler(). */
  99:Drivers/STM32L0xx_HAL_Driver/Inc/stm32l0xx_ll_rtc.h **** 
 100:Drivers/STM32L0xx_HAL_Driver/Inc/stm32l0xx_ll_rtc.h ****   uint32_t SynchPrescaler;  /*!< Specifies the RTC Synchronous Predivider value.
 101:Drivers/STM32L0xx_HAL_Driver/Inc/stm32l0xx_ll_rtc.h ****                               This parameter must be a number between Min_Data = 0x00 and Max_Data 
 102:Drivers/STM32L0xx_HAL_Driver/Inc/stm32l0xx_ll_rtc.h **** 
 103:Drivers/STM32L0xx_HAL_Driver/Inc/stm32l0xx_ll_rtc.h ****                               This feature can be modified afterwards using unitary function
 104:Drivers/STM32L0xx_HAL_Driver/Inc/stm32l0xx_ll_rtc.h ****                               @ref LL_RTC_SetSynchPrescaler(). */
 105:Drivers/STM32L0xx_HAL_Driver/Inc/stm32l0xx_ll_rtc.h **** } LL_RTC_InitTypeDef;
 106:Drivers/STM32L0xx_HAL_Driver/Inc/stm32l0xx_ll_rtc.h **** 
 107:Drivers/STM32L0xx_HAL_Driver/Inc/stm32l0xx_ll_rtc.h **** /**
 108:Drivers/STM32L0xx_HAL_Driver/Inc/stm32l0xx_ll_rtc.h ****   * @brief  RTC Time structure definition
 109:Drivers/STM32L0xx_HAL_Driver/Inc/stm32l0xx_ll_rtc.h ****   */
 110:Drivers/STM32L0xx_HAL_Driver/Inc/stm32l0xx_ll_rtc.h **** typedef struct
 111:Drivers/STM32L0xx_HAL_Driver/Inc/stm32l0xx_ll_rtc.h **** {
 112:Drivers/STM32L0xx_HAL_Driver/Inc/stm32l0xx_ll_rtc.h ****   uint32_t TimeFormat; /*!< Specifies the RTC AM/PM Time.
 113:Drivers/STM32L0xx_HAL_Driver/Inc/stm32l0xx_ll_rtc.h ****                             This parameter can be a value of @ref RTC_LL_EC_TIME_FORMAT
 114:Drivers/STM32L0xx_HAL_Driver/Inc/stm32l0xx_ll_rtc.h **** 
 115:Drivers/STM32L0xx_HAL_Driver/Inc/stm32l0xx_ll_rtc.h ****                             This feature can be modified afterwards using unitary function @ref LL_
 116:Drivers/STM32L0xx_HAL_Driver/Inc/stm32l0xx_ll_rtc.h **** 
 117:Drivers/STM32L0xx_HAL_Driver/Inc/stm32l0xx_ll_rtc.h ****   uint8_t Hours;       /*!< Specifies the RTC Time Hours.
 118:Drivers/STM32L0xx_HAL_Driver/Inc/stm32l0xx_ll_rtc.h ****                             This parameter must be a number between Min_Data = 0 and Max_Data = 12 
 119:Drivers/STM32L0xx_HAL_Driver/Inc/stm32l0xx_ll_rtc.h ****                             This parameter must be a number between Min_Data = 0 and Max_Data = 23 
 120:Drivers/STM32L0xx_HAL_Driver/Inc/stm32l0xx_ll_rtc.h **** 
 121:Drivers/STM32L0xx_HAL_Driver/Inc/stm32l0xx_ll_rtc.h ****                             This feature can be modified afterwards using unitary function @ref LL_
 122:Drivers/STM32L0xx_HAL_Driver/Inc/stm32l0xx_ll_rtc.h **** 
 123:Drivers/STM32L0xx_HAL_Driver/Inc/stm32l0xx_ll_rtc.h ****   uint8_t Minutes;     /*!< Specifies the RTC Time Minutes.
 124:Drivers/STM32L0xx_HAL_Driver/Inc/stm32l0xx_ll_rtc.h ****                             This parameter must be a number between Min_Data = 0 and Max_Data = 59
 125:Drivers/STM32L0xx_HAL_Driver/Inc/stm32l0xx_ll_rtc.h **** 
 126:Drivers/STM32L0xx_HAL_Driver/Inc/stm32l0xx_ll_rtc.h ****                             This feature can be modified afterwards using unitary function @ref LL_
 127:Drivers/STM32L0xx_HAL_Driver/Inc/stm32l0xx_ll_rtc.h **** 
 128:Drivers/STM32L0xx_HAL_Driver/Inc/stm32l0xx_ll_rtc.h ****   uint8_t Seconds;     /*!< Specifies the RTC Time Seconds.
 129:Drivers/STM32L0xx_HAL_Driver/Inc/stm32l0xx_ll_rtc.h ****                             This parameter must be a number between Min_Data = 0 and Max_Data = 59
 130:Drivers/STM32L0xx_HAL_Driver/Inc/stm32l0xx_ll_rtc.h **** 
 131:Drivers/STM32L0xx_HAL_Driver/Inc/stm32l0xx_ll_rtc.h ****                             This feature can be modified afterwards using unitary function @ref LL_
 132:Drivers/STM32L0xx_HAL_Driver/Inc/stm32l0xx_ll_rtc.h **** } LL_RTC_TimeTypeDef;
 133:Drivers/STM32L0xx_HAL_Driver/Inc/stm32l0xx_ll_rtc.h **** 
 134:Drivers/STM32L0xx_HAL_Driver/Inc/stm32l0xx_ll_rtc.h **** /**
 135:Drivers/STM32L0xx_HAL_Driver/Inc/stm32l0xx_ll_rtc.h ****   * @brief  RTC Date structure definition
 136:Drivers/STM32L0xx_HAL_Driver/Inc/stm32l0xx_ll_rtc.h ****   */
 137:Drivers/STM32L0xx_HAL_Driver/Inc/stm32l0xx_ll_rtc.h **** typedef struct
 138:Drivers/STM32L0xx_HAL_Driver/Inc/stm32l0xx_ll_rtc.h **** {
 139:Drivers/STM32L0xx_HAL_Driver/Inc/stm32l0xx_ll_rtc.h ****   uint8_t WeekDay;  /*!< Specifies the RTC Date WeekDay.
 140:Drivers/STM32L0xx_HAL_Driver/Inc/stm32l0xx_ll_rtc.h ****                          This parameter can be a value of @ref RTC_LL_EC_WEEKDAY
 141:Drivers/STM32L0xx_HAL_Driver/Inc/stm32l0xx_ll_rtc.h **** 
 142:Drivers/STM32L0xx_HAL_Driver/Inc/stm32l0xx_ll_rtc.h ****                          This feature can be modified afterwards using unitary function @ref LL_RTC
 143:Drivers/STM32L0xx_HAL_Driver/Inc/stm32l0xx_ll_rtc.h **** 
 144:Drivers/STM32L0xx_HAL_Driver/Inc/stm32l0xx_ll_rtc.h ****   uint8_t Month;    /*!< Specifies the RTC Date Month.
 145:Drivers/STM32L0xx_HAL_Driver/Inc/stm32l0xx_ll_rtc.h ****                          This parameter can be a value of @ref RTC_LL_EC_MONTH
 146:Drivers/STM32L0xx_HAL_Driver/Inc/stm32l0xx_ll_rtc.h **** 
 147:Drivers/STM32L0xx_HAL_Driver/Inc/stm32l0xx_ll_rtc.h ****                          This feature can be modified afterwards using unitary function @ref LL_RTC
 148:Drivers/STM32L0xx_HAL_Driver/Inc/stm32l0xx_ll_rtc.h **** 
 149:Drivers/STM32L0xx_HAL_Driver/Inc/stm32l0xx_ll_rtc.h ****   uint8_t Day;      /*!< Specifies the RTC Date Day.
ARM GAS  /tmp/ccJpVmYc.s 			page 15


 150:Drivers/STM32L0xx_HAL_Driver/Inc/stm32l0xx_ll_rtc.h ****                          This parameter must be a number between Min_Data = 1 and Max_Data = 31
 151:Drivers/STM32L0xx_HAL_Driver/Inc/stm32l0xx_ll_rtc.h **** 
 152:Drivers/STM32L0xx_HAL_Driver/Inc/stm32l0xx_ll_rtc.h ****                          This feature can be modified afterwards using unitary function @ref LL_RTC
 153:Drivers/STM32L0xx_HAL_Driver/Inc/stm32l0xx_ll_rtc.h **** 
 154:Drivers/STM32L0xx_HAL_Driver/Inc/stm32l0xx_ll_rtc.h ****   uint8_t Year;     /*!< Specifies the RTC Date Year.
 155:Drivers/STM32L0xx_HAL_Driver/Inc/stm32l0xx_ll_rtc.h ****                          This parameter must be a number between Min_Data = 0 and Max_Data = 99
 156:Drivers/STM32L0xx_HAL_Driver/Inc/stm32l0xx_ll_rtc.h **** 
 157:Drivers/STM32L0xx_HAL_Driver/Inc/stm32l0xx_ll_rtc.h ****                          This feature can be modified afterwards using unitary function @ref LL_RTC
 158:Drivers/STM32L0xx_HAL_Driver/Inc/stm32l0xx_ll_rtc.h **** } LL_RTC_DateTypeDef;
 159:Drivers/STM32L0xx_HAL_Driver/Inc/stm32l0xx_ll_rtc.h **** 
 160:Drivers/STM32L0xx_HAL_Driver/Inc/stm32l0xx_ll_rtc.h **** /**
 161:Drivers/STM32L0xx_HAL_Driver/Inc/stm32l0xx_ll_rtc.h ****   * @brief  RTC Alarm structure definition
 162:Drivers/STM32L0xx_HAL_Driver/Inc/stm32l0xx_ll_rtc.h ****   */
 163:Drivers/STM32L0xx_HAL_Driver/Inc/stm32l0xx_ll_rtc.h **** typedef struct
 164:Drivers/STM32L0xx_HAL_Driver/Inc/stm32l0xx_ll_rtc.h **** {
 165:Drivers/STM32L0xx_HAL_Driver/Inc/stm32l0xx_ll_rtc.h ****   LL_RTC_TimeTypeDef AlarmTime;  /*!< Specifies the RTC Alarm Time members. */
 166:Drivers/STM32L0xx_HAL_Driver/Inc/stm32l0xx_ll_rtc.h **** 
 167:Drivers/STM32L0xx_HAL_Driver/Inc/stm32l0xx_ll_rtc.h ****   uint32_t AlarmMask;            /*!< Specifies the RTC Alarm Masks.
 168:Drivers/STM32L0xx_HAL_Driver/Inc/stm32l0xx_ll_rtc.h ****                                       This parameter can be a value of @ref RTC_LL_EC_ALMA_MASK for
 169:Drivers/STM32L0xx_HAL_Driver/Inc/stm32l0xx_ll_rtc.h **** 
 170:Drivers/STM32L0xx_HAL_Driver/Inc/stm32l0xx_ll_rtc.h ****                                       This feature can be modified afterwards using unitary functio
 171:Drivers/STM32L0xx_HAL_Driver/Inc/stm32l0xx_ll_rtc.h ****                                       or @ref LL_RTC_ALMB_SetMask() for ALARM B
 172:Drivers/STM32L0xx_HAL_Driver/Inc/stm32l0xx_ll_rtc.h ****                                  */
 173:Drivers/STM32L0xx_HAL_Driver/Inc/stm32l0xx_ll_rtc.h **** 
 174:Drivers/STM32L0xx_HAL_Driver/Inc/stm32l0xx_ll_rtc.h ****   uint32_t AlarmDateWeekDaySel;  /*!< Specifies the RTC Alarm is on day or WeekDay.
 175:Drivers/STM32L0xx_HAL_Driver/Inc/stm32l0xx_ll_rtc.h ****                                       This parameter can be a value of @ref RTC_LL_EC_ALMA_WEEKDAY_
 176:Drivers/STM32L0xx_HAL_Driver/Inc/stm32l0xx_ll_rtc.h **** 
 177:Drivers/STM32L0xx_HAL_Driver/Inc/stm32l0xx_ll_rtc.h ****                                       This feature can be modified afterwards using unitary functio
 178:Drivers/STM32L0xx_HAL_Driver/Inc/stm32l0xx_ll_rtc.h ****                                       for ALARM A or @ref LL_RTC_ALMB_EnableWeekday() or @ref LL_RT
 179:Drivers/STM32L0xx_HAL_Driver/Inc/stm32l0xx_ll_rtc.h ****                                  */
 180:Drivers/STM32L0xx_HAL_Driver/Inc/stm32l0xx_ll_rtc.h **** 
 181:Drivers/STM32L0xx_HAL_Driver/Inc/stm32l0xx_ll_rtc.h ****   uint8_t AlarmDateWeekDay;      /*!< Specifies the RTC Alarm Day/WeekDay.
 182:Drivers/STM32L0xx_HAL_Driver/Inc/stm32l0xx_ll_rtc.h ****                                       If AlarmDateWeekDaySel set to day, this parameter  must be a 
 183:Drivers/STM32L0xx_HAL_Driver/Inc/stm32l0xx_ll_rtc.h **** 
 184:Drivers/STM32L0xx_HAL_Driver/Inc/stm32l0xx_ll_rtc.h ****                                       This feature can be modified afterwards using unitary functio
 185:Drivers/STM32L0xx_HAL_Driver/Inc/stm32l0xx_ll_rtc.h ****                                       for ALARM A or @ref LL_RTC_ALMB_SetDay() for ALARM B.
 186:Drivers/STM32L0xx_HAL_Driver/Inc/stm32l0xx_ll_rtc.h **** 
 187:Drivers/STM32L0xx_HAL_Driver/Inc/stm32l0xx_ll_rtc.h ****                                       If AlarmDateWeekDaySel set to Weekday, this parameter can be 
 188:Drivers/STM32L0xx_HAL_Driver/Inc/stm32l0xx_ll_rtc.h **** 
 189:Drivers/STM32L0xx_HAL_Driver/Inc/stm32l0xx_ll_rtc.h ****                                       This feature can be modified afterwards using unitary functio
 190:Drivers/STM32L0xx_HAL_Driver/Inc/stm32l0xx_ll_rtc.h ****                                       for ALARM A or @ref LL_RTC_ALMB_SetWeekDay() for ALARM B.
 191:Drivers/STM32L0xx_HAL_Driver/Inc/stm32l0xx_ll_rtc.h ****                                  */
 192:Drivers/STM32L0xx_HAL_Driver/Inc/stm32l0xx_ll_rtc.h **** } LL_RTC_AlarmTypeDef;
 193:Drivers/STM32L0xx_HAL_Driver/Inc/stm32l0xx_ll_rtc.h **** 
 194:Drivers/STM32L0xx_HAL_Driver/Inc/stm32l0xx_ll_rtc.h **** /**
 195:Drivers/STM32L0xx_HAL_Driver/Inc/stm32l0xx_ll_rtc.h ****   * @}
 196:Drivers/STM32L0xx_HAL_Driver/Inc/stm32l0xx_ll_rtc.h ****   */
 197:Drivers/STM32L0xx_HAL_Driver/Inc/stm32l0xx_ll_rtc.h **** #endif /* USE_FULL_LL_DRIVER */
 198:Drivers/STM32L0xx_HAL_Driver/Inc/stm32l0xx_ll_rtc.h **** 
 199:Drivers/STM32L0xx_HAL_Driver/Inc/stm32l0xx_ll_rtc.h **** /* Exported constants --------------------------------------------------------*/
 200:Drivers/STM32L0xx_HAL_Driver/Inc/stm32l0xx_ll_rtc.h **** /** @defgroup RTC_LL_Exported_Constants RTC Exported Constants
 201:Drivers/STM32L0xx_HAL_Driver/Inc/stm32l0xx_ll_rtc.h ****   * @{
 202:Drivers/STM32L0xx_HAL_Driver/Inc/stm32l0xx_ll_rtc.h ****   */
 203:Drivers/STM32L0xx_HAL_Driver/Inc/stm32l0xx_ll_rtc.h **** 
 204:Drivers/STM32L0xx_HAL_Driver/Inc/stm32l0xx_ll_rtc.h **** #if defined(USE_FULL_LL_DRIVER)
 205:Drivers/STM32L0xx_HAL_Driver/Inc/stm32l0xx_ll_rtc.h **** /** @defgroup RTC_LL_EC_FORMAT FORMAT
 206:Drivers/STM32L0xx_HAL_Driver/Inc/stm32l0xx_ll_rtc.h ****   * @{
ARM GAS  /tmp/ccJpVmYc.s 			page 16


 207:Drivers/STM32L0xx_HAL_Driver/Inc/stm32l0xx_ll_rtc.h ****   */
 208:Drivers/STM32L0xx_HAL_Driver/Inc/stm32l0xx_ll_rtc.h **** #define LL_RTC_FORMAT_BIN                  0x000000000U /*!< Binary data format */
 209:Drivers/STM32L0xx_HAL_Driver/Inc/stm32l0xx_ll_rtc.h **** #define LL_RTC_FORMAT_BCD                  0x000000001U /*!< BCD data format */
 210:Drivers/STM32L0xx_HAL_Driver/Inc/stm32l0xx_ll_rtc.h **** /**
 211:Drivers/STM32L0xx_HAL_Driver/Inc/stm32l0xx_ll_rtc.h ****   * @}
 212:Drivers/STM32L0xx_HAL_Driver/Inc/stm32l0xx_ll_rtc.h ****   */
 213:Drivers/STM32L0xx_HAL_Driver/Inc/stm32l0xx_ll_rtc.h **** 
 214:Drivers/STM32L0xx_HAL_Driver/Inc/stm32l0xx_ll_rtc.h **** /** @defgroup RTC_LL_EC_ALMA_WEEKDAY_SELECTION RTC Alarm A Date WeekDay
 215:Drivers/STM32L0xx_HAL_Driver/Inc/stm32l0xx_ll_rtc.h ****   * @{
 216:Drivers/STM32L0xx_HAL_Driver/Inc/stm32l0xx_ll_rtc.h ****   */
 217:Drivers/STM32L0xx_HAL_Driver/Inc/stm32l0xx_ll_rtc.h **** #define LL_RTC_ALMA_DATEWEEKDAYSEL_DATE    0x00000000U             /*!< Alarm A Date is selected */
 218:Drivers/STM32L0xx_HAL_Driver/Inc/stm32l0xx_ll_rtc.h **** #define LL_RTC_ALMA_DATEWEEKDAYSEL_WEEKDAY RTC_ALRMAR_WDSEL        /*!< Alarm A WeekDay is selected
 219:Drivers/STM32L0xx_HAL_Driver/Inc/stm32l0xx_ll_rtc.h **** /**
 220:Drivers/STM32L0xx_HAL_Driver/Inc/stm32l0xx_ll_rtc.h ****   * @}
 221:Drivers/STM32L0xx_HAL_Driver/Inc/stm32l0xx_ll_rtc.h ****   */
 222:Drivers/STM32L0xx_HAL_Driver/Inc/stm32l0xx_ll_rtc.h **** 
 223:Drivers/STM32L0xx_HAL_Driver/Inc/stm32l0xx_ll_rtc.h **** /** @defgroup RTC_LL_EC_ALMB_WEEKDAY_SELECTION RTC Alarm B Date WeekDay
 224:Drivers/STM32L0xx_HAL_Driver/Inc/stm32l0xx_ll_rtc.h ****   * @{
 225:Drivers/STM32L0xx_HAL_Driver/Inc/stm32l0xx_ll_rtc.h ****   */
 226:Drivers/STM32L0xx_HAL_Driver/Inc/stm32l0xx_ll_rtc.h **** #define LL_RTC_ALMB_DATEWEEKDAYSEL_DATE    0x00000000U             /*!< Alarm B Date is selected */
 227:Drivers/STM32L0xx_HAL_Driver/Inc/stm32l0xx_ll_rtc.h **** #define LL_RTC_ALMB_DATEWEEKDAYSEL_WEEKDAY RTC_ALRMBR_WDSEL        /*!< Alarm B WeekDay is selected
 228:Drivers/STM32L0xx_HAL_Driver/Inc/stm32l0xx_ll_rtc.h **** /**
 229:Drivers/STM32L0xx_HAL_Driver/Inc/stm32l0xx_ll_rtc.h ****   * @}
 230:Drivers/STM32L0xx_HAL_Driver/Inc/stm32l0xx_ll_rtc.h ****   */
 231:Drivers/STM32L0xx_HAL_Driver/Inc/stm32l0xx_ll_rtc.h **** 
 232:Drivers/STM32L0xx_HAL_Driver/Inc/stm32l0xx_ll_rtc.h **** #endif /* USE_FULL_LL_DRIVER */
 233:Drivers/STM32L0xx_HAL_Driver/Inc/stm32l0xx_ll_rtc.h **** 
 234:Drivers/STM32L0xx_HAL_Driver/Inc/stm32l0xx_ll_rtc.h **** /** @defgroup RTC_LL_EC_GET_FLAG Get Flags Defines
 235:Drivers/STM32L0xx_HAL_Driver/Inc/stm32l0xx_ll_rtc.h ****   * @brief    Flags defines which can be used with LL_RTC_ReadReg function
 236:Drivers/STM32L0xx_HAL_Driver/Inc/stm32l0xx_ll_rtc.h ****   * @{
 237:Drivers/STM32L0xx_HAL_Driver/Inc/stm32l0xx_ll_rtc.h ****   */
 238:Drivers/STM32L0xx_HAL_Driver/Inc/stm32l0xx_ll_rtc.h **** #define LL_RTC_ISR_ITSF                    RTC_ISR_ITSF
 239:Drivers/STM32L0xx_HAL_Driver/Inc/stm32l0xx_ll_rtc.h **** #define LL_RTC_ISR_RECALPF                 RTC_ISR_RECALPF
 240:Drivers/STM32L0xx_HAL_Driver/Inc/stm32l0xx_ll_rtc.h **** #define LL_RTC_ISR_TAMP3F                  RTC_ISR_TAMP3F
 241:Drivers/STM32L0xx_HAL_Driver/Inc/stm32l0xx_ll_rtc.h **** #define LL_RTC_ISR_TAMP2F                  RTC_ISR_TAMP2F
 242:Drivers/STM32L0xx_HAL_Driver/Inc/stm32l0xx_ll_rtc.h **** #define LL_RTC_ISR_TAMP1F                  RTC_ISR_TAMP1F
 243:Drivers/STM32L0xx_HAL_Driver/Inc/stm32l0xx_ll_rtc.h **** #define LL_RTC_ISR_TSOVF                   RTC_ISR_TSOVF
 244:Drivers/STM32L0xx_HAL_Driver/Inc/stm32l0xx_ll_rtc.h **** #define LL_RTC_ISR_TSF                     RTC_ISR_TSF
 245:Drivers/STM32L0xx_HAL_Driver/Inc/stm32l0xx_ll_rtc.h **** #define LL_RTC_ISR_WUTF                    RTC_ISR_WUTF
 246:Drivers/STM32L0xx_HAL_Driver/Inc/stm32l0xx_ll_rtc.h **** #define LL_RTC_ISR_ALRBF                   RTC_ISR_ALRBF
 247:Drivers/STM32L0xx_HAL_Driver/Inc/stm32l0xx_ll_rtc.h **** #define LL_RTC_ISR_ALRAF                   RTC_ISR_ALRAF
 248:Drivers/STM32L0xx_HAL_Driver/Inc/stm32l0xx_ll_rtc.h **** #define LL_RTC_ISR_INITF                   RTC_ISR_INITF
 249:Drivers/STM32L0xx_HAL_Driver/Inc/stm32l0xx_ll_rtc.h **** #define LL_RTC_ISR_RSF                     RTC_ISR_RSF
 250:Drivers/STM32L0xx_HAL_Driver/Inc/stm32l0xx_ll_rtc.h **** #define LL_RTC_ISR_INITS                   RTC_ISR_INITS
 251:Drivers/STM32L0xx_HAL_Driver/Inc/stm32l0xx_ll_rtc.h **** #define LL_RTC_ISR_SHPF                    RTC_ISR_SHPF
 252:Drivers/STM32L0xx_HAL_Driver/Inc/stm32l0xx_ll_rtc.h **** #define LL_RTC_ISR_WUTWF                   RTC_ISR_WUTWF
 253:Drivers/STM32L0xx_HAL_Driver/Inc/stm32l0xx_ll_rtc.h **** #define LL_RTC_ISR_ALRBWF                  RTC_ISR_ALRBWF
 254:Drivers/STM32L0xx_HAL_Driver/Inc/stm32l0xx_ll_rtc.h **** #define LL_RTC_ISR_ALRAWF                  RTC_ISR_ALRAWF
 255:Drivers/STM32L0xx_HAL_Driver/Inc/stm32l0xx_ll_rtc.h **** /**
 256:Drivers/STM32L0xx_HAL_Driver/Inc/stm32l0xx_ll_rtc.h ****   * @}
 257:Drivers/STM32L0xx_HAL_Driver/Inc/stm32l0xx_ll_rtc.h ****   */
 258:Drivers/STM32L0xx_HAL_Driver/Inc/stm32l0xx_ll_rtc.h **** 
 259:Drivers/STM32L0xx_HAL_Driver/Inc/stm32l0xx_ll_rtc.h **** /** @defgroup RTC_LL_EC_IT IT Defines
 260:Drivers/STM32L0xx_HAL_Driver/Inc/stm32l0xx_ll_rtc.h ****   * @brief    IT defines which can be used with LL_RTC_ReadReg and  LL_RTC_WriteReg functions
 261:Drivers/STM32L0xx_HAL_Driver/Inc/stm32l0xx_ll_rtc.h ****   * @{
 262:Drivers/STM32L0xx_HAL_Driver/Inc/stm32l0xx_ll_rtc.h ****   */
 263:Drivers/STM32L0xx_HAL_Driver/Inc/stm32l0xx_ll_rtc.h **** #define LL_RTC_CR_TSIE                     RTC_CR_TSIE
ARM GAS  /tmp/ccJpVmYc.s 			page 17


 264:Drivers/STM32L0xx_HAL_Driver/Inc/stm32l0xx_ll_rtc.h **** #define LL_RTC_CR_WUTIE                    RTC_CR_WUTIE
 265:Drivers/STM32L0xx_HAL_Driver/Inc/stm32l0xx_ll_rtc.h **** #define LL_RTC_CR_ALRBIE                   RTC_CR_ALRBIE
 266:Drivers/STM32L0xx_HAL_Driver/Inc/stm32l0xx_ll_rtc.h **** #define LL_RTC_CR_ALRAIE                   RTC_CR_ALRAIE
 267:Drivers/STM32L0xx_HAL_Driver/Inc/stm32l0xx_ll_rtc.h **** #define LL_RTC_TAMPCR_TAMP3IE              RTC_TAMPCR_TAMP3IE
 268:Drivers/STM32L0xx_HAL_Driver/Inc/stm32l0xx_ll_rtc.h **** #define LL_RTC_TAMPCR_TAMP2IE              RTC_TAMPCR_TAMP2IE
 269:Drivers/STM32L0xx_HAL_Driver/Inc/stm32l0xx_ll_rtc.h **** #define LL_RTC_TAMPCR_TAMP1IE              RTC_TAMPCR_TAMP1IE
 270:Drivers/STM32L0xx_HAL_Driver/Inc/stm32l0xx_ll_rtc.h **** #define LL_RTC_TAMPCR_TAMPIE               RTC_TAMPCR_TAMPIE
 271:Drivers/STM32L0xx_HAL_Driver/Inc/stm32l0xx_ll_rtc.h **** /**
 272:Drivers/STM32L0xx_HAL_Driver/Inc/stm32l0xx_ll_rtc.h ****   * @}
 273:Drivers/STM32L0xx_HAL_Driver/Inc/stm32l0xx_ll_rtc.h ****   */
 274:Drivers/STM32L0xx_HAL_Driver/Inc/stm32l0xx_ll_rtc.h **** 
 275:Drivers/STM32L0xx_HAL_Driver/Inc/stm32l0xx_ll_rtc.h **** /** @defgroup RTC_LL_EC_WEEKDAY  WEEK DAY
 276:Drivers/STM32L0xx_HAL_Driver/Inc/stm32l0xx_ll_rtc.h ****   * @{
 277:Drivers/STM32L0xx_HAL_Driver/Inc/stm32l0xx_ll_rtc.h ****   */
 278:Drivers/STM32L0xx_HAL_Driver/Inc/stm32l0xx_ll_rtc.h **** #define LL_RTC_WEEKDAY_MONDAY              ((uint8_t)0x01U) /*!< Monday    */
 279:Drivers/STM32L0xx_HAL_Driver/Inc/stm32l0xx_ll_rtc.h **** #define LL_RTC_WEEKDAY_TUESDAY             ((uint8_t)0x02U) /*!< Tuesday   */
 280:Drivers/STM32L0xx_HAL_Driver/Inc/stm32l0xx_ll_rtc.h **** #define LL_RTC_WEEKDAY_WEDNESDAY           ((uint8_t)0x03U) /*!< Wednesday */
 281:Drivers/STM32L0xx_HAL_Driver/Inc/stm32l0xx_ll_rtc.h **** #define LL_RTC_WEEKDAY_THURSDAY            ((uint8_t)0x04U) /*!< Thrusday  */
 282:Drivers/STM32L0xx_HAL_Driver/Inc/stm32l0xx_ll_rtc.h **** #define LL_RTC_WEEKDAY_FRIDAY              ((uint8_t)0x05U) /*!< Friday    */
 283:Drivers/STM32L0xx_HAL_Driver/Inc/stm32l0xx_ll_rtc.h **** #define LL_RTC_WEEKDAY_SATURDAY            ((uint8_t)0x06U) /*!< Saturday  */
 284:Drivers/STM32L0xx_HAL_Driver/Inc/stm32l0xx_ll_rtc.h **** #define LL_RTC_WEEKDAY_SUNDAY              ((uint8_t)0x07U) /*!< Sunday    */
 285:Drivers/STM32L0xx_HAL_Driver/Inc/stm32l0xx_ll_rtc.h **** /**
 286:Drivers/STM32L0xx_HAL_Driver/Inc/stm32l0xx_ll_rtc.h ****   * @}
 287:Drivers/STM32L0xx_HAL_Driver/Inc/stm32l0xx_ll_rtc.h ****   */
 288:Drivers/STM32L0xx_HAL_Driver/Inc/stm32l0xx_ll_rtc.h **** 
 289:Drivers/STM32L0xx_HAL_Driver/Inc/stm32l0xx_ll_rtc.h **** /** @defgroup RTC_LL_EC_MONTH  MONTH
 290:Drivers/STM32L0xx_HAL_Driver/Inc/stm32l0xx_ll_rtc.h ****   * @{
 291:Drivers/STM32L0xx_HAL_Driver/Inc/stm32l0xx_ll_rtc.h ****   */
 292:Drivers/STM32L0xx_HAL_Driver/Inc/stm32l0xx_ll_rtc.h **** #define LL_RTC_MONTH_JANUARY               ((uint8_t)0x01U)  /*!< January   */
 293:Drivers/STM32L0xx_HAL_Driver/Inc/stm32l0xx_ll_rtc.h **** #define LL_RTC_MONTH_FEBRUARY              ((uint8_t)0x02U)  /*!< February  */
 294:Drivers/STM32L0xx_HAL_Driver/Inc/stm32l0xx_ll_rtc.h **** #define LL_RTC_MONTH_MARCH                 ((uint8_t)0x03U)  /*!< March     */
 295:Drivers/STM32L0xx_HAL_Driver/Inc/stm32l0xx_ll_rtc.h **** #define LL_RTC_MONTH_APRIL                 ((uint8_t)0x04U)  /*!< April     */
 296:Drivers/STM32L0xx_HAL_Driver/Inc/stm32l0xx_ll_rtc.h **** #define LL_RTC_MONTH_MAY                   ((uint8_t)0x05U)  /*!< May       */
 297:Drivers/STM32L0xx_HAL_Driver/Inc/stm32l0xx_ll_rtc.h **** #define LL_RTC_MONTH_JUNE                  ((uint8_t)0x06U)  /*!< June      */
 298:Drivers/STM32L0xx_HAL_Driver/Inc/stm32l0xx_ll_rtc.h **** #define LL_RTC_MONTH_JULY                  ((uint8_t)0x07U)  /*!< July      */
 299:Drivers/STM32L0xx_HAL_Driver/Inc/stm32l0xx_ll_rtc.h **** #define LL_RTC_MONTH_AUGUST                ((uint8_t)0x08U)  /*!< August    */
 300:Drivers/STM32L0xx_HAL_Driver/Inc/stm32l0xx_ll_rtc.h **** #define LL_RTC_MONTH_SEPTEMBER             ((uint8_t)0x09U)  /*!< September */
 301:Drivers/STM32L0xx_HAL_Driver/Inc/stm32l0xx_ll_rtc.h **** #define LL_RTC_MONTH_OCTOBER               ((uint8_t)0x10U)  /*!< October   */
 302:Drivers/STM32L0xx_HAL_Driver/Inc/stm32l0xx_ll_rtc.h **** #define LL_RTC_MONTH_NOVEMBER              ((uint8_t)0x11U)  /*!< November  */
 303:Drivers/STM32L0xx_HAL_Driver/Inc/stm32l0xx_ll_rtc.h **** #define LL_RTC_MONTH_DECEMBER              ((uint8_t)0x12U)  /*!< December  */
 304:Drivers/STM32L0xx_HAL_Driver/Inc/stm32l0xx_ll_rtc.h **** /**
 305:Drivers/STM32L0xx_HAL_Driver/Inc/stm32l0xx_ll_rtc.h ****   * @}
 306:Drivers/STM32L0xx_HAL_Driver/Inc/stm32l0xx_ll_rtc.h ****   */
 307:Drivers/STM32L0xx_HAL_Driver/Inc/stm32l0xx_ll_rtc.h **** 
 308:Drivers/STM32L0xx_HAL_Driver/Inc/stm32l0xx_ll_rtc.h **** /** @defgroup RTC_LL_EC_HOURFORMAT  HOUR FORMAT
 309:Drivers/STM32L0xx_HAL_Driver/Inc/stm32l0xx_ll_rtc.h ****   * @{
 310:Drivers/STM32L0xx_HAL_Driver/Inc/stm32l0xx_ll_rtc.h ****   */
 311:Drivers/STM32L0xx_HAL_Driver/Inc/stm32l0xx_ll_rtc.h **** #define LL_RTC_HOURFORMAT_24HOUR           0x00000000U           /*!< 24 hour/day format */
 312:Drivers/STM32L0xx_HAL_Driver/Inc/stm32l0xx_ll_rtc.h **** #define LL_RTC_HOURFORMAT_AMPM             RTC_CR_FMT            /*!< AM/PM hour format */
 313:Drivers/STM32L0xx_HAL_Driver/Inc/stm32l0xx_ll_rtc.h **** /**
 314:Drivers/STM32L0xx_HAL_Driver/Inc/stm32l0xx_ll_rtc.h ****   * @}
 315:Drivers/STM32L0xx_HAL_Driver/Inc/stm32l0xx_ll_rtc.h ****   */
 316:Drivers/STM32L0xx_HAL_Driver/Inc/stm32l0xx_ll_rtc.h **** 
 317:Drivers/STM32L0xx_HAL_Driver/Inc/stm32l0xx_ll_rtc.h **** /** @defgroup RTC_LL_EC_ALARMOUT  ALARM OUTPUT
 318:Drivers/STM32L0xx_HAL_Driver/Inc/stm32l0xx_ll_rtc.h ****   * @{
 319:Drivers/STM32L0xx_HAL_Driver/Inc/stm32l0xx_ll_rtc.h ****   */
 320:Drivers/STM32L0xx_HAL_Driver/Inc/stm32l0xx_ll_rtc.h **** #define LL_RTC_ALARMOUT_DISABLE            0x00000000U             /*!< Output disabled */
ARM GAS  /tmp/ccJpVmYc.s 			page 18


 321:Drivers/STM32L0xx_HAL_Driver/Inc/stm32l0xx_ll_rtc.h **** #define LL_RTC_ALARMOUT_ALMA               RTC_CR_OSEL_0           /*!< Alarm A output enabled */
 322:Drivers/STM32L0xx_HAL_Driver/Inc/stm32l0xx_ll_rtc.h **** #define LL_RTC_ALARMOUT_ALMB               RTC_CR_OSEL_1           /*!< Alarm B output enabled */
 323:Drivers/STM32L0xx_HAL_Driver/Inc/stm32l0xx_ll_rtc.h **** #define LL_RTC_ALARMOUT_WAKEUP             RTC_CR_OSEL             /*!< Wakeup output enabled */
 324:Drivers/STM32L0xx_HAL_Driver/Inc/stm32l0xx_ll_rtc.h **** /**
 325:Drivers/STM32L0xx_HAL_Driver/Inc/stm32l0xx_ll_rtc.h ****   * @}
 326:Drivers/STM32L0xx_HAL_Driver/Inc/stm32l0xx_ll_rtc.h ****   */
 327:Drivers/STM32L0xx_HAL_Driver/Inc/stm32l0xx_ll_rtc.h **** 
 328:Drivers/STM32L0xx_HAL_Driver/Inc/stm32l0xx_ll_rtc.h **** /** @defgroup RTC_LL_EC_ALARM_OUTPUTTYPE  ALARM OUTPUT TYPE
 329:Drivers/STM32L0xx_HAL_Driver/Inc/stm32l0xx_ll_rtc.h ****   * @{
 330:Drivers/STM32L0xx_HAL_Driver/Inc/stm32l0xx_ll_rtc.h ****   */
 331:Drivers/STM32L0xx_HAL_Driver/Inc/stm32l0xx_ll_rtc.h **** #define LL_RTC_ALARM_OUTPUTTYPE_OPENDRAIN  0x00000000U                          /*!< RTC_ALARM, whe
 332:Drivers/STM32L0xx_HAL_Driver/Inc/stm32l0xx_ll_rtc.h **** #define LL_RTC_ALARM_OUTPUTTYPE_PUSHPULL   RTC_OR_ALARMOUTTYPE /*!< RTC_ALARM, when mapped on PC13,
 333:Drivers/STM32L0xx_HAL_Driver/Inc/stm32l0xx_ll_rtc.h **** /**
 334:Drivers/STM32L0xx_HAL_Driver/Inc/stm32l0xx_ll_rtc.h ****   * @}
 335:Drivers/STM32L0xx_HAL_Driver/Inc/stm32l0xx_ll_rtc.h ****   */
 336:Drivers/STM32L0xx_HAL_Driver/Inc/stm32l0xx_ll_rtc.h **** 
 337:Drivers/STM32L0xx_HAL_Driver/Inc/stm32l0xx_ll_rtc.h **** /** @defgroup RTC_LL_EC_OUTPUTPOLARITY_PIN  OUTPUT POLARITY PIN
 338:Drivers/STM32L0xx_HAL_Driver/Inc/stm32l0xx_ll_rtc.h ****   * @{
 339:Drivers/STM32L0xx_HAL_Driver/Inc/stm32l0xx_ll_rtc.h ****   */
 340:Drivers/STM32L0xx_HAL_Driver/Inc/stm32l0xx_ll_rtc.h **** #define LL_RTC_OUTPUTPOLARITY_PIN_HIGH     0x00000000U           /*!< Pin is high when ALRAF/ALRBF/
 341:Drivers/STM32L0xx_HAL_Driver/Inc/stm32l0xx_ll_rtc.h **** #define LL_RTC_OUTPUTPOLARITY_PIN_LOW      RTC_CR_POL            /*!< Pin is low when ALRAF/ALRBF/W
 342:Drivers/STM32L0xx_HAL_Driver/Inc/stm32l0xx_ll_rtc.h **** /**
 343:Drivers/STM32L0xx_HAL_Driver/Inc/stm32l0xx_ll_rtc.h ****   * @}
 344:Drivers/STM32L0xx_HAL_Driver/Inc/stm32l0xx_ll_rtc.h ****   */
 345:Drivers/STM32L0xx_HAL_Driver/Inc/stm32l0xx_ll_rtc.h **** 
 346:Drivers/STM32L0xx_HAL_Driver/Inc/stm32l0xx_ll_rtc.h **** /** @defgroup RTC_LL_EC_TIME_FORMAT TIME FORMAT
 347:Drivers/STM32L0xx_HAL_Driver/Inc/stm32l0xx_ll_rtc.h ****   * @{
 348:Drivers/STM32L0xx_HAL_Driver/Inc/stm32l0xx_ll_rtc.h ****   */
 349:Drivers/STM32L0xx_HAL_Driver/Inc/stm32l0xx_ll_rtc.h **** #define LL_RTC_TIME_FORMAT_AM_OR_24        0x00000000U           /*!< AM or 24-hour format */
 350:Drivers/STM32L0xx_HAL_Driver/Inc/stm32l0xx_ll_rtc.h **** #define LL_RTC_TIME_FORMAT_PM              RTC_TR_PM             /*!< PM */
 351:Drivers/STM32L0xx_HAL_Driver/Inc/stm32l0xx_ll_rtc.h **** /**
 352:Drivers/STM32L0xx_HAL_Driver/Inc/stm32l0xx_ll_rtc.h ****   * @}
 353:Drivers/STM32L0xx_HAL_Driver/Inc/stm32l0xx_ll_rtc.h ****   */
 354:Drivers/STM32L0xx_HAL_Driver/Inc/stm32l0xx_ll_rtc.h **** 
 355:Drivers/STM32L0xx_HAL_Driver/Inc/stm32l0xx_ll_rtc.h **** /** @defgroup RTC_LL_EC_SHIFT_SECOND  SHIFT SECOND
 356:Drivers/STM32L0xx_HAL_Driver/Inc/stm32l0xx_ll_rtc.h ****   * @{
 357:Drivers/STM32L0xx_HAL_Driver/Inc/stm32l0xx_ll_rtc.h ****   */
 358:Drivers/STM32L0xx_HAL_Driver/Inc/stm32l0xx_ll_rtc.h **** #define LL_RTC_SHIFT_SECOND_DELAY          0x00000000U           /* Delay (seconds) = SUBFS / (PRED
 359:Drivers/STM32L0xx_HAL_Driver/Inc/stm32l0xx_ll_rtc.h **** #define LL_RTC_SHIFT_SECOND_ADVANCE        RTC_SHIFTR_ADD1S      /* Advance (seconds) = (1 - (SUBFS
 360:Drivers/STM32L0xx_HAL_Driver/Inc/stm32l0xx_ll_rtc.h **** /**
 361:Drivers/STM32L0xx_HAL_Driver/Inc/stm32l0xx_ll_rtc.h ****   * @}
 362:Drivers/STM32L0xx_HAL_Driver/Inc/stm32l0xx_ll_rtc.h ****   */
 363:Drivers/STM32L0xx_HAL_Driver/Inc/stm32l0xx_ll_rtc.h **** 
 364:Drivers/STM32L0xx_HAL_Driver/Inc/stm32l0xx_ll_rtc.h **** /** @defgroup RTC_LL_EC_ALMA_MASK  ALARMA MASK
 365:Drivers/STM32L0xx_HAL_Driver/Inc/stm32l0xx_ll_rtc.h ****   * @{
 366:Drivers/STM32L0xx_HAL_Driver/Inc/stm32l0xx_ll_rtc.h ****   */
 367:Drivers/STM32L0xx_HAL_Driver/Inc/stm32l0xx_ll_rtc.h **** #define LL_RTC_ALMA_MASK_NONE              0x00000000U             /*!< No masks applied on Alarm A
 368:Drivers/STM32L0xx_HAL_Driver/Inc/stm32l0xx_ll_rtc.h **** #define LL_RTC_ALMA_MASK_DATEWEEKDAY       RTC_ALRMAR_MSK4         /*!< Date/day do not care in Ala
 369:Drivers/STM32L0xx_HAL_Driver/Inc/stm32l0xx_ll_rtc.h **** #define LL_RTC_ALMA_MASK_HOURS             RTC_ALRMAR_MSK3         /*!< Hours do not care in Alarm 
 370:Drivers/STM32L0xx_HAL_Driver/Inc/stm32l0xx_ll_rtc.h **** #define LL_RTC_ALMA_MASK_MINUTES           RTC_ALRMAR_MSK2         /*!< Minutes do not care in Alar
 371:Drivers/STM32L0xx_HAL_Driver/Inc/stm32l0xx_ll_rtc.h **** #define LL_RTC_ALMA_MASK_SECONDS           RTC_ALRMAR_MSK1         /*!< Seconds do not care in Alar
 372:Drivers/STM32L0xx_HAL_Driver/Inc/stm32l0xx_ll_rtc.h **** #define LL_RTC_ALMA_MASK_ALL               (RTC_ALRMAR_MSK4 | RTC_ALRMAR_MSK3 | RTC_ALRMAR_MSK2 | R
 373:Drivers/STM32L0xx_HAL_Driver/Inc/stm32l0xx_ll_rtc.h **** /**
 374:Drivers/STM32L0xx_HAL_Driver/Inc/stm32l0xx_ll_rtc.h ****   * @}
 375:Drivers/STM32L0xx_HAL_Driver/Inc/stm32l0xx_ll_rtc.h ****   */
 376:Drivers/STM32L0xx_HAL_Driver/Inc/stm32l0xx_ll_rtc.h **** 
 377:Drivers/STM32L0xx_HAL_Driver/Inc/stm32l0xx_ll_rtc.h **** /** @defgroup RTC_LL_EC_ALMA_TIME_FORMAT  ALARMA TIME FORMAT
ARM GAS  /tmp/ccJpVmYc.s 			page 19


 378:Drivers/STM32L0xx_HAL_Driver/Inc/stm32l0xx_ll_rtc.h ****   * @{
 379:Drivers/STM32L0xx_HAL_Driver/Inc/stm32l0xx_ll_rtc.h ****   */
 380:Drivers/STM32L0xx_HAL_Driver/Inc/stm32l0xx_ll_rtc.h **** #define LL_RTC_ALMA_TIME_FORMAT_AM         0x00000000U           /*!< AM or 24-hour format */
 381:Drivers/STM32L0xx_HAL_Driver/Inc/stm32l0xx_ll_rtc.h **** #define LL_RTC_ALMA_TIME_FORMAT_PM         RTC_ALRMAR_PM         /*!< PM */
 382:Drivers/STM32L0xx_HAL_Driver/Inc/stm32l0xx_ll_rtc.h **** /**
 383:Drivers/STM32L0xx_HAL_Driver/Inc/stm32l0xx_ll_rtc.h ****   * @}
 384:Drivers/STM32L0xx_HAL_Driver/Inc/stm32l0xx_ll_rtc.h ****   */
 385:Drivers/STM32L0xx_HAL_Driver/Inc/stm32l0xx_ll_rtc.h **** 
 386:Drivers/STM32L0xx_HAL_Driver/Inc/stm32l0xx_ll_rtc.h **** /** @defgroup RTC_LL_EC_ALMB_MASK  ALARMB MASK
 387:Drivers/STM32L0xx_HAL_Driver/Inc/stm32l0xx_ll_rtc.h ****   * @{
 388:Drivers/STM32L0xx_HAL_Driver/Inc/stm32l0xx_ll_rtc.h ****   */
 389:Drivers/STM32L0xx_HAL_Driver/Inc/stm32l0xx_ll_rtc.h **** #define LL_RTC_ALMB_MASK_NONE              0x00000000U             /*!< No masks applied on Alarm B
 390:Drivers/STM32L0xx_HAL_Driver/Inc/stm32l0xx_ll_rtc.h **** #define LL_RTC_ALMB_MASK_DATEWEEKDAY       RTC_ALRMBR_MSK4         /*!< Date/day do not care in Ala
 391:Drivers/STM32L0xx_HAL_Driver/Inc/stm32l0xx_ll_rtc.h **** #define LL_RTC_ALMB_MASK_HOURS             RTC_ALRMBR_MSK3         /*!< Hours do not care in Alarm 
 392:Drivers/STM32L0xx_HAL_Driver/Inc/stm32l0xx_ll_rtc.h **** #define LL_RTC_ALMB_MASK_MINUTES           RTC_ALRMBR_MSK2         /*!< Minutes do not care in Alar
 393:Drivers/STM32L0xx_HAL_Driver/Inc/stm32l0xx_ll_rtc.h **** #define LL_RTC_ALMB_MASK_SECONDS           RTC_ALRMBR_MSK1         /*!< Seconds do not care in Alar
 394:Drivers/STM32L0xx_HAL_Driver/Inc/stm32l0xx_ll_rtc.h **** #define LL_RTC_ALMB_MASK_ALL               (RTC_ALRMBR_MSK4 | RTC_ALRMBR_MSK3 | RTC_ALRMBR_MSK2 | R
 395:Drivers/STM32L0xx_HAL_Driver/Inc/stm32l0xx_ll_rtc.h **** /**
 396:Drivers/STM32L0xx_HAL_Driver/Inc/stm32l0xx_ll_rtc.h ****   * @}
 397:Drivers/STM32L0xx_HAL_Driver/Inc/stm32l0xx_ll_rtc.h ****   */
 398:Drivers/STM32L0xx_HAL_Driver/Inc/stm32l0xx_ll_rtc.h **** 
 399:Drivers/STM32L0xx_HAL_Driver/Inc/stm32l0xx_ll_rtc.h **** /** @defgroup RTC_LL_EC_ALMB_TIME_FORMAT  ALARMB TIME FORMAT
 400:Drivers/STM32L0xx_HAL_Driver/Inc/stm32l0xx_ll_rtc.h ****   * @{
 401:Drivers/STM32L0xx_HAL_Driver/Inc/stm32l0xx_ll_rtc.h ****   */
 402:Drivers/STM32L0xx_HAL_Driver/Inc/stm32l0xx_ll_rtc.h **** #define LL_RTC_ALMB_TIME_FORMAT_AM         0x00000000U           /*!< AM or 24-hour format */
 403:Drivers/STM32L0xx_HAL_Driver/Inc/stm32l0xx_ll_rtc.h **** #define LL_RTC_ALMB_TIME_FORMAT_PM         RTC_ALRMBR_PM         /*!< PM */
 404:Drivers/STM32L0xx_HAL_Driver/Inc/stm32l0xx_ll_rtc.h **** /**
 405:Drivers/STM32L0xx_HAL_Driver/Inc/stm32l0xx_ll_rtc.h ****   * @}
 406:Drivers/STM32L0xx_HAL_Driver/Inc/stm32l0xx_ll_rtc.h ****   */
 407:Drivers/STM32L0xx_HAL_Driver/Inc/stm32l0xx_ll_rtc.h **** 
 408:Drivers/STM32L0xx_HAL_Driver/Inc/stm32l0xx_ll_rtc.h **** /** @defgroup RTC_LL_EC_TIMESTAMP_EDGE  TIMESTAMP EDGE
 409:Drivers/STM32L0xx_HAL_Driver/Inc/stm32l0xx_ll_rtc.h ****   * @{
 410:Drivers/STM32L0xx_HAL_Driver/Inc/stm32l0xx_ll_rtc.h ****   */
 411:Drivers/STM32L0xx_HAL_Driver/Inc/stm32l0xx_ll_rtc.h **** #define LL_RTC_TIMESTAMP_EDGE_RISING       0x00000000U           /*!< RTC_TS input rising edge gene
 412:Drivers/STM32L0xx_HAL_Driver/Inc/stm32l0xx_ll_rtc.h **** #define LL_RTC_TIMESTAMP_EDGE_FALLING      RTC_CR_TSEDGE         /*!< RTC_TS input falling edge gen
 413:Drivers/STM32L0xx_HAL_Driver/Inc/stm32l0xx_ll_rtc.h **** /**
 414:Drivers/STM32L0xx_HAL_Driver/Inc/stm32l0xx_ll_rtc.h ****   * @}
 415:Drivers/STM32L0xx_HAL_Driver/Inc/stm32l0xx_ll_rtc.h ****   */
 416:Drivers/STM32L0xx_HAL_Driver/Inc/stm32l0xx_ll_rtc.h **** 
 417:Drivers/STM32L0xx_HAL_Driver/Inc/stm32l0xx_ll_rtc.h **** /** @defgroup RTC_LL_EC_TS_TIME_FORMAT  TIMESTAMP TIME FORMAT
 418:Drivers/STM32L0xx_HAL_Driver/Inc/stm32l0xx_ll_rtc.h ****   * @{
 419:Drivers/STM32L0xx_HAL_Driver/Inc/stm32l0xx_ll_rtc.h ****   */
 420:Drivers/STM32L0xx_HAL_Driver/Inc/stm32l0xx_ll_rtc.h **** #define LL_RTC_TS_TIME_FORMAT_AM           0x00000000U           /*!< AM or 24-hour format */
 421:Drivers/STM32L0xx_HAL_Driver/Inc/stm32l0xx_ll_rtc.h **** #define LL_RTC_TS_TIME_FORMAT_PM           RTC_TSTR_PM           /*!< PM */
 422:Drivers/STM32L0xx_HAL_Driver/Inc/stm32l0xx_ll_rtc.h **** /**
 423:Drivers/STM32L0xx_HAL_Driver/Inc/stm32l0xx_ll_rtc.h ****   * @}
 424:Drivers/STM32L0xx_HAL_Driver/Inc/stm32l0xx_ll_rtc.h ****   */
 425:Drivers/STM32L0xx_HAL_Driver/Inc/stm32l0xx_ll_rtc.h **** 
 426:Drivers/STM32L0xx_HAL_Driver/Inc/stm32l0xx_ll_rtc.h **** /** @defgroup RTC_LL_EC_TAMPER  TAMPER
 427:Drivers/STM32L0xx_HAL_Driver/Inc/stm32l0xx_ll_rtc.h ****   * @{
 428:Drivers/STM32L0xx_HAL_Driver/Inc/stm32l0xx_ll_rtc.h ****   */
 429:Drivers/STM32L0xx_HAL_Driver/Inc/stm32l0xx_ll_rtc.h **** #if defined(RTC_TAMPER1_SUPPORT)
 430:Drivers/STM32L0xx_HAL_Driver/Inc/stm32l0xx_ll_rtc.h **** #define LL_RTC_TAMPER_1                    RTC_TAMPCR_TAMP1E /*!< RTC_TAMP1 input detection */
 431:Drivers/STM32L0xx_HAL_Driver/Inc/stm32l0xx_ll_rtc.h **** #endif /* RTC_TAMPER1_SUPPORT */
 432:Drivers/STM32L0xx_HAL_Driver/Inc/stm32l0xx_ll_rtc.h **** #if defined(RTC_TAMPER2_SUPPORT)
 433:Drivers/STM32L0xx_HAL_Driver/Inc/stm32l0xx_ll_rtc.h **** #define LL_RTC_TAMPER_2                    RTC_TAMPCR_TAMP2E /*!< RTC_TAMP2 input detection */
 434:Drivers/STM32L0xx_HAL_Driver/Inc/stm32l0xx_ll_rtc.h **** #endif /* RTC_TAMPER2_SUPPORT */
ARM GAS  /tmp/ccJpVmYc.s 			page 20


 435:Drivers/STM32L0xx_HAL_Driver/Inc/stm32l0xx_ll_rtc.h **** #if defined(RTC_TAMPER3_SUPPORT)
 436:Drivers/STM32L0xx_HAL_Driver/Inc/stm32l0xx_ll_rtc.h **** #define LL_RTC_TAMPER_3                    RTC_TAMPCR_TAMP3E /*!< RTC_TAMP3 input detection */
 437:Drivers/STM32L0xx_HAL_Driver/Inc/stm32l0xx_ll_rtc.h **** #endif /* RTC_TAMPER3_SUPPORT */
 438:Drivers/STM32L0xx_HAL_Driver/Inc/stm32l0xx_ll_rtc.h **** /**
 439:Drivers/STM32L0xx_HAL_Driver/Inc/stm32l0xx_ll_rtc.h ****   * @}
 440:Drivers/STM32L0xx_HAL_Driver/Inc/stm32l0xx_ll_rtc.h ****   */
 441:Drivers/STM32L0xx_HAL_Driver/Inc/stm32l0xx_ll_rtc.h **** 
 442:Drivers/STM32L0xx_HAL_Driver/Inc/stm32l0xx_ll_rtc.h **** /** @defgroup RTC_LL_EC_TAMPER_MASK  TAMPER MASK
 443:Drivers/STM32L0xx_HAL_Driver/Inc/stm32l0xx_ll_rtc.h ****   * @{
 444:Drivers/STM32L0xx_HAL_Driver/Inc/stm32l0xx_ll_rtc.h ****   */
 445:Drivers/STM32L0xx_HAL_Driver/Inc/stm32l0xx_ll_rtc.h **** #if defined(RTC_TAMPER1_SUPPORT)
 446:Drivers/STM32L0xx_HAL_Driver/Inc/stm32l0xx_ll_rtc.h **** #define LL_RTC_TAMPER_MASK_TAMPER1         RTC_TAMPCR_TAMP1MF /*!< Tamper 1 event generates a trigg
 447:Drivers/STM32L0xx_HAL_Driver/Inc/stm32l0xx_ll_rtc.h **** #endif /* RTC_TAMPER1_SUPPORT */
 448:Drivers/STM32L0xx_HAL_Driver/Inc/stm32l0xx_ll_rtc.h **** #if defined(RTC_TAMPER2_SUPPORT)
 449:Drivers/STM32L0xx_HAL_Driver/Inc/stm32l0xx_ll_rtc.h **** #define LL_RTC_TAMPER_MASK_TAMPER2         RTC_TAMPCR_TAMP2MF /*!< Tamper 2 event generates a trigg
 450:Drivers/STM32L0xx_HAL_Driver/Inc/stm32l0xx_ll_rtc.h **** #endif /* RTC_TAMPER2_SUPPORT */
 451:Drivers/STM32L0xx_HAL_Driver/Inc/stm32l0xx_ll_rtc.h **** #if defined(RTC_TAMPER3_SUPPORT)
 452:Drivers/STM32L0xx_HAL_Driver/Inc/stm32l0xx_ll_rtc.h **** #define LL_RTC_TAMPER_MASK_TAMPER3         RTC_TAMPCR_TAMP3MF /*!< Tamper 3 event generates a trigg
 453:Drivers/STM32L0xx_HAL_Driver/Inc/stm32l0xx_ll_rtc.h **** #endif /* RTC_TAMPER3_SUPPORT */
 454:Drivers/STM32L0xx_HAL_Driver/Inc/stm32l0xx_ll_rtc.h **** /**
 455:Drivers/STM32L0xx_HAL_Driver/Inc/stm32l0xx_ll_rtc.h ****   * @}
 456:Drivers/STM32L0xx_HAL_Driver/Inc/stm32l0xx_ll_rtc.h ****   */
 457:Drivers/STM32L0xx_HAL_Driver/Inc/stm32l0xx_ll_rtc.h **** 
 458:Drivers/STM32L0xx_HAL_Driver/Inc/stm32l0xx_ll_rtc.h **** /** @defgroup RTC_LL_EC_TAMPER_NOERASE  TAMPER NO ERASE
 459:Drivers/STM32L0xx_HAL_Driver/Inc/stm32l0xx_ll_rtc.h ****   * @{
 460:Drivers/STM32L0xx_HAL_Driver/Inc/stm32l0xx_ll_rtc.h ****   */
 461:Drivers/STM32L0xx_HAL_Driver/Inc/stm32l0xx_ll_rtc.h **** #if defined(RTC_TAMPER1_SUPPORT)
 462:Drivers/STM32L0xx_HAL_Driver/Inc/stm32l0xx_ll_rtc.h **** #define LL_RTC_TAMPER_NOERASE_TAMPER1      RTC_TAMPCR_TAMP1NOERASE /*!< Tamper 1 event does not era
 463:Drivers/STM32L0xx_HAL_Driver/Inc/stm32l0xx_ll_rtc.h **** #endif /* RTC_TAMPER1_SUPPORT */
 464:Drivers/STM32L0xx_HAL_Driver/Inc/stm32l0xx_ll_rtc.h **** #if defined(RTC_TAMPER2_SUPPORT)
 465:Drivers/STM32L0xx_HAL_Driver/Inc/stm32l0xx_ll_rtc.h **** #define LL_RTC_TAMPER_NOERASE_TAMPER2      RTC_TAMPCR_TAMP2NOERASE /*!< Tamper 2 event does not era
 466:Drivers/STM32L0xx_HAL_Driver/Inc/stm32l0xx_ll_rtc.h **** #endif /* RTC_TAMPER2_SUPPORT */
 467:Drivers/STM32L0xx_HAL_Driver/Inc/stm32l0xx_ll_rtc.h **** #if defined(RTC_TAMPER3_SUPPORT)
 468:Drivers/STM32L0xx_HAL_Driver/Inc/stm32l0xx_ll_rtc.h **** #define LL_RTC_TAMPER_NOERASE_TAMPER3      RTC_TAMPCR_TAMP3NOERASE /*!< Tamper 3 event does not era
 469:Drivers/STM32L0xx_HAL_Driver/Inc/stm32l0xx_ll_rtc.h **** #endif /* RTC_TAMPER3_SUPPORT */
 470:Drivers/STM32L0xx_HAL_Driver/Inc/stm32l0xx_ll_rtc.h **** /**
 471:Drivers/STM32L0xx_HAL_Driver/Inc/stm32l0xx_ll_rtc.h ****   * @}
 472:Drivers/STM32L0xx_HAL_Driver/Inc/stm32l0xx_ll_rtc.h ****   */
 473:Drivers/STM32L0xx_HAL_Driver/Inc/stm32l0xx_ll_rtc.h **** 
 474:Drivers/STM32L0xx_HAL_Driver/Inc/stm32l0xx_ll_rtc.h **** #if defined(RTC_TAMPCR_TAMPPRCH)
 475:Drivers/STM32L0xx_HAL_Driver/Inc/stm32l0xx_ll_rtc.h **** /** @defgroup RTC_LL_EC_TAMPER_DURATION  TAMPER DURATION
 476:Drivers/STM32L0xx_HAL_Driver/Inc/stm32l0xx_ll_rtc.h ****   * @{
 477:Drivers/STM32L0xx_HAL_Driver/Inc/stm32l0xx_ll_rtc.h ****   */
 478:Drivers/STM32L0xx_HAL_Driver/Inc/stm32l0xx_ll_rtc.h **** #define LL_RTC_TAMPER_DURATION_1RTCCLK     0x00000000U                             /*!< Tamper pins
 479:Drivers/STM32L0xx_HAL_Driver/Inc/stm32l0xx_ll_rtc.h **** #define LL_RTC_TAMPER_DURATION_2RTCCLK     RTC_TAMPCR_TAMPPRCH_0  /*!< Tamper pins are pre-charged 
 480:Drivers/STM32L0xx_HAL_Driver/Inc/stm32l0xx_ll_rtc.h **** #define LL_RTC_TAMPER_DURATION_4RTCCLK     RTC_TAMPCR_TAMPPRCH_1  /*!< Tamper pins are pre-charged 
 481:Drivers/STM32L0xx_HAL_Driver/Inc/stm32l0xx_ll_rtc.h **** #define LL_RTC_TAMPER_DURATION_8RTCCLK     RTC_TAMPCR_TAMPPRCH    /*!< Tamper pins are pre-charged 
 482:Drivers/STM32L0xx_HAL_Driver/Inc/stm32l0xx_ll_rtc.h **** /**
 483:Drivers/STM32L0xx_HAL_Driver/Inc/stm32l0xx_ll_rtc.h ****   * @}
 484:Drivers/STM32L0xx_HAL_Driver/Inc/stm32l0xx_ll_rtc.h ****   */
 485:Drivers/STM32L0xx_HAL_Driver/Inc/stm32l0xx_ll_rtc.h **** #endif /* RTC_TAMPCR_TAMPPRCH */
 486:Drivers/STM32L0xx_HAL_Driver/Inc/stm32l0xx_ll_rtc.h **** 
 487:Drivers/STM32L0xx_HAL_Driver/Inc/stm32l0xx_ll_rtc.h **** #if defined(RTC_TAMPCR_TAMPFLT)
 488:Drivers/STM32L0xx_HAL_Driver/Inc/stm32l0xx_ll_rtc.h **** /** @defgroup RTC_LL_EC_TAMPER_FILTER  TAMPER FILTER
 489:Drivers/STM32L0xx_HAL_Driver/Inc/stm32l0xx_ll_rtc.h ****   * @{
 490:Drivers/STM32L0xx_HAL_Driver/Inc/stm32l0xx_ll_rtc.h ****   */
 491:Drivers/STM32L0xx_HAL_Driver/Inc/stm32l0xx_ll_rtc.h **** #define LL_RTC_TAMPER_FILTER_DISABLE       0x00000000U                              /*!< Tamper fil
ARM GAS  /tmp/ccJpVmYc.s 			page 21


 492:Drivers/STM32L0xx_HAL_Driver/Inc/stm32l0xx_ll_rtc.h **** #define LL_RTC_TAMPER_FILTER_2SAMPLE       RTC_TAMPCR_TAMPFLT_0    /*!< Tamper is activated after 2
 493:Drivers/STM32L0xx_HAL_Driver/Inc/stm32l0xx_ll_rtc.h **** #define LL_RTC_TAMPER_FILTER_4SAMPLE       RTC_TAMPCR_TAMPFLT_1    /*!< Tamper is activated after 4
 494:Drivers/STM32L0xx_HAL_Driver/Inc/stm32l0xx_ll_rtc.h **** #define LL_RTC_TAMPER_FILTER_8SAMPLE       RTC_TAMPCR_TAMPFLT      /*!< Tamper is activated after 8
 495:Drivers/STM32L0xx_HAL_Driver/Inc/stm32l0xx_ll_rtc.h **** /**
 496:Drivers/STM32L0xx_HAL_Driver/Inc/stm32l0xx_ll_rtc.h ****   * @}
 497:Drivers/STM32L0xx_HAL_Driver/Inc/stm32l0xx_ll_rtc.h ****   */
 498:Drivers/STM32L0xx_HAL_Driver/Inc/stm32l0xx_ll_rtc.h **** #endif /* RTC_TAMPCR_TAMPFLT */
 499:Drivers/STM32L0xx_HAL_Driver/Inc/stm32l0xx_ll_rtc.h **** 
 500:Drivers/STM32L0xx_HAL_Driver/Inc/stm32l0xx_ll_rtc.h **** #if defined(RTC_TAMPCR_TAMPFREQ)
 501:Drivers/STM32L0xx_HAL_Driver/Inc/stm32l0xx_ll_rtc.h **** /** @defgroup RTC_LL_EC_TAMPER_SAMPLFREQDIV  TAMPER SAMPLING FREQUENCY DIVIDER
 502:Drivers/STM32L0xx_HAL_Driver/Inc/stm32l0xx_ll_rtc.h ****   * @{
 503:Drivers/STM32L0xx_HAL_Driver/Inc/stm32l0xx_ll_rtc.h ****   */
 504:Drivers/STM32L0xx_HAL_Driver/Inc/stm32l0xx_ll_rtc.h **** #define LL_RTC_TAMPER_SAMPLFREQDIV_32768   0x00000000U                                             
 505:Drivers/STM32L0xx_HAL_Driver/Inc/stm32l0xx_ll_rtc.h **** #define LL_RTC_TAMPER_SAMPLFREQDIV_16384   RTC_TAMPCR_TAMPFREQ_0                           /*!< Eac
 506:Drivers/STM32L0xx_HAL_Driver/Inc/stm32l0xx_ll_rtc.h **** #define LL_RTC_TAMPER_SAMPLFREQDIV_8192    RTC_TAMPCR_TAMPFREQ_1                           /*!< Eac
 507:Drivers/STM32L0xx_HAL_Driver/Inc/stm32l0xx_ll_rtc.h **** #define LL_RTC_TAMPER_SAMPLFREQDIV_4096    (RTC_TAMPCR_TAMPFREQ_1 | RTC_TAMPCR_TAMPFREQ_0) /*!< Eac
 508:Drivers/STM32L0xx_HAL_Driver/Inc/stm32l0xx_ll_rtc.h **** #define LL_RTC_TAMPER_SAMPLFREQDIV_2048    RTC_TAMPCR_TAMPFREQ_2                           /*!< Eac
 509:Drivers/STM32L0xx_HAL_Driver/Inc/stm32l0xx_ll_rtc.h **** #define LL_RTC_TAMPER_SAMPLFREQDIV_1024    (RTC_TAMPCR_TAMPFREQ_2 | RTC_TAMPCR_TAMPFREQ_0) /*!< Eac
 510:Drivers/STM32L0xx_HAL_Driver/Inc/stm32l0xx_ll_rtc.h **** #define LL_RTC_TAMPER_SAMPLFREQDIV_512     (RTC_TAMPCR_TAMPFREQ_2 | RTC_TAMPCR_TAMPFREQ_1) /*!< Eac
 511:Drivers/STM32L0xx_HAL_Driver/Inc/stm32l0xx_ll_rtc.h **** #define LL_RTC_TAMPER_SAMPLFREQDIV_256     RTC_TAMPCR_TAMPFREQ                             /*!< Eac
 512:Drivers/STM32L0xx_HAL_Driver/Inc/stm32l0xx_ll_rtc.h **** /**
 513:Drivers/STM32L0xx_HAL_Driver/Inc/stm32l0xx_ll_rtc.h ****   * @}
 514:Drivers/STM32L0xx_HAL_Driver/Inc/stm32l0xx_ll_rtc.h ****   */
 515:Drivers/STM32L0xx_HAL_Driver/Inc/stm32l0xx_ll_rtc.h **** #endif /* RTC_TAMPCR_TAMPFREQ */
 516:Drivers/STM32L0xx_HAL_Driver/Inc/stm32l0xx_ll_rtc.h **** 
 517:Drivers/STM32L0xx_HAL_Driver/Inc/stm32l0xx_ll_rtc.h **** /** @defgroup RTC_LL_EC_TAMPER_ACTIVELEVEL  TAMPER ACTIVE LEVEL
 518:Drivers/STM32L0xx_HAL_Driver/Inc/stm32l0xx_ll_rtc.h ****   * @{
 519:Drivers/STM32L0xx_HAL_Driver/Inc/stm32l0xx_ll_rtc.h ****   */
 520:Drivers/STM32L0xx_HAL_Driver/Inc/stm32l0xx_ll_rtc.h **** #if defined(RTC_TAMPER1_SUPPORT)
 521:Drivers/STM32L0xx_HAL_Driver/Inc/stm32l0xx_ll_rtc.h **** #define LL_RTC_TAMPER_ACTIVELEVEL_TAMP1    RTC_TAMPCR_TAMP1TRG /*!< RTC_TAMP1 input falling edge (i
 522:Drivers/STM32L0xx_HAL_Driver/Inc/stm32l0xx_ll_rtc.h **** #endif /* RTC_TAMPER1_SUPPORT */
 523:Drivers/STM32L0xx_HAL_Driver/Inc/stm32l0xx_ll_rtc.h **** #if defined(RTC_TAMPER2_SUPPORT)
 524:Drivers/STM32L0xx_HAL_Driver/Inc/stm32l0xx_ll_rtc.h **** #define LL_RTC_TAMPER_ACTIVELEVEL_TAMP2    RTC_TAMPCR_TAMP2TRG /*!< RTC_TAMP2 input falling edge (i
 525:Drivers/STM32L0xx_HAL_Driver/Inc/stm32l0xx_ll_rtc.h **** #endif /* RTC_TAMPER2_SUPPORT */
 526:Drivers/STM32L0xx_HAL_Driver/Inc/stm32l0xx_ll_rtc.h **** #if defined(RTC_TAMPER3_SUPPORT)
 527:Drivers/STM32L0xx_HAL_Driver/Inc/stm32l0xx_ll_rtc.h **** #define LL_RTC_TAMPER_ACTIVELEVEL_TAMP3    RTC_TAMPCR_TAMP3TRG /*!< RTC_TAMP3 input falling edge (i
 528:Drivers/STM32L0xx_HAL_Driver/Inc/stm32l0xx_ll_rtc.h **** #endif /* RTC_TAMPER3_SUPPORT */
 529:Drivers/STM32L0xx_HAL_Driver/Inc/stm32l0xx_ll_rtc.h **** /**
 530:Drivers/STM32L0xx_HAL_Driver/Inc/stm32l0xx_ll_rtc.h ****   * @}
 531:Drivers/STM32L0xx_HAL_Driver/Inc/stm32l0xx_ll_rtc.h ****   */
 532:Drivers/STM32L0xx_HAL_Driver/Inc/stm32l0xx_ll_rtc.h **** 
 533:Drivers/STM32L0xx_HAL_Driver/Inc/stm32l0xx_ll_rtc.h **** /** @defgroup RTC_LL_EC_WAKEUPCLOCK_DIV  WAKEUP CLOCK DIV
 534:Drivers/STM32L0xx_HAL_Driver/Inc/stm32l0xx_ll_rtc.h ****   * @{
 535:Drivers/STM32L0xx_HAL_Driver/Inc/stm32l0xx_ll_rtc.h ****   */
 536:Drivers/STM32L0xx_HAL_Driver/Inc/stm32l0xx_ll_rtc.h **** #define LL_RTC_WAKEUPCLOCK_DIV_16          0x00000000U                           /*!< RTC/16 clock 
 537:Drivers/STM32L0xx_HAL_Driver/Inc/stm32l0xx_ll_rtc.h **** #define LL_RTC_WAKEUPCLOCK_DIV_8           RTC_CR_WUCKSEL_0                    /*!< RTC/8 clock is 
 538:Drivers/STM32L0xx_HAL_Driver/Inc/stm32l0xx_ll_rtc.h **** #define LL_RTC_WAKEUPCLOCK_DIV_4           RTC_CR_WUCKSEL_1                    /*!< RTC/4 clock is 
 539:Drivers/STM32L0xx_HAL_Driver/Inc/stm32l0xx_ll_rtc.h **** #define LL_RTC_WAKEUPCLOCK_DIV_2           (RTC_CR_WUCKSEL_1 | RTC_CR_WUCKSEL_0) /*!< RTC/2 clock i
 540:Drivers/STM32L0xx_HAL_Driver/Inc/stm32l0xx_ll_rtc.h **** #define LL_RTC_WAKEUPCLOCK_CKSPRE          RTC_CR_WUCKSEL_2                    /*!< ck_spre (usuall
 541:Drivers/STM32L0xx_HAL_Driver/Inc/stm32l0xx_ll_rtc.h **** #define LL_RTC_WAKEUPCLOCK_CKSPRE_WUT      (RTC_CR_WUCKSEL_2 | RTC_CR_WUCKSEL_1) /*!< ck_spre (usua
 542:Drivers/STM32L0xx_HAL_Driver/Inc/stm32l0xx_ll_rtc.h **** /**
 543:Drivers/STM32L0xx_HAL_Driver/Inc/stm32l0xx_ll_rtc.h ****   * @}
 544:Drivers/STM32L0xx_HAL_Driver/Inc/stm32l0xx_ll_rtc.h ****   */
 545:Drivers/STM32L0xx_HAL_Driver/Inc/stm32l0xx_ll_rtc.h **** 
 546:Drivers/STM32L0xx_HAL_Driver/Inc/stm32l0xx_ll_rtc.h **** #if defined(RTC_BACKUP_SUPPORT)
 547:Drivers/STM32L0xx_HAL_Driver/Inc/stm32l0xx_ll_rtc.h **** /** @defgroup RTC_LL_EC_BKP  BACKUP
 548:Drivers/STM32L0xx_HAL_Driver/Inc/stm32l0xx_ll_rtc.h ****   * @{
ARM GAS  /tmp/ccJpVmYc.s 			page 22


 549:Drivers/STM32L0xx_HAL_Driver/Inc/stm32l0xx_ll_rtc.h ****   */
 550:Drivers/STM32L0xx_HAL_Driver/Inc/stm32l0xx_ll_rtc.h **** #define LL_RTC_BKP_DR0                     (0x00000000U)
 551:Drivers/STM32L0xx_HAL_Driver/Inc/stm32l0xx_ll_rtc.h **** #define LL_RTC_BKP_DR1                     (0x00000001U)
 552:Drivers/STM32L0xx_HAL_Driver/Inc/stm32l0xx_ll_rtc.h **** #define LL_RTC_BKP_DR2                     (0x00000002U)
 553:Drivers/STM32L0xx_HAL_Driver/Inc/stm32l0xx_ll_rtc.h **** #define LL_RTC_BKP_DR3                     (0x00000003U)
 554:Drivers/STM32L0xx_HAL_Driver/Inc/stm32l0xx_ll_rtc.h **** #define LL_RTC_BKP_DR4                     (0x00000004U)
 555:Drivers/STM32L0xx_HAL_Driver/Inc/stm32l0xx_ll_rtc.h **** /**
 556:Drivers/STM32L0xx_HAL_Driver/Inc/stm32l0xx_ll_rtc.h ****   * @}
 557:Drivers/STM32L0xx_HAL_Driver/Inc/stm32l0xx_ll_rtc.h ****   */
 558:Drivers/STM32L0xx_HAL_Driver/Inc/stm32l0xx_ll_rtc.h **** #endif /* RTC_BACKUP_SUPPORT */
 559:Drivers/STM32L0xx_HAL_Driver/Inc/stm32l0xx_ll_rtc.h **** 
 560:Drivers/STM32L0xx_HAL_Driver/Inc/stm32l0xx_ll_rtc.h **** /** @defgroup RTC_LL_EC_CALIB_OUTPUT  Calibration output
 561:Drivers/STM32L0xx_HAL_Driver/Inc/stm32l0xx_ll_rtc.h ****   * @{
 562:Drivers/STM32L0xx_HAL_Driver/Inc/stm32l0xx_ll_rtc.h ****   */
 563:Drivers/STM32L0xx_HAL_Driver/Inc/stm32l0xx_ll_rtc.h **** #define LL_RTC_CALIB_OUTPUT_NONE           (0x00000000U)                 /*!< Calibration output di
 564:Drivers/STM32L0xx_HAL_Driver/Inc/stm32l0xx_ll_rtc.h **** #define LL_RTC_CALIB_OUTPUT_1HZ            (RTC_CR_COE | RTC_CR_COSEL) /*!< Calibration output is 5
 565:Drivers/STM32L0xx_HAL_Driver/Inc/stm32l0xx_ll_rtc.h **** #define LL_RTC_CALIB_OUTPUT_512HZ          RTC_CR_COE                /*!< Calibration output is 1 H
 566:Drivers/STM32L0xx_HAL_Driver/Inc/stm32l0xx_ll_rtc.h **** /**
 567:Drivers/STM32L0xx_HAL_Driver/Inc/stm32l0xx_ll_rtc.h ****   * @}
 568:Drivers/STM32L0xx_HAL_Driver/Inc/stm32l0xx_ll_rtc.h ****   */
 569:Drivers/STM32L0xx_HAL_Driver/Inc/stm32l0xx_ll_rtc.h **** 
 570:Drivers/STM32L0xx_HAL_Driver/Inc/stm32l0xx_ll_rtc.h **** /** @defgroup RTC_LL_EC_CALIB_INSERTPULSE  Calibration pulse insertion
 571:Drivers/STM32L0xx_HAL_Driver/Inc/stm32l0xx_ll_rtc.h ****   * @{
 572:Drivers/STM32L0xx_HAL_Driver/Inc/stm32l0xx_ll_rtc.h ****   */
 573:Drivers/STM32L0xx_HAL_Driver/Inc/stm32l0xx_ll_rtc.h **** #define LL_RTC_CALIB_INSERTPULSE_NONE      (0x00000000U)           /*!< No RTCCLK pulses are added 
 574:Drivers/STM32L0xx_HAL_Driver/Inc/stm32l0xx_ll_rtc.h **** #define LL_RTC_CALIB_INSERTPULSE_SET       RTC_CALR_CALP         /*!< One RTCCLK pulse is effective
 575:Drivers/STM32L0xx_HAL_Driver/Inc/stm32l0xx_ll_rtc.h **** /**
 576:Drivers/STM32L0xx_HAL_Driver/Inc/stm32l0xx_ll_rtc.h ****   * @}
 577:Drivers/STM32L0xx_HAL_Driver/Inc/stm32l0xx_ll_rtc.h ****   */
 578:Drivers/STM32L0xx_HAL_Driver/Inc/stm32l0xx_ll_rtc.h **** 
 579:Drivers/STM32L0xx_HAL_Driver/Inc/stm32l0xx_ll_rtc.h **** /** @defgroup RTC_LL_EC_CALIB_PERIOD  Calibration period
 580:Drivers/STM32L0xx_HAL_Driver/Inc/stm32l0xx_ll_rtc.h ****   * @{
 581:Drivers/STM32L0xx_HAL_Driver/Inc/stm32l0xx_ll_rtc.h ****   */
 582:Drivers/STM32L0xx_HAL_Driver/Inc/stm32l0xx_ll_rtc.h **** #define LL_RTC_CALIB_PERIOD_32SEC          (0x00000000U)           /*!< Use a 32-second calibration
 583:Drivers/STM32L0xx_HAL_Driver/Inc/stm32l0xx_ll_rtc.h **** #define LL_RTC_CALIB_PERIOD_16SEC          RTC_CALR_CALW16       /*!< Use a 16-second calibration c
 584:Drivers/STM32L0xx_HAL_Driver/Inc/stm32l0xx_ll_rtc.h **** #define LL_RTC_CALIB_PERIOD_8SEC           RTC_CALR_CALW8        /*!< Use a 8-second calibration cy
 585:Drivers/STM32L0xx_HAL_Driver/Inc/stm32l0xx_ll_rtc.h **** /**
 586:Drivers/STM32L0xx_HAL_Driver/Inc/stm32l0xx_ll_rtc.h ****   * @}
 587:Drivers/STM32L0xx_HAL_Driver/Inc/stm32l0xx_ll_rtc.h ****   */
 588:Drivers/STM32L0xx_HAL_Driver/Inc/stm32l0xx_ll_rtc.h **** 
 589:Drivers/STM32L0xx_HAL_Driver/Inc/stm32l0xx_ll_rtc.h **** /**
 590:Drivers/STM32L0xx_HAL_Driver/Inc/stm32l0xx_ll_rtc.h ****   * @}
 591:Drivers/STM32L0xx_HAL_Driver/Inc/stm32l0xx_ll_rtc.h ****   */
 592:Drivers/STM32L0xx_HAL_Driver/Inc/stm32l0xx_ll_rtc.h **** 
 593:Drivers/STM32L0xx_HAL_Driver/Inc/stm32l0xx_ll_rtc.h **** /* Exported macro ------------------------------------------------------------*/
 594:Drivers/STM32L0xx_HAL_Driver/Inc/stm32l0xx_ll_rtc.h **** /** @defgroup RTC_LL_Exported_Macros RTC Exported Macros
 595:Drivers/STM32L0xx_HAL_Driver/Inc/stm32l0xx_ll_rtc.h ****   * @{
 596:Drivers/STM32L0xx_HAL_Driver/Inc/stm32l0xx_ll_rtc.h ****   */
 597:Drivers/STM32L0xx_HAL_Driver/Inc/stm32l0xx_ll_rtc.h **** 
 598:Drivers/STM32L0xx_HAL_Driver/Inc/stm32l0xx_ll_rtc.h **** /** @defgroup RTC_LL_EM_WRITE_READ Common Write and read registers Macros
 599:Drivers/STM32L0xx_HAL_Driver/Inc/stm32l0xx_ll_rtc.h ****   * @{
 600:Drivers/STM32L0xx_HAL_Driver/Inc/stm32l0xx_ll_rtc.h ****   */
 601:Drivers/STM32L0xx_HAL_Driver/Inc/stm32l0xx_ll_rtc.h **** 
 602:Drivers/STM32L0xx_HAL_Driver/Inc/stm32l0xx_ll_rtc.h **** /**
 603:Drivers/STM32L0xx_HAL_Driver/Inc/stm32l0xx_ll_rtc.h ****   * @brief  Write a value in RTC register
 604:Drivers/STM32L0xx_HAL_Driver/Inc/stm32l0xx_ll_rtc.h ****   * @param  __INSTANCE__ RTC Instance
 605:Drivers/STM32L0xx_HAL_Driver/Inc/stm32l0xx_ll_rtc.h ****   * @param  __REG__ Register to be written
ARM GAS  /tmp/ccJpVmYc.s 			page 23


 606:Drivers/STM32L0xx_HAL_Driver/Inc/stm32l0xx_ll_rtc.h ****   * @param  __VALUE__ Value to be written in the register
 607:Drivers/STM32L0xx_HAL_Driver/Inc/stm32l0xx_ll_rtc.h ****   * @retval None
 608:Drivers/STM32L0xx_HAL_Driver/Inc/stm32l0xx_ll_rtc.h ****   */
 609:Drivers/STM32L0xx_HAL_Driver/Inc/stm32l0xx_ll_rtc.h **** #define LL_RTC_WriteReg(__INSTANCE__, __REG__, __VALUE__) WRITE_REG(__INSTANCE__->__REG__, (__VALUE
 610:Drivers/STM32L0xx_HAL_Driver/Inc/stm32l0xx_ll_rtc.h **** 
 611:Drivers/STM32L0xx_HAL_Driver/Inc/stm32l0xx_ll_rtc.h **** /**
 612:Drivers/STM32L0xx_HAL_Driver/Inc/stm32l0xx_ll_rtc.h ****   * @brief  Read a value in RTC register
 613:Drivers/STM32L0xx_HAL_Driver/Inc/stm32l0xx_ll_rtc.h ****   * @param  __INSTANCE__ RTC Instance
 614:Drivers/STM32L0xx_HAL_Driver/Inc/stm32l0xx_ll_rtc.h ****   * @param  __REG__ Register to be read
 615:Drivers/STM32L0xx_HAL_Driver/Inc/stm32l0xx_ll_rtc.h ****   * @retval Register value
 616:Drivers/STM32L0xx_HAL_Driver/Inc/stm32l0xx_ll_rtc.h ****   */
 617:Drivers/STM32L0xx_HAL_Driver/Inc/stm32l0xx_ll_rtc.h **** #define LL_RTC_ReadReg(__INSTANCE__, __REG__) READ_REG(__INSTANCE__->__REG__)
 618:Drivers/STM32L0xx_HAL_Driver/Inc/stm32l0xx_ll_rtc.h **** /**
 619:Drivers/STM32L0xx_HAL_Driver/Inc/stm32l0xx_ll_rtc.h ****   * @}
 620:Drivers/STM32L0xx_HAL_Driver/Inc/stm32l0xx_ll_rtc.h ****   */
 621:Drivers/STM32L0xx_HAL_Driver/Inc/stm32l0xx_ll_rtc.h **** 
 622:Drivers/STM32L0xx_HAL_Driver/Inc/stm32l0xx_ll_rtc.h **** /** @defgroup RTC_LL_EM_Convert Convert helper Macros
 623:Drivers/STM32L0xx_HAL_Driver/Inc/stm32l0xx_ll_rtc.h ****   * @{
 624:Drivers/STM32L0xx_HAL_Driver/Inc/stm32l0xx_ll_rtc.h ****   */
 625:Drivers/STM32L0xx_HAL_Driver/Inc/stm32l0xx_ll_rtc.h **** 
 626:Drivers/STM32L0xx_HAL_Driver/Inc/stm32l0xx_ll_rtc.h **** /**
 627:Drivers/STM32L0xx_HAL_Driver/Inc/stm32l0xx_ll_rtc.h ****   * @brief  Helper macro to convert a value from 2 digit decimal format to BCD format
 628:Drivers/STM32L0xx_HAL_Driver/Inc/stm32l0xx_ll_rtc.h ****   * @param  __VALUE__ Byte to be converted
 629:Drivers/STM32L0xx_HAL_Driver/Inc/stm32l0xx_ll_rtc.h ****   * @retval Converted byte
 630:Drivers/STM32L0xx_HAL_Driver/Inc/stm32l0xx_ll_rtc.h ****   */
 631:Drivers/STM32L0xx_HAL_Driver/Inc/stm32l0xx_ll_rtc.h **** #define __LL_RTC_CONVERT_BIN2BCD(__VALUE__) (uint8_t)((((__VALUE__) / 10U) << 4U) | ((__VALUE__) % 
 632:Drivers/STM32L0xx_HAL_Driver/Inc/stm32l0xx_ll_rtc.h **** 
 633:Drivers/STM32L0xx_HAL_Driver/Inc/stm32l0xx_ll_rtc.h **** /**
 634:Drivers/STM32L0xx_HAL_Driver/Inc/stm32l0xx_ll_rtc.h ****   * @brief  Helper macro to convert a value from BCD format to 2 digit decimal format
 635:Drivers/STM32L0xx_HAL_Driver/Inc/stm32l0xx_ll_rtc.h ****   * @param  __VALUE__ BCD value to be converted
 636:Drivers/STM32L0xx_HAL_Driver/Inc/stm32l0xx_ll_rtc.h ****   * @retval Converted byte
 637:Drivers/STM32L0xx_HAL_Driver/Inc/stm32l0xx_ll_rtc.h ****   */
 638:Drivers/STM32L0xx_HAL_Driver/Inc/stm32l0xx_ll_rtc.h **** #define __LL_RTC_CONVERT_BCD2BIN(__VALUE__) (uint8_t)((((uint8_t)((__VALUE__) & (uint8_t)0xF0U) >> 
 639:Drivers/STM32L0xx_HAL_Driver/Inc/stm32l0xx_ll_rtc.h **** 
 640:Drivers/STM32L0xx_HAL_Driver/Inc/stm32l0xx_ll_rtc.h **** /**
 641:Drivers/STM32L0xx_HAL_Driver/Inc/stm32l0xx_ll_rtc.h ****   * @}
 642:Drivers/STM32L0xx_HAL_Driver/Inc/stm32l0xx_ll_rtc.h ****   */
 643:Drivers/STM32L0xx_HAL_Driver/Inc/stm32l0xx_ll_rtc.h **** 
 644:Drivers/STM32L0xx_HAL_Driver/Inc/stm32l0xx_ll_rtc.h **** /** @defgroup RTC_LL_EM_Date Date helper Macros
 645:Drivers/STM32L0xx_HAL_Driver/Inc/stm32l0xx_ll_rtc.h ****   * @{
 646:Drivers/STM32L0xx_HAL_Driver/Inc/stm32l0xx_ll_rtc.h ****   */
 647:Drivers/STM32L0xx_HAL_Driver/Inc/stm32l0xx_ll_rtc.h **** 
 648:Drivers/STM32L0xx_HAL_Driver/Inc/stm32l0xx_ll_rtc.h **** /**
 649:Drivers/STM32L0xx_HAL_Driver/Inc/stm32l0xx_ll_rtc.h ****   * @brief  Helper macro to retrieve weekday.
 650:Drivers/STM32L0xx_HAL_Driver/Inc/stm32l0xx_ll_rtc.h ****   * @param  __RTC_DATE__ Date returned by @ref  LL_RTC_DATE_Get function.
 651:Drivers/STM32L0xx_HAL_Driver/Inc/stm32l0xx_ll_rtc.h ****   * @retval Returned value can be one of the following values:
 652:Drivers/STM32L0xx_HAL_Driver/Inc/stm32l0xx_ll_rtc.h ****   *         @arg @ref LL_RTC_WEEKDAY_MONDAY
 653:Drivers/STM32L0xx_HAL_Driver/Inc/stm32l0xx_ll_rtc.h ****   *         @arg @ref LL_RTC_WEEKDAY_TUESDAY
 654:Drivers/STM32L0xx_HAL_Driver/Inc/stm32l0xx_ll_rtc.h ****   *         @arg @ref LL_RTC_WEEKDAY_WEDNESDAY
 655:Drivers/STM32L0xx_HAL_Driver/Inc/stm32l0xx_ll_rtc.h ****   *         @arg @ref LL_RTC_WEEKDAY_THURSDAY
 656:Drivers/STM32L0xx_HAL_Driver/Inc/stm32l0xx_ll_rtc.h ****   *         @arg @ref LL_RTC_WEEKDAY_FRIDAY
 657:Drivers/STM32L0xx_HAL_Driver/Inc/stm32l0xx_ll_rtc.h ****   *         @arg @ref LL_RTC_WEEKDAY_SATURDAY
 658:Drivers/STM32L0xx_HAL_Driver/Inc/stm32l0xx_ll_rtc.h ****   *         @arg @ref LL_RTC_WEEKDAY_SUNDAY
 659:Drivers/STM32L0xx_HAL_Driver/Inc/stm32l0xx_ll_rtc.h ****   */
 660:Drivers/STM32L0xx_HAL_Driver/Inc/stm32l0xx_ll_rtc.h **** #define __LL_RTC_GET_WEEKDAY(__RTC_DATE__) (((__RTC_DATE__) >> RTC_OFFSET_WEEKDAY) & 0x000000FFU)
 661:Drivers/STM32L0xx_HAL_Driver/Inc/stm32l0xx_ll_rtc.h **** 
 662:Drivers/STM32L0xx_HAL_Driver/Inc/stm32l0xx_ll_rtc.h **** /**
ARM GAS  /tmp/ccJpVmYc.s 			page 24


 663:Drivers/STM32L0xx_HAL_Driver/Inc/stm32l0xx_ll_rtc.h ****   * @brief  Helper macro to retrieve Year in BCD format
 664:Drivers/STM32L0xx_HAL_Driver/Inc/stm32l0xx_ll_rtc.h ****   * @param  __RTC_DATE__ Value returned by @ref  LL_RTC_DATE_Get
 665:Drivers/STM32L0xx_HAL_Driver/Inc/stm32l0xx_ll_rtc.h ****   * @retval Year in BCD format (0x00 . . . 0x99)
 666:Drivers/STM32L0xx_HAL_Driver/Inc/stm32l0xx_ll_rtc.h ****   */
 667:Drivers/STM32L0xx_HAL_Driver/Inc/stm32l0xx_ll_rtc.h **** #define __LL_RTC_GET_YEAR(__RTC_DATE__) ((__RTC_DATE__) & 0x000000FFU)
 668:Drivers/STM32L0xx_HAL_Driver/Inc/stm32l0xx_ll_rtc.h **** 
 669:Drivers/STM32L0xx_HAL_Driver/Inc/stm32l0xx_ll_rtc.h **** /**
 670:Drivers/STM32L0xx_HAL_Driver/Inc/stm32l0xx_ll_rtc.h ****   * @brief  Helper macro to retrieve Month in BCD format
 671:Drivers/STM32L0xx_HAL_Driver/Inc/stm32l0xx_ll_rtc.h ****   * @param  __RTC_DATE__ Value returned by @ref  LL_RTC_DATE_Get
 672:Drivers/STM32L0xx_HAL_Driver/Inc/stm32l0xx_ll_rtc.h ****   * @retval Returned value can be one of the following values:
 673:Drivers/STM32L0xx_HAL_Driver/Inc/stm32l0xx_ll_rtc.h ****   *         @arg @ref LL_RTC_MONTH_JANUARY
 674:Drivers/STM32L0xx_HAL_Driver/Inc/stm32l0xx_ll_rtc.h ****   *         @arg @ref LL_RTC_MONTH_FEBRUARY
 675:Drivers/STM32L0xx_HAL_Driver/Inc/stm32l0xx_ll_rtc.h ****   *         @arg @ref LL_RTC_MONTH_MARCH
 676:Drivers/STM32L0xx_HAL_Driver/Inc/stm32l0xx_ll_rtc.h ****   *         @arg @ref LL_RTC_MONTH_APRIL
 677:Drivers/STM32L0xx_HAL_Driver/Inc/stm32l0xx_ll_rtc.h ****   *         @arg @ref LL_RTC_MONTH_MAY
 678:Drivers/STM32L0xx_HAL_Driver/Inc/stm32l0xx_ll_rtc.h ****   *         @arg @ref LL_RTC_MONTH_JUNE
 679:Drivers/STM32L0xx_HAL_Driver/Inc/stm32l0xx_ll_rtc.h ****   *         @arg @ref LL_RTC_MONTH_JULY
 680:Drivers/STM32L0xx_HAL_Driver/Inc/stm32l0xx_ll_rtc.h ****   *         @arg @ref LL_RTC_MONTH_AUGUST
 681:Drivers/STM32L0xx_HAL_Driver/Inc/stm32l0xx_ll_rtc.h ****   *         @arg @ref LL_RTC_MONTH_SEPTEMBER
 682:Drivers/STM32L0xx_HAL_Driver/Inc/stm32l0xx_ll_rtc.h ****   *         @arg @ref LL_RTC_MONTH_OCTOBER
 683:Drivers/STM32L0xx_HAL_Driver/Inc/stm32l0xx_ll_rtc.h ****   *         @arg @ref LL_RTC_MONTH_NOVEMBER
 684:Drivers/STM32L0xx_HAL_Driver/Inc/stm32l0xx_ll_rtc.h ****   *         @arg @ref LL_RTC_MONTH_DECEMBER
 685:Drivers/STM32L0xx_HAL_Driver/Inc/stm32l0xx_ll_rtc.h ****   */
 686:Drivers/STM32L0xx_HAL_Driver/Inc/stm32l0xx_ll_rtc.h **** #define __LL_RTC_GET_MONTH(__RTC_DATE__) (((__RTC_DATE__) >>RTC_OFFSET_MONTH) & 0x000000FFU)
 687:Drivers/STM32L0xx_HAL_Driver/Inc/stm32l0xx_ll_rtc.h **** 
 688:Drivers/STM32L0xx_HAL_Driver/Inc/stm32l0xx_ll_rtc.h **** /**
 689:Drivers/STM32L0xx_HAL_Driver/Inc/stm32l0xx_ll_rtc.h ****   * @brief  Helper macro to retrieve Day in BCD format
 690:Drivers/STM32L0xx_HAL_Driver/Inc/stm32l0xx_ll_rtc.h ****   * @param  __RTC_DATE__ Value returned by @ref  LL_RTC_DATE_Get
 691:Drivers/STM32L0xx_HAL_Driver/Inc/stm32l0xx_ll_rtc.h ****   * @retval Day in BCD format (0x01 . . . 0x31)
 692:Drivers/STM32L0xx_HAL_Driver/Inc/stm32l0xx_ll_rtc.h ****   */
 693:Drivers/STM32L0xx_HAL_Driver/Inc/stm32l0xx_ll_rtc.h **** #define __LL_RTC_GET_DAY(__RTC_DATE__) (((__RTC_DATE__) >>RTC_OFFSET_DAY) & 0x000000FFU)
 694:Drivers/STM32L0xx_HAL_Driver/Inc/stm32l0xx_ll_rtc.h **** 
 695:Drivers/STM32L0xx_HAL_Driver/Inc/stm32l0xx_ll_rtc.h **** /**
 696:Drivers/STM32L0xx_HAL_Driver/Inc/stm32l0xx_ll_rtc.h ****   * @}
 697:Drivers/STM32L0xx_HAL_Driver/Inc/stm32l0xx_ll_rtc.h ****   */
 698:Drivers/STM32L0xx_HAL_Driver/Inc/stm32l0xx_ll_rtc.h **** 
 699:Drivers/STM32L0xx_HAL_Driver/Inc/stm32l0xx_ll_rtc.h **** /** @defgroup RTC_LL_EM_Time Time helper Macros
 700:Drivers/STM32L0xx_HAL_Driver/Inc/stm32l0xx_ll_rtc.h ****   * @{
 701:Drivers/STM32L0xx_HAL_Driver/Inc/stm32l0xx_ll_rtc.h ****   */
 702:Drivers/STM32L0xx_HAL_Driver/Inc/stm32l0xx_ll_rtc.h **** 
 703:Drivers/STM32L0xx_HAL_Driver/Inc/stm32l0xx_ll_rtc.h **** /**
 704:Drivers/STM32L0xx_HAL_Driver/Inc/stm32l0xx_ll_rtc.h ****   * @brief  Helper macro to retrieve hour in BCD format
 705:Drivers/STM32L0xx_HAL_Driver/Inc/stm32l0xx_ll_rtc.h ****   * @param  __RTC_TIME__ RTC time returned by @ref LL_RTC_TIME_Get function
 706:Drivers/STM32L0xx_HAL_Driver/Inc/stm32l0xx_ll_rtc.h ****   * @retval Hours in BCD format (0x01. . .0x12 or between Min_Data=0x00 and Max_Data=0x23)
 707:Drivers/STM32L0xx_HAL_Driver/Inc/stm32l0xx_ll_rtc.h ****   */
 708:Drivers/STM32L0xx_HAL_Driver/Inc/stm32l0xx_ll_rtc.h **** #define __LL_RTC_GET_HOUR(__RTC_TIME__) (((__RTC_TIME__) >> RTC_OFFSET_HOUR) & 0x000000FFU)
 709:Drivers/STM32L0xx_HAL_Driver/Inc/stm32l0xx_ll_rtc.h **** 
 710:Drivers/STM32L0xx_HAL_Driver/Inc/stm32l0xx_ll_rtc.h **** /**
 711:Drivers/STM32L0xx_HAL_Driver/Inc/stm32l0xx_ll_rtc.h ****   * @brief  Helper macro to retrieve minute in BCD format
 712:Drivers/STM32L0xx_HAL_Driver/Inc/stm32l0xx_ll_rtc.h ****   * @param  __RTC_TIME__ RTC time returned by @ref LL_RTC_TIME_Get function
 713:Drivers/STM32L0xx_HAL_Driver/Inc/stm32l0xx_ll_rtc.h ****   * @retval Minutes in BCD format (0x00. . .0x59)
 714:Drivers/STM32L0xx_HAL_Driver/Inc/stm32l0xx_ll_rtc.h ****   */
 715:Drivers/STM32L0xx_HAL_Driver/Inc/stm32l0xx_ll_rtc.h **** #define __LL_RTC_GET_MINUTE(__RTC_TIME__) (((__RTC_TIME__) >> RTC_OFFSET_MINUTE) & 0x000000FFU)
 716:Drivers/STM32L0xx_HAL_Driver/Inc/stm32l0xx_ll_rtc.h **** 
 717:Drivers/STM32L0xx_HAL_Driver/Inc/stm32l0xx_ll_rtc.h **** /**
 718:Drivers/STM32L0xx_HAL_Driver/Inc/stm32l0xx_ll_rtc.h ****   * @brief  Helper macro to retrieve second in BCD format
 719:Drivers/STM32L0xx_HAL_Driver/Inc/stm32l0xx_ll_rtc.h ****   * @param  __RTC_TIME__ RTC time returned by @ref LL_RTC_TIME_Get function
ARM GAS  /tmp/ccJpVmYc.s 			page 25


 720:Drivers/STM32L0xx_HAL_Driver/Inc/stm32l0xx_ll_rtc.h ****   * @retval Seconds in  format (0x00. . .0x59)
 721:Drivers/STM32L0xx_HAL_Driver/Inc/stm32l0xx_ll_rtc.h ****   */
 722:Drivers/STM32L0xx_HAL_Driver/Inc/stm32l0xx_ll_rtc.h **** #define __LL_RTC_GET_SECOND(__RTC_TIME__) ((__RTC_TIME__) & 0x000000FFU)
 723:Drivers/STM32L0xx_HAL_Driver/Inc/stm32l0xx_ll_rtc.h **** 
 724:Drivers/STM32L0xx_HAL_Driver/Inc/stm32l0xx_ll_rtc.h **** /**
 725:Drivers/STM32L0xx_HAL_Driver/Inc/stm32l0xx_ll_rtc.h ****   * @}
 726:Drivers/STM32L0xx_HAL_Driver/Inc/stm32l0xx_ll_rtc.h ****   */
 727:Drivers/STM32L0xx_HAL_Driver/Inc/stm32l0xx_ll_rtc.h **** 
 728:Drivers/STM32L0xx_HAL_Driver/Inc/stm32l0xx_ll_rtc.h **** /**
 729:Drivers/STM32L0xx_HAL_Driver/Inc/stm32l0xx_ll_rtc.h ****   * @}
 730:Drivers/STM32L0xx_HAL_Driver/Inc/stm32l0xx_ll_rtc.h ****   */
 731:Drivers/STM32L0xx_HAL_Driver/Inc/stm32l0xx_ll_rtc.h **** 
 732:Drivers/STM32L0xx_HAL_Driver/Inc/stm32l0xx_ll_rtc.h **** /* Exported functions --------------------------------------------------------*/
 733:Drivers/STM32L0xx_HAL_Driver/Inc/stm32l0xx_ll_rtc.h **** /** @defgroup RTC_LL_Exported_Functions RTC Exported Functions
 734:Drivers/STM32L0xx_HAL_Driver/Inc/stm32l0xx_ll_rtc.h ****   * @{
 735:Drivers/STM32L0xx_HAL_Driver/Inc/stm32l0xx_ll_rtc.h ****   */
 736:Drivers/STM32L0xx_HAL_Driver/Inc/stm32l0xx_ll_rtc.h **** 
 737:Drivers/STM32L0xx_HAL_Driver/Inc/stm32l0xx_ll_rtc.h **** /** @defgroup RTC_LL_EF_Configuration Configuration
 738:Drivers/STM32L0xx_HAL_Driver/Inc/stm32l0xx_ll_rtc.h ****   * @{
 739:Drivers/STM32L0xx_HAL_Driver/Inc/stm32l0xx_ll_rtc.h ****   */
 740:Drivers/STM32L0xx_HAL_Driver/Inc/stm32l0xx_ll_rtc.h **** 
 741:Drivers/STM32L0xx_HAL_Driver/Inc/stm32l0xx_ll_rtc.h **** /**
 742:Drivers/STM32L0xx_HAL_Driver/Inc/stm32l0xx_ll_rtc.h ****   * @brief  Set Hours format (24 hour/day or AM/PM hour format)
 743:Drivers/STM32L0xx_HAL_Driver/Inc/stm32l0xx_ll_rtc.h ****   * @note   Bit is write-protected. @ref LL_RTC_DisableWriteProtection function should be called be
 744:Drivers/STM32L0xx_HAL_Driver/Inc/stm32l0xx_ll_rtc.h ****   * @note   It can be written in initialization mode only (@ref LL_RTC_EnableInitMode function)
 745:Drivers/STM32L0xx_HAL_Driver/Inc/stm32l0xx_ll_rtc.h ****   * @rmtoll CR           FMT           LL_RTC_SetHourFormat
 746:Drivers/STM32L0xx_HAL_Driver/Inc/stm32l0xx_ll_rtc.h ****   * @param  RTCx RTC Instance
 747:Drivers/STM32L0xx_HAL_Driver/Inc/stm32l0xx_ll_rtc.h ****   * @param  HourFormat This parameter can be one of the following values:
 748:Drivers/STM32L0xx_HAL_Driver/Inc/stm32l0xx_ll_rtc.h ****   *         @arg @ref LL_RTC_HOURFORMAT_24HOUR
 749:Drivers/STM32L0xx_HAL_Driver/Inc/stm32l0xx_ll_rtc.h ****   *         @arg @ref LL_RTC_HOURFORMAT_AMPM
 750:Drivers/STM32L0xx_HAL_Driver/Inc/stm32l0xx_ll_rtc.h ****   * @retval None
 751:Drivers/STM32L0xx_HAL_Driver/Inc/stm32l0xx_ll_rtc.h ****   */
 752:Drivers/STM32L0xx_HAL_Driver/Inc/stm32l0xx_ll_rtc.h **** __STATIC_INLINE void LL_RTC_SetHourFormat(RTC_TypeDef *RTCx, uint32_t HourFormat)
 753:Drivers/STM32L0xx_HAL_Driver/Inc/stm32l0xx_ll_rtc.h **** {
 754:Drivers/STM32L0xx_HAL_Driver/Inc/stm32l0xx_ll_rtc.h ****   MODIFY_REG(RTCx->CR, RTC_CR_FMT, HourFormat);
 755:Drivers/STM32L0xx_HAL_Driver/Inc/stm32l0xx_ll_rtc.h **** }
 756:Drivers/STM32L0xx_HAL_Driver/Inc/stm32l0xx_ll_rtc.h **** 
 757:Drivers/STM32L0xx_HAL_Driver/Inc/stm32l0xx_ll_rtc.h **** /**
 758:Drivers/STM32L0xx_HAL_Driver/Inc/stm32l0xx_ll_rtc.h ****   * @brief  Get Hours format (24 hour/day or AM/PM hour format)
 759:Drivers/STM32L0xx_HAL_Driver/Inc/stm32l0xx_ll_rtc.h ****   * @rmtoll CR           FMT           LL_RTC_GetHourFormat
 760:Drivers/STM32L0xx_HAL_Driver/Inc/stm32l0xx_ll_rtc.h ****   * @param  RTCx RTC Instance
 761:Drivers/STM32L0xx_HAL_Driver/Inc/stm32l0xx_ll_rtc.h ****   * @retval Returned value can be one of the following values:
 762:Drivers/STM32L0xx_HAL_Driver/Inc/stm32l0xx_ll_rtc.h ****   *         @arg @ref LL_RTC_HOURFORMAT_24HOUR
 763:Drivers/STM32L0xx_HAL_Driver/Inc/stm32l0xx_ll_rtc.h ****   *         @arg @ref LL_RTC_HOURFORMAT_AMPM
 764:Drivers/STM32L0xx_HAL_Driver/Inc/stm32l0xx_ll_rtc.h ****   */
 765:Drivers/STM32L0xx_HAL_Driver/Inc/stm32l0xx_ll_rtc.h **** __STATIC_INLINE uint32_t LL_RTC_GetHourFormat(RTC_TypeDef *RTCx)
 766:Drivers/STM32L0xx_HAL_Driver/Inc/stm32l0xx_ll_rtc.h **** {
 767:Drivers/STM32L0xx_HAL_Driver/Inc/stm32l0xx_ll_rtc.h ****   return (uint32_t)(READ_BIT(RTCx->CR, RTC_CR_FMT));
 177              		.loc 2 767 21 view .LVU40
 178 000e 8368     		ldr	r3, [r0, #8]
 179              	.LBE121:
 180              	.LBE120:
 466:Drivers/STM32L0xx_HAL_Driver/Src/stm32l0xx_ll_rtc.c ****   /* Check the parameters */
 181              		.loc 1 466 1 view .LVU41
 182 0010 1500     		movs	r5, r2
 183              	.LBB124:
 184              	.LBB122:
ARM GAS  /tmp/ccJpVmYc.s 			page 26


 185              		.loc 2 767 10 view .LVU42
 186 0012 4022     		movs	r2, #64
 187              	.LVL4:
 188              		.loc 2 767 10 view .LVU43
 189              	.LBE122:
 190              	.LBE124:
 191              		.loc 1 473 6 view .LVU44
 192 0014 0029     		cmp	r1, #0
 193 0016 58D1     		bne	.L6
 474:Drivers/STM32L0xx_HAL_Driver/Src/stm32l0xx_ll_rtc.c ****   {
 475:Drivers/STM32L0xx_HAL_Driver/Src/stm32l0xx_ll_rtc.c ****     if (LL_RTC_GetHourFormat(RTCx) != LL_RTC_HOURFORMAT_24HOUR)
 194              		.loc 1 475 5 is_stmt 1 view .LVU45
 195              	.LVL5:
 196              	.LBB125:
 197              	.LBI120:
 765:Drivers/STM32L0xx_HAL_Driver/Inc/stm32l0xx_ll_rtc.h **** {
 198              		.loc 2 765 26 view .LVU46
 199              	.LBB123:
 200              		.loc 2 767 3 view .LVU47
 201              		.loc 2 767 10 is_stmt 0 view .LVU48
 202 0018 1100     		movs	r1, r2
 203              	.LVL6:
 204              		.loc 2 767 10 view .LVU49
 205 001a 1940     		ands	r1, r3
 206 001c 8846     		mov	r8, r1
 207              	.LVL7:
 208              		.loc 2 767 10 view .LVU50
 209              	.LBE123:
 210              	.LBE125:
 211              		.loc 1 475 8 view .LVU51
 212 001e 1A42     		tst	r2, r3
 213 0020 00D0     		beq	.LCB122
 214 0022 9AE0     		b	.L7	@long jump
 215              	.LCB122:
 476:Drivers/STM32L0xx_HAL_Driver/Src/stm32l0xx_ll_rtc.c ****     {
 477:Drivers/STM32L0xx_HAL_Driver/Src/stm32l0xx_ll_rtc.c ****       assert_param(IS_LL_RTC_HOUR12(RTC_AlarmStruct->AlarmTime.Hours));
 478:Drivers/STM32L0xx_HAL_Driver/Src/stm32l0xx_ll_rtc.c ****       assert_param(IS_LL_RTC_TIME_FORMAT(RTC_AlarmStruct->AlarmTime.TimeFormat));
 479:Drivers/STM32L0xx_HAL_Driver/Src/stm32l0xx_ll_rtc.c ****     }
 480:Drivers/STM32L0xx_HAL_Driver/Src/stm32l0xx_ll_rtc.c ****     else
 481:Drivers/STM32L0xx_HAL_Driver/Src/stm32l0xx_ll_rtc.c ****     {
 482:Drivers/STM32L0xx_HAL_Driver/Src/stm32l0xx_ll_rtc.c ****       RTC_AlarmStruct->AlarmTime.TimeFormat = 0x00U;
 216              		.loc 1 482 7 is_stmt 1 view .LVU52
 217              	.LBB126:
 218              	.LBB127:
 768:Drivers/STM32L0xx_HAL_Driver/Inc/stm32l0xx_ll_rtc.h **** }
 769:Drivers/STM32L0xx_HAL_Driver/Inc/stm32l0xx_ll_rtc.h **** 
 770:Drivers/STM32L0xx_HAL_Driver/Inc/stm32l0xx_ll_rtc.h **** /**
 771:Drivers/STM32L0xx_HAL_Driver/Inc/stm32l0xx_ll_rtc.h ****   * @brief  Select the flag to be routed to RTC_ALARM output
 772:Drivers/STM32L0xx_HAL_Driver/Inc/stm32l0xx_ll_rtc.h ****   * @note   Bit is write-protected. @ref LL_RTC_DisableWriteProtection function should be called be
 773:Drivers/STM32L0xx_HAL_Driver/Inc/stm32l0xx_ll_rtc.h ****   * @rmtoll CR           OSEL          LL_RTC_SetAlarmOutEvent
 774:Drivers/STM32L0xx_HAL_Driver/Inc/stm32l0xx_ll_rtc.h ****   * @param  RTCx RTC Instance
 775:Drivers/STM32L0xx_HAL_Driver/Inc/stm32l0xx_ll_rtc.h ****   * @param  AlarmOutput This parameter can be one of the following values:
 776:Drivers/STM32L0xx_HAL_Driver/Inc/stm32l0xx_ll_rtc.h ****   *         @arg @ref LL_RTC_ALARMOUT_DISABLE
 777:Drivers/STM32L0xx_HAL_Driver/Inc/stm32l0xx_ll_rtc.h ****   *         @arg @ref LL_RTC_ALARMOUT_ALMA
 778:Drivers/STM32L0xx_HAL_Driver/Inc/stm32l0xx_ll_rtc.h ****   *         @arg @ref LL_RTC_ALARMOUT_ALMB
 779:Drivers/STM32L0xx_HAL_Driver/Inc/stm32l0xx_ll_rtc.h ****   *         @arg @ref LL_RTC_ALARMOUT_WAKEUP
 780:Drivers/STM32L0xx_HAL_Driver/Inc/stm32l0xx_ll_rtc.h ****   * @retval None
ARM GAS  /tmp/ccJpVmYc.s 			page 27


 781:Drivers/STM32L0xx_HAL_Driver/Inc/stm32l0xx_ll_rtc.h ****   */
 782:Drivers/STM32L0xx_HAL_Driver/Inc/stm32l0xx_ll_rtc.h **** __STATIC_INLINE void LL_RTC_SetAlarmOutEvent(RTC_TypeDef *RTCx, uint32_t AlarmOutput)
 783:Drivers/STM32L0xx_HAL_Driver/Inc/stm32l0xx_ll_rtc.h **** {
 784:Drivers/STM32L0xx_HAL_Driver/Inc/stm32l0xx_ll_rtc.h ****   MODIFY_REG(RTCx->CR, RTC_CR_OSEL, AlarmOutput);
 785:Drivers/STM32L0xx_HAL_Driver/Inc/stm32l0xx_ll_rtc.h **** }
 786:Drivers/STM32L0xx_HAL_Driver/Inc/stm32l0xx_ll_rtc.h **** 
 787:Drivers/STM32L0xx_HAL_Driver/Inc/stm32l0xx_ll_rtc.h **** /**
 788:Drivers/STM32L0xx_HAL_Driver/Inc/stm32l0xx_ll_rtc.h ****   * @brief  Get the flag to be routed to RTC_ALARM output
 789:Drivers/STM32L0xx_HAL_Driver/Inc/stm32l0xx_ll_rtc.h ****   * @rmtoll CR           OSEL          LL_RTC_GetAlarmOutEvent
 790:Drivers/STM32L0xx_HAL_Driver/Inc/stm32l0xx_ll_rtc.h ****   * @param  RTCx RTC Instance
 791:Drivers/STM32L0xx_HAL_Driver/Inc/stm32l0xx_ll_rtc.h ****   * @retval Returned value can be one of the following values:
 792:Drivers/STM32L0xx_HAL_Driver/Inc/stm32l0xx_ll_rtc.h ****   *         @arg @ref LL_RTC_ALARMOUT_DISABLE
 793:Drivers/STM32L0xx_HAL_Driver/Inc/stm32l0xx_ll_rtc.h ****   *         @arg @ref LL_RTC_ALARMOUT_ALMA
 794:Drivers/STM32L0xx_HAL_Driver/Inc/stm32l0xx_ll_rtc.h ****   *         @arg @ref LL_RTC_ALARMOUT_ALMB
 795:Drivers/STM32L0xx_HAL_Driver/Inc/stm32l0xx_ll_rtc.h ****   *         @arg @ref LL_RTC_ALARMOUT_WAKEUP
 796:Drivers/STM32L0xx_HAL_Driver/Inc/stm32l0xx_ll_rtc.h ****   */
 797:Drivers/STM32L0xx_HAL_Driver/Inc/stm32l0xx_ll_rtc.h **** __STATIC_INLINE uint32_t LL_RTC_GetAlarmOutEvent(RTC_TypeDef *RTCx)
 798:Drivers/STM32L0xx_HAL_Driver/Inc/stm32l0xx_ll_rtc.h **** {
 799:Drivers/STM32L0xx_HAL_Driver/Inc/stm32l0xx_ll_rtc.h ****   return (uint32_t)(READ_BIT(RTCx->CR, RTC_CR_OSEL));
 800:Drivers/STM32L0xx_HAL_Driver/Inc/stm32l0xx_ll_rtc.h **** }
 801:Drivers/STM32L0xx_HAL_Driver/Inc/stm32l0xx_ll_rtc.h **** 
 802:Drivers/STM32L0xx_HAL_Driver/Inc/stm32l0xx_ll_rtc.h **** /**
 803:Drivers/STM32L0xx_HAL_Driver/Inc/stm32l0xx_ll_rtc.h ****   * @brief  Set RTC_ALARM output type (ALARM in push-pull or open-drain output)
 804:Drivers/STM32L0xx_HAL_Driver/Inc/stm32l0xx_ll_rtc.h ****   * @note   Used only when RTC_ALARM is mapped on PC13
 805:Drivers/STM32L0xx_HAL_Driver/Inc/stm32l0xx_ll_rtc.h ****   * @rmtoll OR        ALARMOUTTYPE  LL_RTC_SetAlarmOutputType
 806:Drivers/STM32L0xx_HAL_Driver/Inc/stm32l0xx_ll_rtc.h ****   * @param  RTCx RTC Instance
 807:Drivers/STM32L0xx_HAL_Driver/Inc/stm32l0xx_ll_rtc.h ****   * @param  Output This parameter can be one of the following values:
 808:Drivers/STM32L0xx_HAL_Driver/Inc/stm32l0xx_ll_rtc.h ****   *         @arg @ref LL_RTC_ALARM_OUTPUTTYPE_OPENDRAIN
 809:Drivers/STM32L0xx_HAL_Driver/Inc/stm32l0xx_ll_rtc.h ****   *         @arg @ref LL_RTC_ALARM_OUTPUTTYPE_PUSHPULL
 810:Drivers/STM32L0xx_HAL_Driver/Inc/stm32l0xx_ll_rtc.h ****   * @retval None
 811:Drivers/STM32L0xx_HAL_Driver/Inc/stm32l0xx_ll_rtc.h ****   */
 812:Drivers/STM32L0xx_HAL_Driver/Inc/stm32l0xx_ll_rtc.h **** __STATIC_INLINE void LL_RTC_SetAlarmOutputType(RTC_TypeDef *RTCx, uint32_t Output)
 813:Drivers/STM32L0xx_HAL_Driver/Inc/stm32l0xx_ll_rtc.h **** {
 814:Drivers/STM32L0xx_HAL_Driver/Inc/stm32l0xx_ll_rtc.h ****   MODIFY_REG(RTCx->OR, RTC_OR_ALARMOUTTYPE, Output);
 815:Drivers/STM32L0xx_HAL_Driver/Inc/stm32l0xx_ll_rtc.h **** }
 816:Drivers/STM32L0xx_HAL_Driver/Inc/stm32l0xx_ll_rtc.h **** 
 817:Drivers/STM32L0xx_HAL_Driver/Inc/stm32l0xx_ll_rtc.h **** /**
 818:Drivers/STM32L0xx_HAL_Driver/Inc/stm32l0xx_ll_rtc.h ****   * @brief  Get RTC_ALARM output type (ALARM in push-pull or open-drain output)
 819:Drivers/STM32L0xx_HAL_Driver/Inc/stm32l0xx_ll_rtc.h ****   * @note   used only when RTC_ALARM is mapped on PC13
 820:Drivers/STM32L0xx_HAL_Driver/Inc/stm32l0xx_ll_rtc.h ****   * @rmtoll OR        ALARMOUTTYPE  LL_RTC_GetAlarmOutputType
 821:Drivers/STM32L0xx_HAL_Driver/Inc/stm32l0xx_ll_rtc.h ****   * @param  RTCx RTC Instance
 822:Drivers/STM32L0xx_HAL_Driver/Inc/stm32l0xx_ll_rtc.h ****   * @retval Returned value can be one of the following values:
 823:Drivers/STM32L0xx_HAL_Driver/Inc/stm32l0xx_ll_rtc.h ****   *         @arg @ref LL_RTC_ALARM_OUTPUTTYPE_OPENDRAIN
 824:Drivers/STM32L0xx_HAL_Driver/Inc/stm32l0xx_ll_rtc.h ****   *         @arg @ref LL_RTC_ALARM_OUTPUTTYPE_PUSHPULL
 825:Drivers/STM32L0xx_HAL_Driver/Inc/stm32l0xx_ll_rtc.h ****   */
 826:Drivers/STM32L0xx_HAL_Driver/Inc/stm32l0xx_ll_rtc.h **** __STATIC_INLINE uint32_t LL_RTC_GetAlarmOutputType(RTC_TypeDef *RTCx)
 827:Drivers/STM32L0xx_HAL_Driver/Inc/stm32l0xx_ll_rtc.h **** {
 828:Drivers/STM32L0xx_HAL_Driver/Inc/stm32l0xx_ll_rtc.h ****   return (uint32_t)(READ_BIT(RTCx->OR, RTC_OR_ALARMOUTTYPE));
 829:Drivers/STM32L0xx_HAL_Driver/Inc/stm32l0xx_ll_rtc.h **** }
 830:Drivers/STM32L0xx_HAL_Driver/Inc/stm32l0xx_ll_rtc.h **** 
 831:Drivers/STM32L0xx_HAL_Driver/Inc/stm32l0xx_ll_rtc.h **** /**
 832:Drivers/STM32L0xx_HAL_Driver/Inc/stm32l0xx_ll_rtc.h ****   * @brief  Enable initialization mode
 833:Drivers/STM32L0xx_HAL_Driver/Inc/stm32l0xx_ll_rtc.h ****   * @note   Initialization mode is used to program time and date register (RTC_TR and RTC_DR)
 834:Drivers/STM32L0xx_HAL_Driver/Inc/stm32l0xx_ll_rtc.h ****   *         and prescaler register (RTC_PRER).
 835:Drivers/STM32L0xx_HAL_Driver/Inc/stm32l0xx_ll_rtc.h ****   *         Counters are stopped and start counting from the new value when INIT is reset.
 836:Drivers/STM32L0xx_HAL_Driver/Inc/stm32l0xx_ll_rtc.h ****   * @rmtoll ISR          INIT          LL_RTC_EnableInitMode
 837:Drivers/STM32L0xx_HAL_Driver/Inc/stm32l0xx_ll_rtc.h ****   * @param  RTCx RTC Instance
ARM GAS  /tmp/ccJpVmYc.s 			page 28


 838:Drivers/STM32L0xx_HAL_Driver/Inc/stm32l0xx_ll_rtc.h ****   * @retval None
 839:Drivers/STM32L0xx_HAL_Driver/Inc/stm32l0xx_ll_rtc.h ****   */
 840:Drivers/STM32L0xx_HAL_Driver/Inc/stm32l0xx_ll_rtc.h **** __STATIC_INLINE void LL_RTC_EnableInitMode(RTC_TypeDef *RTCx)
 841:Drivers/STM32L0xx_HAL_Driver/Inc/stm32l0xx_ll_rtc.h **** {
 842:Drivers/STM32L0xx_HAL_Driver/Inc/stm32l0xx_ll_rtc.h ****   /* Set the Initialization mode */
 843:Drivers/STM32L0xx_HAL_Driver/Inc/stm32l0xx_ll_rtc.h ****   WRITE_REG(RTCx->ISR, RTC_LL_INIT_MASK);
 844:Drivers/STM32L0xx_HAL_Driver/Inc/stm32l0xx_ll_rtc.h **** }
 845:Drivers/STM32L0xx_HAL_Driver/Inc/stm32l0xx_ll_rtc.h **** 
 846:Drivers/STM32L0xx_HAL_Driver/Inc/stm32l0xx_ll_rtc.h **** /**
 847:Drivers/STM32L0xx_HAL_Driver/Inc/stm32l0xx_ll_rtc.h ****   * @brief  Disable initialization mode (Free running mode)
 848:Drivers/STM32L0xx_HAL_Driver/Inc/stm32l0xx_ll_rtc.h ****   * @rmtoll ISR          INIT          LL_RTC_DisableInitMode
 849:Drivers/STM32L0xx_HAL_Driver/Inc/stm32l0xx_ll_rtc.h ****   * @param  RTCx RTC Instance
 850:Drivers/STM32L0xx_HAL_Driver/Inc/stm32l0xx_ll_rtc.h ****   * @retval None
 851:Drivers/STM32L0xx_HAL_Driver/Inc/stm32l0xx_ll_rtc.h ****   */
 852:Drivers/STM32L0xx_HAL_Driver/Inc/stm32l0xx_ll_rtc.h **** __STATIC_INLINE void LL_RTC_DisableInitMode(RTC_TypeDef *RTCx)
 853:Drivers/STM32L0xx_HAL_Driver/Inc/stm32l0xx_ll_rtc.h **** {
 854:Drivers/STM32L0xx_HAL_Driver/Inc/stm32l0xx_ll_rtc.h ****   /* Exit Initialization mode */
 855:Drivers/STM32L0xx_HAL_Driver/Inc/stm32l0xx_ll_rtc.h ****   WRITE_REG(RTCx->ISR, (uint32_t)~RTC_ISR_INIT);
 856:Drivers/STM32L0xx_HAL_Driver/Inc/stm32l0xx_ll_rtc.h **** }
 857:Drivers/STM32L0xx_HAL_Driver/Inc/stm32l0xx_ll_rtc.h **** 
 858:Drivers/STM32L0xx_HAL_Driver/Inc/stm32l0xx_ll_rtc.h **** /**
 859:Drivers/STM32L0xx_HAL_Driver/Inc/stm32l0xx_ll_rtc.h ****   * @brief  Set Output polarity (pin is low when ALRAF/ALRBF/WUTF is asserted)
 860:Drivers/STM32L0xx_HAL_Driver/Inc/stm32l0xx_ll_rtc.h ****   * @note   Bit is write-protected. @ref LL_RTC_DisableWriteProtection function should be called be
 861:Drivers/STM32L0xx_HAL_Driver/Inc/stm32l0xx_ll_rtc.h ****   * @rmtoll CR           POL           LL_RTC_SetOutputPolarity
 862:Drivers/STM32L0xx_HAL_Driver/Inc/stm32l0xx_ll_rtc.h ****   * @param  RTCx RTC Instance
 863:Drivers/STM32L0xx_HAL_Driver/Inc/stm32l0xx_ll_rtc.h ****   * @param  Polarity This parameter can be one of the following values:
 864:Drivers/STM32L0xx_HAL_Driver/Inc/stm32l0xx_ll_rtc.h ****   *         @arg @ref LL_RTC_OUTPUTPOLARITY_PIN_HIGH
 865:Drivers/STM32L0xx_HAL_Driver/Inc/stm32l0xx_ll_rtc.h ****   *         @arg @ref LL_RTC_OUTPUTPOLARITY_PIN_LOW
 866:Drivers/STM32L0xx_HAL_Driver/Inc/stm32l0xx_ll_rtc.h ****   * @retval None
 867:Drivers/STM32L0xx_HAL_Driver/Inc/stm32l0xx_ll_rtc.h ****   */
 868:Drivers/STM32L0xx_HAL_Driver/Inc/stm32l0xx_ll_rtc.h **** __STATIC_INLINE void LL_RTC_SetOutputPolarity(RTC_TypeDef *RTCx, uint32_t Polarity)
 869:Drivers/STM32L0xx_HAL_Driver/Inc/stm32l0xx_ll_rtc.h **** {
 870:Drivers/STM32L0xx_HAL_Driver/Inc/stm32l0xx_ll_rtc.h ****   MODIFY_REG(RTCx->CR, RTC_CR_POL, Polarity);
 871:Drivers/STM32L0xx_HAL_Driver/Inc/stm32l0xx_ll_rtc.h **** }
 872:Drivers/STM32L0xx_HAL_Driver/Inc/stm32l0xx_ll_rtc.h **** 
 873:Drivers/STM32L0xx_HAL_Driver/Inc/stm32l0xx_ll_rtc.h **** /**
 874:Drivers/STM32L0xx_HAL_Driver/Inc/stm32l0xx_ll_rtc.h ****   * @brief  Get Output polarity
 875:Drivers/STM32L0xx_HAL_Driver/Inc/stm32l0xx_ll_rtc.h ****   * @rmtoll CR           POL           LL_RTC_GetOutputPolarity
 876:Drivers/STM32L0xx_HAL_Driver/Inc/stm32l0xx_ll_rtc.h ****   * @param  RTCx RTC Instance
 877:Drivers/STM32L0xx_HAL_Driver/Inc/stm32l0xx_ll_rtc.h ****   * @retval Returned value can be one of the following values:
 878:Drivers/STM32L0xx_HAL_Driver/Inc/stm32l0xx_ll_rtc.h ****   *         @arg @ref LL_RTC_OUTPUTPOLARITY_PIN_HIGH
 879:Drivers/STM32L0xx_HAL_Driver/Inc/stm32l0xx_ll_rtc.h ****   *         @arg @ref LL_RTC_OUTPUTPOLARITY_PIN_LOW
 880:Drivers/STM32L0xx_HAL_Driver/Inc/stm32l0xx_ll_rtc.h ****   */
 881:Drivers/STM32L0xx_HAL_Driver/Inc/stm32l0xx_ll_rtc.h **** __STATIC_INLINE uint32_t LL_RTC_GetOutputPolarity(RTC_TypeDef *RTCx)
 882:Drivers/STM32L0xx_HAL_Driver/Inc/stm32l0xx_ll_rtc.h **** {
 883:Drivers/STM32L0xx_HAL_Driver/Inc/stm32l0xx_ll_rtc.h ****   return (uint32_t)(READ_BIT(RTCx->CR, RTC_CR_POL));
 884:Drivers/STM32L0xx_HAL_Driver/Inc/stm32l0xx_ll_rtc.h **** }
 885:Drivers/STM32L0xx_HAL_Driver/Inc/stm32l0xx_ll_rtc.h **** 
 886:Drivers/STM32L0xx_HAL_Driver/Inc/stm32l0xx_ll_rtc.h **** /**
 887:Drivers/STM32L0xx_HAL_Driver/Inc/stm32l0xx_ll_rtc.h ****   * @brief  Enable Bypass the shadow registers
 888:Drivers/STM32L0xx_HAL_Driver/Inc/stm32l0xx_ll_rtc.h ****   * @note   Bit is write-protected. @ref LL_RTC_DisableWriteProtection function should be called be
 889:Drivers/STM32L0xx_HAL_Driver/Inc/stm32l0xx_ll_rtc.h ****   * @rmtoll CR           BYPSHAD       LL_RTC_EnableShadowRegBypass
 890:Drivers/STM32L0xx_HAL_Driver/Inc/stm32l0xx_ll_rtc.h ****   * @param  RTCx RTC Instance
 891:Drivers/STM32L0xx_HAL_Driver/Inc/stm32l0xx_ll_rtc.h ****   * @retval None
 892:Drivers/STM32L0xx_HAL_Driver/Inc/stm32l0xx_ll_rtc.h ****   */
 893:Drivers/STM32L0xx_HAL_Driver/Inc/stm32l0xx_ll_rtc.h **** __STATIC_INLINE void LL_RTC_EnableShadowRegBypass(RTC_TypeDef *RTCx)
 894:Drivers/STM32L0xx_HAL_Driver/Inc/stm32l0xx_ll_rtc.h **** {
ARM GAS  /tmp/ccJpVmYc.s 			page 29


 895:Drivers/STM32L0xx_HAL_Driver/Inc/stm32l0xx_ll_rtc.h ****   SET_BIT(RTCx->CR, RTC_CR_BYPSHAD);
 896:Drivers/STM32L0xx_HAL_Driver/Inc/stm32l0xx_ll_rtc.h **** }
 897:Drivers/STM32L0xx_HAL_Driver/Inc/stm32l0xx_ll_rtc.h **** 
 898:Drivers/STM32L0xx_HAL_Driver/Inc/stm32l0xx_ll_rtc.h **** /**
 899:Drivers/STM32L0xx_HAL_Driver/Inc/stm32l0xx_ll_rtc.h ****   * @brief  Disable Bypass the shadow registers
 900:Drivers/STM32L0xx_HAL_Driver/Inc/stm32l0xx_ll_rtc.h ****   * @rmtoll CR           BYPSHAD       LL_RTC_DisableShadowRegBypass
 901:Drivers/STM32L0xx_HAL_Driver/Inc/stm32l0xx_ll_rtc.h ****   * @param  RTCx RTC Instance
 902:Drivers/STM32L0xx_HAL_Driver/Inc/stm32l0xx_ll_rtc.h ****   * @retval None
 903:Drivers/STM32L0xx_HAL_Driver/Inc/stm32l0xx_ll_rtc.h ****   */
 904:Drivers/STM32L0xx_HAL_Driver/Inc/stm32l0xx_ll_rtc.h **** __STATIC_INLINE void LL_RTC_DisableShadowRegBypass(RTC_TypeDef *RTCx)
 905:Drivers/STM32L0xx_HAL_Driver/Inc/stm32l0xx_ll_rtc.h **** {
 906:Drivers/STM32L0xx_HAL_Driver/Inc/stm32l0xx_ll_rtc.h ****   CLEAR_BIT(RTCx->CR, RTC_CR_BYPSHAD);
 907:Drivers/STM32L0xx_HAL_Driver/Inc/stm32l0xx_ll_rtc.h **** }
 908:Drivers/STM32L0xx_HAL_Driver/Inc/stm32l0xx_ll_rtc.h **** 
 909:Drivers/STM32L0xx_HAL_Driver/Inc/stm32l0xx_ll_rtc.h **** /**
 910:Drivers/STM32L0xx_HAL_Driver/Inc/stm32l0xx_ll_rtc.h ****   * @brief  Check if Shadow registers bypass is enabled or not.
 911:Drivers/STM32L0xx_HAL_Driver/Inc/stm32l0xx_ll_rtc.h ****   * @rmtoll CR           BYPSHAD       LL_RTC_IsShadowRegBypassEnabled
 912:Drivers/STM32L0xx_HAL_Driver/Inc/stm32l0xx_ll_rtc.h ****   * @param  RTCx RTC Instance
 913:Drivers/STM32L0xx_HAL_Driver/Inc/stm32l0xx_ll_rtc.h ****   * @retval State of bit (1 or 0).
 914:Drivers/STM32L0xx_HAL_Driver/Inc/stm32l0xx_ll_rtc.h ****   */
 915:Drivers/STM32L0xx_HAL_Driver/Inc/stm32l0xx_ll_rtc.h **** __STATIC_INLINE uint32_t LL_RTC_IsShadowRegBypassEnabled(RTC_TypeDef *RTCx)
 916:Drivers/STM32L0xx_HAL_Driver/Inc/stm32l0xx_ll_rtc.h **** {
 917:Drivers/STM32L0xx_HAL_Driver/Inc/stm32l0xx_ll_rtc.h ****   return ((READ_BIT(RTCx->CR, RTC_CR_BYPSHAD) == (RTC_CR_BYPSHAD)) ? 1UL : 0UL);
 918:Drivers/STM32L0xx_HAL_Driver/Inc/stm32l0xx_ll_rtc.h **** }
 919:Drivers/STM32L0xx_HAL_Driver/Inc/stm32l0xx_ll_rtc.h **** 
 920:Drivers/STM32L0xx_HAL_Driver/Inc/stm32l0xx_ll_rtc.h **** /**
 921:Drivers/STM32L0xx_HAL_Driver/Inc/stm32l0xx_ll_rtc.h ****   * @brief  Enable RTC_REFIN reference clock detection (50 or 60 Hz)
 922:Drivers/STM32L0xx_HAL_Driver/Inc/stm32l0xx_ll_rtc.h ****   * @note   Bit is write-protected. @ref LL_RTC_DisableWriteProtection function should be called be
 923:Drivers/STM32L0xx_HAL_Driver/Inc/stm32l0xx_ll_rtc.h ****   * @note   It can be written in initialization mode only (@ref LL_RTC_EnableInitMode function)
 924:Drivers/STM32L0xx_HAL_Driver/Inc/stm32l0xx_ll_rtc.h ****   * @rmtoll CR           REFCKON       LL_RTC_EnableRefClock
 925:Drivers/STM32L0xx_HAL_Driver/Inc/stm32l0xx_ll_rtc.h ****   * @param  RTCx RTC Instance
 926:Drivers/STM32L0xx_HAL_Driver/Inc/stm32l0xx_ll_rtc.h ****   * @retval None
 927:Drivers/STM32L0xx_HAL_Driver/Inc/stm32l0xx_ll_rtc.h ****   */
 928:Drivers/STM32L0xx_HAL_Driver/Inc/stm32l0xx_ll_rtc.h **** __STATIC_INLINE void LL_RTC_EnableRefClock(RTC_TypeDef *RTCx)
 929:Drivers/STM32L0xx_HAL_Driver/Inc/stm32l0xx_ll_rtc.h **** {
 930:Drivers/STM32L0xx_HAL_Driver/Inc/stm32l0xx_ll_rtc.h ****   SET_BIT(RTCx->CR, RTC_CR_REFCKON);
 931:Drivers/STM32L0xx_HAL_Driver/Inc/stm32l0xx_ll_rtc.h **** }
 932:Drivers/STM32L0xx_HAL_Driver/Inc/stm32l0xx_ll_rtc.h **** 
 933:Drivers/STM32L0xx_HAL_Driver/Inc/stm32l0xx_ll_rtc.h **** /**
 934:Drivers/STM32L0xx_HAL_Driver/Inc/stm32l0xx_ll_rtc.h ****   * @brief  Disable RTC_REFIN reference clock detection (50 or 60 Hz)
 935:Drivers/STM32L0xx_HAL_Driver/Inc/stm32l0xx_ll_rtc.h ****   * @note   Bit is write-protected. @ref LL_RTC_DisableWriteProtection function should be called be
 936:Drivers/STM32L0xx_HAL_Driver/Inc/stm32l0xx_ll_rtc.h ****   * @note   It can be written in initialization mode only (@ref LL_RTC_EnableInitMode function)
 937:Drivers/STM32L0xx_HAL_Driver/Inc/stm32l0xx_ll_rtc.h ****   * @rmtoll CR           REFCKON       LL_RTC_DisableRefClock
 938:Drivers/STM32L0xx_HAL_Driver/Inc/stm32l0xx_ll_rtc.h ****   * @param  RTCx RTC Instance
 939:Drivers/STM32L0xx_HAL_Driver/Inc/stm32l0xx_ll_rtc.h ****   * @retval None
 940:Drivers/STM32L0xx_HAL_Driver/Inc/stm32l0xx_ll_rtc.h ****   */
 941:Drivers/STM32L0xx_HAL_Driver/Inc/stm32l0xx_ll_rtc.h **** __STATIC_INLINE void LL_RTC_DisableRefClock(RTC_TypeDef *RTCx)
 942:Drivers/STM32L0xx_HAL_Driver/Inc/stm32l0xx_ll_rtc.h **** {
 943:Drivers/STM32L0xx_HAL_Driver/Inc/stm32l0xx_ll_rtc.h ****   CLEAR_BIT(RTCx->CR, RTC_CR_REFCKON);
 944:Drivers/STM32L0xx_HAL_Driver/Inc/stm32l0xx_ll_rtc.h **** }
 945:Drivers/STM32L0xx_HAL_Driver/Inc/stm32l0xx_ll_rtc.h **** 
 946:Drivers/STM32L0xx_HAL_Driver/Inc/stm32l0xx_ll_rtc.h **** /**
 947:Drivers/STM32L0xx_HAL_Driver/Inc/stm32l0xx_ll_rtc.h ****   * @brief  Set Asynchronous prescaler factor
 948:Drivers/STM32L0xx_HAL_Driver/Inc/stm32l0xx_ll_rtc.h ****   * @rmtoll PRER         PREDIV_A      LL_RTC_SetAsynchPrescaler
 949:Drivers/STM32L0xx_HAL_Driver/Inc/stm32l0xx_ll_rtc.h ****   * @param  RTCx RTC Instance
 950:Drivers/STM32L0xx_HAL_Driver/Inc/stm32l0xx_ll_rtc.h ****   * @param  AsynchPrescaler Value between Min_Data = 0 and Max_Data = 0x7F
 951:Drivers/STM32L0xx_HAL_Driver/Inc/stm32l0xx_ll_rtc.h ****   * @retval None
ARM GAS  /tmp/ccJpVmYc.s 			page 30


 952:Drivers/STM32L0xx_HAL_Driver/Inc/stm32l0xx_ll_rtc.h ****   */
 953:Drivers/STM32L0xx_HAL_Driver/Inc/stm32l0xx_ll_rtc.h **** __STATIC_INLINE void LL_RTC_SetAsynchPrescaler(RTC_TypeDef *RTCx, uint32_t AsynchPrescaler)
 954:Drivers/STM32L0xx_HAL_Driver/Inc/stm32l0xx_ll_rtc.h **** {
 955:Drivers/STM32L0xx_HAL_Driver/Inc/stm32l0xx_ll_rtc.h ****   MODIFY_REG(RTCx->PRER, RTC_PRER_PREDIV_A, AsynchPrescaler << RTC_PRER_PREDIV_A_Pos);
 956:Drivers/STM32L0xx_HAL_Driver/Inc/stm32l0xx_ll_rtc.h **** }
 957:Drivers/STM32L0xx_HAL_Driver/Inc/stm32l0xx_ll_rtc.h **** 
 958:Drivers/STM32L0xx_HAL_Driver/Inc/stm32l0xx_ll_rtc.h **** /**
 959:Drivers/STM32L0xx_HAL_Driver/Inc/stm32l0xx_ll_rtc.h ****   * @brief  Set Synchronous prescaler factor
 960:Drivers/STM32L0xx_HAL_Driver/Inc/stm32l0xx_ll_rtc.h ****   * @rmtoll PRER         PREDIV_S      LL_RTC_SetSynchPrescaler
 961:Drivers/STM32L0xx_HAL_Driver/Inc/stm32l0xx_ll_rtc.h ****   * @param  RTCx RTC Instance
 962:Drivers/STM32L0xx_HAL_Driver/Inc/stm32l0xx_ll_rtc.h ****   * @param  SynchPrescaler Value between Min_Data = 0 and Max_Data = 0x7FFF
 963:Drivers/STM32L0xx_HAL_Driver/Inc/stm32l0xx_ll_rtc.h ****   * @retval None
 964:Drivers/STM32L0xx_HAL_Driver/Inc/stm32l0xx_ll_rtc.h ****   */
 965:Drivers/STM32L0xx_HAL_Driver/Inc/stm32l0xx_ll_rtc.h **** __STATIC_INLINE void LL_RTC_SetSynchPrescaler(RTC_TypeDef *RTCx, uint32_t SynchPrescaler)
 966:Drivers/STM32L0xx_HAL_Driver/Inc/stm32l0xx_ll_rtc.h **** {
 967:Drivers/STM32L0xx_HAL_Driver/Inc/stm32l0xx_ll_rtc.h ****   MODIFY_REG(RTCx->PRER, RTC_PRER_PREDIV_S, SynchPrescaler);
 968:Drivers/STM32L0xx_HAL_Driver/Inc/stm32l0xx_ll_rtc.h **** }
 969:Drivers/STM32L0xx_HAL_Driver/Inc/stm32l0xx_ll_rtc.h **** 
 970:Drivers/STM32L0xx_HAL_Driver/Inc/stm32l0xx_ll_rtc.h **** /**
 971:Drivers/STM32L0xx_HAL_Driver/Inc/stm32l0xx_ll_rtc.h ****   * @brief  Get Asynchronous prescaler factor
 972:Drivers/STM32L0xx_HAL_Driver/Inc/stm32l0xx_ll_rtc.h ****   * @rmtoll PRER         PREDIV_A      LL_RTC_GetAsynchPrescaler
 973:Drivers/STM32L0xx_HAL_Driver/Inc/stm32l0xx_ll_rtc.h ****   * @param  RTCx RTC Instance
 974:Drivers/STM32L0xx_HAL_Driver/Inc/stm32l0xx_ll_rtc.h ****   * @retval Value between Min_Data = 0 and Max_Data = 0x7F
 975:Drivers/STM32L0xx_HAL_Driver/Inc/stm32l0xx_ll_rtc.h ****   */
 976:Drivers/STM32L0xx_HAL_Driver/Inc/stm32l0xx_ll_rtc.h **** __STATIC_INLINE uint32_t LL_RTC_GetAsynchPrescaler(RTC_TypeDef *RTCx)
 977:Drivers/STM32L0xx_HAL_Driver/Inc/stm32l0xx_ll_rtc.h **** {
 978:Drivers/STM32L0xx_HAL_Driver/Inc/stm32l0xx_ll_rtc.h ****   return (uint32_t)(READ_BIT(RTCx->PRER, RTC_PRER_PREDIV_A) >> RTC_PRER_PREDIV_A_Pos);
 979:Drivers/STM32L0xx_HAL_Driver/Inc/stm32l0xx_ll_rtc.h **** }
 980:Drivers/STM32L0xx_HAL_Driver/Inc/stm32l0xx_ll_rtc.h **** 
 981:Drivers/STM32L0xx_HAL_Driver/Inc/stm32l0xx_ll_rtc.h **** /**
 982:Drivers/STM32L0xx_HAL_Driver/Inc/stm32l0xx_ll_rtc.h ****   * @brief  Get Synchronous prescaler factor
 983:Drivers/STM32L0xx_HAL_Driver/Inc/stm32l0xx_ll_rtc.h ****   * @rmtoll PRER         PREDIV_S      LL_RTC_GetSynchPrescaler
 984:Drivers/STM32L0xx_HAL_Driver/Inc/stm32l0xx_ll_rtc.h ****   * @param  RTCx RTC Instance
 985:Drivers/STM32L0xx_HAL_Driver/Inc/stm32l0xx_ll_rtc.h ****   * @retval Value between Min_Data = 0 and Max_Data = 0x7FFF
 986:Drivers/STM32L0xx_HAL_Driver/Inc/stm32l0xx_ll_rtc.h ****   */
 987:Drivers/STM32L0xx_HAL_Driver/Inc/stm32l0xx_ll_rtc.h **** __STATIC_INLINE uint32_t LL_RTC_GetSynchPrescaler(RTC_TypeDef *RTCx)
 988:Drivers/STM32L0xx_HAL_Driver/Inc/stm32l0xx_ll_rtc.h **** {
 989:Drivers/STM32L0xx_HAL_Driver/Inc/stm32l0xx_ll_rtc.h ****   return (uint32_t)(READ_BIT(RTCx->PRER, RTC_PRER_PREDIV_S));
 990:Drivers/STM32L0xx_HAL_Driver/Inc/stm32l0xx_ll_rtc.h **** }
 991:Drivers/STM32L0xx_HAL_Driver/Inc/stm32l0xx_ll_rtc.h **** 
 992:Drivers/STM32L0xx_HAL_Driver/Inc/stm32l0xx_ll_rtc.h **** /**
 993:Drivers/STM32L0xx_HAL_Driver/Inc/stm32l0xx_ll_rtc.h ****   * @brief  Enable the write protection for RTC registers.
 994:Drivers/STM32L0xx_HAL_Driver/Inc/stm32l0xx_ll_rtc.h ****   * @rmtoll WPR          KEY           LL_RTC_EnableWriteProtection
 995:Drivers/STM32L0xx_HAL_Driver/Inc/stm32l0xx_ll_rtc.h ****   * @param  RTCx RTC Instance
 996:Drivers/STM32L0xx_HAL_Driver/Inc/stm32l0xx_ll_rtc.h ****   * @retval None
 997:Drivers/STM32L0xx_HAL_Driver/Inc/stm32l0xx_ll_rtc.h ****   */
 998:Drivers/STM32L0xx_HAL_Driver/Inc/stm32l0xx_ll_rtc.h **** __STATIC_INLINE void LL_RTC_EnableWriteProtection(RTC_TypeDef *RTCx)
 999:Drivers/STM32L0xx_HAL_Driver/Inc/stm32l0xx_ll_rtc.h **** {
1000:Drivers/STM32L0xx_HAL_Driver/Inc/stm32l0xx_ll_rtc.h ****   WRITE_REG(RTCx->WPR, RTC_WRITE_PROTECTION_DISABLE);
1001:Drivers/STM32L0xx_HAL_Driver/Inc/stm32l0xx_ll_rtc.h **** }
1002:Drivers/STM32L0xx_HAL_Driver/Inc/stm32l0xx_ll_rtc.h **** 
1003:Drivers/STM32L0xx_HAL_Driver/Inc/stm32l0xx_ll_rtc.h **** /**
1004:Drivers/STM32L0xx_HAL_Driver/Inc/stm32l0xx_ll_rtc.h ****   * @brief  Disable the write protection for RTC registers.
1005:Drivers/STM32L0xx_HAL_Driver/Inc/stm32l0xx_ll_rtc.h ****   * @rmtoll WPR          KEY           LL_RTC_DisableWriteProtection
1006:Drivers/STM32L0xx_HAL_Driver/Inc/stm32l0xx_ll_rtc.h ****   * @param  RTCx RTC Instance
1007:Drivers/STM32L0xx_HAL_Driver/Inc/stm32l0xx_ll_rtc.h ****   * @retval None
1008:Drivers/STM32L0xx_HAL_Driver/Inc/stm32l0xx_ll_rtc.h ****   */
ARM GAS  /tmp/ccJpVmYc.s 			page 31


1009:Drivers/STM32L0xx_HAL_Driver/Inc/stm32l0xx_ll_rtc.h **** __STATIC_INLINE void LL_RTC_DisableWriteProtection(RTC_TypeDef *RTCx)
1010:Drivers/STM32L0xx_HAL_Driver/Inc/stm32l0xx_ll_rtc.h **** {
1011:Drivers/STM32L0xx_HAL_Driver/Inc/stm32l0xx_ll_rtc.h ****   WRITE_REG(RTCx->WPR, RTC_WRITE_PROTECTION_ENABLE_1);
 219              		.loc 2 1011 3 is_stmt 0 view .LVU53
 220 0024 CA23     		movs	r3, #202
 221              	.LBE127:
 222              	.LBE126:
 223              		.loc 1 482 45 view .LVU54
 224 0026 2960     		str	r1, [r5]
 483:Drivers/STM32L0xx_HAL_Driver/Src/stm32l0xx_ll_rtc.c ****       assert_param(IS_LL_RTC_HOUR24(RTC_AlarmStruct->AlarmTime.Hours));
 484:Drivers/STM32L0xx_HAL_Driver/Src/stm32l0xx_ll_rtc.c ****     }
 485:Drivers/STM32L0xx_HAL_Driver/Src/stm32l0xx_ll_rtc.c ****     assert_param(IS_LL_RTC_MINUTES(RTC_AlarmStruct->AlarmTime.Minutes));
 486:Drivers/STM32L0xx_HAL_Driver/Src/stm32l0xx_ll_rtc.c ****     assert_param(IS_LL_RTC_SECONDS(RTC_AlarmStruct->AlarmTime.Seconds));
 487:Drivers/STM32L0xx_HAL_Driver/Src/stm32l0xx_ll_rtc.c **** 
 488:Drivers/STM32L0xx_HAL_Driver/Src/stm32l0xx_ll_rtc.c ****     if (RTC_AlarmStruct->AlarmDateWeekDaySel == LL_RTC_ALMA_DATEWEEKDAYSEL_DATE)
 489:Drivers/STM32L0xx_HAL_Driver/Src/stm32l0xx_ll_rtc.c ****     {
 490:Drivers/STM32L0xx_HAL_Driver/Src/stm32l0xx_ll_rtc.c ****       assert_param(IS_LL_RTC_DAY(RTC_AlarmStruct->AlarmDateWeekDay));
 491:Drivers/STM32L0xx_HAL_Driver/Src/stm32l0xx_ll_rtc.c ****     }
 492:Drivers/STM32L0xx_HAL_Driver/Src/stm32l0xx_ll_rtc.c ****     else
 493:Drivers/STM32L0xx_HAL_Driver/Src/stm32l0xx_ll_rtc.c ****     {
 494:Drivers/STM32L0xx_HAL_Driver/Src/stm32l0xx_ll_rtc.c ****       assert_param(IS_LL_RTC_WEEKDAY(RTC_AlarmStruct->AlarmDateWeekDay));
 495:Drivers/STM32L0xx_HAL_Driver/Src/stm32l0xx_ll_rtc.c ****     }
 496:Drivers/STM32L0xx_HAL_Driver/Src/stm32l0xx_ll_rtc.c ****   }
 497:Drivers/STM32L0xx_HAL_Driver/Src/stm32l0xx_ll_rtc.c ****   else
 498:Drivers/STM32L0xx_HAL_Driver/Src/stm32l0xx_ll_rtc.c ****   {
 499:Drivers/STM32L0xx_HAL_Driver/Src/stm32l0xx_ll_rtc.c ****     if (LL_RTC_GetHourFormat(RTCx) != LL_RTC_HOURFORMAT_24HOUR)
 500:Drivers/STM32L0xx_HAL_Driver/Src/stm32l0xx_ll_rtc.c ****     {
 501:Drivers/STM32L0xx_HAL_Driver/Src/stm32l0xx_ll_rtc.c ****       assert_param(IS_LL_RTC_HOUR12(__LL_RTC_CONVERT_BCD2BIN(RTC_AlarmStruct->AlarmTime.Hours)));
 502:Drivers/STM32L0xx_HAL_Driver/Src/stm32l0xx_ll_rtc.c ****       assert_param(IS_LL_RTC_TIME_FORMAT(RTC_AlarmStruct->AlarmTime.TimeFormat));
 503:Drivers/STM32L0xx_HAL_Driver/Src/stm32l0xx_ll_rtc.c ****     }
 504:Drivers/STM32L0xx_HAL_Driver/Src/stm32l0xx_ll_rtc.c ****     else
 505:Drivers/STM32L0xx_HAL_Driver/Src/stm32l0xx_ll_rtc.c ****     {
 506:Drivers/STM32L0xx_HAL_Driver/Src/stm32l0xx_ll_rtc.c ****       RTC_AlarmStruct->AlarmTime.TimeFormat = 0x00U;
 507:Drivers/STM32L0xx_HAL_Driver/Src/stm32l0xx_ll_rtc.c ****       assert_param(IS_LL_RTC_HOUR24(__LL_RTC_CONVERT_BCD2BIN(RTC_AlarmStruct->AlarmTime.Hours)));
 508:Drivers/STM32L0xx_HAL_Driver/Src/stm32l0xx_ll_rtc.c ****     }
 509:Drivers/STM32L0xx_HAL_Driver/Src/stm32l0xx_ll_rtc.c **** 
 510:Drivers/STM32L0xx_HAL_Driver/Src/stm32l0xx_ll_rtc.c ****     assert_param(IS_LL_RTC_MINUTES(__LL_RTC_CONVERT_BCD2BIN(RTC_AlarmStruct->AlarmTime.Minutes)));
 511:Drivers/STM32L0xx_HAL_Driver/Src/stm32l0xx_ll_rtc.c ****     assert_param(IS_LL_RTC_SECONDS(__LL_RTC_CONVERT_BCD2BIN(RTC_AlarmStruct->AlarmTime.Seconds)));
 512:Drivers/STM32L0xx_HAL_Driver/Src/stm32l0xx_ll_rtc.c **** 
 513:Drivers/STM32L0xx_HAL_Driver/Src/stm32l0xx_ll_rtc.c ****     if (RTC_AlarmStruct->AlarmDateWeekDaySel == LL_RTC_ALMA_DATEWEEKDAYSEL_DATE)
 514:Drivers/STM32L0xx_HAL_Driver/Src/stm32l0xx_ll_rtc.c ****     {
 515:Drivers/STM32L0xx_HAL_Driver/Src/stm32l0xx_ll_rtc.c ****       assert_param(IS_LL_RTC_DAY(__LL_RTC_CONVERT_BCD2BIN(RTC_AlarmStruct->AlarmDateWeekDay)));
 516:Drivers/STM32L0xx_HAL_Driver/Src/stm32l0xx_ll_rtc.c ****     }
 517:Drivers/STM32L0xx_HAL_Driver/Src/stm32l0xx_ll_rtc.c ****     else
 518:Drivers/STM32L0xx_HAL_Driver/Src/stm32l0xx_ll_rtc.c ****     {
 519:Drivers/STM32L0xx_HAL_Driver/Src/stm32l0xx_ll_rtc.c ****       assert_param(IS_LL_RTC_WEEKDAY(__LL_RTC_CONVERT_BCD2BIN(RTC_AlarmStruct->AlarmDateWeekDay)));
 225              		.loc 1 519 7 is_stmt 1 view .LVU55
 520:Drivers/STM32L0xx_HAL_Driver/Src/stm32l0xx_ll_rtc.c ****     }
 521:Drivers/STM32L0xx_HAL_Driver/Src/stm32l0xx_ll_rtc.c ****   }
 522:Drivers/STM32L0xx_HAL_Driver/Src/stm32l0xx_ll_rtc.c **** 
 523:Drivers/STM32L0xx_HAL_Driver/Src/stm32l0xx_ll_rtc.c ****   /* Disable the write protection for RTC registers */
 524:Drivers/STM32L0xx_HAL_Driver/Src/stm32l0xx_ll_rtc.c ****   LL_RTC_DisableWriteProtection(RTCx);
 226              		.loc 1 524 3 view .LVU56
 227              	.LVL8:
 228              	.LBB134:
 229              	.LBI126:
1009:Drivers/STM32L0xx_HAL_Driver/Inc/stm32l0xx_ll_rtc.h **** {
ARM GAS  /tmp/ccJpVmYc.s 			page 32


 230              		.loc 2 1009 22 view .LVU57
 231              	.LBB128:
 232              		.loc 2 1011 3 view .LVU58
 233 0028 6362     		str	r3, [r4, #36]
1012:Drivers/STM32L0xx_HAL_Driver/Inc/stm32l0xx_ll_rtc.h ****   WRITE_REG(RTCx->WPR, RTC_WRITE_PROTECTION_ENABLE_2);
 234              		.loc 2 1012 3 view .LVU59
 235 002a 773B     		subs	r3, r3, #119
 236 002c 6362     		str	r3, [r4, #36]
 237              	.LVL9:
 238              		.loc 2 1012 3 is_stmt 0 view .LVU60
 239              	.LBE128:
 240              	.LBE134:
 525:Drivers/STM32L0xx_HAL_Driver/Src/stm32l0xx_ll_rtc.c **** 
 526:Drivers/STM32L0xx_HAL_Driver/Src/stm32l0xx_ll_rtc.c ****   /* Select weekday selection */
 527:Drivers/STM32L0xx_HAL_Driver/Src/stm32l0xx_ll_rtc.c ****   if (RTC_AlarmStruct->AlarmDateWeekDaySel == LL_RTC_ALMA_DATEWEEKDAYSEL_DATE)
 241              		.loc 1 527 3 is_stmt 1 view .LVU61
 242              		.loc 1 527 6 is_stmt 0 view .LVU62
 243 002e EB68     		ldr	r3, [r5, #12]
 244 0030 002B     		cmp	r3, #0
 245 0032 00D0     		beq	.LCB148
 246 0034 9BE0     		b	.L21	@long jump
 247              	.LCB148:
 248              	.L16:
 528:Drivers/STM32L0xx_HAL_Driver/Src/stm32l0xx_ll_rtc.c ****   {
 529:Drivers/STM32L0xx_HAL_Driver/Src/stm32l0xx_ll_rtc.c ****     /* Set the date for ALARM */
 530:Drivers/STM32L0xx_HAL_Driver/Src/stm32l0xx_ll_rtc.c ****     LL_RTC_ALMA_DisableWeekday(RTCx);
 249              		.loc 1 530 5 is_stmt 1 view .LVU63
 250              	.LVL10:
 251              	.LBB135:
 252              	.LBI135:
1013:Drivers/STM32L0xx_HAL_Driver/Inc/stm32l0xx_ll_rtc.h **** }
1014:Drivers/STM32L0xx_HAL_Driver/Inc/stm32l0xx_ll_rtc.h **** 
1015:Drivers/STM32L0xx_HAL_Driver/Inc/stm32l0xx_ll_rtc.h **** /**
1016:Drivers/STM32L0xx_HAL_Driver/Inc/stm32l0xx_ll_rtc.h ****   * @brief  Enable RTC_OUT remap
1017:Drivers/STM32L0xx_HAL_Driver/Inc/stm32l0xx_ll_rtc.h ****   * @rmtoll OR           OUT_RMP       LL_RTC_EnableOutRemap
1018:Drivers/STM32L0xx_HAL_Driver/Inc/stm32l0xx_ll_rtc.h ****   * @param  RTCx RTC Instance
1019:Drivers/STM32L0xx_HAL_Driver/Inc/stm32l0xx_ll_rtc.h ****   * @retval None
1020:Drivers/STM32L0xx_HAL_Driver/Inc/stm32l0xx_ll_rtc.h ****   */
1021:Drivers/STM32L0xx_HAL_Driver/Inc/stm32l0xx_ll_rtc.h **** __STATIC_INLINE void LL_RTC_EnableOutRemap(RTC_TypeDef *RTCx)
1022:Drivers/STM32L0xx_HAL_Driver/Inc/stm32l0xx_ll_rtc.h **** {
1023:Drivers/STM32L0xx_HAL_Driver/Inc/stm32l0xx_ll_rtc.h ****   SET_BIT(RTCx->OR, RTC_OR_OUT_RMP);
1024:Drivers/STM32L0xx_HAL_Driver/Inc/stm32l0xx_ll_rtc.h **** }
1025:Drivers/STM32L0xx_HAL_Driver/Inc/stm32l0xx_ll_rtc.h **** 
1026:Drivers/STM32L0xx_HAL_Driver/Inc/stm32l0xx_ll_rtc.h **** /**
1027:Drivers/STM32L0xx_HAL_Driver/Inc/stm32l0xx_ll_rtc.h ****   * @brief  Disable RTC_OUT remap
1028:Drivers/STM32L0xx_HAL_Driver/Inc/stm32l0xx_ll_rtc.h ****   * @rmtoll OR           OUT_RMP       LL_RTC_DisableOutRemap
1029:Drivers/STM32L0xx_HAL_Driver/Inc/stm32l0xx_ll_rtc.h ****   * @param  RTCx RTC Instance
1030:Drivers/STM32L0xx_HAL_Driver/Inc/stm32l0xx_ll_rtc.h ****   * @retval None
1031:Drivers/STM32L0xx_HAL_Driver/Inc/stm32l0xx_ll_rtc.h ****   */
1032:Drivers/STM32L0xx_HAL_Driver/Inc/stm32l0xx_ll_rtc.h **** __STATIC_INLINE void LL_RTC_DisableOutRemap(RTC_TypeDef *RTCx)
1033:Drivers/STM32L0xx_HAL_Driver/Inc/stm32l0xx_ll_rtc.h **** {
1034:Drivers/STM32L0xx_HAL_Driver/Inc/stm32l0xx_ll_rtc.h ****   CLEAR_BIT(RTCx->OR, RTC_OR_OUT_RMP);
1035:Drivers/STM32L0xx_HAL_Driver/Inc/stm32l0xx_ll_rtc.h **** }
1036:Drivers/STM32L0xx_HAL_Driver/Inc/stm32l0xx_ll_rtc.h **** 
1037:Drivers/STM32L0xx_HAL_Driver/Inc/stm32l0xx_ll_rtc.h **** /**
1038:Drivers/STM32L0xx_HAL_Driver/Inc/stm32l0xx_ll_rtc.h ****   * @}
1039:Drivers/STM32L0xx_HAL_Driver/Inc/stm32l0xx_ll_rtc.h ****   */
ARM GAS  /tmp/ccJpVmYc.s 			page 33


1040:Drivers/STM32L0xx_HAL_Driver/Inc/stm32l0xx_ll_rtc.h **** 
1041:Drivers/STM32L0xx_HAL_Driver/Inc/stm32l0xx_ll_rtc.h **** /** @defgroup RTC_LL_EF_Time Time
1042:Drivers/STM32L0xx_HAL_Driver/Inc/stm32l0xx_ll_rtc.h ****   * @{
1043:Drivers/STM32L0xx_HAL_Driver/Inc/stm32l0xx_ll_rtc.h ****   */
1044:Drivers/STM32L0xx_HAL_Driver/Inc/stm32l0xx_ll_rtc.h **** 
1045:Drivers/STM32L0xx_HAL_Driver/Inc/stm32l0xx_ll_rtc.h **** /**
1046:Drivers/STM32L0xx_HAL_Driver/Inc/stm32l0xx_ll_rtc.h ****   * @brief  Set time format (AM/24-hour or PM notation)
1047:Drivers/STM32L0xx_HAL_Driver/Inc/stm32l0xx_ll_rtc.h ****   * @note   Bit is write-protected. @ref LL_RTC_DisableWriteProtection function should be called be
1048:Drivers/STM32L0xx_HAL_Driver/Inc/stm32l0xx_ll_rtc.h ****   * @note   It can be written in initialization mode only (@ref LL_RTC_EnableInitMode function)
1049:Drivers/STM32L0xx_HAL_Driver/Inc/stm32l0xx_ll_rtc.h ****   * @rmtoll TR           PM            LL_RTC_TIME_SetFormat
1050:Drivers/STM32L0xx_HAL_Driver/Inc/stm32l0xx_ll_rtc.h ****   * @param  RTCx RTC Instance
1051:Drivers/STM32L0xx_HAL_Driver/Inc/stm32l0xx_ll_rtc.h ****   * @param  TimeFormat This parameter can be one of the following values:
1052:Drivers/STM32L0xx_HAL_Driver/Inc/stm32l0xx_ll_rtc.h ****   *         @arg @ref LL_RTC_TIME_FORMAT_AM_OR_24
1053:Drivers/STM32L0xx_HAL_Driver/Inc/stm32l0xx_ll_rtc.h ****   *         @arg @ref LL_RTC_TIME_FORMAT_PM
1054:Drivers/STM32L0xx_HAL_Driver/Inc/stm32l0xx_ll_rtc.h ****   * @retval None
1055:Drivers/STM32L0xx_HAL_Driver/Inc/stm32l0xx_ll_rtc.h ****   */
1056:Drivers/STM32L0xx_HAL_Driver/Inc/stm32l0xx_ll_rtc.h **** __STATIC_INLINE void LL_RTC_TIME_SetFormat(RTC_TypeDef *RTCx, uint32_t TimeFormat)
1057:Drivers/STM32L0xx_HAL_Driver/Inc/stm32l0xx_ll_rtc.h **** {
1058:Drivers/STM32L0xx_HAL_Driver/Inc/stm32l0xx_ll_rtc.h ****   MODIFY_REG(RTCx->TR, RTC_TR_PM, TimeFormat);
1059:Drivers/STM32L0xx_HAL_Driver/Inc/stm32l0xx_ll_rtc.h **** }
1060:Drivers/STM32L0xx_HAL_Driver/Inc/stm32l0xx_ll_rtc.h **** 
1061:Drivers/STM32L0xx_HAL_Driver/Inc/stm32l0xx_ll_rtc.h **** /**
1062:Drivers/STM32L0xx_HAL_Driver/Inc/stm32l0xx_ll_rtc.h ****   * @brief  Get time format (AM or PM notation)
1063:Drivers/STM32L0xx_HAL_Driver/Inc/stm32l0xx_ll_rtc.h ****   * @note if shadow mode is disabled (BYPSHAD=0), need to check if RSF flag is set
1064:Drivers/STM32L0xx_HAL_Driver/Inc/stm32l0xx_ll_rtc.h ****   *       before reading this bit
1065:Drivers/STM32L0xx_HAL_Driver/Inc/stm32l0xx_ll_rtc.h ****   * @note Read either RTC_SSR or RTC_TR locks the values in the higher-order calendar
1066:Drivers/STM32L0xx_HAL_Driver/Inc/stm32l0xx_ll_rtc.h ****   *       shadow registers until RTC_DR is read (LL_RTC_ReadReg(RTC, DR)).
1067:Drivers/STM32L0xx_HAL_Driver/Inc/stm32l0xx_ll_rtc.h ****   * @rmtoll TR           PM            LL_RTC_TIME_GetFormat
1068:Drivers/STM32L0xx_HAL_Driver/Inc/stm32l0xx_ll_rtc.h ****   * @param  RTCx RTC Instance
1069:Drivers/STM32L0xx_HAL_Driver/Inc/stm32l0xx_ll_rtc.h ****   * @retval Returned value can be one of the following values:
1070:Drivers/STM32L0xx_HAL_Driver/Inc/stm32l0xx_ll_rtc.h ****   *         @arg @ref LL_RTC_TIME_FORMAT_AM_OR_24
1071:Drivers/STM32L0xx_HAL_Driver/Inc/stm32l0xx_ll_rtc.h ****   *         @arg @ref LL_RTC_TIME_FORMAT_PM
1072:Drivers/STM32L0xx_HAL_Driver/Inc/stm32l0xx_ll_rtc.h ****   */
1073:Drivers/STM32L0xx_HAL_Driver/Inc/stm32l0xx_ll_rtc.h **** __STATIC_INLINE uint32_t LL_RTC_TIME_GetFormat(RTC_TypeDef *RTCx)
1074:Drivers/STM32L0xx_HAL_Driver/Inc/stm32l0xx_ll_rtc.h **** {
1075:Drivers/STM32L0xx_HAL_Driver/Inc/stm32l0xx_ll_rtc.h ****   return (uint32_t)(READ_BIT(RTCx->TR, RTC_TR_PM));
1076:Drivers/STM32L0xx_HAL_Driver/Inc/stm32l0xx_ll_rtc.h **** }
1077:Drivers/STM32L0xx_HAL_Driver/Inc/stm32l0xx_ll_rtc.h **** 
1078:Drivers/STM32L0xx_HAL_Driver/Inc/stm32l0xx_ll_rtc.h **** /**
1079:Drivers/STM32L0xx_HAL_Driver/Inc/stm32l0xx_ll_rtc.h ****   * @brief  Set Hours in BCD format
1080:Drivers/STM32L0xx_HAL_Driver/Inc/stm32l0xx_ll_rtc.h ****   * @note   Bit is write-protected. @ref LL_RTC_DisableWriteProtection function should be called be
1081:Drivers/STM32L0xx_HAL_Driver/Inc/stm32l0xx_ll_rtc.h ****   * @note   It can be written in initialization mode only (@ref LL_RTC_EnableInitMode function)
1082:Drivers/STM32L0xx_HAL_Driver/Inc/stm32l0xx_ll_rtc.h ****   * @note helper macro __LL_RTC_CONVERT_BIN2BCD is available to convert hour from binary to BCD for
1083:Drivers/STM32L0xx_HAL_Driver/Inc/stm32l0xx_ll_rtc.h ****   * @rmtoll TR           HT            LL_RTC_TIME_SetHour\n
1084:Drivers/STM32L0xx_HAL_Driver/Inc/stm32l0xx_ll_rtc.h ****   *         TR           HU            LL_RTC_TIME_SetHour
1085:Drivers/STM32L0xx_HAL_Driver/Inc/stm32l0xx_ll_rtc.h ****   * @param  RTCx RTC Instance
1086:Drivers/STM32L0xx_HAL_Driver/Inc/stm32l0xx_ll_rtc.h ****   * @param  Hours Value between Min_Data=0x01 and Max_Data=0x12 or between Min_Data=0x00 and Max_Da
1087:Drivers/STM32L0xx_HAL_Driver/Inc/stm32l0xx_ll_rtc.h ****   * @retval None
1088:Drivers/STM32L0xx_HAL_Driver/Inc/stm32l0xx_ll_rtc.h ****   */
1089:Drivers/STM32L0xx_HAL_Driver/Inc/stm32l0xx_ll_rtc.h **** __STATIC_INLINE void LL_RTC_TIME_SetHour(RTC_TypeDef *RTCx, uint32_t Hours)
1090:Drivers/STM32L0xx_HAL_Driver/Inc/stm32l0xx_ll_rtc.h **** {
1091:Drivers/STM32L0xx_HAL_Driver/Inc/stm32l0xx_ll_rtc.h ****   MODIFY_REG(RTCx->TR, (RTC_TR_HT | RTC_TR_HU),
1092:Drivers/STM32L0xx_HAL_Driver/Inc/stm32l0xx_ll_rtc.h ****              (((Hours & 0xF0U) << (RTC_TR_HT_Pos - 4U)) | ((Hours & 0x0FU) << RTC_TR_HU_Pos)));
1093:Drivers/STM32L0xx_HAL_Driver/Inc/stm32l0xx_ll_rtc.h **** }
1094:Drivers/STM32L0xx_HAL_Driver/Inc/stm32l0xx_ll_rtc.h **** 
1095:Drivers/STM32L0xx_HAL_Driver/Inc/stm32l0xx_ll_rtc.h **** /**
1096:Drivers/STM32L0xx_HAL_Driver/Inc/stm32l0xx_ll_rtc.h ****   * @brief  Get Hours in BCD format
ARM GAS  /tmp/ccJpVmYc.s 			page 34


1097:Drivers/STM32L0xx_HAL_Driver/Inc/stm32l0xx_ll_rtc.h ****   * @note if shadow mode is disabled (BYPSHAD=0), need to check if RSF flag is set
1098:Drivers/STM32L0xx_HAL_Driver/Inc/stm32l0xx_ll_rtc.h ****   *       before reading this bit
1099:Drivers/STM32L0xx_HAL_Driver/Inc/stm32l0xx_ll_rtc.h ****   * @note Read either RTC_SSR or RTC_TR locks the values in the higher-order calendar
1100:Drivers/STM32L0xx_HAL_Driver/Inc/stm32l0xx_ll_rtc.h ****   *       shadow registers until RTC_DR is read (LL_RTC_ReadReg(RTC, DR)).
1101:Drivers/STM32L0xx_HAL_Driver/Inc/stm32l0xx_ll_rtc.h ****   * @note helper macro __LL_RTC_CONVERT_BCD2BIN is available to convert hour from BCD to
1102:Drivers/STM32L0xx_HAL_Driver/Inc/stm32l0xx_ll_rtc.h ****   *       Binary format
1103:Drivers/STM32L0xx_HAL_Driver/Inc/stm32l0xx_ll_rtc.h ****   * @rmtoll TR           HT            LL_RTC_TIME_GetHour\n
1104:Drivers/STM32L0xx_HAL_Driver/Inc/stm32l0xx_ll_rtc.h ****   *         TR           HU            LL_RTC_TIME_GetHour
1105:Drivers/STM32L0xx_HAL_Driver/Inc/stm32l0xx_ll_rtc.h ****   * @param  RTCx RTC Instance
1106:Drivers/STM32L0xx_HAL_Driver/Inc/stm32l0xx_ll_rtc.h ****   * @retval Value between Min_Data=0x01 and Max_Data=0x12 or between Min_Data=0x00 and Max_Data=0x2
1107:Drivers/STM32L0xx_HAL_Driver/Inc/stm32l0xx_ll_rtc.h ****   */
1108:Drivers/STM32L0xx_HAL_Driver/Inc/stm32l0xx_ll_rtc.h **** __STATIC_INLINE uint32_t LL_RTC_TIME_GetHour(RTC_TypeDef *RTCx)
1109:Drivers/STM32L0xx_HAL_Driver/Inc/stm32l0xx_ll_rtc.h **** {
1110:Drivers/STM32L0xx_HAL_Driver/Inc/stm32l0xx_ll_rtc.h ****   uint32_t temp;
1111:Drivers/STM32L0xx_HAL_Driver/Inc/stm32l0xx_ll_rtc.h **** 
1112:Drivers/STM32L0xx_HAL_Driver/Inc/stm32l0xx_ll_rtc.h ****   temp = READ_BIT(RTCx->TR, (RTC_TR_HT | RTC_TR_HU));
1113:Drivers/STM32L0xx_HAL_Driver/Inc/stm32l0xx_ll_rtc.h ****   return (uint32_t)((((temp & RTC_TR_HT) >> RTC_TR_HT_Pos) << 4U) | ((temp & RTC_TR_HU) >> RTC_TR_H
1114:Drivers/STM32L0xx_HAL_Driver/Inc/stm32l0xx_ll_rtc.h **** }
1115:Drivers/STM32L0xx_HAL_Driver/Inc/stm32l0xx_ll_rtc.h **** 
1116:Drivers/STM32L0xx_HAL_Driver/Inc/stm32l0xx_ll_rtc.h **** /**
1117:Drivers/STM32L0xx_HAL_Driver/Inc/stm32l0xx_ll_rtc.h ****   * @brief  Set Minutes in BCD format
1118:Drivers/STM32L0xx_HAL_Driver/Inc/stm32l0xx_ll_rtc.h ****   * @note   Bit is write-protected. @ref LL_RTC_DisableWriteProtection function should be called be
1119:Drivers/STM32L0xx_HAL_Driver/Inc/stm32l0xx_ll_rtc.h ****   * @note   It can be written in initialization mode only (@ref LL_RTC_EnableInitMode function)
1120:Drivers/STM32L0xx_HAL_Driver/Inc/stm32l0xx_ll_rtc.h ****   * @note helper macro __LL_RTC_CONVERT_BIN2BCD is available to convert Minutes from binary to BCD 
1121:Drivers/STM32L0xx_HAL_Driver/Inc/stm32l0xx_ll_rtc.h ****   * @rmtoll TR           MNT           LL_RTC_TIME_SetMinute\n
1122:Drivers/STM32L0xx_HAL_Driver/Inc/stm32l0xx_ll_rtc.h ****   *         TR           MNU           LL_RTC_TIME_SetMinute
1123:Drivers/STM32L0xx_HAL_Driver/Inc/stm32l0xx_ll_rtc.h ****   * @param  RTCx RTC Instance
1124:Drivers/STM32L0xx_HAL_Driver/Inc/stm32l0xx_ll_rtc.h ****   * @param  Minutes Value between Min_Data=0x00 and Max_Data=0x59
1125:Drivers/STM32L0xx_HAL_Driver/Inc/stm32l0xx_ll_rtc.h ****   * @retval None
1126:Drivers/STM32L0xx_HAL_Driver/Inc/stm32l0xx_ll_rtc.h ****   */
1127:Drivers/STM32L0xx_HAL_Driver/Inc/stm32l0xx_ll_rtc.h **** __STATIC_INLINE void LL_RTC_TIME_SetMinute(RTC_TypeDef *RTCx, uint32_t Minutes)
1128:Drivers/STM32L0xx_HAL_Driver/Inc/stm32l0xx_ll_rtc.h **** {
1129:Drivers/STM32L0xx_HAL_Driver/Inc/stm32l0xx_ll_rtc.h ****   MODIFY_REG(RTCx->TR, (RTC_TR_MNT | RTC_TR_MNU),
1130:Drivers/STM32L0xx_HAL_Driver/Inc/stm32l0xx_ll_rtc.h ****              (((Minutes & 0xF0U) << (RTC_TR_MNT_Pos - 4U)) | ((Minutes & 0x0FU) << RTC_TR_MNU_Pos))
1131:Drivers/STM32L0xx_HAL_Driver/Inc/stm32l0xx_ll_rtc.h **** }
1132:Drivers/STM32L0xx_HAL_Driver/Inc/stm32l0xx_ll_rtc.h **** 
1133:Drivers/STM32L0xx_HAL_Driver/Inc/stm32l0xx_ll_rtc.h **** /**
1134:Drivers/STM32L0xx_HAL_Driver/Inc/stm32l0xx_ll_rtc.h ****   * @brief  Get Minutes in BCD format
1135:Drivers/STM32L0xx_HAL_Driver/Inc/stm32l0xx_ll_rtc.h ****   * @note if shadow mode is disabled (BYPSHAD=0), need to check if RSF flag is set
1136:Drivers/STM32L0xx_HAL_Driver/Inc/stm32l0xx_ll_rtc.h ****   *       before reading this bit
1137:Drivers/STM32L0xx_HAL_Driver/Inc/stm32l0xx_ll_rtc.h ****   * @note Read either RTC_SSR or RTC_TR locks the values in the higher-order calendar
1138:Drivers/STM32L0xx_HAL_Driver/Inc/stm32l0xx_ll_rtc.h ****   *       shadow registers until RTC_DR is read (LL_RTC_ReadReg(RTC, DR)).
1139:Drivers/STM32L0xx_HAL_Driver/Inc/stm32l0xx_ll_rtc.h ****   * @note helper macro __LL_RTC_CONVERT_BCD2BIN is available to convert minute from BCD
1140:Drivers/STM32L0xx_HAL_Driver/Inc/stm32l0xx_ll_rtc.h ****   *       to Binary format
1141:Drivers/STM32L0xx_HAL_Driver/Inc/stm32l0xx_ll_rtc.h ****   * @rmtoll TR           MNT           LL_RTC_TIME_GetMinute\n
1142:Drivers/STM32L0xx_HAL_Driver/Inc/stm32l0xx_ll_rtc.h ****   *         TR           MNU           LL_RTC_TIME_GetMinute
1143:Drivers/STM32L0xx_HAL_Driver/Inc/stm32l0xx_ll_rtc.h ****   * @param  RTCx RTC Instance
1144:Drivers/STM32L0xx_HAL_Driver/Inc/stm32l0xx_ll_rtc.h ****   * @retval Value between Min_Data=0x00 and Max_Data=0x59
1145:Drivers/STM32L0xx_HAL_Driver/Inc/stm32l0xx_ll_rtc.h ****   */
1146:Drivers/STM32L0xx_HAL_Driver/Inc/stm32l0xx_ll_rtc.h **** __STATIC_INLINE uint32_t LL_RTC_TIME_GetMinute(RTC_TypeDef *RTCx)
1147:Drivers/STM32L0xx_HAL_Driver/Inc/stm32l0xx_ll_rtc.h **** {
1148:Drivers/STM32L0xx_HAL_Driver/Inc/stm32l0xx_ll_rtc.h ****   uint32_t temp;
1149:Drivers/STM32L0xx_HAL_Driver/Inc/stm32l0xx_ll_rtc.h **** 
1150:Drivers/STM32L0xx_HAL_Driver/Inc/stm32l0xx_ll_rtc.h ****   temp = READ_BIT(RTCx->TR, (RTC_TR_MNT | RTC_TR_MNU));
1151:Drivers/STM32L0xx_HAL_Driver/Inc/stm32l0xx_ll_rtc.h ****   return (uint32_t)((((temp & RTC_TR_MNT) >> RTC_TR_MNT_Pos) << 4U) | ((temp & RTC_TR_MNU) >> RTC_T
1152:Drivers/STM32L0xx_HAL_Driver/Inc/stm32l0xx_ll_rtc.h **** }
1153:Drivers/STM32L0xx_HAL_Driver/Inc/stm32l0xx_ll_rtc.h **** 
ARM GAS  /tmp/ccJpVmYc.s 			page 35


1154:Drivers/STM32L0xx_HAL_Driver/Inc/stm32l0xx_ll_rtc.h **** /**
1155:Drivers/STM32L0xx_HAL_Driver/Inc/stm32l0xx_ll_rtc.h ****   * @brief  Set Seconds in BCD format
1156:Drivers/STM32L0xx_HAL_Driver/Inc/stm32l0xx_ll_rtc.h ****   * @note   Bit is write-protected. @ref LL_RTC_DisableWriteProtection function should be called be
1157:Drivers/STM32L0xx_HAL_Driver/Inc/stm32l0xx_ll_rtc.h ****   * @note   It can be written in initialization mode only (@ref LL_RTC_EnableInitMode function)
1158:Drivers/STM32L0xx_HAL_Driver/Inc/stm32l0xx_ll_rtc.h ****   * @note helper macro __LL_RTC_CONVERT_BIN2BCD is available to convert Seconds from binary to BCD 
1159:Drivers/STM32L0xx_HAL_Driver/Inc/stm32l0xx_ll_rtc.h ****   * @rmtoll TR           ST            LL_RTC_TIME_SetSecond\n
1160:Drivers/STM32L0xx_HAL_Driver/Inc/stm32l0xx_ll_rtc.h ****   *         TR           SU            LL_RTC_TIME_SetSecond
1161:Drivers/STM32L0xx_HAL_Driver/Inc/stm32l0xx_ll_rtc.h ****   * @param  RTCx RTC Instance
1162:Drivers/STM32L0xx_HAL_Driver/Inc/stm32l0xx_ll_rtc.h ****   * @param  Seconds Value between Min_Data=0x00 and Max_Data=0x59
1163:Drivers/STM32L0xx_HAL_Driver/Inc/stm32l0xx_ll_rtc.h ****   * @retval None
1164:Drivers/STM32L0xx_HAL_Driver/Inc/stm32l0xx_ll_rtc.h ****   */
1165:Drivers/STM32L0xx_HAL_Driver/Inc/stm32l0xx_ll_rtc.h **** __STATIC_INLINE void LL_RTC_TIME_SetSecond(RTC_TypeDef *RTCx, uint32_t Seconds)
1166:Drivers/STM32L0xx_HAL_Driver/Inc/stm32l0xx_ll_rtc.h **** {
1167:Drivers/STM32L0xx_HAL_Driver/Inc/stm32l0xx_ll_rtc.h ****   MODIFY_REG(RTCx->TR, (RTC_TR_ST | RTC_TR_SU),
1168:Drivers/STM32L0xx_HAL_Driver/Inc/stm32l0xx_ll_rtc.h ****              (((Seconds & 0xF0U) << (RTC_TR_ST_Pos - 4U)) | ((Seconds & 0x0FU) << RTC_TR_SU_Pos)));
1169:Drivers/STM32L0xx_HAL_Driver/Inc/stm32l0xx_ll_rtc.h **** }
1170:Drivers/STM32L0xx_HAL_Driver/Inc/stm32l0xx_ll_rtc.h **** 
1171:Drivers/STM32L0xx_HAL_Driver/Inc/stm32l0xx_ll_rtc.h **** /**
1172:Drivers/STM32L0xx_HAL_Driver/Inc/stm32l0xx_ll_rtc.h ****   * @brief  Get Seconds in BCD format
1173:Drivers/STM32L0xx_HAL_Driver/Inc/stm32l0xx_ll_rtc.h ****   * @note if shadow mode is disabled (BYPSHAD=0), need to check if RSF flag is set
1174:Drivers/STM32L0xx_HAL_Driver/Inc/stm32l0xx_ll_rtc.h ****   *       before reading this bit
1175:Drivers/STM32L0xx_HAL_Driver/Inc/stm32l0xx_ll_rtc.h ****   * @note Read either RTC_SSR or RTC_TR locks the values in the higher-order calendar
1176:Drivers/STM32L0xx_HAL_Driver/Inc/stm32l0xx_ll_rtc.h ****   *       shadow registers until RTC_DR is read (LL_RTC_ReadReg(RTC, DR)).
1177:Drivers/STM32L0xx_HAL_Driver/Inc/stm32l0xx_ll_rtc.h ****   * @note helper macro __LL_RTC_CONVERT_BCD2BIN is available to convert Seconds from BCD
1178:Drivers/STM32L0xx_HAL_Driver/Inc/stm32l0xx_ll_rtc.h ****   *       to Binary format
1179:Drivers/STM32L0xx_HAL_Driver/Inc/stm32l0xx_ll_rtc.h ****   * @rmtoll TR           ST            LL_RTC_TIME_GetSecond\n
1180:Drivers/STM32L0xx_HAL_Driver/Inc/stm32l0xx_ll_rtc.h ****   *         TR           SU            LL_RTC_TIME_GetSecond
1181:Drivers/STM32L0xx_HAL_Driver/Inc/stm32l0xx_ll_rtc.h ****   * @param  RTCx RTC Instance
1182:Drivers/STM32L0xx_HAL_Driver/Inc/stm32l0xx_ll_rtc.h ****   * @retval Value between Min_Data=0x00 and Max_Data=0x59
1183:Drivers/STM32L0xx_HAL_Driver/Inc/stm32l0xx_ll_rtc.h ****   */
1184:Drivers/STM32L0xx_HAL_Driver/Inc/stm32l0xx_ll_rtc.h **** __STATIC_INLINE uint32_t LL_RTC_TIME_GetSecond(RTC_TypeDef *RTCx)
1185:Drivers/STM32L0xx_HAL_Driver/Inc/stm32l0xx_ll_rtc.h **** {
1186:Drivers/STM32L0xx_HAL_Driver/Inc/stm32l0xx_ll_rtc.h ****   uint32_t temp;
1187:Drivers/STM32L0xx_HAL_Driver/Inc/stm32l0xx_ll_rtc.h **** 
1188:Drivers/STM32L0xx_HAL_Driver/Inc/stm32l0xx_ll_rtc.h ****   temp = READ_BIT(RTCx->TR, (RTC_TR_ST | RTC_TR_SU));
1189:Drivers/STM32L0xx_HAL_Driver/Inc/stm32l0xx_ll_rtc.h ****   return (uint32_t)((((temp & RTC_TR_ST) >> RTC_TR_ST_Pos) << 4U) | ((temp & RTC_TR_SU) >> RTC_TR_S
1190:Drivers/STM32L0xx_HAL_Driver/Inc/stm32l0xx_ll_rtc.h **** }
1191:Drivers/STM32L0xx_HAL_Driver/Inc/stm32l0xx_ll_rtc.h **** 
1192:Drivers/STM32L0xx_HAL_Driver/Inc/stm32l0xx_ll_rtc.h **** /**
1193:Drivers/STM32L0xx_HAL_Driver/Inc/stm32l0xx_ll_rtc.h ****   * @brief  Set time (hour, minute and second) in BCD format
1194:Drivers/STM32L0xx_HAL_Driver/Inc/stm32l0xx_ll_rtc.h ****   * @note   Bit is write-protected. @ref LL_RTC_DisableWriteProtection function should be called be
1195:Drivers/STM32L0xx_HAL_Driver/Inc/stm32l0xx_ll_rtc.h ****   * @note   It can be written in initialization mode only (@ref LL_RTC_EnableInitMode function)
1196:Drivers/STM32L0xx_HAL_Driver/Inc/stm32l0xx_ll_rtc.h ****   * @note TimeFormat and Hours should follow the same format
1197:Drivers/STM32L0xx_HAL_Driver/Inc/stm32l0xx_ll_rtc.h ****   * @rmtoll TR           PM            LL_RTC_TIME_Config\n
1198:Drivers/STM32L0xx_HAL_Driver/Inc/stm32l0xx_ll_rtc.h ****   *         TR           HT            LL_RTC_TIME_Config\n
1199:Drivers/STM32L0xx_HAL_Driver/Inc/stm32l0xx_ll_rtc.h ****   *         TR           HU            LL_RTC_TIME_Config\n
1200:Drivers/STM32L0xx_HAL_Driver/Inc/stm32l0xx_ll_rtc.h ****   *         TR           MNT           LL_RTC_TIME_Config\n
1201:Drivers/STM32L0xx_HAL_Driver/Inc/stm32l0xx_ll_rtc.h ****   *         TR           MNU           LL_RTC_TIME_Config\n
1202:Drivers/STM32L0xx_HAL_Driver/Inc/stm32l0xx_ll_rtc.h ****   *         TR           ST            LL_RTC_TIME_Config\n
1203:Drivers/STM32L0xx_HAL_Driver/Inc/stm32l0xx_ll_rtc.h ****   *         TR           SU            LL_RTC_TIME_Config
1204:Drivers/STM32L0xx_HAL_Driver/Inc/stm32l0xx_ll_rtc.h ****   * @param  RTCx RTC Instance
1205:Drivers/STM32L0xx_HAL_Driver/Inc/stm32l0xx_ll_rtc.h ****   * @param  Format12_24 This parameter can be one of the following values:
1206:Drivers/STM32L0xx_HAL_Driver/Inc/stm32l0xx_ll_rtc.h ****   *         @arg @ref LL_RTC_TIME_FORMAT_AM_OR_24
1207:Drivers/STM32L0xx_HAL_Driver/Inc/stm32l0xx_ll_rtc.h ****   *         @arg @ref LL_RTC_TIME_FORMAT_PM
1208:Drivers/STM32L0xx_HAL_Driver/Inc/stm32l0xx_ll_rtc.h ****   * @param  Hours Value between Min_Data=0x01 and Max_Data=0x12 or between Min_Data=0x00 and Max_Da
1209:Drivers/STM32L0xx_HAL_Driver/Inc/stm32l0xx_ll_rtc.h ****   * @param  Minutes Value between Min_Data=0x00 and Max_Data=0x59
1210:Drivers/STM32L0xx_HAL_Driver/Inc/stm32l0xx_ll_rtc.h ****   * @param  Seconds Value between Min_Data=0x00 and Max_Data=0x59
ARM GAS  /tmp/ccJpVmYc.s 			page 36


1211:Drivers/STM32L0xx_HAL_Driver/Inc/stm32l0xx_ll_rtc.h ****   * @retval None
1212:Drivers/STM32L0xx_HAL_Driver/Inc/stm32l0xx_ll_rtc.h ****   */
1213:Drivers/STM32L0xx_HAL_Driver/Inc/stm32l0xx_ll_rtc.h **** __STATIC_INLINE void LL_RTC_TIME_Config(RTC_TypeDef *RTCx, uint32_t Format12_24, uint32_t Hours, ui
1214:Drivers/STM32L0xx_HAL_Driver/Inc/stm32l0xx_ll_rtc.h **** {
1215:Drivers/STM32L0xx_HAL_Driver/Inc/stm32l0xx_ll_rtc.h ****   uint32_t temp;
1216:Drivers/STM32L0xx_HAL_Driver/Inc/stm32l0xx_ll_rtc.h **** 
1217:Drivers/STM32L0xx_HAL_Driver/Inc/stm32l0xx_ll_rtc.h ****   temp = Format12_24                                                                               
1218:Drivers/STM32L0xx_HAL_Driver/Inc/stm32l0xx_ll_rtc.h ****          (((Hours & 0xF0U) << (RTC_TR_HT_Pos - 4U)) | ((Hours & 0x0FU) << RTC_TR_HU_Pos))     | \
1219:Drivers/STM32L0xx_HAL_Driver/Inc/stm32l0xx_ll_rtc.h ****          (((Minutes & 0xF0U) << (RTC_TR_MNT_Pos - 4U)) | ((Minutes & 0x0FU) << RTC_TR_MNU_Pos)) | \
1220:Drivers/STM32L0xx_HAL_Driver/Inc/stm32l0xx_ll_rtc.h ****          (((Seconds & 0xF0U) << (RTC_TR_ST_Pos - 4U)) | ((Seconds & 0x0FU) << RTC_TR_SU_Pos));
1221:Drivers/STM32L0xx_HAL_Driver/Inc/stm32l0xx_ll_rtc.h ****   MODIFY_REG(RTCx->TR, (RTC_TR_PM | RTC_TR_HT | RTC_TR_HU | RTC_TR_MNT | RTC_TR_MNU | RTC_TR_ST | R
1222:Drivers/STM32L0xx_HAL_Driver/Inc/stm32l0xx_ll_rtc.h **** }
1223:Drivers/STM32L0xx_HAL_Driver/Inc/stm32l0xx_ll_rtc.h **** 
1224:Drivers/STM32L0xx_HAL_Driver/Inc/stm32l0xx_ll_rtc.h **** /**
1225:Drivers/STM32L0xx_HAL_Driver/Inc/stm32l0xx_ll_rtc.h ****   * @brief  Get time (hour, minute and second) in BCD format
1226:Drivers/STM32L0xx_HAL_Driver/Inc/stm32l0xx_ll_rtc.h ****   * @note if shadow mode is disabled (BYPSHAD=0), need to check if RSF flag is set
1227:Drivers/STM32L0xx_HAL_Driver/Inc/stm32l0xx_ll_rtc.h ****   *       before reading this bit
1228:Drivers/STM32L0xx_HAL_Driver/Inc/stm32l0xx_ll_rtc.h ****   * @note Read either RTC_SSR or RTC_TR locks the values in the higher-order calendar
1229:Drivers/STM32L0xx_HAL_Driver/Inc/stm32l0xx_ll_rtc.h ****   *       shadow registers until RTC_DR is read (LL_RTC_ReadReg(RTC, DR)).
1230:Drivers/STM32L0xx_HAL_Driver/Inc/stm32l0xx_ll_rtc.h ****   * @note helper macros __LL_RTC_GET_HOUR, __LL_RTC_GET_MINUTE and __LL_RTC_GET_SECOND
1231:Drivers/STM32L0xx_HAL_Driver/Inc/stm32l0xx_ll_rtc.h ****   *       are available to get independently each parameter.
1232:Drivers/STM32L0xx_HAL_Driver/Inc/stm32l0xx_ll_rtc.h ****   * @rmtoll TR           HT            LL_RTC_TIME_Get\n
1233:Drivers/STM32L0xx_HAL_Driver/Inc/stm32l0xx_ll_rtc.h ****   *         TR           HU            LL_RTC_TIME_Get\n
1234:Drivers/STM32L0xx_HAL_Driver/Inc/stm32l0xx_ll_rtc.h ****   *         TR           MNT           LL_RTC_TIME_Get\n
1235:Drivers/STM32L0xx_HAL_Driver/Inc/stm32l0xx_ll_rtc.h ****   *         TR           MNU           LL_RTC_TIME_Get\n
1236:Drivers/STM32L0xx_HAL_Driver/Inc/stm32l0xx_ll_rtc.h ****   *         TR           ST            LL_RTC_TIME_Get\n
1237:Drivers/STM32L0xx_HAL_Driver/Inc/stm32l0xx_ll_rtc.h ****   *         TR           SU            LL_RTC_TIME_Get
1238:Drivers/STM32L0xx_HAL_Driver/Inc/stm32l0xx_ll_rtc.h ****   * @param  RTCx RTC Instance
1239:Drivers/STM32L0xx_HAL_Driver/Inc/stm32l0xx_ll_rtc.h ****   * @retval Combination of hours, minutes and seconds (Format: 0x00HHMMSS).
1240:Drivers/STM32L0xx_HAL_Driver/Inc/stm32l0xx_ll_rtc.h ****   */
1241:Drivers/STM32L0xx_HAL_Driver/Inc/stm32l0xx_ll_rtc.h **** __STATIC_INLINE uint32_t LL_RTC_TIME_Get(RTC_TypeDef *RTCx)
1242:Drivers/STM32L0xx_HAL_Driver/Inc/stm32l0xx_ll_rtc.h **** {
1243:Drivers/STM32L0xx_HAL_Driver/Inc/stm32l0xx_ll_rtc.h ****   uint32_t temp;
1244:Drivers/STM32L0xx_HAL_Driver/Inc/stm32l0xx_ll_rtc.h **** 
1245:Drivers/STM32L0xx_HAL_Driver/Inc/stm32l0xx_ll_rtc.h ****   temp = READ_BIT(RTCx->TR, (RTC_TR_HT | RTC_TR_HU | RTC_TR_MNT | RTC_TR_MNU | RTC_TR_ST | RTC_TR_S
1246:Drivers/STM32L0xx_HAL_Driver/Inc/stm32l0xx_ll_rtc.h ****   return (uint32_t)((((((temp & RTC_TR_HT) >> RTC_TR_HT_Pos) << 4U) | ((temp & RTC_TR_HU) >> RTC_TR
1247:Drivers/STM32L0xx_HAL_Driver/Inc/stm32l0xx_ll_rtc.h ****                     (((((temp & RTC_TR_MNT) >> RTC_TR_MNT_Pos) << 4U) | ((temp & RTC_TR_MNU) >> RTC
1248:Drivers/STM32L0xx_HAL_Driver/Inc/stm32l0xx_ll_rtc.h ****                     ((((temp & RTC_TR_ST) >> RTC_TR_ST_Pos) << 4U) | ((temp & RTC_TR_SU) >> RTC_TR_
1249:Drivers/STM32L0xx_HAL_Driver/Inc/stm32l0xx_ll_rtc.h **** }
1250:Drivers/STM32L0xx_HAL_Driver/Inc/stm32l0xx_ll_rtc.h **** 
1251:Drivers/STM32L0xx_HAL_Driver/Inc/stm32l0xx_ll_rtc.h **** /**
1252:Drivers/STM32L0xx_HAL_Driver/Inc/stm32l0xx_ll_rtc.h ****   * @brief  Memorize whether the daylight saving time change has been performed
1253:Drivers/STM32L0xx_HAL_Driver/Inc/stm32l0xx_ll_rtc.h ****   * @note   Bit is write-protected. @ref LL_RTC_DisableWriteProtection function should be called be
1254:Drivers/STM32L0xx_HAL_Driver/Inc/stm32l0xx_ll_rtc.h ****   * @rmtoll CR           BKP           LL_RTC_TIME_EnableDayLightStore
1255:Drivers/STM32L0xx_HAL_Driver/Inc/stm32l0xx_ll_rtc.h ****   * @param  RTCx RTC Instance
1256:Drivers/STM32L0xx_HAL_Driver/Inc/stm32l0xx_ll_rtc.h ****   * @retval None
1257:Drivers/STM32L0xx_HAL_Driver/Inc/stm32l0xx_ll_rtc.h ****   */
1258:Drivers/STM32L0xx_HAL_Driver/Inc/stm32l0xx_ll_rtc.h **** __STATIC_INLINE void LL_RTC_TIME_EnableDayLightStore(RTC_TypeDef *RTCx)
1259:Drivers/STM32L0xx_HAL_Driver/Inc/stm32l0xx_ll_rtc.h **** {
1260:Drivers/STM32L0xx_HAL_Driver/Inc/stm32l0xx_ll_rtc.h ****   SET_BIT(RTCx->CR, RTC_CR_BKP);
1261:Drivers/STM32L0xx_HAL_Driver/Inc/stm32l0xx_ll_rtc.h **** }
1262:Drivers/STM32L0xx_HAL_Driver/Inc/stm32l0xx_ll_rtc.h **** 
1263:Drivers/STM32L0xx_HAL_Driver/Inc/stm32l0xx_ll_rtc.h **** /**
1264:Drivers/STM32L0xx_HAL_Driver/Inc/stm32l0xx_ll_rtc.h ****   * @brief  Disable memorization whether the daylight saving time change has been performed.
1265:Drivers/STM32L0xx_HAL_Driver/Inc/stm32l0xx_ll_rtc.h ****   * @note   Bit is write-protected. @ref LL_RTC_DisableWriteProtection function should be called be
1266:Drivers/STM32L0xx_HAL_Driver/Inc/stm32l0xx_ll_rtc.h ****   * @rmtoll CR           BKP           LL_RTC_TIME_DisableDayLightStore
1267:Drivers/STM32L0xx_HAL_Driver/Inc/stm32l0xx_ll_rtc.h ****   * @param  RTCx RTC Instance
ARM GAS  /tmp/ccJpVmYc.s 			page 37


1268:Drivers/STM32L0xx_HAL_Driver/Inc/stm32l0xx_ll_rtc.h ****   * @retval None
1269:Drivers/STM32L0xx_HAL_Driver/Inc/stm32l0xx_ll_rtc.h ****   */
1270:Drivers/STM32L0xx_HAL_Driver/Inc/stm32l0xx_ll_rtc.h **** __STATIC_INLINE void LL_RTC_TIME_DisableDayLightStore(RTC_TypeDef *RTCx)
1271:Drivers/STM32L0xx_HAL_Driver/Inc/stm32l0xx_ll_rtc.h **** {
1272:Drivers/STM32L0xx_HAL_Driver/Inc/stm32l0xx_ll_rtc.h ****   CLEAR_BIT(RTCx->CR, RTC_CR_BKP);
1273:Drivers/STM32L0xx_HAL_Driver/Inc/stm32l0xx_ll_rtc.h **** }
1274:Drivers/STM32L0xx_HAL_Driver/Inc/stm32l0xx_ll_rtc.h **** 
1275:Drivers/STM32L0xx_HAL_Driver/Inc/stm32l0xx_ll_rtc.h **** /**
1276:Drivers/STM32L0xx_HAL_Driver/Inc/stm32l0xx_ll_rtc.h ****   * @brief  Check if RTC Day Light Saving stored operation has been enabled or not
1277:Drivers/STM32L0xx_HAL_Driver/Inc/stm32l0xx_ll_rtc.h ****   * @rmtoll CR           BKP           LL_RTC_TIME_IsDayLightStoreEnabled
1278:Drivers/STM32L0xx_HAL_Driver/Inc/stm32l0xx_ll_rtc.h ****   * @param  RTCx RTC Instance
1279:Drivers/STM32L0xx_HAL_Driver/Inc/stm32l0xx_ll_rtc.h ****   * @retval State of bit (1 or 0).
1280:Drivers/STM32L0xx_HAL_Driver/Inc/stm32l0xx_ll_rtc.h ****   */
1281:Drivers/STM32L0xx_HAL_Driver/Inc/stm32l0xx_ll_rtc.h **** __STATIC_INLINE uint32_t LL_RTC_TIME_IsDayLightStoreEnabled(RTC_TypeDef *RTCx)
1282:Drivers/STM32L0xx_HAL_Driver/Inc/stm32l0xx_ll_rtc.h **** {
1283:Drivers/STM32L0xx_HAL_Driver/Inc/stm32l0xx_ll_rtc.h ****   return ((READ_BIT(RTCx->CR, RTC_CR_BKP) == (RTC_CR_BKP)) ? 1UL : 0UL);
1284:Drivers/STM32L0xx_HAL_Driver/Inc/stm32l0xx_ll_rtc.h **** }
1285:Drivers/STM32L0xx_HAL_Driver/Inc/stm32l0xx_ll_rtc.h **** 
1286:Drivers/STM32L0xx_HAL_Driver/Inc/stm32l0xx_ll_rtc.h **** /**
1287:Drivers/STM32L0xx_HAL_Driver/Inc/stm32l0xx_ll_rtc.h ****   * @brief  Subtract 1 hour (winter time change)
1288:Drivers/STM32L0xx_HAL_Driver/Inc/stm32l0xx_ll_rtc.h ****   * @note   Bit is write-protected. @ref LL_RTC_DisableWriteProtection function should be called be
1289:Drivers/STM32L0xx_HAL_Driver/Inc/stm32l0xx_ll_rtc.h ****   * @rmtoll CR           SUB1H         LL_RTC_TIME_DecHour
1290:Drivers/STM32L0xx_HAL_Driver/Inc/stm32l0xx_ll_rtc.h ****   * @param  RTCx RTC Instance
1291:Drivers/STM32L0xx_HAL_Driver/Inc/stm32l0xx_ll_rtc.h ****   * @retval None
1292:Drivers/STM32L0xx_HAL_Driver/Inc/stm32l0xx_ll_rtc.h ****   */
1293:Drivers/STM32L0xx_HAL_Driver/Inc/stm32l0xx_ll_rtc.h **** __STATIC_INLINE void LL_RTC_TIME_DecHour(RTC_TypeDef *RTCx)
1294:Drivers/STM32L0xx_HAL_Driver/Inc/stm32l0xx_ll_rtc.h **** {
1295:Drivers/STM32L0xx_HAL_Driver/Inc/stm32l0xx_ll_rtc.h ****   SET_BIT(RTCx->CR, RTC_CR_SUB1H);
1296:Drivers/STM32L0xx_HAL_Driver/Inc/stm32l0xx_ll_rtc.h **** }
1297:Drivers/STM32L0xx_HAL_Driver/Inc/stm32l0xx_ll_rtc.h **** 
1298:Drivers/STM32L0xx_HAL_Driver/Inc/stm32l0xx_ll_rtc.h **** /**
1299:Drivers/STM32L0xx_HAL_Driver/Inc/stm32l0xx_ll_rtc.h ****   * @brief  Add 1 hour (summer time change)
1300:Drivers/STM32L0xx_HAL_Driver/Inc/stm32l0xx_ll_rtc.h ****   * @note   Bit is write-protected. @ref LL_RTC_DisableWriteProtection function should be called be
1301:Drivers/STM32L0xx_HAL_Driver/Inc/stm32l0xx_ll_rtc.h ****   * @rmtoll CR           ADD1H         LL_RTC_TIME_IncHour
1302:Drivers/STM32L0xx_HAL_Driver/Inc/stm32l0xx_ll_rtc.h ****   * @param  RTCx RTC Instance
1303:Drivers/STM32L0xx_HAL_Driver/Inc/stm32l0xx_ll_rtc.h ****   * @retval None
1304:Drivers/STM32L0xx_HAL_Driver/Inc/stm32l0xx_ll_rtc.h ****   */
1305:Drivers/STM32L0xx_HAL_Driver/Inc/stm32l0xx_ll_rtc.h **** __STATIC_INLINE void LL_RTC_TIME_IncHour(RTC_TypeDef *RTCx)
1306:Drivers/STM32L0xx_HAL_Driver/Inc/stm32l0xx_ll_rtc.h **** {
1307:Drivers/STM32L0xx_HAL_Driver/Inc/stm32l0xx_ll_rtc.h ****   SET_BIT(RTCx->CR, RTC_CR_ADD1H);
1308:Drivers/STM32L0xx_HAL_Driver/Inc/stm32l0xx_ll_rtc.h **** }
1309:Drivers/STM32L0xx_HAL_Driver/Inc/stm32l0xx_ll_rtc.h **** 
1310:Drivers/STM32L0xx_HAL_Driver/Inc/stm32l0xx_ll_rtc.h **** /**
1311:Drivers/STM32L0xx_HAL_Driver/Inc/stm32l0xx_ll_rtc.h ****   * @brief  Get Sub second value in the synchronous prescaler counter.
1312:Drivers/STM32L0xx_HAL_Driver/Inc/stm32l0xx_ll_rtc.h ****   * @note  You can use both SubSeconds value and SecondFraction (PREDIV_S through
1313:Drivers/STM32L0xx_HAL_Driver/Inc/stm32l0xx_ll_rtc.h ****   *        LL_RTC_GetSynchPrescaler function) terms returned to convert Calendar
1314:Drivers/STM32L0xx_HAL_Driver/Inc/stm32l0xx_ll_rtc.h ****   *        SubSeconds value in second fraction ratio with time unit following
1315:Drivers/STM32L0xx_HAL_Driver/Inc/stm32l0xx_ll_rtc.h ****   *        generic formula:
1316:Drivers/STM32L0xx_HAL_Driver/Inc/stm32l0xx_ll_rtc.h ****   *          ==> Seconds fraction ratio * time_unit= [(SecondFraction-SubSeconds)/(SecondFraction+1
1317:Drivers/STM32L0xx_HAL_Driver/Inc/stm32l0xx_ll_rtc.h ****   *        This conversion can be performed only if no shift operation is pending
1318:Drivers/STM32L0xx_HAL_Driver/Inc/stm32l0xx_ll_rtc.h ****   *        (ie. SHFP=0) when PREDIV_S >= SS.
1319:Drivers/STM32L0xx_HAL_Driver/Inc/stm32l0xx_ll_rtc.h ****   * @rmtoll SSR          SS            LL_RTC_TIME_GetSubSecond
1320:Drivers/STM32L0xx_HAL_Driver/Inc/stm32l0xx_ll_rtc.h ****   * @param  RTCx RTC Instance
1321:Drivers/STM32L0xx_HAL_Driver/Inc/stm32l0xx_ll_rtc.h ****   * @retval Sub second value (number between 0 and 65535)
1322:Drivers/STM32L0xx_HAL_Driver/Inc/stm32l0xx_ll_rtc.h ****   */
1323:Drivers/STM32L0xx_HAL_Driver/Inc/stm32l0xx_ll_rtc.h **** __STATIC_INLINE uint32_t LL_RTC_TIME_GetSubSecond(RTC_TypeDef *RTCx)
1324:Drivers/STM32L0xx_HAL_Driver/Inc/stm32l0xx_ll_rtc.h **** {
ARM GAS  /tmp/ccJpVmYc.s 			page 38


1325:Drivers/STM32L0xx_HAL_Driver/Inc/stm32l0xx_ll_rtc.h ****   return (uint32_t)(READ_BIT(RTCx->SSR, RTC_SSR_SS));
1326:Drivers/STM32L0xx_HAL_Driver/Inc/stm32l0xx_ll_rtc.h **** }
1327:Drivers/STM32L0xx_HAL_Driver/Inc/stm32l0xx_ll_rtc.h **** 
1328:Drivers/STM32L0xx_HAL_Driver/Inc/stm32l0xx_ll_rtc.h **** /**
1329:Drivers/STM32L0xx_HAL_Driver/Inc/stm32l0xx_ll_rtc.h ****   * @brief  Synchronize to a remote clock with a high degree of precision.
1330:Drivers/STM32L0xx_HAL_Driver/Inc/stm32l0xx_ll_rtc.h ****   * @note   This operation effectively subtracts from (delays) or advance the clock of a fraction o
1331:Drivers/STM32L0xx_HAL_Driver/Inc/stm32l0xx_ll_rtc.h ****   * @note   Bit is write-protected. @ref LL_RTC_DisableWriteProtection function should be called be
1332:Drivers/STM32L0xx_HAL_Driver/Inc/stm32l0xx_ll_rtc.h ****   * @note   When REFCKON is set, firmware must not write to Shift control register.
1333:Drivers/STM32L0xx_HAL_Driver/Inc/stm32l0xx_ll_rtc.h ****   * @rmtoll SHIFTR       ADD1S         LL_RTC_TIME_Synchronize\n
1334:Drivers/STM32L0xx_HAL_Driver/Inc/stm32l0xx_ll_rtc.h ****   *         SHIFTR       SUBFS         LL_RTC_TIME_Synchronize
1335:Drivers/STM32L0xx_HAL_Driver/Inc/stm32l0xx_ll_rtc.h ****   * @param  RTCx RTC Instance
1336:Drivers/STM32L0xx_HAL_Driver/Inc/stm32l0xx_ll_rtc.h ****   * @param  ShiftSecond This parameter can be one of the following values:
1337:Drivers/STM32L0xx_HAL_Driver/Inc/stm32l0xx_ll_rtc.h ****   *         @arg @ref LL_RTC_SHIFT_SECOND_DELAY
1338:Drivers/STM32L0xx_HAL_Driver/Inc/stm32l0xx_ll_rtc.h ****   *         @arg @ref LL_RTC_SHIFT_SECOND_ADVANCE
1339:Drivers/STM32L0xx_HAL_Driver/Inc/stm32l0xx_ll_rtc.h ****   * @param  Fraction Number of Seconds Fractions (any value from 0 to 0x7FFF)
1340:Drivers/STM32L0xx_HAL_Driver/Inc/stm32l0xx_ll_rtc.h ****   * @retval None
1341:Drivers/STM32L0xx_HAL_Driver/Inc/stm32l0xx_ll_rtc.h ****   */
1342:Drivers/STM32L0xx_HAL_Driver/Inc/stm32l0xx_ll_rtc.h **** __STATIC_INLINE void LL_RTC_TIME_Synchronize(RTC_TypeDef *RTCx, uint32_t ShiftSecond, uint32_t Frac
1343:Drivers/STM32L0xx_HAL_Driver/Inc/stm32l0xx_ll_rtc.h **** {
1344:Drivers/STM32L0xx_HAL_Driver/Inc/stm32l0xx_ll_rtc.h ****   WRITE_REG(RTCx->SHIFTR, ShiftSecond | Fraction);
1345:Drivers/STM32L0xx_HAL_Driver/Inc/stm32l0xx_ll_rtc.h **** }
1346:Drivers/STM32L0xx_HAL_Driver/Inc/stm32l0xx_ll_rtc.h **** 
1347:Drivers/STM32L0xx_HAL_Driver/Inc/stm32l0xx_ll_rtc.h **** /**
1348:Drivers/STM32L0xx_HAL_Driver/Inc/stm32l0xx_ll_rtc.h ****   * @}
1349:Drivers/STM32L0xx_HAL_Driver/Inc/stm32l0xx_ll_rtc.h ****   */
1350:Drivers/STM32L0xx_HAL_Driver/Inc/stm32l0xx_ll_rtc.h **** 
1351:Drivers/STM32L0xx_HAL_Driver/Inc/stm32l0xx_ll_rtc.h **** /** @defgroup RTC_LL_EF_Date Date
1352:Drivers/STM32L0xx_HAL_Driver/Inc/stm32l0xx_ll_rtc.h ****   * @{
1353:Drivers/STM32L0xx_HAL_Driver/Inc/stm32l0xx_ll_rtc.h ****   */
1354:Drivers/STM32L0xx_HAL_Driver/Inc/stm32l0xx_ll_rtc.h **** 
1355:Drivers/STM32L0xx_HAL_Driver/Inc/stm32l0xx_ll_rtc.h **** /**
1356:Drivers/STM32L0xx_HAL_Driver/Inc/stm32l0xx_ll_rtc.h ****   * @brief  Set Year in BCD format
1357:Drivers/STM32L0xx_HAL_Driver/Inc/stm32l0xx_ll_rtc.h ****   * @note helper macro __LL_RTC_CONVERT_BIN2BCD is available to convert Year from binary to BCD for
1358:Drivers/STM32L0xx_HAL_Driver/Inc/stm32l0xx_ll_rtc.h ****   * @rmtoll DR           YT            LL_RTC_DATE_SetYear\n
1359:Drivers/STM32L0xx_HAL_Driver/Inc/stm32l0xx_ll_rtc.h ****   *         DR           YU            LL_RTC_DATE_SetYear
1360:Drivers/STM32L0xx_HAL_Driver/Inc/stm32l0xx_ll_rtc.h ****   * @param  RTCx RTC Instance
1361:Drivers/STM32L0xx_HAL_Driver/Inc/stm32l0xx_ll_rtc.h ****   * @param  Year Value between Min_Data=0x00 and Max_Data=0x99
1362:Drivers/STM32L0xx_HAL_Driver/Inc/stm32l0xx_ll_rtc.h ****   * @retval None
1363:Drivers/STM32L0xx_HAL_Driver/Inc/stm32l0xx_ll_rtc.h ****   */
1364:Drivers/STM32L0xx_HAL_Driver/Inc/stm32l0xx_ll_rtc.h **** __STATIC_INLINE void LL_RTC_DATE_SetYear(RTC_TypeDef *RTCx, uint32_t Year)
1365:Drivers/STM32L0xx_HAL_Driver/Inc/stm32l0xx_ll_rtc.h **** {
1366:Drivers/STM32L0xx_HAL_Driver/Inc/stm32l0xx_ll_rtc.h ****   MODIFY_REG(RTCx->DR, (RTC_DR_YT | RTC_DR_YU),
1367:Drivers/STM32L0xx_HAL_Driver/Inc/stm32l0xx_ll_rtc.h ****              (((Year & 0xF0U) << (RTC_DR_YT_Pos - 4U)) | ((Year & 0x0FU) << RTC_DR_YU_Pos)));
1368:Drivers/STM32L0xx_HAL_Driver/Inc/stm32l0xx_ll_rtc.h **** }
1369:Drivers/STM32L0xx_HAL_Driver/Inc/stm32l0xx_ll_rtc.h **** 
1370:Drivers/STM32L0xx_HAL_Driver/Inc/stm32l0xx_ll_rtc.h **** /**
1371:Drivers/STM32L0xx_HAL_Driver/Inc/stm32l0xx_ll_rtc.h ****   * @brief  Get Year in BCD format
1372:Drivers/STM32L0xx_HAL_Driver/Inc/stm32l0xx_ll_rtc.h ****   * @note if shadow mode is disabled (BYPSHAD=0), need to check if RSF flag is set
1373:Drivers/STM32L0xx_HAL_Driver/Inc/stm32l0xx_ll_rtc.h ****   *       before reading this bit
1374:Drivers/STM32L0xx_HAL_Driver/Inc/stm32l0xx_ll_rtc.h ****   * @note helper macro __LL_RTC_CONVERT_BCD2BIN is available to convert Year from BCD to Binary for
1375:Drivers/STM32L0xx_HAL_Driver/Inc/stm32l0xx_ll_rtc.h ****   * @rmtoll DR           YT            LL_RTC_DATE_GetYear\n
1376:Drivers/STM32L0xx_HAL_Driver/Inc/stm32l0xx_ll_rtc.h ****   *         DR           YU            LL_RTC_DATE_GetYear
1377:Drivers/STM32L0xx_HAL_Driver/Inc/stm32l0xx_ll_rtc.h ****   * @param  RTCx RTC Instance
1378:Drivers/STM32L0xx_HAL_Driver/Inc/stm32l0xx_ll_rtc.h ****   * @retval Value between Min_Data=0x00 and Max_Data=0x99
1379:Drivers/STM32L0xx_HAL_Driver/Inc/stm32l0xx_ll_rtc.h ****   */
1380:Drivers/STM32L0xx_HAL_Driver/Inc/stm32l0xx_ll_rtc.h **** __STATIC_INLINE uint32_t LL_RTC_DATE_GetYear(RTC_TypeDef *RTCx)
1381:Drivers/STM32L0xx_HAL_Driver/Inc/stm32l0xx_ll_rtc.h **** {
ARM GAS  /tmp/ccJpVmYc.s 			page 39


1382:Drivers/STM32L0xx_HAL_Driver/Inc/stm32l0xx_ll_rtc.h ****   uint32_t temp;
1383:Drivers/STM32L0xx_HAL_Driver/Inc/stm32l0xx_ll_rtc.h **** 
1384:Drivers/STM32L0xx_HAL_Driver/Inc/stm32l0xx_ll_rtc.h ****   temp = READ_BIT(RTCx->DR, (RTC_DR_YT | RTC_DR_YU));
1385:Drivers/STM32L0xx_HAL_Driver/Inc/stm32l0xx_ll_rtc.h ****   return (uint32_t)((((temp & RTC_DR_YT) >> RTC_DR_YT_Pos) << 4U) | ((temp & RTC_DR_YU) >> RTC_DR_Y
1386:Drivers/STM32L0xx_HAL_Driver/Inc/stm32l0xx_ll_rtc.h **** }
1387:Drivers/STM32L0xx_HAL_Driver/Inc/stm32l0xx_ll_rtc.h **** 
1388:Drivers/STM32L0xx_HAL_Driver/Inc/stm32l0xx_ll_rtc.h **** /**
1389:Drivers/STM32L0xx_HAL_Driver/Inc/stm32l0xx_ll_rtc.h ****   * @brief  Set Week day
1390:Drivers/STM32L0xx_HAL_Driver/Inc/stm32l0xx_ll_rtc.h ****   * @rmtoll DR           WDU           LL_RTC_DATE_SetWeekDay
1391:Drivers/STM32L0xx_HAL_Driver/Inc/stm32l0xx_ll_rtc.h ****   * @param  RTCx RTC Instance
1392:Drivers/STM32L0xx_HAL_Driver/Inc/stm32l0xx_ll_rtc.h ****   * @param  WeekDay This parameter can be one of the following values:
1393:Drivers/STM32L0xx_HAL_Driver/Inc/stm32l0xx_ll_rtc.h ****   *         @arg @ref LL_RTC_WEEKDAY_MONDAY
1394:Drivers/STM32L0xx_HAL_Driver/Inc/stm32l0xx_ll_rtc.h ****   *         @arg @ref LL_RTC_WEEKDAY_TUESDAY
1395:Drivers/STM32L0xx_HAL_Driver/Inc/stm32l0xx_ll_rtc.h ****   *         @arg @ref LL_RTC_WEEKDAY_WEDNESDAY
1396:Drivers/STM32L0xx_HAL_Driver/Inc/stm32l0xx_ll_rtc.h ****   *         @arg @ref LL_RTC_WEEKDAY_THURSDAY
1397:Drivers/STM32L0xx_HAL_Driver/Inc/stm32l0xx_ll_rtc.h ****   *         @arg @ref LL_RTC_WEEKDAY_FRIDAY
1398:Drivers/STM32L0xx_HAL_Driver/Inc/stm32l0xx_ll_rtc.h ****   *         @arg @ref LL_RTC_WEEKDAY_SATURDAY
1399:Drivers/STM32L0xx_HAL_Driver/Inc/stm32l0xx_ll_rtc.h ****   *         @arg @ref LL_RTC_WEEKDAY_SUNDAY
1400:Drivers/STM32L0xx_HAL_Driver/Inc/stm32l0xx_ll_rtc.h ****   * @retval None
1401:Drivers/STM32L0xx_HAL_Driver/Inc/stm32l0xx_ll_rtc.h ****   */
1402:Drivers/STM32L0xx_HAL_Driver/Inc/stm32l0xx_ll_rtc.h **** __STATIC_INLINE void LL_RTC_DATE_SetWeekDay(RTC_TypeDef *RTCx, uint32_t WeekDay)
1403:Drivers/STM32L0xx_HAL_Driver/Inc/stm32l0xx_ll_rtc.h **** {
1404:Drivers/STM32L0xx_HAL_Driver/Inc/stm32l0xx_ll_rtc.h ****   MODIFY_REG(RTCx->DR, RTC_DR_WDU, WeekDay << RTC_DR_WDU_Pos);
1405:Drivers/STM32L0xx_HAL_Driver/Inc/stm32l0xx_ll_rtc.h **** }
1406:Drivers/STM32L0xx_HAL_Driver/Inc/stm32l0xx_ll_rtc.h **** 
1407:Drivers/STM32L0xx_HAL_Driver/Inc/stm32l0xx_ll_rtc.h **** /**
1408:Drivers/STM32L0xx_HAL_Driver/Inc/stm32l0xx_ll_rtc.h ****   * @brief  Get Week day
1409:Drivers/STM32L0xx_HAL_Driver/Inc/stm32l0xx_ll_rtc.h ****   * @note if shadow mode is disabled (BYPSHAD=0), need to check if RSF flag is set
1410:Drivers/STM32L0xx_HAL_Driver/Inc/stm32l0xx_ll_rtc.h ****   *       before reading this bit
1411:Drivers/STM32L0xx_HAL_Driver/Inc/stm32l0xx_ll_rtc.h ****   * @rmtoll DR           WDU           LL_RTC_DATE_GetWeekDay
1412:Drivers/STM32L0xx_HAL_Driver/Inc/stm32l0xx_ll_rtc.h ****   * @param  RTCx RTC Instance
1413:Drivers/STM32L0xx_HAL_Driver/Inc/stm32l0xx_ll_rtc.h ****   * @retval Returned value can be one of the following values:
1414:Drivers/STM32L0xx_HAL_Driver/Inc/stm32l0xx_ll_rtc.h ****   *         @arg @ref LL_RTC_WEEKDAY_MONDAY
1415:Drivers/STM32L0xx_HAL_Driver/Inc/stm32l0xx_ll_rtc.h ****   *         @arg @ref LL_RTC_WEEKDAY_TUESDAY
1416:Drivers/STM32L0xx_HAL_Driver/Inc/stm32l0xx_ll_rtc.h ****   *         @arg @ref LL_RTC_WEEKDAY_WEDNESDAY
1417:Drivers/STM32L0xx_HAL_Driver/Inc/stm32l0xx_ll_rtc.h ****   *         @arg @ref LL_RTC_WEEKDAY_THURSDAY
1418:Drivers/STM32L0xx_HAL_Driver/Inc/stm32l0xx_ll_rtc.h ****   *         @arg @ref LL_RTC_WEEKDAY_FRIDAY
1419:Drivers/STM32L0xx_HAL_Driver/Inc/stm32l0xx_ll_rtc.h ****   *         @arg @ref LL_RTC_WEEKDAY_SATURDAY
1420:Drivers/STM32L0xx_HAL_Driver/Inc/stm32l0xx_ll_rtc.h ****   *         @arg @ref LL_RTC_WEEKDAY_SUNDAY
1421:Drivers/STM32L0xx_HAL_Driver/Inc/stm32l0xx_ll_rtc.h ****   */
1422:Drivers/STM32L0xx_HAL_Driver/Inc/stm32l0xx_ll_rtc.h **** __STATIC_INLINE uint32_t LL_RTC_DATE_GetWeekDay(RTC_TypeDef *RTCx)
1423:Drivers/STM32L0xx_HAL_Driver/Inc/stm32l0xx_ll_rtc.h **** {
1424:Drivers/STM32L0xx_HAL_Driver/Inc/stm32l0xx_ll_rtc.h ****   return (uint32_t)(READ_BIT(RTCx->DR, RTC_DR_WDU) >> RTC_DR_WDU_Pos);
1425:Drivers/STM32L0xx_HAL_Driver/Inc/stm32l0xx_ll_rtc.h **** }
1426:Drivers/STM32L0xx_HAL_Driver/Inc/stm32l0xx_ll_rtc.h **** 
1427:Drivers/STM32L0xx_HAL_Driver/Inc/stm32l0xx_ll_rtc.h **** /**
1428:Drivers/STM32L0xx_HAL_Driver/Inc/stm32l0xx_ll_rtc.h ****   * @brief  Set Month in BCD format
1429:Drivers/STM32L0xx_HAL_Driver/Inc/stm32l0xx_ll_rtc.h ****   * @note helper macro __LL_RTC_CONVERT_BIN2BCD is available to convert Month from binary to BCD fo
1430:Drivers/STM32L0xx_HAL_Driver/Inc/stm32l0xx_ll_rtc.h ****   * @rmtoll DR           MT            LL_RTC_DATE_SetMonth\n
1431:Drivers/STM32L0xx_HAL_Driver/Inc/stm32l0xx_ll_rtc.h ****   *         DR           MU            LL_RTC_DATE_SetMonth
1432:Drivers/STM32L0xx_HAL_Driver/Inc/stm32l0xx_ll_rtc.h ****   * @param  RTCx RTC Instance
1433:Drivers/STM32L0xx_HAL_Driver/Inc/stm32l0xx_ll_rtc.h ****   * @param  Month This parameter can be one of the following values:
1434:Drivers/STM32L0xx_HAL_Driver/Inc/stm32l0xx_ll_rtc.h ****   *         @arg @ref LL_RTC_MONTH_JANUARY
1435:Drivers/STM32L0xx_HAL_Driver/Inc/stm32l0xx_ll_rtc.h ****   *         @arg @ref LL_RTC_MONTH_FEBRUARY
1436:Drivers/STM32L0xx_HAL_Driver/Inc/stm32l0xx_ll_rtc.h ****   *         @arg @ref LL_RTC_MONTH_MARCH
1437:Drivers/STM32L0xx_HAL_Driver/Inc/stm32l0xx_ll_rtc.h ****   *         @arg @ref LL_RTC_MONTH_APRIL
1438:Drivers/STM32L0xx_HAL_Driver/Inc/stm32l0xx_ll_rtc.h ****   *         @arg @ref LL_RTC_MONTH_MAY
ARM GAS  /tmp/ccJpVmYc.s 			page 40


1439:Drivers/STM32L0xx_HAL_Driver/Inc/stm32l0xx_ll_rtc.h ****   *         @arg @ref LL_RTC_MONTH_JUNE
1440:Drivers/STM32L0xx_HAL_Driver/Inc/stm32l0xx_ll_rtc.h ****   *         @arg @ref LL_RTC_MONTH_JULY
1441:Drivers/STM32L0xx_HAL_Driver/Inc/stm32l0xx_ll_rtc.h ****   *         @arg @ref LL_RTC_MONTH_AUGUST
1442:Drivers/STM32L0xx_HAL_Driver/Inc/stm32l0xx_ll_rtc.h ****   *         @arg @ref LL_RTC_MONTH_SEPTEMBER
1443:Drivers/STM32L0xx_HAL_Driver/Inc/stm32l0xx_ll_rtc.h ****   *         @arg @ref LL_RTC_MONTH_OCTOBER
1444:Drivers/STM32L0xx_HAL_Driver/Inc/stm32l0xx_ll_rtc.h ****   *         @arg @ref LL_RTC_MONTH_NOVEMBER
1445:Drivers/STM32L0xx_HAL_Driver/Inc/stm32l0xx_ll_rtc.h ****   *         @arg @ref LL_RTC_MONTH_DECEMBER
1446:Drivers/STM32L0xx_HAL_Driver/Inc/stm32l0xx_ll_rtc.h ****   * @retval None
1447:Drivers/STM32L0xx_HAL_Driver/Inc/stm32l0xx_ll_rtc.h ****   */
1448:Drivers/STM32L0xx_HAL_Driver/Inc/stm32l0xx_ll_rtc.h **** __STATIC_INLINE void LL_RTC_DATE_SetMonth(RTC_TypeDef *RTCx, uint32_t Month)
1449:Drivers/STM32L0xx_HAL_Driver/Inc/stm32l0xx_ll_rtc.h **** {
1450:Drivers/STM32L0xx_HAL_Driver/Inc/stm32l0xx_ll_rtc.h ****   MODIFY_REG(RTCx->DR, (RTC_DR_MT | RTC_DR_MU),
1451:Drivers/STM32L0xx_HAL_Driver/Inc/stm32l0xx_ll_rtc.h ****              (((Month & 0xF0U) << (RTC_DR_MT_Pos - 4U)) | ((Month & 0x0FU) << RTC_DR_MU_Pos)));
1452:Drivers/STM32L0xx_HAL_Driver/Inc/stm32l0xx_ll_rtc.h **** }
1453:Drivers/STM32L0xx_HAL_Driver/Inc/stm32l0xx_ll_rtc.h **** 
1454:Drivers/STM32L0xx_HAL_Driver/Inc/stm32l0xx_ll_rtc.h **** /**
1455:Drivers/STM32L0xx_HAL_Driver/Inc/stm32l0xx_ll_rtc.h ****   * @brief  Get Month in BCD format
1456:Drivers/STM32L0xx_HAL_Driver/Inc/stm32l0xx_ll_rtc.h ****   * @note if shadow mode is disabled (BYPSHAD=0), need to check if RSF flag is set
1457:Drivers/STM32L0xx_HAL_Driver/Inc/stm32l0xx_ll_rtc.h ****   *       before reading this bit
1458:Drivers/STM32L0xx_HAL_Driver/Inc/stm32l0xx_ll_rtc.h ****   * @note helper macro __LL_RTC_CONVERT_BCD2BIN is available to convert Month from BCD to Binary fo
1459:Drivers/STM32L0xx_HAL_Driver/Inc/stm32l0xx_ll_rtc.h ****   * @rmtoll DR           MT            LL_RTC_DATE_GetMonth\n
1460:Drivers/STM32L0xx_HAL_Driver/Inc/stm32l0xx_ll_rtc.h ****   *         DR           MU            LL_RTC_DATE_GetMonth
1461:Drivers/STM32L0xx_HAL_Driver/Inc/stm32l0xx_ll_rtc.h ****   * @param  RTCx RTC Instance
1462:Drivers/STM32L0xx_HAL_Driver/Inc/stm32l0xx_ll_rtc.h ****   * @retval Returned value can be one of the following values:
1463:Drivers/STM32L0xx_HAL_Driver/Inc/stm32l0xx_ll_rtc.h ****   *         @arg @ref LL_RTC_MONTH_JANUARY
1464:Drivers/STM32L0xx_HAL_Driver/Inc/stm32l0xx_ll_rtc.h ****   *         @arg @ref LL_RTC_MONTH_FEBRUARY
1465:Drivers/STM32L0xx_HAL_Driver/Inc/stm32l0xx_ll_rtc.h ****   *         @arg @ref LL_RTC_MONTH_MARCH
1466:Drivers/STM32L0xx_HAL_Driver/Inc/stm32l0xx_ll_rtc.h ****   *         @arg @ref LL_RTC_MONTH_APRIL
1467:Drivers/STM32L0xx_HAL_Driver/Inc/stm32l0xx_ll_rtc.h ****   *         @arg @ref LL_RTC_MONTH_MAY
1468:Drivers/STM32L0xx_HAL_Driver/Inc/stm32l0xx_ll_rtc.h ****   *         @arg @ref LL_RTC_MONTH_JUNE
1469:Drivers/STM32L0xx_HAL_Driver/Inc/stm32l0xx_ll_rtc.h ****   *         @arg @ref LL_RTC_MONTH_JULY
1470:Drivers/STM32L0xx_HAL_Driver/Inc/stm32l0xx_ll_rtc.h ****   *         @arg @ref LL_RTC_MONTH_AUGUST
1471:Drivers/STM32L0xx_HAL_Driver/Inc/stm32l0xx_ll_rtc.h ****   *         @arg @ref LL_RTC_MONTH_SEPTEMBER
1472:Drivers/STM32L0xx_HAL_Driver/Inc/stm32l0xx_ll_rtc.h ****   *         @arg @ref LL_RTC_MONTH_OCTOBER
1473:Drivers/STM32L0xx_HAL_Driver/Inc/stm32l0xx_ll_rtc.h ****   *         @arg @ref LL_RTC_MONTH_NOVEMBER
1474:Drivers/STM32L0xx_HAL_Driver/Inc/stm32l0xx_ll_rtc.h ****   *         @arg @ref LL_RTC_MONTH_DECEMBER
1475:Drivers/STM32L0xx_HAL_Driver/Inc/stm32l0xx_ll_rtc.h ****   */
1476:Drivers/STM32L0xx_HAL_Driver/Inc/stm32l0xx_ll_rtc.h **** __STATIC_INLINE uint32_t LL_RTC_DATE_GetMonth(RTC_TypeDef *RTCx)
1477:Drivers/STM32L0xx_HAL_Driver/Inc/stm32l0xx_ll_rtc.h **** {
1478:Drivers/STM32L0xx_HAL_Driver/Inc/stm32l0xx_ll_rtc.h ****   uint32_t temp;
1479:Drivers/STM32L0xx_HAL_Driver/Inc/stm32l0xx_ll_rtc.h **** 
1480:Drivers/STM32L0xx_HAL_Driver/Inc/stm32l0xx_ll_rtc.h ****   temp = READ_BIT(RTCx->DR, (RTC_DR_MT | RTC_DR_MU));
1481:Drivers/STM32L0xx_HAL_Driver/Inc/stm32l0xx_ll_rtc.h ****   return (uint32_t)((((temp & RTC_DR_MT) >> RTC_DR_MT_Pos) << 4U) | ((temp & RTC_DR_MU) >> RTC_DR_M
1482:Drivers/STM32L0xx_HAL_Driver/Inc/stm32l0xx_ll_rtc.h **** }
1483:Drivers/STM32L0xx_HAL_Driver/Inc/stm32l0xx_ll_rtc.h **** 
1484:Drivers/STM32L0xx_HAL_Driver/Inc/stm32l0xx_ll_rtc.h **** /**
1485:Drivers/STM32L0xx_HAL_Driver/Inc/stm32l0xx_ll_rtc.h ****   * @brief  Set Day in BCD format
1486:Drivers/STM32L0xx_HAL_Driver/Inc/stm32l0xx_ll_rtc.h ****   * @note helper macro __LL_RTC_CONVERT_BIN2BCD is available to convert Day from binary to BCD form
1487:Drivers/STM32L0xx_HAL_Driver/Inc/stm32l0xx_ll_rtc.h ****   * @rmtoll DR           DT            LL_RTC_DATE_SetDay\n
1488:Drivers/STM32L0xx_HAL_Driver/Inc/stm32l0xx_ll_rtc.h ****   *         DR           DU            LL_RTC_DATE_SetDay
1489:Drivers/STM32L0xx_HAL_Driver/Inc/stm32l0xx_ll_rtc.h ****   * @param  RTCx RTC Instance
1490:Drivers/STM32L0xx_HAL_Driver/Inc/stm32l0xx_ll_rtc.h ****   * @param  Day Value between Min_Data=0x01 and Max_Data=0x31
1491:Drivers/STM32L0xx_HAL_Driver/Inc/stm32l0xx_ll_rtc.h ****   * @retval None
1492:Drivers/STM32L0xx_HAL_Driver/Inc/stm32l0xx_ll_rtc.h ****   */
1493:Drivers/STM32L0xx_HAL_Driver/Inc/stm32l0xx_ll_rtc.h **** __STATIC_INLINE void LL_RTC_DATE_SetDay(RTC_TypeDef *RTCx, uint32_t Day)
1494:Drivers/STM32L0xx_HAL_Driver/Inc/stm32l0xx_ll_rtc.h **** {
1495:Drivers/STM32L0xx_HAL_Driver/Inc/stm32l0xx_ll_rtc.h ****   MODIFY_REG(RTCx->DR, (RTC_DR_DT | RTC_DR_DU),
ARM GAS  /tmp/ccJpVmYc.s 			page 41


1496:Drivers/STM32L0xx_HAL_Driver/Inc/stm32l0xx_ll_rtc.h ****              (((Day & 0xF0U) << (RTC_DR_DT_Pos - 4U)) | ((Day & 0x0FU) << RTC_DR_DU_Pos)));
1497:Drivers/STM32L0xx_HAL_Driver/Inc/stm32l0xx_ll_rtc.h **** }
1498:Drivers/STM32L0xx_HAL_Driver/Inc/stm32l0xx_ll_rtc.h **** 
1499:Drivers/STM32L0xx_HAL_Driver/Inc/stm32l0xx_ll_rtc.h **** /**
1500:Drivers/STM32L0xx_HAL_Driver/Inc/stm32l0xx_ll_rtc.h ****   * @brief  Get Day in BCD format
1501:Drivers/STM32L0xx_HAL_Driver/Inc/stm32l0xx_ll_rtc.h ****   * @note if shadow mode is disabled (BYPSHAD=0), need to check if RSF flag is set
1502:Drivers/STM32L0xx_HAL_Driver/Inc/stm32l0xx_ll_rtc.h ****   *       before reading this bit
1503:Drivers/STM32L0xx_HAL_Driver/Inc/stm32l0xx_ll_rtc.h ****   * @note helper macro __LL_RTC_CONVERT_BCD2BIN is available to convert Day from BCD to Binary form
1504:Drivers/STM32L0xx_HAL_Driver/Inc/stm32l0xx_ll_rtc.h ****   * @rmtoll DR           DT            LL_RTC_DATE_GetDay\n
1505:Drivers/STM32L0xx_HAL_Driver/Inc/stm32l0xx_ll_rtc.h ****   *         DR           DU            LL_RTC_DATE_GetDay
1506:Drivers/STM32L0xx_HAL_Driver/Inc/stm32l0xx_ll_rtc.h ****   * @param  RTCx RTC Instance
1507:Drivers/STM32L0xx_HAL_Driver/Inc/stm32l0xx_ll_rtc.h ****   * @retval Value between Min_Data=0x01 and Max_Data=0x31
1508:Drivers/STM32L0xx_HAL_Driver/Inc/stm32l0xx_ll_rtc.h ****   */
1509:Drivers/STM32L0xx_HAL_Driver/Inc/stm32l0xx_ll_rtc.h **** __STATIC_INLINE uint32_t LL_RTC_DATE_GetDay(RTC_TypeDef *RTCx)
1510:Drivers/STM32L0xx_HAL_Driver/Inc/stm32l0xx_ll_rtc.h **** {
1511:Drivers/STM32L0xx_HAL_Driver/Inc/stm32l0xx_ll_rtc.h ****   uint32_t temp;
1512:Drivers/STM32L0xx_HAL_Driver/Inc/stm32l0xx_ll_rtc.h **** 
1513:Drivers/STM32L0xx_HAL_Driver/Inc/stm32l0xx_ll_rtc.h ****   temp = READ_BIT(RTCx->DR, (RTC_DR_DT | RTC_DR_DU));
1514:Drivers/STM32L0xx_HAL_Driver/Inc/stm32l0xx_ll_rtc.h ****   return (uint32_t)((((temp & RTC_DR_DT) >> RTC_DR_DT_Pos) << 4U) | ((temp & RTC_DR_DU) >> RTC_DR_D
1515:Drivers/STM32L0xx_HAL_Driver/Inc/stm32l0xx_ll_rtc.h **** }
1516:Drivers/STM32L0xx_HAL_Driver/Inc/stm32l0xx_ll_rtc.h **** 
1517:Drivers/STM32L0xx_HAL_Driver/Inc/stm32l0xx_ll_rtc.h **** /**
1518:Drivers/STM32L0xx_HAL_Driver/Inc/stm32l0xx_ll_rtc.h ****   * @brief  Set date (WeekDay, Day, Month and Year) in BCD format
1519:Drivers/STM32L0xx_HAL_Driver/Inc/stm32l0xx_ll_rtc.h ****   * @rmtoll DR           WDU           LL_RTC_DATE_Config\n
1520:Drivers/STM32L0xx_HAL_Driver/Inc/stm32l0xx_ll_rtc.h ****   *         DR           MT            LL_RTC_DATE_Config\n
1521:Drivers/STM32L0xx_HAL_Driver/Inc/stm32l0xx_ll_rtc.h ****   *         DR           MU            LL_RTC_DATE_Config\n
1522:Drivers/STM32L0xx_HAL_Driver/Inc/stm32l0xx_ll_rtc.h ****   *         DR           DT            LL_RTC_DATE_Config\n
1523:Drivers/STM32L0xx_HAL_Driver/Inc/stm32l0xx_ll_rtc.h ****   *         DR           DU            LL_RTC_DATE_Config\n
1524:Drivers/STM32L0xx_HAL_Driver/Inc/stm32l0xx_ll_rtc.h ****   *         DR           YT            LL_RTC_DATE_Config\n
1525:Drivers/STM32L0xx_HAL_Driver/Inc/stm32l0xx_ll_rtc.h ****   *         DR           YU            LL_RTC_DATE_Config
1526:Drivers/STM32L0xx_HAL_Driver/Inc/stm32l0xx_ll_rtc.h ****   * @param  RTCx RTC Instance
1527:Drivers/STM32L0xx_HAL_Driver/Inc/stm32l0xx_ll_rtc.h ****   * @param  WeekDay This parameter can be one of the following values:
1528:Drivers/STM32L0xx_HAL_Driver/Inc/stm32l0xx_ll_rtc.h ****   *         @arg @ref LL_RTC_WEEKDAY_MONDAY
1529:Drivers/STM32L0xx_HAL_Driver/Inc/stm32l0xx_ll_rtc.h ****   *         @arg @ref LL_RTC_WEEKDAY_TUESDAY
1530:Drivers/STM32L0xx_HAL_Driver/Inc/stm32l0xx_ll_rtc.h ****   *         @arg @ref LL_RTC_WEEKDAY_WEDNESDAY
1531:Drivers/STM32L0xx_HAL_Driver/Inc/stm32l0xx_ll_rtc.h ****   *         @arg @ref LL_RTC_WEEKDAY_THURSDAY
1532:Drivers/STM32L0xx_HAL_Driver/Inc/stm32l0xx_ll_rtc.h ****   *         @arg @ref LL_RTC_WEEKDAY_FRIDAY
1533:Drivers/STM32L0xx_HAL_Driver/Inc/stm32l0xx_ll_rtc.h ****   *         @arg @ref LL_RTC_WEEKDAY_SATURDAY
1534:Drivers/STM32L0xx_HAL_Driver/Inc/stm32l0xx_ll_rtc.h ****   *         @arg @ref LL_RTC_WEEKDAY_SUNDAY
1535:Drivers/STM32L0xx_HAL_Driver/Inc/stm32l0xx_ll_rtc.h ****   * @param  Day Value between Min_Data=0x01 and Max_Data=0x31
1536:Drivers/STM32L0xx_HAL_Driver/Inc/stm32l0xx_ll_rtc.h ****   * @param  Month This parameter can be one of the following values:
1537:Drivers/STM32L0xx_HAL_Driver/Inc/stm32l0xx_ll_rtc.h ****   *         @arg @ref LL_RTC_MONTH_JANUARY
1538:Drivers/STM32L0xx_HAL_Driver/Inc/stm32l0xx_ll_rtc.h ****   *         @arg @ref LL_RTC_MONTH_FEBRUARY
1539:Drivers/STM32L0xx_HAL_Driver/Inc/stm32l0xx_ll_rtc.h ****   *         @arg @ref LL_RTC_MONTH_MARCH
1540:Drivers/STM32L0xx_HAL_Driver/Inc/stm32l0xx_ll_rtc.h ****   *         @arg @ref LL_RTC_MONTH_APRIL
1541:Drivers/STM32L0xx_HAL_Driver/Inc/stm32l0xx_ll_rtc.h ****   *         @arg @ref LL_RTC_MONTH_MAY
1542:Drivers/STM32L0xx_HAL_Driver/Inc/stm32l0xx_ll_rtc.h ****   *         @arg @ref LL_RTC_MONTH_JUNE
1543:Drivers/STM32L0xx_HAL_Driver/Inc/stm32l0xx_ll_rtc.h ****   *         @arg @ref LL_RTC_MONTH_JULY
1544:Drivers/STM32L0xx_HAL_Driver/Inc/stm32l0xx_ll_rtc.h ****   *         @arg @ref LL_RTC_MONTH_AUGUST
1545:Drivers/STM32L0xx_HAL_Driver/Inc/stm32l0xx_ll_rtc.h ****   *         @arg @ref LL_RTC_MONTH_SEPTEMBER
1546:Drivers/STM32L0xx_HAL_Driver/Inc/stm32l0xx_ll_rtc.h ****   *         @arg @ref LL_RTC_MONTH_OCTOBER
1547:Drivers/STM32L0xx_HAL_Driver/Inc/stm32l0xx_ll_rtc.h ****   *         @arg @ref LL_RTC_MONTH_NOVEMBER
1548:Drivers/STM32L0xx_HAL_Driver/Inc/stm32l0xx_ll_rtc.h ****   *         @arg @ref LL_RTC_MONTH_DECEMBER
1549:Drivers/STM32L0xx_HAL_Driver/Inc/stm32l0xx_ll_rtc.h ****   * @param  Year Value between Min_Data=0x00 and Max_Data=0x99
1550:Drivers/STM32L0xx_HAL_Driver/Inc/stm32l0xx_ll_rtc.h ****   * @retval None
1551:Drivers/STM32L0xx_HAL_Driver/Inc/stm32l0xx_ll_rtc.h ****   */
1552:Drivers/STM32L0xx_HAL_Driver/Inc/stm32l0xx_ll_rtc.h **** __STATIC_INLINE void LL_RTC_DATE_Config(RTC_TypeDef *RTCx, uint32_t WeekDay, uint32_t Day, uint32_t
ARM GAS  /tmp/ccJpVmYc.s 			page 42


1553:Drivers/STM32L0xx_HAL_Driver/Inc/stm32l0xx_ll_rtc.h **** {
1554:Drivers/STM32L0xx_HAL_Driver/Inc/stm32l0xx_ll_rtc.h ****   uint32_t temp;
1555:Drivers/STM32L0xx_HAL_Driver/Inc/stm32l0xx_ll_rtc.h **** 
1556:Drivers/STM32L0xx_HAL_Driver/Inc/stm32l0xx_ll_rtc.h ****   temp = (WeekDay << RTC_DR_WDU_Pos)                                                        | \
1557:Drivers/STM32L0xx_HAL_Driver/Inc/stm32l0xx_ll_rtc.h ****          (((Year & 0xF0U) << (RTC_DR_YT_Pos - 4U)) | ((Year & 0x0FU) << RTC_DR_YU_Pos))   | \
1558:Drivers/STM32L0xx_HAL_Driver/Inc/stm32l0xx_ll_rtc.h ****          (((Month & 0xF0U) << (RTC_DR_MT_Pos - 4U)) | ((Month & 0x0FU) << RTC_DR_MU_Pos)) | \
1559:Drivers/STM32L0xx_HAL_Driver/Inc/stm32l0xx_ll_rtc.h ****          (((Day & 0xF0U) << (RTC_DR_DT_Pos - 4U)) | ((Day & 0x0FU) << RTC_DR_DU_Pos));
1560:Drivers/STM32L0xx_HAL_Driver/Inc/stm32l0xx_ll_rtc.h **** 
1561:Drivers/STM32L0xx_HAL_Driver/Inc/stm32l0xx_ll_rtc.h ****   MODIFY_REG(RTCx->DR, (RTC_DR_WDU | RTC_DR_MT | RTC_DR_MU | RTC_DR_DT | RTC_DR_DU | RTC_DR_YT | RT
1562:Drivers/STM32L0xx_HAL_Driver/Inc/stm32l0xx_ll_rtc.h **** }
1563:Drivers/STM32L0xx_HAL_Driver/Inc/stm32l0xx_ll_rtc.h **** 
1564:Drivers/STM32L0xx_HAL_Driver/Inc/stm32l0xx_ll_rtc.h **** /**
1565:Drivers/STM32L0xx_HAL_Driver/Inc/stm32l0xx_ll_rtc.h ****   * @brief  Get date (WeekDay, Day, Month and Year) in BCD format
1566:Drivers/STM32L0xx_HAL_Driver/Inc/stm32l0xx_ll_rtc.h ****   * @note if shadow mode is disabled (BYPSHAD=0), need to check if RSF flag is set
1567:Drivers/STM32L0xx_HAL_Driver/Inc/stm32l0xx_ll_rtc.h ****   *       before reading this bit
1568:Drivers/STM32L0xx_HAL_Driver/Inc/stm32l0xx_ll_rtc.h ****   * @note helper macros __LL_RTC_GET_WEEKDAY, __LL_RTC_GET_YEAR, __LL_RTC_GET_MONTH,
1569:Drivers/STM32L0xx_HAL_Driver/Inc/stm32l0xx_ll_rtc.h ****   * and __LL_RTC_GET_DAY are available to get independently each parameter.
1570:Drivers/STM32L0xx_HAL_Driver/Inc/stm32l0xx_ll_rtc.h ****   * @rmtoll DR           WDU           LL_RTC_DATE_Get\n
1571:Drivers/STM32L0xx_HAL_Driver/Inc/stm32l0xx_ll_rtc.h ****   *         DR           MT            LL_RTC_DATE_Get\n
1572:Drivers/STM32L0xx_HAL_Driver/Inc/stm32l0xx_ll_rtc.h ****   *         DR           MU            LL_RTC_DATE_Get\n
1573:Drivers/STM32L0xx_HAL_Driver/Inc/stm32l0xx_ll_rtc.h ****   *         DR           DT            LL_RTC_DATE_Get\n
1574:Drivers/STM32L0xx_HAL_Driver/Inc/stm32l0xx_ll_rtc.h ****   *         DR           DU            LL_RTC_DATE_Get\n
1575:Drivers/STM32L0xx_HAL_Driver/Inc/stm32l0xx_ll_rtc.h ****   *         DR           YT            LL_RTC_DATE_Get\n
1576:Drivers/STM32L0xx_HAL_Driver/Inc/stm32l0xx_ll_rtc.h ****   *         DR           YU            LL_RTC_DATE_Get
1577:Drivers/STM32L0xx_HAL_Driver/Inc/stm32l0xx_ll_rtc.h ****   * @param  RTCx RTC Instance
1578:Drivers/STM32L0xx_HAL_Driver/Inc/stm32l0xx_ll_rtc.h ****   * @retval Combination of WeekDay, Day, Month and Year (Format: 0xWWDDMMYY).
1579:Drivers/STM32L0xx_HAL_Driver/Inc/stm32l0xx_ll_rtc.h ****   */
1580:Drivers/STM32L0xx_HAL_Driver/Inc/stm32l0xx_ll_rtc.h **** __STATIC_INLINE uint32_t LL_RTC_DATE_Get(RTC_TypeDef *RTCx)
1581:Drivers/STM32L0xx_HAL_Driver/Inc/stm32l0xx_ll_rtc.h **** {
1582:Drivers/STM32L0xx_HAL_Driver/Inc/stm32l0xx_ll_rtc.h ****   uint32_t temp;
1583:Drivers/STM32L0xx_HAL_Driver/Inc/stm32l0xx_ll_rtc.h **** 
1584:Drivers/STM32L0xx_HAL_Driver/Inc/stm32l0xx_ll_rtc.h ****   temp = READ_BIT(RTCx->DR, (RTC_DR_WDU | RTC_DR_MT | RTC_DR_MU | RTC_DR_DT | RTC_DR_DU | RTC_DR_YT
1585:Drivers/STM32L0xx_HAL_Driver/Inc/stm32l0xx_ll_rtc.h ****   return (uint32_t)((((temp & RTC_DR_WDU) >> RTC_DR_WDU_Pos) << RTC_OFFSET_WEEKDAY) | \
1586:Drivers/STM32L0xx_HAL_Driver/Inc/stm32l0xx_ll_rtc.h ****                     (((((temp & RTC_DR_DT) >> RTC_DR_DT_Pos) << 4U) | ((temp & RTC_DR_DU) >> RTC_DR
1587:Drivers/STM32L0xx_HAL_Driver/Inc/stm32l0xx_ll_rtc.h ****                     (((((temp & RTC_DR_MT) >> RTC_DR_MT_Pos) << 4U) | ((temp & RTC_DR_MU) >> RTC_DR
1588:Drivers/STM32L0xx_HAL_Driver/Inc/stm32l0xx_ll_rtc.h ****                     ((((temp & RTC_DR_YT) >> RTC_DR_YT_Pos) << 4U) | ((temp & RTC_DR_YU) >> RTC_DR_
1589:Drivers/STM32L0xx_HAL_Driver/Inc/stm32l0xx_ll_rtc.h **** }
1590:Drivers/STM32L0xx_HAL_Driver/Inc/stm32l0xx_ll_rtc.h **** 
1591:Drivers/STM32L0xx_HAL_Driver/Inc/stm32l0xx_ll_rtc.h **** /**
1592:Drivers/STM32L0xx_HAL_Driver/Inc/stm32l0xx_ll_rtc.h ****   * @}
1593:Drivers/STM32L0xx_HAL_Driver/Inc/stm32l0xx_ll_rtc.h ****   */
1594:Drivers/STM32L0xx_HAL_Driver/Inc/stm32l0xx_ll_rtc.h **** 
1595:Drivers/STM32L0xx_HAL_Driver/Inc/stm32l0xx_ll_rtc.h **** /** @defgroup RTC_LL_EF_ALARMA ALARMA
1596:Drivers/STM32L0xx_HAL_Driver/Inc/stm32l0xx_ll_rtc.h ****   * @{
1597:Drivers/STM32L0xx_HAL_Driver/Inc/stm32l0xx_ll_rtc.h ****   */
1598:Drivers/STM32L0xx_HAL_Driver/Inc/stm32l0xx_ll_rtc.h **** 
1599:Drivers/STM32L0xx_HAL_Driver/Inc/stm32l0xx_ll_rtc.h **** /**
1600:Drivers/STM32L0xx_HAL_Driver/Inc/stm32l0xx_ll_rtc.h ****   * @brief  Enable Alarm A
1601:Drivers/STM32L0xx_HAL_Driver/Inc/stm32l0xx_ll_rtc.h ****   * @note   Bit is write-protected. @ref LL_RTC_DisableWriteProtection function should be called be
1602:Drivers/STM32L0xx_HAL_Driver/Inc/stm32l0xx_ll_rtc.h ****   * @rmtoll CR           ALRAE         LL_RTC_ALMA_Enable
1603:Drivers/STM32L0xx_HAL_Driver/Inc/stm32l0xx_ll_rtc.h ****   * @param  RTCx RTC Instance
1604:Drivers/STM32L0xx_HAL_Driver/Inc/stm32l0xx_ll_rtc.h ****   * @retval None
1605:Drivers/STM32L0xx_HAL_Driver/Inc/stm32l0xx_ll_rtc.h ****   */
1606:Drivers/STM32L0xx_HAL_Driver/Inc/stm32l0xx_ll_rtc.h **** __STATIC_INLINE void LL_RTC_ALMA_Enable(RTC_TypeDef *RTCx)
1607:Drivers/STM32L0xx_HAL_Driver/Inc/stm32l0xx_ll_rtc.h **** {
1608:Drivers/STM32L0xx_HAL_Driver/Inc/stm32l0xx_ll_rtc.h ****   SET_BIT(RTCx->CR, RTC_CR_ALRAE);
1609:Drivers/STM32L0xx_HAL_Driver/Inc/stm32l0xx_ll_rtc.h **** }
ARM GAS  /tmp/ccJpVmYc.s 			page 43


1610:Drivers/STM32L0xx_HAL_Driver/Inc/stm32l0xx_ll_rtc.h **** 
1611:Drivers/STM32L0xx_HAL_Driver/Inc/stm32l0xx_ll_rtc.h **** /**
1612:Drivers/STM32L0xx_HAL_Driver/Inc/stm32l0xx_ll_rtc.h ****   * @brief  Disable Alarm A
1613:Drivers/STM32L0xx_HAL_Driver/Inc/stm32l0xx_ll_rtc.h ****   * @note   Bit is write-protected. @ref LL_RTC_DisableWriteProtection function should be called be
1614:Drivers/STM32L0xx_HAL_Driver/Inc/stm32l0xx_ll_rtc.h ****   * @rmtoll CR           ALRAE         LL_RTC_ALMA_Disable
1615:Drivers/STM32L0xx_HAL_Driver/Inc/stm32l0xx_ll_rtc.h ****   * @param  RTCx RTC Instance
1616:Drivers/STM32L0xx_HAL_Driver/Inc/stm32l0xx_ll_rtc.h ****   * @retval None
1617:Drivers/STM32L0xx_HAL_Driver/Inc/stm32l0xx_ll_rtc.h ****   */
1618:Drivers/STM32L0xx_HAL_Driver/Inc/stm32l0xx_ll_rtc.h **** __STATIC_INLINE void LL_RTC_ALMA_Disable(RTC_TypeDef *RTCx)
1619:Drivers/STM32L0xx_HAL_Driver/Inc/stm32l0xx_ll_rtc.h **** {
1620:Drivers/STM32L0xx_HAL_Driver/Inc/stm32l0xx_ll_rtc.h ****   CLEAR_BIT(RTCx->CR, RTC_CR_ALRAE);
1621:Drivers/STM32L0xx_HAL_Driver/Inc/stm32l0xx_ll_rtc.h **** }
1622:Drivers/STM32L0xx_HAL_Driver/Inc/stm32l0xx_ll_rtc.h **** 
1623:Drivers/STM32L0xx_HAL_Driver/Inc/stm32l0xx_ll_rtc.h **** /**
1624:Drivers/STM32L0xx_HAL_Driver/Inc/stm32l0xx_ll_rtc.h ****   * @brief  Specify the Alarm A masks.
1625:Drivers/STM32L0xx_HAL_Driver/Inc/stm32l0xx_ll_rtc.h ****   * @rmtoll ALRMAR       MSK4          LL_RTC_ALMA_SetMask\n
1626:Drivers/STM32L0xx_HAL_Driver/Inc/stm32l0xx_ll_rtc.h ****   *         ALRMAR       MSK3          LL_RTC_ALMA_SetMask\n
1627:Drivers/STM32L0xx_HAL_Driver/Inc/stm32l0xx_ll_rtc.h ****   *         ALRMAR       MSK2          LL_RTC_ALMA_SetMask\n
1628:Drivers/STM32L0xx_HAL_Driver/Inc/stm32l0xx_ll_rtc.h ****   *         ALRMAR       MSK1          LL_RTC_ALMA_SetMask
1629:Drivers/STM32L0xx_HAL_Driver/Inc/stm32l0xx_ll_rtc.h ****   * @param  RTCx RTC Instance
1630:Drivers/STM32L0xx_HAL_Driver/Inc/stm32l0xx_ll_rtc.h ****   * @param  Mask This parameter can be a combination of the following values:
1631:Drivers/STM32L0xx_HAL_Driver/Inc/stm32l0xx_ll_rtc.h ****   *         @arg @ref LL_RTC_ALMA_MASK_NONE
1632:Drivers/STM32L0xx_HAL_Driver/Inc/stm32l0xx_ll_rtc.h ****   *         @arg @ref LL_RTC_ALMA_MASK_DATEWEEKDAY
1633:Drivers/STM32L0xx_HAL_Driver/Inc/stm32l0xx_ll_rtc.h ****   *         @arg @ref LL_RTC_ALMA_MASK_HOURS
1634:Drivers/STM32L0xx_HAL_Driver/Inc/stm32l0xx_ll_rtc.h ****   *         @arg @ref LL_RTC_ALMA_MASK_MINUTES
1635:Drivers/STM32L0xx_HAL_Driver/Inc/stm32l0xx_ll_rtc.h ****   *         @arg @ref LL_RTC_ALMA_MASK_SECONDS
1636:Drivers/STM32L0xx_HAL_Driver/Inc/stm32l0xx_ll_rtc.h ****   *         @arg @ref LL_RTC_ALMA_MASK_ALL
1637:Drivers/STM32L0xx_HAL_Driver/Inc/stm32l0xx_ll_rtc.h ****   * @retval None
1638:Drivers/STM32L0xx_HAL_Driver/Inc/stm32l0xx_ll_rtc.h ****   */
1639:Drivers/STM32L0xx_HAL_Driver/Inc/stm32l0xx_ll_rtc.h **** __STATIC_INLINE void LL_RTC_ALMA_SetMask(RTC_TypeDef *RTCx, uint32_t Mask)
1640:Drivers/STM32L0xx_HAL_Driver/Inc/stm32l0xx_ll_rtc.h **** {
1641:Drivers/STM32L0xx_HAL_Driver/Inc/stm32l0xx_ll_rtc.h ****   MODIFY_REG(RTCx->ALRMAR, RTC_ALRMAR_MSK4 | RTC_ALRMAR_MSK3 | RTC_ALRMAR_MSK2 | RTC_ALRMAR_MSK1, M
1642:Drivers/STM32L0xx_HAL_Driver/Inc/stm32l0xx_ll_rtc.h **** }
1643:Drivers/STM32L0xx_HAL_Driver/Inc/stm32l0xx_ll_rtc.h **** 
1644:Drivers/STM32L0xx_HAL_Driver/Inc/stm32l0xx_ll_rtc.h **** /**
1645:Drivers/STM32L0xx_HAL_Driver/Inc/stm32l0xx_ll_rtc.h ****   * @brief  Get the Alarm A masks.
1646:Drivers/STM32L0xx_HAL_Driver/Inc/stm32l0xx_ll_rtc.h ****   * @rmtoll ALRMAR       MSK4          LL_RTC_ALMA_GetMask\n
1647:Drivers/STM32L0xx_HAL_Driver/Inc/stm32l0xx_ll_rtc.h ****   *         ALRMAR       MSK3          LL_RTC_ALMA_GetMask\n
1648:Drivers/STM32L0xx_HAL_Driver/Inc/stm32l0xx_ll_rtc.h ****   *         ALRMAR       MSK2          LL_RTC_ALMA_GetMask\n
1649:Drivers/STM32L0xx_HAL_Driver/Inc/stm32l0xx_ll_rtc.h ****   *         ALRMAR       MSK1          LL_RTC_ALMA_GetMask
1650:Drivers/STM32L0xx_HAL_Driver/Inc/stm32l0xx_ll_rtc.h ****   * @param  RTCx RTC Instance
1651:Drivers/STM32L0xx_HAL_Driver/Inc/stm32l0xx_ll_rtc.h ****   * @retval Returned value can be can be a combination of the following values:
1652:Drivers/STM32L0xx_HAL_Driver/Inc/stm32l0xx_ll_rtc.h ****   *         @arg @ref LL_RTC_ALMA_MASK_NONE
1653:Drivers/STM32L0xx_HAL_Driver/Inc/stm32l0xx_ll_rtc.h ****   *         @arg @ref LL_RTC_ALMA_MASK_DATEWEEKDAY
1654:Drivers/STM32L0xx_HAL_Driver/Inc/stm32l0xx_ll_rtc.h ****   *         @arg @ref LL_RTC_ALMA_MASK_HOURS
1655:Drivers/STM32L0xx_HAL_Driver/Inc/stm32l0xx_ll_rtc.h ****   *         @arg @ref LL_RTC_ALMA_MASK_MINUTES
1656:Drivers/STM32L0xx_HAL_Driver/Inc/stm32l0xx_ll_rtc.h ****   *         @arg @ref LL_RTC_ALMA_MASK_SECONDS
1657:Drivers/STM32L0xx_HAL_Driver/Inc/stm32l0xx_ll_rtc.h ****   *         @arg @ref LL_RTC_ALMA_MASK_ALL
1658:Drivers/STM32L0xx_HAL_Driver/Inc/stm32l0xx_ll_rtc.h ****   */
1659:Drivers/STM32L0xx_HAL_Driver/Inc/stm32l0xx_ll_rtc.h **** __STATIC_INLINE uint32_t LL_RTC_ALMA_GetMask(RTC_TypeDef *RTCx)
1660:Drivers/STM32L0xx_HAL_Driver/Inc/stm32l0xx_ll_rtc.h **** {
1661:Drivers/STM32L0xx_HAL_Driver/Inc/stm32l0xx_ll_rtc.h ****   return (uint32_t)(READ_BIT(RTCx->ALRMAR, RTC_ALRMAR_MSK4 | RTC_ALRMAR_MSK3 | RTC_ALRMAR_MSK2 | RT
1662:Drivers/STM32L0xx_HAL_Driver/Inc/stm32l0xx_ll_rtc.h **** }
1663:Drivers/STM32L0xx_HAL_Driver/Inc/stm32l0xx_ll_rtc.h **** 
1664:Drivers/STM32L0xx_HAL_Driver/Inc/stm32l0xx_ll_rtc.h **** /**
1665:Drivers/STM32L0xx_HAL_Driver/Inc/stm32l0xx_ll_rtc.h ****   * @brief  Enable AlarmA Week day selection (DU[3:0] represents the week day. DT[1:0] is do not ca
1666:Drivers/STM32L0xx_HAL_Driver/Inc/stm32l0xx_ll_rtc.h ****   * @rmtoll ALRMAR       WDSEL         LL_RTC_ALMA_EnableWeekday
ARM GAS  /tmp/ccJpVmYc.s 			page 44


1667:Drivers/STM32L0xx_HAL_Driver/Inc/stm32l0xx_ll_rtc.h ****   * @param  RTCx RTC Instance
1668:Drivers/STM32L0xx_HAL_Driver/Inc/stm32l0xx_ll_rtc.h ****   * @retval None
1669:Drivers/STM32L0xx_HAL_Driver/Inc/stm32l0xx_ll_rtc.h ****   */
1670:Drivers/STM32L0xx_HAL_Driver/Inc/stm32l0xx_ll_rtc.h **** __STATIC_INLINE void LL_RTC_ALMA_EnableWeekday(RTC_TypeDef *RTCx)
1671:Drivers/STM32L0xx_HAL_Driver/Inc/stm32l0xx_ll_rtc.h **** {
1672:Drivers/STM32L0xx_HAL_Driver/Inc/stm32l0xx_ll_rtc.h ****   SET_BIT(RTCx->ALRMAR, RTC_ALRMAR_WDSEL);
1673:Drivers/STM32L0xx_HAL_Driver/Inc/stm32l0xx_ll_rtc.h **** }
1674:Drivers/STM32L0xx_HAL_Driver/Inc/stm32l0xx_ll_rtc.h **** 
1675:Drivers/STM32L0xx_HAL_Driver/Inc/stm32l0xx_ll_rtc.h **** /**
1676:Drivers/STM32L0xx_HAL_Driver/Inc/stm32l0xx_ll_rtc.h ****   * @brief  Disable AlarmA Week day selection (DU[3:0] represents the date )
1677:Drivers/STM32L0xx_HAL_Driver/Inc/stm32l0xx_ll_rtc.h ****   * @rmtoll ALRMAR       WDSEL         LL_RTC_ALMA_DisableWeekday
1678:Drivers/STM32L0xx_HAL_Driver/Inc/stm32l0xx_ll_rtc.h ****   * @param  RTCx RTC Instance
1679:Drivers/STM32L0xx_HAL_Driver/Inc/stm32l0xx_ll_rtc.h ****   * @retval None
1680:Drivers/STM32L0xx_HAL_Driver/Inc/stm32l0xx_ll_rtc.h ****   */
1681:Drivers/STM32L0xx_HAL_Driver/Inc/stm32l0xx_ll_rtc.h **** __STATIC_INLINE void LL_RTC_ALMA_DisableWeekday(RTC_TypeDef *RTCx)
 253              		.loc 2 1681 22 view .LVU64
 254              	.LBB136:
1682:Drivers/STM32L0xx_HAL_Driver/Inc/stm32l0xx_ll_rtc.h **** {
1683:Drivers/STM32L0xx_HAL_Driver/Inc/stm32l0xx_ll_rtc.h ****   CLEAR_BIT(RTCx->ALRMAR, RTC_ALRMAR_WDSEL);
 255              		.loc 2 1683 3 view .LVU65
 256 0036 E369     		ldr	r3, [r4, #28]
 257 0038 534A     		ldr	r2, .L23
 258              	.LBE136:
 259              	.LBE135:
 531:Drivers/STM32L0xx_HAL_Driver/Src/stm32l0xx_ll_rtc.c ****     if (RTC_Format != LL_RTC_FORMAT_BIN)
 532:Drivers/STM32L0xx_HAL_Driver/Src/stm32l0xx_ll_rtc.c ****     {
 533:Drivers/STM32L0xx_HAL_Driver/Src/stm32l0xx_ll_rtc.c ****       LL_RTC_ALMA_SetDay(RTCx, RTC_AlarmStruct->AlarmDateWeekDay);
 534:Drivers/STM32L0xx_HAL_Driver/Src/stm32l0xx_ll_rtc.c ****     }
 535:Drivers/STM32L0xx_HAL_Driver/Src/stm32l0xx_ll_rtc.c ****     else
 536:Drivers/STM32L0xx_HAL_Driver/Src/stm32l0xx_ll_rtc.c ****     {
 537:Drivers/STM32L0xx_HAL_Driver/Src/stm32l0xx_ll_rtc.c ****       LL_RTC_ALMA_SetDay(RTCx, __LL_RTC_CONVERT_BIN2BCD(RTC_AlarmStruct->AlarmDateWeekDay));
 260              		.loc 1 537 32 is_stmt 0 view .LVU66
 261 003a 0A21     		movs	r1, #10
 262              	.LBB140:
 263              	.LBB137:
 264              		.loc 2 1683 3 view .LVU67
 265 003c 1340     		ands	r3, r2
 266 003e E361     		str	r3, [r4, #28]
 267              	.LVL11:
 268              		.loc 2 1683 3 view .LVU68
 269              	.LBE137:
 270              	.LBE140:
 531:Drivers/STM32L0xx_HAL_Driver/Src/stm32l0xx_ll_rtc.c ****     if (RTC_Format != LL_RTC_FORMAT_BIN)
 271              		.loc 1 531 5 is_stmt 1 view .LVU69
 272              		.loc 1 537 7 view .LVU70
 273              		.loc 1 537 32 is_stmt 0 view .LVU71
 274 0040 2B7C     		ldrb	r3, [r5, #16]
 275              	.LBB141:
 276              	.LBB142:
1684:Drivers/STM32L0xx_HAL_Driver/Inc/stm32l0xx_ll_rtc.h **** }
1685:Drivers/STM32L0xx_HAL_Driver/Inc/stm32l0xx_ll_rtc.h **** 
1686:Drivers/STM32L0xx_HAL_Driver/Inc/stm32l0xx_ll_rtc.h **** /**
1687:Drivers/STM32L0xx_HAL_Driver/Inc/stm32l0xx_ll_rtc.h ****   * @brief  Set ALARM A Day in BCD format
1688:Drivers/STM32L0xx_HAL_Driver/Inc/stm32l0xx_ll_rtc.h ****   * @note helper macro __LL_RTC_CONVERT_BIN2BCD is available to convert Day from binary to BCD form
1689:Drivers/STM32L0xx_HAL_Driver/Inc/stm32l0xx_ll_rtc.h ****   * @rmtoll ALRMAR       DT            LL_RTC_ALMA_SetDay\n
1690:Drivers/STM32L0xx_HAL_Driver/Inc/stm32l0xx_ll_rtc.h ****   *         ALRMAR       DU            LL_RTC_ALMA_SetDay
1691:Drivers/STM32L0xx_HAL_Driver/Inc/stm32l0xx_ll_rtc.h ****   * @param  RTCx RTC Instance
ARM GAS  /tmp/ccJpVmYc.s 			page 45


1692:Drivers/STM32L0xx_HAL_Driver/Inc/stm32l0xx_ll_rtc.h ****   * @param  Day Value between Min_Data=0x01 and Max_Data=0x31
1693:Drivers/STM32L0xx_HAL_Driver/Inc/stm32l0xx_ll_rtc.h ****   * @retval None
1694:Drivers/STM32L0xx_HAL_Driver/Inc/stm32l0xx_ll_rtc.h ****   */
1695:Drivers/STM32L0xx_HAL_Driver/Inc/stm32l0xx_ll_rtc.h **** __STATIC_INLINE void LL_RTC_ALMA_SetDay(RTC_TypeDef *RTCx, uint32_t Day)
1696:Drivers/STM32L0xx_HAL_Driver/Inc/stm32l0xx_ll_rtc.h **** {
1697:Drivers/STM32L0xx_HAL_Driver/Inc/stm32l0xx_ll_rtc.h ****   MODIFY_REG(RTCx->ALRMAR, (RTC_ALRMAR_DT | RTC_ALRMAR_DU),
 277              		.loc 2 1697 3 view .LVU72
 278 0042 E769     		ldr	r7, [r4, #28]
 279              	.LBE142:
 280              	.LBE141:
 281              		.loc 1 537 32 view .LVU73
 282 0044 1800     		movs	r0, r3
 283              	.LVL12:
 284              		.loc 1 537 32 view .LVU74
 285 0046 9946     		mov	r9, r3
 286              	.LVL13:
 287              	.LBB145:
 288              	.LBI141:
1695:Drivers/STM32L0xx_HAL_Driver/Inc/stm32l0xx_ll_rtc.h **** {
 289              		.loc 2 1695 22 is_stmt 1 view .LVU75
 290              	.LBB143:
 291              		.loc 2 1697 3 view .LVU76
 292              	.LBE143:
 293              	.LBE145:
 294              		.loc 1 537 32 is_stmt 0 view .LVU77
 295 0048 FFF7FEFF 		bl	__aeabi_uidiv
 296              	.LVL14:
 297              		.loc 1 537 32 view .LVU78
 298 004c 0A21     		movs	r1, #10
 299 004e 0601     		lsls	r6, r0, #4
 300 0050 4846     		mov	r0, r9
 301 0052 FFF7FEFF 		bl	__aeabi_uidivmod
 302              	.LVL15:
 303 0056 0E43     		orrs	r6, r1
 304              	.LBB146:
 305              	.LBB144:
 306              		.loc 2 1697 3 view .LVU79
 307 0058 4C49     		ldr	r1, .L23+4
 308 005a 3606     		lsls	r6, r6, #24
 309 005c 0F40     		ands	r7, r1
 310 005e 3E43     		orrs	r6, r7
 311 0060 E661     		str	r6, [r4, #28]
 312              	.LVL16:
 313              		.loc 2 1697 3 view .LVU80
 314              	.LBE144:
 315              	.LBE146:
 538:Drivers/STM32L0xx_HAL_Driver/Src/stm32l0xx_ll_rtc.c ****     }
 539:Drivers/STM32L0xx_HAL_Driver/Src/stm32l0xx_ll_rtc.c ****   }
 540:Drivers/STM32L0xx_HAL_Driver/Src/stm32l0xx_ll_rtc.c ****   else
 541:Drivers/STM32L0xx_HAL_Driver/Src/stm32l0xx_ll_rtc.c ****   {
 542:Drivers/STM32L0xx_HAL_Driver/Src/stm32l0xx_ll_rtc.c ****     /* Set the week day for ALARM */
 543:Drivers/STM32L0xx_HAL_Driver/Src/stm32l0xx_ll_rtc.c ****     LL_RTC_ALMA_EnableWeekday(RTCx);
 544:Drivers/STM32L0xx_HAL_Driver/Src/stm32l0xx_ll_rtc.c ****     LL_RTC_ALMA_SetWeekDay(RTCx, RTC_AlarmStruct->AlarmDateWeekDay);
 545:Drivers/STM32L0xx_HAL_Driver/Src/stm32l0xx_ll_rtc.c ****   }
 546:Drivers/STM32L0xx_HAL_Driver/Src/stm32l0xx_ll_rtc.c **** 
 547:Drivers/STM32L0xx_HAL_Driver/Src/stm32l0xx_ll_rtc.c ****   /* Configure the Alarm register */
 548:Drivers/STM32L0xx_HAL_Driver/Src/stm32l0xx_ll_rtc.c ****   if (RTC_Format != LL_RTC_FORMAT_BIN)
ARM GAS  /tmp/ccJpVmYc.s 			page 46


 316              		.loc 1 548 3 is_stmt 1 view .LVU81
 317              	.L15:
 549:Drivers/STM32L0xx_HAL_Driver/Src/stm32l0xx_ll_rtc.c ****   {
 550:Drivers/STM32L0xx_HAL_Driver/Src/stm32l0xx_ll_rtc.c ****     LL_RTC_ALMA_ConfigTime(RTCx, RTC_AlarmStruct->AlarmTime.TimeFormat, RTC_AlarmStruct->AlarmTime.
 551:Drivers/STM32L0xx_HAL_Driver/Src/stm32l0xx_ll_rtc.c ****                            RTC_AlarmStruct->AlarmTime.Minutes, RTC_AlarmStruct->AlarmTime.Seconds);
 552:Drivers/STM32L0xx_HAL_Driver/Src/stm32l0xx_ll_rtc.c ****   }
 553:Drivers/STM32L0xx_HAL_Driver/Src/stm32l0xx_ll_rtc.c ****   else
 554:Drivers/STM32L0xx_HAL_Driver/Src/stm32l0xx_ll_rtc.c ****   {
 555:Drivers/STM32L0xx_HAL_Driver/Src/stm32l0xx_ll_rtc.c ****     LL_RTC_ALMA_ConfigTime(RTCx, RTC_AlarmStruct->AlarmTime.TimeFormat,
 318              		.loc 1 555 5 view .LVU82
 556:Drivers/STM32L0xx_HAL_Driver/Src/stm32l0xx_ll_rtc.c ****                            __LL_RTC_CONVERT_BIN2BCD(RTC_AlarmStruct->AlarmTime.Hours),
 319              		.loc 1 556 28 is_stmt 0 view .LVU83
 320 0062 2B79     		ldrb	r3, [r5, #4]
 557:Drivers/STM32L0xx_HAL_Driver/Src/stm32l0xx_ll_rtc.c ****                            __LL_RTC_CONVERT_BIN2BCD(RTC_AlarmStruct->AlarmTime.Minutes),
 558:Drivers/STM32L0xx_HAL_Driver/Src/stm32l0xx_ll_rtc.c ****                            __LL_RTC_CONVERT_BIN2BCD(RTC_AlarmStruct->AlarmTime.Seconds));
 321              		.loc 1 558 28 view .LVU84
 322 0064 AE79     		ldrb	r6, [r5, #6]
 323              	.LVL17:
 556:Drivers/STM32L0xx_HAL_Driver/Src/stm32l0xx_ll_rtc.c ****                            __LL_RTC_CONVERT_BIN2BCD(RTC_AlarmStruct->AlarmTime.Hours),
 324              		.loc 1 556 28 view .LVU85
 325 0066 9A46     		mov	r10, r3
 326              	.LVL18:
 557:Drivers/STM32L0xx_HAL_Driver/Src/stm32l0xx_ll_rtc.c ****                            __LL_RTC_CONVERT_BIN2BCD(RTC_AlarmStruct->AlarmTime.Minutes),
 327              		.loc 1 557 28 view .LVU86
 328 0068 6B79     		ldrb	r3, [r5, #5]
 329              		.loc 1 558 28 view .LVU87
 330 006a 0A21     		movs	r1, #10
 557:Drivers/STM32L0xx_HAL_Driver/Src/stm32l0xx_ll_rtc.c ****                            __LL_RTC_CONVERT_BIN2BCD(RTC_AlarmStruct->AlarmTime.Minutes),
 331              		.loc 1 557 28 view .LVU88
 332 006c 9946     		mov	r9, r3
 333              	.LVL19:
 334              	.LBB147:
 335              	.LBI147:
1698:Drivers/STM32L0xx_HAL_Driver/Inc/stm32l0xx_ll_rtc.h ****              (((Day & 0xF0U) << (RTC_ALRMAR_DT_Pos - 4U)) | ((Day & 0x0FU) << RTC_ALRMAR_DU_Pos)));
1699:Drivers/STM32L0xx_HAL_Driver/Inc/stm32l0xx_ll_rtc.h **** }
1700:Drivers/STM32L0xx_HAL_Driver/Inc/stm32l0xx_ll_rtc.h **** 
1701:Drivers/STM32L0xx_HAL_Driver/Inc/stm32l0xx_ll_rtc.h **** /**
1702:Drivers/STM32L0xx_HAL_Driver/Inc/stm32l0xx_ll_rtc.h ****   * @brief  Get ALARM A Day in BCD format
1703:Drivers/STM32L0xx_HAL_Driver/Inc/stm32l0xx_ll_rtc.h ****   * @note helper macro __LL_RTC_CONVERT_BCD2BIN is available to convert Day from BCD to Binary form
1704:Drivers/STM32L0xx_HAL_Driver/Inc/stm32l0xx_ll_rtc.h ****   * @rmtoll ALRMAR       DT            LL_RTC_ALMA_GetDay\n
1705:Drivers/STM32L0xx_HAL_Driver/Inc/stm32l0xx_ll_rtc.h ****   *         ALRMAR       DU            LL_RTC_ALMA_GetDay
1706:Drivers/STM32L0xx_HAL_Driver/Inc/stm32l0xx_ll_rtc.h ****   * @param  RTCx RTC Instance
1707:Drivers/STM32L0xx_HAL_Driver/Inc/stm32l0xx_ll_rtc.h ****   * @retval Value between Min_Data=0x01 and Max_Data=0x31
1708:Drivers/STM32L0xx_HAL_Driver/Inc/stm32l0xx_ll_rtc.h ****   */
1709:Drivers/STM32L0xx_HAL_Driver/Inc/stm32l0xx_ll_rtc.h **** __STATIC_INLINE uint32_t LL_RTC_ALMA_GetDay(RTC_TypeDef *RTCx)
1710:Drivers/STM32L0xx_HAL_Driver/Inc/stm32l0xx_ll_rtc.h **** {
1711:Drivers/STM32L0xx_HAL_Driver/Inc/stm32l0xx_ll_rtc.h ****   uint32_t temp;
1712:Drivers/STM32L0xx_HAL_Driver/Inc/stm32l0xx_ll_rtc.h **** 
1713:Drivers/STM32L0xx_HAL_Driver/Inc/stm32l0xx_ll_rtc.h ****   temp = READ_BIT(RTCx->ALRMAR, (RTC_ALRMAR_DT | RTC_ALRMAR_DU));
1714:Drivers/STM32L0xx_HAL_Driver/Inc/stm32l0xx_ll_rtc.h ****   return (uint32_t)((((temp & RTC_ALRMAR_DT) >> RTC_ALRMAR_DT_Pos) << 4U) | ((temp & RTC_ALRMAR_DU)
1715:Drivers/STM32L0xx_HAL_Driver/Inc/stm32l0xx_ll_rtc.h **** }
1716:Drivers/STM32L0xx_HAL_Driver/Inc/stm32l0xx_ll_rtc.h **** 
1717:Drivers/STM32L0xx_HAL_Driver/Inc/stm32l0xx_ll_rtc.h **** /**
1718:Drivers/STM32L0xx_HAL_Driver/Inc/stm32l0xx_ll_rtc.h ****   * @brief  Set ALARM A Weekday
1719:Drivers/STM32L0xx_HAL_Driver/Inc/stm32l0xx_ll_rtc.h ****   * @rmtoll ALRMAR       DU            LL_RTC_ALMA_SetWeekDay
1720:Drivers/STM32L0xx_HAL_Driver/Inc/stm32l0xx_ll_rtc.h ****   * @param  RTCx RTC Instance
1721:Drivers/STM32L0xx_HAL_Driver/Inc/stm32l0xx_ll_rtc.h ****   * @param  WeekDay This parameter can be one of the following values:
ARM GAS  /tmp/ccJpVmYc.s 			page 47


1722:Drivers/STM32L0xx_HAL_Driver/Inc/stm32l0xx_ll_rtc.h ****   *         @arg @ref LL_RTC_WEEKDAY_MONDAY
1723:Drivers/STM32L0xx_HAL_Driver/Inc/stm32l0xx_ll_rtc.h ****   *         @arg @ref LL_RTC_WEEKDAY_TUESDAY
1724:Drivers/STM32L0xx_HAL_Driver/Inc/stm32l0xx_ll_rtc.h ****   *         @arg @ref LL_RTC_WEEKDAY_WEDNESDAY
1725:Drivers/STM32L0xx_HAL_Driver/Inc/stm32l0xx_ll_rtc.h ****   *         @arg @ref LL_RTC_WEEKDAY_THURSDAY
1726:Drivers/STM32L0xx_HAL_Driver/Inc/stm32l0xx_ll_rtc.h ****   *         @arg @ref LL_RTC_WEEKDAY_FRIDAY
1727:Drivers/STM32L0xx_HAL_Driver/Inc/stm32l0xx_ll_rtc.h ****   *         @arg @ref LL_RTC_WEEKDAY_SATURDAY
1728:Drivers/STM32L0xx_HAL_Driver/Inc/stm32l0xx_ll_rtc.h ****   *         @arg @ref LL_RTC_WEEKDAY_SUNDAY
1729:Drivers/STM32L0xx_HAL_Driver/Inc/stm32l0xx_ll_rtc.h ****   * @retval None
1730:Drivers/STM32L0xx_HAL_Driver/Inc/stm32l0xx_ll_rtc.h ****   */
1731:Drivers/STM32L0xx_HAL_Driver/Inc/stm32l0xx_ll_rtc.h **** __STATIC_INLINE void LL_RTC_ALMA_SetWeekDay(RTC_TypeDef *RTCx, uint32_t WeekDay)
1732:Drivers/STM32L0xx_HAL_Driver/Inc/stm32l0xx_ll_rtc.h **** {
1733:Drivers/STM32L0xx_HAL_Driver/Inc/stm32l0xx_ll_rtc.h ****   MODIFY_REG(RTCx->ALRMAR, RTC_ALRMAR_DU, WeekDay << RTC_ALRMAR_DU_Pos);
1734:Drivers/STM32L0xx_HAL_Driver/Inc/stm32l0xx_ll_rtc.h **** }
1735:Drivers/STM32L0xx_HAL_Driver/Inc/stm32l0xx_ll_rtc.h **** 
1736:Drivers/STM32L0xx_HAL_Driver/Inc/stm32l0xx_ll_rtc.h **** /**
1737:Drivers/STM32L0xx_HAL_Driver/Inc/stm32l0xx_ll_rtc.h ****   * @brief  Get ALARM A Weekday
1738:Drivers/STM32L0xx_HAL_Driver/Inc/stm32l0xx_ll_rtc.h ****   * @rmtoll ALRMAR       DU            LL_RTC_ALMA_GetWeekDay
1739:Drivers/STM32L0xx_HAL_Driver/Inc/stm32l0xx_ll_rtc.h ****   * @param  RTCx RTC Instance
1740:Drivers/STM32L0xx_HAL_Driver/Inc/stm32l0xx_ll_rtc.h ****   * @retval Returned value can be one of the following values:
1741:Drivers/STM32L0xx_HAL_Driver/Inc/stm32l0xx_ll_rtc.h ****   *         @arg @ref LL_RTC_WEEKDAY_MONDAY
1742:Drivers/STM32L0xx_HAL_Driver/Inc/stm32l0xx_ll_rtc.h ****   *         @arg @ref LL_RTC_WEEKDAY_TUESDAY
1743:Drivers/STM32L0xx_HAL_Driver/Inc/stm32l0xx_ll_rtc.h ****   *         @arg @ref LL_RTC_WEEKDAY_WEDNESDAY
1744:Drivers/STM32L0xx_HAL_Driver/Inc/stm32l0xx_ll_rtc.h ****   *         @arg @ref LL_RTC_WEEKDAY_THURSDAY
1745:Drivers/STM32L0xx_HAL_Driver/Inc/stm32l0xx_ll_rtc.h ****   *         @arg @ref LL_RTC_WEEKDAY_FRIDAY
1746:Drivers/STM32L0xx_HAL_Driver/Inc/stm32l0xx_ll_rtc.h ****   *         @arg @ref LL_RTC_WEEKDAY_SATURDAY
1747:Drivers/STM32L0xx_HAL_Driver/Inc/stm32l0xx_ll_rtc.h ****   *         @arg @ref LL_RTC_WEEKDAY_SUNDAY
1748:Drivers/STM32L0xx_HAL_Driver/Inc/stm32l0xx_ll_rtc.h ****   */
1749:Drivers/STM32L0xx_HAL_Driver/Inc/stm32l0xx_ll_rtc.h **** __STATIC_INLINE uint32_t LL_RTC_ALMA_GetWeekDay(RTC_TypeDef *RTCx)
1750:Drivers/STM32L0xx_HAL_Driver/Inc/stm32l0xx_ll_rtc.h **** {
1751:Drivers/STM32L0xx_HAL_Driver/Inc/stm32l0xx_ll_rtc.h ****   return (uint32_t)(READ_BIT(RTCx->ALRMAR, RTC_ALRMAR_DU) >> RTC_ALRMAR_DU_Pos);
1752:Drivers/STM32L0xx_HAL_Driver/Inc/stm32l0xx_ll_rtc.h **** }
1753:Drivers/STM32L0xx_HAL_Driver/Inc/stm32l0xx_ll_rtc.h **** 
1754:Drivers/STM32L0xx_HAL_Driver/Inc/stm32l0xx_ll_rtc.h **** /**
1755:Drivers/STM32L0xx_HAL_Driver/Inc/stm32l0xx_ll_rtc.h ****   * @brief  Set Alarm A time format (AM/24-hour or PM notation)
1756:Drivers/STM32L0xx_HAL_Driver/Inc/stm32l0xx_ll_rtc.h ****   * @rmtoll ALRMAR       PM            LL_RTC_ALMA_SetTimeFormat
1757:Drivers/STM32L0xx_HAL_Driver/Inc/stm32l0xx_ll_rtc.h ****   * @param  RTCx RTC Instance
1758:Drivers/STM32L0xx_HAL_Driver/Inc/stm32l0xx_ll_rtc.h ****   * @param  TimeFormat This parameter can be one of the following values:
1759:Drivers/STM32L0xx_HAL_Driver/Inc/stm32l0xx_ll_rtc.h ****   *         @arg @ref LL_RTC_ALMA_TIME_FORMAT_AM
1760:Drivers/STM32L0xx_HAL_Driver/Inc/stm32l0xx_ll_rtc.h ****   *         @arg @ref LL_RTC_ALMA_TIME_FORMAT_PM
1761:Drivers/STM32L0xx_HAL_Driver/Inc/stm32l0xx_ll_rtc.h ****   * @retval None
1762:Drivers/STM32L0xx_HAL_Driver/Inc/stm32l0xx_ll_rtc.h ****   */
1763:Drivers/STM32L0xx_HAL_Driver/Inc/stm32l0xx_ll_rtc.h **** __STATIC_INLINE void LL_RTC_ALMA_SetTimeFormat(RTC_TypeDef *RTCx, uint32_t TimeFormat)
1764:Drivers/STM32L0xx_HAL_Driver/Inc/stm32l0xx_ll_rtc.h **** {
1765:Drivers/STM32L0xx_HAL_Driver/Inc/stm32l0xx_ll_rtc.h ****   MODIFY_REG(RTCx->ALRMAR, RTC_ALRMAR_PM, TimeFormat);
1766:Drivers/STM32L0xx_HAL_Driver/Inc/stm32l0xx_ll_rtc.h **** }
1767:Drivers/STM32L0xx_HAL_Driver/Inc/stm32l0xx_ll_rtc.h **** 
1768:Drivers/STM32L0xx_HAL_Driver/Inc/stm32l0xx_ll_rtc.h **** /**
1769:Drivers/STM32L0xx_HAL_Driver/Inc/stm32l0xx_ll_rtc.h ****   * @brief  Get Alarm A time format (AM or PM notation)
1770:Drivers/STM32L0xx_HAL_Driver/Inc/stm32l0xx_ll_rtc.h ****   * @rmtoll ALRMAR       PM            LL_RTC_ALMA_GetTimeFormat
1771:Drivers/STM32L0xx_HAL_Driver/Inc/stm32l0xx_ll_rtc.h ****   * @param  RTCx RTC Instance
1772:Drivers/STM32L0xx_HAL_Driver/Inc/stm32l0xx_ll_rtc.h ****   * @retval Returned value can be one of the following values:
1773:Drivers/STM32L0xx_HAL_Driver/Inc/stm32l0xx_ll_rtc.h ****   *         @arg @ref LL_RTC_ALMA_TIME_FORMAT_AM
1774:Drivers/STM32L0xx_HAL_Driver/Inc/stm32l0xx_ll_rtc.h ****   *         @arg @ref LL_RTC_ALMA_TIME_FORMAT_PM
1775:Drivers/STM32L0xx_HAL_Driver/Inc/stm32l0xx_ll_rtc.h ****   */
1776:Drivers/STM32L0xx_HAL_Driver/Inc/stm32l0xx_ll_rtc.h **** __STATIC_INLINE uint32_t LL_RTC_ALMA_GetTimeFormat(RTC_TypeDef *RTCx)
1777:Drivers/STM32L0xx_HAL_Driver/Inc/stm32l0xx_ll_rtc.h **** {
1778:Drivers/STM32L0xx_HAL_Driver/Inc/stm32l0xx_ll_rtc.h ****   return (uint32_t)(READ_BIT(RTCx->ALRMAR, RTC_ALRMAR_PM));
ARM GAS  /tmp/ccJpVmYc.s 			page 48


1779:Drivers/STM32L0xx_HAL_Driver/Inc/stm32l0xx_ll_rtc.h **** }
1780:Drivers/STM32L0xx_HAL_Driver/Inc/stm32l0xx_ll_rtc.h **** 
