ARM GAS  /tmp/ccAh8F5t.s 			page 1


   1              		.cpu cortex-m0plus
   2              		.eabi_attribute 20, 1
   3              		.eabi_attribute 21, 1
   4              		.eabi_attribute 23, 3
   5              		.eabi_attribute 24, 1
   6              		.eabi_attribute 25, 1
   7              		.eabi_attribute 26, 1
   8              		.eabi_attribute 30, 2
   9              		.eabi_attribute 34, 0
  10              		.eabi_attribute 18, 4
  11              		.file	"stm32l0xx_hal_rtc.c"
  12              		.text
  13              	.Ltext0:
  14              		.cfi_sections	.debug_frame
  15              		.section	.text.HAL_RTC_MspInit,"ax",%progbits
  16              		.align	1
  17              		.p2align 2,,3
  18              		.weak	HAL_RTC_MspInit
  19              		.arch armv6s-m
  20              		.syntax unified
  21              		.code	16
  22              		.thumb_func
  23              		.fpu softvfp
  25              	HAL_RTC_MspInit:
  26              	.LVL0:
  27              	.LFB36:
  28              		.file 1 "Drivers/STM32L0xx_HAL_Driver/Src/stm32l0xx_hal_rtc.c"
   1:Drivers/STM32L0xx_HAL_Driver/Src/stm32l0xx_hal_rtc.c **** /**
   2:Drivers/STM32L0xx_HAL_Driver/Src/stm32l0xx_hal_rtc.c ****   ******************************************************************************
   3:Drivers/STM32L0xx_HAL_Driver/Src/stm32l0xx_hal_rtc.c ****   * @file    stm32l0xx_hal_rtc.c
   4:Drivers/STM32L0xx_HAL_Driver/Src/stm32l0xx_hal_rtc.c ****   * @author  MCD Application Team
   5:Drivers/STM32L0xx_HAL_Driver/Src/stm32l0xx_hal_rtc.c ****   * @brief   RTC HAL module driver.
   6:Drivers/STM32L0xx_HAL_Driver/Src/stm32l0xx_hal_rtc.c ****   *          This file provides firmware functions to manage the following
   7:Drivers/STM32L0xx_HAL_Driver/Src/stm32l0xx_hal_rtc.c ****   *          functionalities of the Real-Time Clock (RTC) peripheral:
   8:Drivers/STM32L0xx_HAL_Driver/Src/stm32l0xx_hal_rtc.c ****   *           + Initialization
   9:Drivers/STM32L0xx_HAL_Driver/Src/stm32l0xx_hal_rtc.c ****   *           + Calendar (Time and Date) configuration
  10:Drivers/STM32L0xx_HAL_Driver/Src/stm32l0xx_hal_rtc.c ****   *           + Alarms (Alarm A and Alarm B) configuration
  11:Drivers/STM32L0xx_HAL_Driver/Src/stm32l0xx_hal_rtc.c ****   *           + WakeUp Timer configuration
  12:Drivers/STM32L0xx_HAL_Driver/Src/stm32l0xx_hal_rtc.c ****   *           + TimeStamp configuration
  13:Drivers/STM32L0xx_HAL_Driver/Src/stm32l0xx_hal_rtc.c ****   *           + Tampers configuration
  14:Drivers/STM32L0xx_HAL_Driver/Src/stm32l0xx_hal_rtc.c ****   *           + Backup Data Registers configuration
  15:Drivers/STM32L0xx_HAL_Driver/Src/stm32l0xx_hal_rtc.c ****   *           + RTC Tamper and TimeStamp Pins Selection
  16:Drivers/STM32L0xx_HAL_Driver/Src/stm32l0xx_hal_rtc.c ****   *           + Interrupts and flags management
  17:Drivers/STM32L0xx_HAL_Driver/Src/stm32l0xx_hal_rtc.c ****   *
  18:Drivers/STM32L0xx_HAL_Driver/Src/stm32l0xx_hal_rtc.c ****   @verbatim
  19:Drivers/STM32L0xx_HAL_Driver/Src/stm32l0xx_hal_rtc.c ****  ===============================================================================
  20:Drivers/STM32L0xx_HAL_Driver/Src/stm32l0xx_hal_rtc.c ****                           ##### RTC Operating Condition #####
  21:Drivers/STM32L0xx_HAL_Driver/Src/stm32l0xx_hal_rtc.c ****  ===============================================================================
  22:Drivers/STM32L0xx_HAL_Driver/Src/stm32l0xx_hal_rtc.c ****   [..] The real-time clock (RTC) and the RTC backup registers can be powered
  23:Drivers/STM32L0xx_HAL_Driver/Src/stm32l0xx_hal_rtc.c ****        from the VBAT voltage when the main VDD supply is powered off.
  24:Drivers/STM32L0xx_HAL_Driver/Src/stm32l0xx_hal_rtc.c ****        To retain the content of the RTC backup registers and supply the RTC
  25:Drivers/STM32L0xx_HAL_Driver/Src/stm32l0xx_hal_rtc.c ****        when VDD is turned off, VBAT pin can be connected to an optional
  26:Drivers/STM32L0xx_HAL_Driver/Src/stm32l0xx_hal_rtc.c ****        standby voltage supplied by a battery or by another source.
  27:Drivers/STM32L0xx_HAL_Driver/Src/stm32l0xx_hal_rtc.c **** 
  28:Drivers/STM32L0xx_HAL_Driver/Src/stm32l0xx_hal_rtc.c ****                    ##### Backup Domain Reset #####
  29:Drivers/STM32L0xx_HAL_Driver/Src/stm32l0xx_hal_rtc.c ****  ===============================================================================
  30:Drivers/STM32L0xx_HAL_Driver/Src/stm32l0xx_hal_rtc.c ****   [..] The backup domain reset sets all RTC registers and the RCC_BDCR register
ARM GAS  /tmp/ccAh8F5t.s 			page 2


  31:Drivers/STM32L0xx_HAL_Driver/Src/stm32l0xx_hal_rtc.c ****        to their reset values.
  32:Drivers/STM32L0xx_HAL_Driver/Src/stm32l0xx_hal_rtc.c ****        A backup domain reset is generated when one of the following events occurs:
  33:Drivers/STM32L0xx_HAL_Driver/Src/stm32l0xx_hal_rtc.c ****     (+) Software reset, triggered by setting the BDRST bit in the
  34:Drivers/STM32L0xx_HAL_Driver/Src/stm32l0xx_hal_rtc.c ****         RCC Backup domain control register (RCC_BDCR).
  35:Drivers/STM32L0xx_HAL_Driver/Src/stm32l0xx_hal_rtc.c ****     (+) VDD or VBAT power on, if both supplies have previously been powered off.
  36:Drivers/STM32L0xx_HAL_Driver/Src/stm32l0xx_hal_rtc.c ****     (+) Tamper detection event resets all data backup registers.
  37:Drivers/STM32L0xx_HAL_Driver/Src/stm32l0xx_hal_rtc.c **** 
  38:Drivers/STM32L0xx_HAL_Driver/Src/stm32l0xx_hal_rtc.c ****                    ##### Backup Domain Access #####
  39:Drivers/STM32L0xx_HAL_Driver/Src/stm32l0xx_hal_rtc.c ****  ===================================================================
  40:Drivers/STM32L0xx_HAL_Driver/Src/stm32l0xx_hal_rtc.c ****   [..] After reset, the backup domain (RTC registers, RTC backup data
  41:Drivers/STM32L0xx_HAL_Driver/Src/stm32l0xx_hal_rtc.c ****        registers and backup SRAM) is protected against possible unwanted write
  42:Drivers/STM32L0xx_HAL_Driver/Src/stm32l0xx_hal_rtc.c ****        accesses.
  43:Drivers/STM32L0xx_HAL_Driver/Src/stm32l0xx_hal_rtc.c **** 
  44:Drivers/STM32L0xx_HAL_Driver/Src/stm32l0xx_hal_rtc.c ****   [..] To enable access to the RTC Domain and RTC registers, proceed as follows:
  45:Drivers/STM32L0xx_HAL_Driver/Src/stm32l0xx_hal_rtc.c ****     (+) Call the function HAL_RCCEx_PeriphCLKConfig with RCC_PERIPHCLK_RTC for
  46:Drivers/STM32L0xx_HAL_Driver/Src/stm32l0xx_hal_rtc.c ****         PeriphClockSelection and select RTCClockSelection (LSE, LSI or HSEdiv32)
  47:Drivers/STM32L0xx_HAL_Driver/Src/stm32l0xx_hal_rtc.c ****     (+) Enable RTC Clock using the __HAL_RCC_RTC_ENABLE() macro.
  48:Drivers/STM32L0xx_HAL_Driver/Src/stm32l0xx_hal_rtc.c **** 
  49:Drivers/STM32L0xx_HAL_Driver/Src/stm32l0xx_hal_rtc.c ****                   ##### How to use RTC Driver #####
  50:Drivers/STM32L0xx_HAL_Driver/Src/stm32l0xx_hal_rtc.c ****  ===================================================================
  51:Drivers/STM32L0xx_HAL_Driver/Src/stm32l0xx_hal_rtc.c ****   [..]
  52:Drivers/STM32L0xx_HAL_Driver/Src/stm32l0xx_hal_rtc.c ****     (+) Enable the RTC domain access (see description in the section above).
  53:Drivers/STM32L0xx_HAL_Driver/Src/stm32l0xx_hal_rtc.c ****     (+) Configure the RTC Prescaler (Asynchronous and Synchronous) and RTC hour
  54:Drivers/STM32L0xx_HAL_Driver/Src/stm32l0xx_hal_rtc.c ****         format using the HAL_RTC_Init() function.
  55:Drivers/STM32L0xx_HAL_Driver/Src/stm32l0xx_hal_rtc.c **** 
  56:Drivers/STM32L0xx_HAL_Driver/Src/stm32l0xx_hal_rtc.c ****   *** Time and Date configuration ***
  57:Drivers/STM32L0xx_HAL_Driver/Src/stm32l0xx_hal_rtc.c ****   ===================================
  58:Drivers/STM32L0xx_HAL_Driver/Src/stm32l0xx_hal_rtc.c ****   [..]
  59:Drivers/STM32L0xx_HAL_Driver/Src/stm32l0xx_hal_rtc.c ****     (+) To configure the RTC Calendar (Time and Date) use the HAL_RTC_SetTime()
  60:Drivers/STM32L0xx_HAL_Driver/Src/stm32l0xx_hal_rtc.c ****         and HAL_RTC_SetDate() functions.
  61:Drivers/STM32L0xx_HAL_Driver/Src/stm32l0xx_hal_rtc.c ****     (+) To read the RTC Calendar, use the HAL_RTC_GetTime() and HAL_RTC_GetDate() functions.
  62:Drivers/STM32L0xx_HAL_Driver/Src/stm32l0xx_hal_rtc.c **** 
  63:Drivers/STM32L0xx_HAL_Driver/Src/stm32l0xx_hal_rtc.c ****   *** Alarm configuration ***
  64:Drivers/STM32L0xx_HAL_Driver/Src/stm32l0xx_hal_rtc.c ****   ===========================
  65:Drivers/STM32L0xx_HAL_Driver/Src/stm32l0xx_hal_rtc.c ****   [..]
  66:Drivers/STM32L0xx_HAL_Driver/Src/stm32l0xx_hal_rtc.c ****     (+) To configure the RTC Alarm use the HAL_RTC_SetAlarm() function.
  67:Drivers/STM32L0xx_HAL_Driver/Src/stm32l0xx_hal_rtc.c ****             You can also configure the RTC Alarm with interrupt mode using the
  68:Drivers/STM32L0xx_HAL_Driver/Src/stm32l0xx_hal_rtc.c ****             HAL_RTC_SetAlarm_IT() function.
  69:Drivers/STM32L0xx_HAL_Driver/Src/stm32l0xx_hal_rtc.c ****     (+) To read the RTC Alarm, use the HAL_RTC_GetAlarm() function.
  70:Drivers/STM32L0xx_HAL_Driver/Src/stm32l0xx_hal_rtc.c **** 
  71:Drivers/STM32L0xx_HAL_Driver/Src/stm32l0xx_hal_rtc.c ****                   ##### RTC and low power modes #####
  72:Drivers/STM32L0xx_HAL_Driver/Src/stm32l0xx_hal_rtc.c ****   ==================================================================
  73:Drivers/STM32L0xx_HAL_Driver/Src/stm32l0xx_hal_rtc.c ****   [..] The MCU can be woken up from a low power mode by an RTC alternate
  74:Drivers/STM32L0xx_HAL_Driver/Src/stm32l0xx_hal_rtc.c ****        function.
  75:Drivers/STM32L0xx_HAL_Driver/Src/stm32l0xx_hal_rtc.c ****   [..] The RTC alternate functions are the RTC alarms (Alarm A and Alarm B),
  76:Drivers/STM32L0xx_HAL_Driver/Src/stm32l0xx_hal_rtc.c ****        RTC wakeup, RTC tamper event detection and RTC time stamp event detection.
  77:Drivers/STM32L0xx_HAL_Driver/Src/stm32l0xx_hal_rtc.c ****        These RTC alternate functions can wake up the system from the Stop and
  78:Drivers/STM32L0xx_HAL_Driver/Src/stm32l0xx_hal_rtc.c ****        Standby low power modes.
  79:Drivers/STM32L0xx_HAL_Driver/Src/stm32l0xx_hal_rtc.c ****   [..] The system can also wake up from low power modes without depending
  80:Drivers/STM32L0xx_HAL_Driver/Src/stm32l0xx_hal_rtc.c ****        on an external interrupt (Auto-wakeup mode), by using the RTC alarm
  81:Drivers/STM32L0xx_HAL_Driver/Src/stm32l0xx_hal_rtc.c ****        or the RTC wakeup events.
  82:Drivers/STM32L0xx_HAL_Driver/Src/stm32l0xx_hal_rtc.c ****   [..] The RTC provides a programmable time base for waking up from the
  83:Drivers/STM32L0xx_HAL_Driver/Src/stm32l0xx_hal_rtc.c ****        Stop or Standby mode at regular intervals.
  84:Drivers/STM32L0xx_HAL_Driver/Src/stm32l0xx_hal_rtc.c ****        Wakeup from STOP and STANDBY modes is possible only when the RTC clock source
  85:Drivers/STM32L0xx_HAL_Driver/Src/stm32l0xx_hal_rtc.c ****        is LSE or LSI.
  86:Drivers/STM32L0xx_HAL_Driver/Src/stm32l0xx_hal_rtc.c **** 
  87:Drivers/STM32L0xx_HAL_Driver/Src/stm32l0xx_hal_rtc.c ****   *** Callback registration ***
ARM GAS  /tmp/ccAh8F5t.s 			page 3


  88:Drivers/STM32L0xx_HAL_Driver/Src/stm32l0xx_hal_rtc.c ****   =============================================
  89:Drivers/STM32L0xx_HAL_Driver/Src/stm32l0xx_hal_rtc.c **** 
  90:Drivers/STM32L0xx_HAL_Driver/Src/stm32l0xx_hal_rtc.c ****   The compilation define  USE_RTC_REGISTER_CALLBACKS when set to 1
  91:Drivers/STM32L0xx_HAL_Driver/Src/stm32l0xx_hal_rtc.c ****   allows the user to configure dynamically the driver callbacks.
  92:Drivers/STM32L0xx_HAL_Driver/Src/stm32l0xx_hal_rtc.c ****   Use Function @ref HAL_RTC_RegisterCallback() to register an interrupt callback.
  93:Drivers/STM32L0xx_HAL_Driver/Src/stm32l0xx_hal_rtc.c **** 
  94:Drivers/STM32L0xx_HAL_Driver/Src/stm32l0xx_hal_rtc.c ****   Function @ref HAL_RTC_RegisterCallback() allows to register following callbacks:
  95:Drivers/STM32L0xx_HAL_Driver/Src/stm32l0xx_hal_rtc.c ****     (+) AlarmAEventCallback          : RTC Alarm A Event callback.
  96:Drivers/STM32L0xx_HAL_Driver/Src/stm32l0xx_hal_rtc.c ****     (+) AlarmBEventCallback          : RTC Alarm B Event callback.
  97:Drivers/STM32L0xx_HAL_Driver/Src/stm32l0xx_hal_rtc.c ****     (+) TimeStampEventCallback       : RTC TimeStamp Event callback.
  98:Drivers/STM32L0xx_HAL_Driver/Src/stm32l0xx_hal_rtc.c ****     (+) WakeUpTimerEventCallback     : RTC WakeUpTimer Event callback.
  99:Drivers/STM32L0xx_HAL_Driver/Src/stm32l0xx_hal_rtc.c ****     (+) Tamper1EventCallback         : RTC Tamper 1 Event callback.
 100:Drivers/STM32L0xx_HAL_Driver/Src/stm32l0xx_hal_rtc.c ****     (+) Tamper2EventCallback         : RTC Tamper 2 Event callback.
 101:Drivers/STM32L0xx_HAL_Driver/Src/stm32l0xx_hal_rtc.c ****     (+) Tamper3EventCallback         : RTC Tamper 3 Event callback.
 102:Drivers/STM32L0xx_HAL_Driver/Src/stm32l0xx_hal_rtc.c ****     (+) MspInitCallback              : RTC MspInit callback.
 103:Drivers/STM32L0xx_HAL_Driver/Src/stm32l0xx_hal_rtc.c ****     (+) MspDeInitCallback            : RTC MspDeInit callback.
 104:Drivers/STM32L0xx_HAL_Driver/Src/stm32l0xx_hal_rtc.c ****   This function takes as parameters the HAL peripheral handle, the Callback ID
 105:Drivers/STM32L0xx_HAL_Driver/Src/stm32l0xx_hal_rtc.c ****   and a pointer to the user callback function.
 106:Drivers/STM32L0xx_HAL_Driver/Src/stm32l0xx_hal_rtc.c **** 
 107:Drivers/STM32L0xx_HAL_Driver/Src/stm32l0xx_hal_rtc.c ****   Use function @ref HAL_RTC_UnRegisterCallback() to reset a callback to the default
 108:Drivers/STM32L0xx_HAL_Driver/Src/stm32l0xx_hal_rtc.c ****   weak function.
 109:Drivers/STM32L0xx_HAL_Driver/Src/stm32l0xx_hal_rtc.c ****   @ref HAL_RTC_UnRegisterCallback() takes as parameters the HAL peripheral handle,
 110:Drivers/STM32L0xx_HAL_Driver/Src/stm32l0xx_hal_rtc.c ****   and the Callback ID.
 111:Drivers/STM32L0xx_HAL_Driver/Src/stm32l0xx_hal_rtc.c ****   This function allows to reset following callbacks:
 112:Drivers/STM32L0xx_HAL_Driver/Src/stm32l0xx_hal_rtc.c ****     (+) AlarmAEventCallback          : RTC Alarm A Event callback.
 113:Drivers/STM32L0xx_HAL_Driver/Src/stm32l0xx_hal_rtc.c ****     (+) AlarmBEventCallback          : RTC Alarm B Event callback.
 114:Drivers/STM32L0xx_HAL_Driver/Src/stm32l0xx_hal_rtc.c ****     (+) TimeStampEventCallback       : RTC TimeStamp Event callback.
 115:Drivers/STM32L0xx_HAL_Driver/Src/stm32l0xx_hal_rtc.c ****     (+) WakeUpTimerEventCallback     : RTC WakeUpTimer Event callback.
 116:Drivers/STM32L0xx_HAL_Driver/Src/stm32l0xx_hal_rtc.c ****     (+) Tamper1EventCallback         : RTC Tamper 1 Event callback.
 117:Drivers/STM32L0xx_HAL_Driver/Src/stm32l0xx_hal_rtc.c ****     (+) Tamper2EventCallback         : RTC Tamper 2 Event callback.
 118:Drivers/STM32L0xx_HAL_Driver/Src/stm32l0xx_hal_rtc.c ****     (+) Tamper3EventCallback         : RTC Tamper 3 Event callback.
 119:Drivers/STM32L0xx_HAL_Driver/Src/stm32l0xx_hal_rtc.c ****     (+) MspInitCallback              : RTC MspInit callback.
 120:Drivers/STM32L0xx_HAL_Driver/Src/stm32l0xx_hal_rtc.c ****     (+) MspDeInitCallback            : RTC MspDeInit callback.
 121:Drivers/STM32L0xx_HAL_Driver/Src/stm32l0xx_hal_rtc.c **** 
 122:Drivers/STM32L0xx_HAL_Driver/Src/stm32l0xx_hal_rtc.c ****   By default, after the @ref HAL_RTC_Init() and when the state is HAL_RTC_STATE_RESET,
 123:Drivers/STM32L0xx_HAL_Driver/Src/stm32l0xx_hal_rtc.c ****   all callbacks are set to the corresponding weak functions :
 124:Drivers/STM32L0xx_HAL_Driver/Src/stm32l0xx_hal_rtc.c ****   examples @ref AlarmAEventCallback(), @ref WakeUpTimerEventCallback().
 125:Drivers/STM32L0xx_HAL_Driver/Src/stm32l0xx_hal_rtc.c ****   Exception done for MspInit and MspDeInit callbacks that are reset to the legacy weak function
 126:Drivers/STM32L0xx_HAL_Driver/Src/stm32l0xx_hal_rtc.c ****   in the @ref HAL_RTC_Init()/@ref HAL_RTC_DeInit() only when these callbacks are null
 127:Drivers/STM32L0xx_HAL_Driver/Src/stm32l0xx_hal_rtc.c ****   (not registered beforehand).
 128:Drivers/STM32L0xx_HAL_Driver/Src/stm32l0xx_hal_rtc.c ****   If not, MspInit or MspDeInit are not null, @ref HAL_RTC_Init()/@ref HAL_RTC_DeInit()
 129:Drivers/STM32L0xx_HAL_Driver/Src/stm32l0xx_hal_rtc.c ****   keep and use the user MspInit/MspDeInit callbacks (registered beforehand)
 130:Drivers/STM32L0xx_HAL_Driver/Src/stm32l0xx_hal_rtc.c **** 
 131:Drivers/STM32L0xx_HAL_Driver/Src/stm32l0xx_hal_rtc.c ****   Callbacks can be registered/unregistered in HAL_RTC_STATE_READY state only.
 132:Drivers/STM32L0xx_HAL_Driver/Src/stm32l0xx_hal_rtc.c ****   Exception done MspInit/MspDeInit that can be registered/unregistered
 133:Drivers/STM32L0xx_HAL_Driver/Src/stm32l0xx_hal_rtc.c ****   in HAL_RTC_STATE_READY or HAL_RTC_STATE_RESET state,
 134:Drivers/STM32L0xx_HAL_Driver/Src/stm32l0xx_hal_rtc.c ****   thus registered (user) MspInit/DeInit callbacks can be used during the Init/DeInit.
 135:Drivers/STM32L0xx_HAL_Driver/Src/stm32l0xx_hal_rtc.c ****   In that case first register the MspInit/MspDeInit user callbacks
 136:Drivers/STM32L0xx_HAL_Driver/Src/stm32l0xx_hal_rtc.c ****   using @ref HAL_RTC_RegisterCallback() before calling @ref HAL_RTC_DeInit()
 137:Drivers/STM32L0xx_HAL_Driver/Src/stm32l0xx_hal_rtc.c ****   or @ref HAL_RTC_Init() function.
 138:Drivers/STM32L0xx_HAL_Driver/Src/stm32l0xx_hal_rtc.c **** 
 139:Drivers/STM32L0xx_HAL_Driver/Src/stm32l0xx_hal_rtc.c ****   When The compilation define USE_HAL_RTC_REGISTER_CALLBACKS is set to 0 or
 140:Drivers/STM32L0xx_HAL_Driver/Src/stm32l0xx_hal_rtc.c ****   not defined, the callback registration feature is not available and all callbacks
 141:Drivers/STM32L0xx_HAL_Driver/Src/stm32l0xx_hal_rtc.c ****   are set to the corresponding weak functions.
 142:Drivers/STM32L0xx_HAL_Driver/Src/stm32l0xx_hal_rtc.c **** 
 143:Drivers/STM32L0xx_HAL_Driver/Src/stm32l0xx_hal_rtc.c ****    @endverbatim
 144:Drivers/STM32L0xx_HAL_Driver/Src/stm32l0xx_hal_rtc.c **** 
ARM GAS  /tmp/ccAh8F5t.s 			page 4


 145:Drivers/STM32L0xx_HAL_Driver/Src/stm32l0xx_hal_rtc.c ****   ******************************************************************************
 146:Drivers/STM32L0xx_HAL_Driver/Src/stm32l0xx_hal_rtc.c ****   * @attention
 147:Drivers/STM32L0xx_HAL_Driver/Src/stm32l0xx_hal_rtc.c ****   *
 148:Drivers/STM32L0xx_HAL_Driver/Src/stm32l0xx_hal_rtc.c ****   * <h2><center>&copy; Copyright (c) 2016 STMicroelectronics.
 149:Drivers/STM32L0xx_HAL_Driver/Src/stm32l0xx_hal_rtc.c ****   * All rights reserved.</center></h2>
 150:Drivers/STM32L0xx_HAL_Driver/Src/stm32l0xx_hal_rtc.c ****   *
 151:Drivers/STM32L0xx_HAL_Driver/Src/stm32l0xx_hal_rtc.c ****   * This software component is licensed by ST under BSD 3-Clause license,
 152:Drivers/STM32L0xx_HAL_Driver/Src/stm32l0xx_hal_rtc.c ****   * the "License"; You may not use this file except in compliance with the
 153:Drivers/STM32L0xx_HAL_Driver/Src/stm32l0xx_hal_rtc.c ****   * License. You may obtain a copy of the License at:
 154:Drivers/STM32L0xx_HAL_Driver/Src/stm32l0xx_hal_rtc.c ****   *                        opensource.org/licenses/BSD-3-Clause
 155:Drivers/STM32L0xx_HAL_Driver/Src/stm32l0xx_hal_rtc.c ****   *
 156:Drivers/STM32L0xx_HAL_Driver/Src/stm32l0xx_hal_rtc.c ****   ******************************************************************************
 157:Drivers/STM32L0xx_HAL_Driver/Src/stm32l0xx_hal_rtc.c ****   */
 158:Drivers/STM32L0xx_HAL_Driver/Src/stm32l0xx_hal_rtc.c **** 
 159:Drivers/STM32L0xx_HAL_Driver/Src/stm32l0xx_hal_rtc.c **** /* Includes ------------------------------------------------------------------*/
 160:Drivers/STM32L0xx_HAL_Driver/Src/stm32l0xx_hal_rtc.c **** #include "stm32l0xx_hal.h"
 161:Drivers/STM32L0xx_HAL_Driver/Src/stm32l0xx_hal_rtc.c **** 
 162:Drivers/STM32L0xx_HAL_Driver/Src/stm32l0xx_hal_rtc.c **** /** @addtogroup STM32L0xx_HAL_Driver
 163:Drivers/STM32L0xx_HAL_Driver/Src/stm32l0xx_hal_rtc.c ****   * @{
 164:Drivers/STM32L0xx_HAL_Driver/Src/stm32l0xx_hal_rtc.c ****   */
 165:Drivers/STM32L0xx_HAL_Driver/Src/stm32l0xx_hal_rtc.c **** 
 166:Drivers/STM32L0xx_HAL_Driver/Src/stm32l0xx_hal_rtc.c **** 
 167:Drivers/STM32L0xx_HAL_Driver/Src/stm32l0xx_hal_rtc.c **** /** @addtogroup RTC
 168:Drivers/STM32L0xx_HAL_Driver/Src/stm32l0xx_hal_rtc.c ****   * @brief RTC HAL module driver
 169:Drivers/STM32L0xx_HAL_Driver/Src/stm32l0xx_hal_rtc.c ****   * @{
 170:Drivers/STM32L0xx_HAL_Driver/Src/stm32l0xx_hal_rtc.c ****   */
 171:Drivers/STM32L0xx_HAL_Driver/Src/stm32l0xx_hal_rtc.c **** 
 172:Drivers/STM32L0xx_HAL_Driver/Src/stm32l0xx_hal_rtc.c **** #ifdef HAL_RTC_MODULE_ENABLED
 173:Drivers/STM32L0xx_HAL_Driver/Src/stm32l0xx_hal_rtc.c **** 
 174:Drivers/STM32L0xx_HAL_Driver/Src/stm32l0xx_hal_rtc.c **** /* Private typedef -----------------------------------------------------------*/
 175:Drivers/STM32L0xx_HAL_Driver/Src/stm32l0xx_hal_rtc.c **** /* Private define ------------------------------------------------------------*/
 176:Drivers/STM32L0xx_HAL_Driver/Src/stm32l0xx_hal_rtc.c **** /* Private macro -------------------------------------------------------------*/
 177:Drivers/STM32L0xx_HAL_Driver/Src/stm32l0xx_hal_rtc.c **** /* Private variables ---------------------------------------------------------*/
 178:Drivers/STM32L0xx_HAL_Driver/Src/stm32l0xx_hal_rtc.c **** /* Private function prototypes -----------------------------------------------*/
 179:Drivers/STM32L0xx_HAL_Driver/Src/stm32l0xx_hal_rtc.c **** /* Exported functions --------------------------------------------------------*/
 180:Drivers/STM32L0xx_HAL_Driver/Src/stm32l0xx_hal_rtc.c **** 
 181:Drivers/STM32L0xx_HAL_Driver/Src/stm32l0xx_hal_rtc.c **** /** @addtogroup RTC_Exported_Functions
 182:Drivers/STM32L0xx_HAL_Driver/Src/stm32l0xx_hal_rtc.c ****   * @{
 183:Drivers/STM32L0xx_HAL_Driver/Src/stm32l0xx_hal_rtc.c ****   */
 184:Drivers/STM32L0xx_HAL_Driver/Src/stm32l0xx_hal_rtc.c **** 
 185:Drivers/STM32L0xx_HAL_Driver/Src/stm32l0xx_hal_rtc.c **** /** @addtogroup RTC_Exported_Functions_Group1
 186:Drivers/STM32L0xx_HAL_Driver/Src/stm32l0xx_hal_rtc.c ****  *  @brief    Initialization and Configuration functions
 187:Drivers/STM32L0xx_HAL_Driver/Src/stm32l0xx_hal_rtc.c ****  *
 188:Drivers/STM32L0xx_HAL_Driver/Src/stm32l0xx_hal_rtc.c **** @verbatim
 189:Drivers/STM32L0xx_HAL_Driver/Src/stm32l0xx_hal_rtc.c ****  ===============================================================================
 190:Drivers/STM32L0xx_HAL_Driver/Src/stm32l0xx_hal_rtc.c ****               ##### Initialization and de-initialization functions #####
 191:Drivers/STM32L0xx_HAL_Driver/Src/stm32l0xx_hal_rtc.c ****  ===============================================================================
 192:Drivers/STM32L0xx_HAL_Driver/Src/stm32l0xx_hal_rtc.c ****    [..] This section provides functions allowing to initialize and configure the
 193:Drivers/STM32L0xx_HAL_Driver/Src/stm32l0xx_hal_rtc.c ****          RTC Prescaler (Synchronous and Asynchronous), RTC Hour format, disable
 194:Drivers/STM32L0xx_HAL_Driver/Src/stm32l0xx_hal_rtc.c ****          RTC registers Write protection, enter and exit the RTC initialization mode,
 195:Drivers/STM32L0xx_HAL_Driver/Src/stm32l0xx_hal_rtc.c ****          RTC registers synchronization check and reference clock detection enable.
 196:Drivers/STM32L0xx_HAL_Driver/Src/stm32l0xx_hal_rtc.c ****          (#) The RTC Prescaler is programmed to generate the RTC 1Hz time base.
 197:Drivers/STM32L0xx_HAL_Driver/Src/stm32l0xx_hal_rtc.c ****              It is split into 2 programmable prescalers to minimize power consumption.
 198:Drivers/STM32L0xx_HAL_Driver/Src/stm32l0xx_hal_rtc.c ****              (++) A 7-bit asynchronous prescaler and a 15-bit synchronous prescaler.
 199:Drivers/STM32L0xx_HAL_Driver/Src/stm32l0xx_hal_rtc.c ****              (++) When both prescalers are used, it is recommended to configure the
 200:Drivers/STM32L0xx_HAL_Driver/Src/stm32l0xx_hal_rtc.c ****                  asynchronous prescaler to a high value to minimize power consumption.
 201:Drivers/STM32L0xx_HAL_Driver/Src/stm32l0xx_hal_rtc.c ****          (#) All RTC registers are Write protected. Writing to the RTC registers
ARM GAS  /tmp/ccAh8F5t.s 			page 5


 202:Drivers/STM32L0xx_HAL_Driver/Src/stm32l0xx_hal_rtc.c ****              is enabled by writing a key into the Write Protection register, RTC_WPR.
 203:Drivers/STM32L0xx_HAL_Driver/Src/stm32l0xx_hal_rtc.c ****          (#) To configure the RTC Calendar, user application should enter
 204:Drivers/STM32L0xx_HAL_Driver/Src/stm32l0xx_hal_rtc.c ****              initialization mode. In this mode, the calendar counter is stopped
 205:Drivers/STM32L0xx_HAL_Driver/Src/stm32l0xx_hal_rtc.c ****              and its value can be updated. When the initialization sequence is
 206:Drivers/STM32L0xx_HAL_Driver/Src/stm32l0xx_hal_rtc.c ****              complete, the calendar restarts counting after 4 RTCCLK cycles.
 207:Drivers/STM32L0xx_HAL_Driver/Src/stm32l0xx_hal_rtc.c ****          (#) To read the calendar through the shadow registers after Calendar
 208:Drivers/STM32L0xx_HAL_Driver/Src/stm32l0xx_hal_rtc.c ****              initialization, calendar update or after wakeup from low power modes
 209:Drivers/STM32L0xx_HAL_Driver/Src/stm32l0xx_hal_rtc.c ****              the software must first clear the RSF flag. The software must then
 210:Drivers/STM32L0xx_HAL_Driver/Src/stm32l0xx_hal_rtc.c ****              wait until it is set again before reading the calendar, which means
 211:Drivers/STM32L0xx_HAL_Driver/Src/stm32l0xx_hal_rtc.c ****              that the calendar registers have been correctly copied into the
 212:Drivers/STM32L0xx_HAL_Driver/Src/stm32l0xx_hal_rtc.c ****              RTC_TR and RTC_DR shadow registers.The HAL_RTC_WaitForSynchro() function
 213:Drivers/STM32L0xx_HAL_Driver/Src/stm32l0xx_hal_rtc.c ****              implements the above software sequence (RSF clear and RSF check).
 214:Drivers/STM32L0xx_HAL_Driver/Src/stm32l0xx_hal_rtc.c **** 
 215:Drivers/STM32L0xx_HAL_Driver/Src/stm32l0xx_hal_rtc.c **** @endverbatim
 216:Drivers/STM32L0xx_HAL_Driver/Src/stm32l0xx_hal_rtc.c ****   * @{
 217:Drivers/STM32L0xx_HAL_Driver/Src/stm32l0xx_hal_rtc.c ****   */
 218:Drivers/STM32L0xx_HAL_Driver/Src/stm32l0xx_hal_rtc.c **** 
 219:Drivers/STM32L0xx_HAL_Driver/Src/stm32l0xx_hal_rtc.c **** /**
 220:Drivers/STM32L0xx_HAL_Driver/Src/stm32l0xx_hal_rtc.c ****   * @brief  Initialize the RTC peripheral
 221:Drivers/STM32L0xx_HAL_Driver/Src/stm32l0xx_hal_rtc.c ****   * @param  hrtc RTC handle
 222:Drivers/STM32L0xx_HAL_Driver/Src/stm32l0xx_hal_rtc.c ****   * @retval HAL status
 223:Drivers/STM32L0xx_HAL_Driver/Src/stm32l0xx_hal_rtc.c ****   */
 224:Drivers/STM32L0xx_HAL_Driver/Src/stm32l0xx_hal_rtc.c **** HAL_StatusTypeDef HAL_RTC_Init(RTC_HandleTypeDef *hrtc)
 225:Drivers/STM32L0xx_HAL_Driver/Src/stm32l0xx_hal_rtc.c **** {
 226:Drivers/STM32L0xx_HAL_Driver/Src/stm32l0xx_hal_rtc.c ****   /* Check the RTC peripheral state */
 227:Drivers/STM32L0xx_HAL_Driver/Src/stm32l0xx_hal_rtc.c ****   if (hrtc == NULL)
 228:Drivers/STM32L0xx_HAL_Driver/Src/stm32l0xx_hal_rtc.c ****   {
 229:Drivers/STM32L0xx_HAL_Driver/Src/stm32l0xx_hal_rtc.c ****     return HAL_ERROR;
 230:Drivers/STM32L0xx_HAL_Driver/Src/stm32l0xx_hal_rtc.c ****   }
 231:Drivers/STM32L0xx_HAL_Driver/Src/stm32l0xx_hal_rtc.c **** 
 232:Drivers/STM32L0xx_HAL_Driver/Src/stm32l0xx_hal_rtc.c ****   /* Check the parameters */
 233:Drivers/STM32L0xx_HAL_Driver/Src/stm32l0xx_hal_rtc.c ****   assert_param(IS_RTC_ALL_INSTANCE(hrtc->Instance));
 234:Drivers/STM32L0xx_HAL_Driver/Src/stm32l0xx_hal_rtc.c ****   assert_param(IS_RTC_HOUR_FORMAT(hrtc->Init.HourFormat));
 235:Drivers/STM32L0xx_HAL_Driver/Src/stm32l0xx_hal_rtc.c ****   assert_param(IS_RTC_ASYNCH_PREDIV(hrtc->Init.AsynchPrediv));
 236:Drivers/STM32L0xx_HAL_Driver/Src/stm32l0xx_hal_rtc.c ****   assert_param(IS_RTC_SYNCH_PREDIV(hrtc->Init.SynchPrediv));
 237:Drivers/STM32L0xx_HAL_Driver/Src/stm32l0xx_hal_rtc.c ****   assert_param(IS_RTC_OUTPUT(hrtc->Init.OutPut));
 238:Drivers/STM32L0xx_HAL_Driver/Src/stm32l0xx_hal_rtc.c ****   assert_param(IS_RTC_OUTPUT_REMAP(hrtc->Init.OutPutRemap));
 239:Drivers/STM32L0xx_HAL_Driver/Src/stm32l0xx_hal_rtc.c ****   assert_param(IS_RTC_OUTPUT_POL(hrtc->Init.OutPutPolarity));
 240:Drivers/STM32L0xx_HAL_Driver/Src/stm32l0xx_hal_rtc.c ****   assert_param(IS_RTC_OUTPUT_TYPE(hrtc->Init.OutPutType));
 241:Drivers/STM32L0xx_HAL_Driver/Src/stm32l0xx_hal_rtc.c **** 
 242:Drivers/STM32L0xx_HAL_Driver/Src/stm32l0xx_hal_rtc.c **** #if (USE_HAL_RTC_REGISTER_CALLBACKS == 1)
 243:Drivers/STM32L0xx_HAL_Driver/Src/stm32l0xx_hal_rtc.c ****   if (hrtc->State == HAL_RTC_STATE_RESET)
 244:Drivers/STM32L0xx_HAL_Driver/Src/stm32l0xx_hal_rtc.c ****   {
 245:Drivers/STM32L0xx_HAL_Driver/Src/stm32l0xx_hal_rtc.c ****     /* Allocate lock resource and initialize it */
 246:Drivers/STM32L0xx_HAL_Driver/Src/stm32l0xx_hal_rtc.c ****     hrtc->Lock = HAL_UNLOCKED;
 247:Drivers/STM32L0xx_HAL_Driver/Src/stm32l0xx_hal_rtc.c **** 
 248:Drivers/STM32L0xx_HAL_Driver/Src/stm32l0xx_hal_rtc.c ****     hrtc->AlarmAEventCallback          =  HAL_RTC_AlarmAEventCallback;        /* Legacy weak AlarmA
 249:Drivers/STM32L0xx_HAL_Driver/Src/stm32l0xx_hal_rtc.c ****     hrtc->AlarmBEventCallback          =  HAL_RTCEx_AlarmBEventCallback;      /* Legacy weak AlarmB
 250:Drivers/STM32L0xx_HAL_Driver/Src/stm32l0xx_hal_rtc.c ****     hrtc->TimeStampEventCallback       =  HAL_RTCEx_TimeStampEventCallback;   /* Legacy weak TimeSt
 251:Drivers/STM32L0xx_HAL_Driver/Src/stm32l0xx_hal_rtc.c ****     hrtc->WakeUpTimerEventCallback     =  HAL_RTCEx_WakeUpTimerEventCallback; /* Legacy weak WakeUp
 252:Drivers/STM32L0xx_HAL_Driver/Src/stm32l0xx_hal_rtc.c **** #if defined(RTC_TAMPER1_SUPPORT)
 253:Drivers/STM32L0xx_HAL_Driver/Src/stm32l0xx_hal_rtc.c ****     hrtc->Tamper1EventCallback         =  HAL_RTCEx_Tamper1EventCallback;     /* Legacy weak Tamper
 254:Drivers/STM32L0xx_HAL_Driver/Src/stm32l0xx_hal_rtc.c **** #endif
 255:Drivers/STM32L0xx_HAL_Driver/Src/stm32l0xx_hal_rtc.c ****     hrtc->Tamper2EventCallback         =  HAL_RTCEx_Tamper2EventCallback;     /* Legacy weak Tamper
 256:Drivers/STM32L0xx_HAL_Driver/Src/stm32l0xx_hal_rtc.c **** #if defined(RTC_TAMPER3_SUPPORT)
 257:Drivers/STM32L0xx_HAL_Driver/Src/stm32l0xx_hal_rtc.c ****     hrtc->Tamper3EventCallback         =  HAL_RTCEx_Tamper3EventCallback;     /* Legacy weak Tamper
 258:Drivers/STM32L0xx_HAL_Driver/Src/stm32l0xx_hal_rtc.c **** #endif
ARM GAS  /tmp/ccAh8F5t.s 			page 6


 259:Drivers/STM32L0xx_HAL_Driver/Src/stm32l0xx_hal_rtc.c **** 
 260:Drivers/STM32L0xx_HAL_Driver/Src/stm32l0xx_hal_rtc.c ****     if (hrtc->MspInitCallback == NULL)
 261:Drivers/STM32L0xx_HAL_Driver/Src/stm32l0xx_hal_rtc.c ****     {
 262:Drivers/STM32L0xx_HAL_Driver/Src/stm32l0xx_hal_rtc.c ****       hrtc->MspInitCallback = HAL_RTC_MspInit;
 263:Drivers/STM32L0xx_HAL_Driver/Src/stm32l0xx_hal_rtc.c ****     }
 264:Drivers/STM32L0xx_HAL_Driver/Src/stm32l0xx_hal_rtc.c ****     /* Init the low level hardware */
 265:Drivers/STM32L0xx_HAL_Driver/Src/stm32l0xx_hal_rtc.c ****     hrtc->MspInitCallback(hrtc);
 266:Drivers/STM32L0xx_HAL_Driver/Src/stm32l0xx_hal_rtc.c **** 
 267:Drivers/STM32L0xx_HAL_Driver/Src/stm32l0xx_hal_rtc.c ****     if (hrtc->MspDeInitCallback == NULL)
 268:Drivers/STM32L0xx_HAL_Driver/Src/stm32l0xx_hal_rtc.c ****     {
 269:Drivers/STM32L0xx_HAL_Driver/Src/stm32l0xx_hal_rtc.c ****       hrtc->MspDeInitCallback = HAL_RTC_MspDeInit;
 270:Drivers/STM32L0xx_HAL_Driver/Src/stm32l0xx_hal_rtc.c ****     }
 271:Drivers/STM32L0xx_HAL_Driver/Src/stm32l0xx_hal_rtc.c ****   }
 272:Drivers/STM32L0xx_HAL_Driver/Src/stm32l0xx_hal_rtc.c **** #else
 273:Drivers/STM32L0xx_HAL_Driver/Src/stm32l0xx_hal_rtc.c ****   if (hrtc->State == HAL_RTC_STATE_RESET)
 274:Drivers/STM32L0xx_HAL_Driver/Src/stm32l0xx_hal_rtc.c ****   {
 275:Drivers/STM32L0xx_HAL_Driver/Src/stm32l0xx_hal_rtc.c ****     /* Allocate lock resource and initialize it */
 276:Drivers/STM32L0xx_HAL_Driver/Src/stm32l0xx_hal_rtc.c ****     hrtc->Lock = HAL_UNLOCKED;
 277:Drivers/STM32L0xx_HAL_Driver/Src/stm32l0xx_hal_rtc.c **** 
 278:Drivers/STM32L0xx_HAL_Driver/Src/stm32l0xx_hal_rtc.c ****     /* Initialize RTC MSP */
 279:Drivers/STM32L0xx_HAL_Driver/Src/stm32l0xx_hal_rtc.c ****     HAL_RTC_MspInit(hrtc);
 280:Drivers/STM32L0xx_HAL_Driver/Src/stm32l0xx_hal_rtc.c ****   }
 281:Drivers/STM32L0xx_HAL_Driver/Src/stm32l0xx_hal_rtc.c **** #endif /* (USE_HAL_RTC_REGISTER_CALLBACKS) */
 282:Drivers/STM32L0xx_HAL_Driver/Src/stm32l0xx_hal_rtc.c **** 
 283:Drivers/STM32L0xx_HAL_Driver/Src/stm32l0xx_hal_rtc.c ****   /* Set RTC state */
 284:Drivers/STM32L0xx_HAL_Driver/Src/stm32l0xx_hal_rtc.c ****   hrtc->State = HAL_RTC_STATE_BUSY;
 285:Drivers/STM32L0xx_HAL_Driver/Src/stm32l0xx_hal_rtc.c **** 
 286:Drivers/STM32L0xx_HAL_Driver/Src/stm32l0xx_hal_rtc.c ****   /* Disable the write protection for RTC registers */
 287:Drivers/STM32L0xx_HAL_Driver/Src/stm32l0xx_hal_rtc.c ****   __HAL_RTC_WRITEPROTECTION_DISABLE(hrtc);
 288:Drivers/STM32L0xx_HAL_Driver/Src/stm32l0xx_hal_rtc.c **** 
 289:Drivers/STM32L0xx_HAL_Driver/Src/stm32l0xx_hal_rtc.c ****   /* Set Initialization mode */
 290:Drivers/STM32L0xx_HAL_Driver/Src/stm32l0xx_hal_rtc.c ****   if (RTC_EnterInitMode(hrtc) != HAL_OK)
 291:Drivers/STM32L0xx_HAL_Driver/Src/stm32l0xx_hal_rtc.c ****   {
 292:Drivers/STM32L0xx_HAL_Driver/Src/stm32l0xx_hal_rtc.c ****     /* Enable the write protection for RTC registers */
 293:Drivers/STM32L0xx_HAL_Driver/Src/stm32l0xx_hal_rtc.c ****     __HAL_RTC_WRITEPROTECTION_ENABLE(hrtc);
 294:Drivers/STM32L0xx_HAL_Driver/Src/stm32l0xx_hal_rtc.c **** 
 295:Drivers/STM32L0xx_HAL_Driver/Src/stm32l0xx_hal_rtc.c ****     /* Set RTC state */
 296:Drivers/STM32L0xx_HAL_Driver/Src/stm32l0xx_hal_rtc.c ****     hrtc->State = HAL_RTC_STATE_ERROR;
 297:Drivers/STM32L0xx_HAL_Driver/Src/stm32l0xx_hal_rtc.c **** 
 298:Drivers/STM32L0xx_HAL_Driver/Src/stm32l0xx_hal_rtc.c ****     return HAL_ERROR;
 299:Drivers/STM32L0xx_HAL_Driver/Src/stm32l0xx_hal_rtc.c ****   }
 300:Drivers/STM32L0xx_HAL_Driver/Src/stm32l0xx_hal_rtc.c ****   else
 301:Drivers/STM32L0xx_HAL_Driver/Src/stm32l0xx_hal_rtc.c ****   {
 302:Drivers/STM32L0xx_HAL_Driver/Src/stm32l0xx_hal_rtc.c ****     /* Clear RTC_CR FMT, OSEL and POL Bits */
 303:Drivers/STM32L0xx_HAL_Driver/Src/stm32l0xx_hal_rtc.c ****     hrtc->Instance->CR &= ((uint32_t)~(RTC_CR_FMT | RTC_CR_OSEL | RTC_CR_POL));
 304:Drivers/STM32L0xx_HAL_Driver/Src/stm32l0xx_hal_rtc.c ****     /* Set RTC_CR register */
 305:Drivers/STM32L0xx_HAL_Driver/Src/stm32l0xx_hal_rtc.c ****     hrtc->Instance->CR |= (uint32_t)(hrtc->Init.HourFormat | hrtc->Init.OutPut | hrtc->Init.OutPutP
 306:Drivers/STM32L0xx_HAL_Driver/Src/stm32l0xx_hal_rtc.c **** 
 307:Drivers/STM32L0xx_HAL_Driver/Src/stm32l0xx_hal_rtc.c ****     /* Configure the RTC PRER */
 308:Drivers/STM32L0xx_HAL_Driver/Src/stm32l0xx_hal_rtc.c ****     hrtc->Instance->PRER = (uint32_t)(hrtc->Init.SynchPrediv);
 309:Drivers/STM32L0xx_HAL_Driver/Src/stm32l0xx_hal_rtc.c ****     hrtc->Instance->PRER |= (uint32_t)(hrtc->Init.AsynchPrediv << 16U);
 310:Drivers/STM32L0xx_HAL_Driver/Src/stm32l0xx_hal_rtc.c **** 
 311:Drivers/STM32L0xx_HAL_Driver/Src/stm32l0xx_hal_rtc.c ****     /* Exit Initialization mode */
 312:Drivers/STM32L0xx_HAL_Driver/Src/stm32l0xx_hal_rtc.c ****     hrtc->Instance->ISR &= ((uint32_t)~RTC_ISR_INIT);
 313:Drivers/STM32L0xx_HAL_Driver/Src/stm32l0xx_hal_rtc.c **** 
 314:Drivers/STM32L0xx_HAL_Driver/Src/stm32l0xx_hal_rtc.c ****     hrtc->Instance->OR &= (uint32_t)~(RTC_OR_ALARMOUTTYPE | RTC_OR_OUT_RMP);
 315:Drivers/STM32L0xx_HAL_Driver/Src/stm32l0xx_hal_rtc.c ****     hrtc->Instance->OR |= (uint32_t)(hrtc->Init.OutPutType | hrtc->Init.OutPutRemap);
ARM GAS  /tmp/ccAh8F5t.s 			page 7


 316:Drivers/STM32L0xx_HAL_Driver/Src/stm32l0xx_hal_rtc.c **** 
 317:Drivers/STM32L0xx_HAL_Driver/Src/stm32l0xx_hal_rtc.c ****     /* If CR_BYPSHAD bit = 0, wait for synchro else this check is not needed */
 318:Drivers/STM32L0xx_HAL_Driver/Src/stm32l0xx_hal_rtc.c ****     if ((hrtc->Instance->CR & RTC_CR_BYPSHAD) == 0U)
 319:Drivers/STM32L0xx_HAL_Driver/Src/stm32l0xx_hal_rtc.c ****     {
 320:Drivers/STM32L0xx_HAL_Driver/Src/stm32l0xx_hal_rtc.c ****       if (HAL_RTC_WaitForSynchro(hrtc) != HAL_OK)
 321:Drivers/STM32L0xx_HAL_Driver/Src/stm32l0xx_hal_rtc.c ****       {
 322:Drivers/STM32L0xx_HAL_Driver/Src/stm32l0xx_hal_rtc.c ****         /* Enable the write protection for RTC registers */
 323:Drivers/STM32L0xx_HAL_Driver/Src/stm32l0xx_hal_rtc.c ****         __HAL_RTC_WRITEPROTECTION_ENABLE(hrtc);
 324:Drivers/STM32L0xx_HAL_Driver/Src/stm32l0xx_hal_rtc.c **** 
 325:Drivers/STM32L0xx_HAL_Driver/Src/stm32l0xx_hal_rtc.c ****         hrtc->State = HAL_RTC_STATE_ERROR;
 326:Drivers/STM32L0xx_HAL_Driver/Src/stm32l0xx_hal_rtc.c **** 
 327:Drivers/STM32L0xx_HAL_Driver/Src/stm32l0xx_hal_rtc.c ****         /* Process Unlocked */
 328:Drivers/STM32L0xx_HAL_Driver/Src/stm32l0xx_hal_rtc.c ****         __HAL_UNLOCK(hrtc);
 329:Drivers/STM32L0xx_HAL_Driver/Src/stm32l0xx_hal_rtc.c **** 
 330:Drivers/STM32L0xx_HAL_Driver/Src/stm32l0xx_hal_rtc.c ****         return HAL_ERROR;
 331:Drivers/STM32L0xx_HAL_Driver/Src/stm32l0xx_hal_rtc.c ****       }
 332:Drivers/STM32L0xx_HAL_Driver/Src/stm32l0xx_hal_rtc.c ****     }
 333:Drivers/STM32L0xx_HAL_Driver/Src/stm32l0xx_hal_rtc.c **** 
 334:Drivers/STM32L0xx_HAL_Driver/Src/stm32l0xx_hal_rtc.c ****     /* Enable the write protection for RTC registers */
 335:Drivers/STM32L0xx_HAL_Driver/Src/stm32l0xx_hal_rtc.c ****     __HAL_RTC_WRITEPROTECTION_ENABLE(hrtc);
 336:Drivers/STM32L0xx_HAL_Driver/Src/stm32l0xx_hal_rtc.c **** 
 337:Drivers/STM32L0xx_HAL_Driver/Src/stm32l0xx_hal_rtc.c ****     /* Set RTC state */
 338:Drivers/STM32L0xx_HAL_Driver/Src/stm32l0xx_hal_rtc.c ****     hrtc->State = HAL_RTC_STATE_READY;
 339:Drivers/STM32L0xx_HAL_Driver/Src/stm32l0xx_hal_rtc.c **** 
 340:Drivers/STM32L0xx_HAL_Driver/Src/stm32l0xx_hal_rtc.c ****     return HAL_OK;
 341:Drivers/STM32L0xx_HAL_Driver/Src/stm32l0xx_hal_rtc.c ****   }
 342:Drivers/STM32L0xx_HAL_Driver/Src/stm32l0xx_hal_rtc.c **** }
 343:Drivers/STM32L0xx_HAL_Driver/Src/stm32l0xx_hal_rtc.c **** 
 344:Drivers/STM32L0xx_HAL_Driver/Src/stm32l0xx_hal_rtc.c **** /**
 345:Drivers/STM32L0xx_HAL_Driver/Src/stm32l0xx_hal_rtc.c ****   * @brief  DeInitialize the RTC peripheral.
 346:Drivers/STM32L0xx_HAL_Driver/Src/stm32l0xx_hal_rtc.c ****   * @param  hrtc RTC handle
 347:Drivers/STM32L0xx_HAL_Driver/Src/stm32l0xx_hal_rtc.c ****   * @note   This function doesn't reset the RTC Backup Data registers.
 348:Drivers/STM32L0xx_HAL_Driver/Src/stm32l0xx_hal_rtc.c ****   * @retval HAL status
 349:Drivers/STM32L0xx_HAL_Driver/Src/stm32l0xx_hal_rtc.c ****   */
 350:Drivers/STM32L0xx_HAL_Driver/Src/stm32l0xx_hal_rtc.c **** HAL_StatusTypeDef HAL_RTC_DeInit(RTC_HandleTypeDef *hrtc)
 351:Drivers/STM32L0xx_HAL_Driver/Src/stm32l0xx_hal_rtc.c **** {
 352:Drivers/STM32L0xx_HAL_Driver/Src/stm32l0xx_hal_rtc.c ****   uint32_t tickstart;
 353:Drivers/STM32L0xx_HAL_Driver/Src/stm32l0xx_hal_rtc.c **** 
 354:Drivers/STM32L0xx_HAL_Driver/Src/stm32l0xx_hal_rtc.c ****   /* Check the parameters */
 355:Drivers/STM32L0xx_HAL_Driver/Src/stm32l0xx_hal_rtc.c ****   assert_param(IS_RTC_ALL_INSTANCE(hrtc->Instance));
 356:Drivers/STM32L0xx_HAL_Driver/Src/stm32l0xx_hal_rtc.c **** 
 357:Drivers/STM32L0xx_HAL_Driver/Src/stm32l0xx_hal_rtc.c ****   /* Set RTC state */
 358:Drivers/STM32L0xx_HAL_Driver/Src/stm32l0xx_hal_rtc.c ****   hrtc->State = HAL_RTC_STATE_BUSY;
 359:Drivers/STM32L0xx_HAL_Driver/Src/stm32l0xx_hal_rtc.c **** 
 360:Drivers/STM32L0xx_HAL_Driver/Src/stm32l0xx_hal_rtc.c ****   /* Disable the write protection for RTC registers */
 361:Drivers/STM32L0xx_HAL_Driver/Src/stm32l0xx_hal_rtc.c ****   __HAL_RTC_WRITEPROTECTION_DISABLE(hrtc);
 362:Drivers/STM32L0xx_HAL_Driver/Src/stm32l0xx_hal_rtc.c **** 
 363:Drivers/STM32L0xx_HAL_Driver/Src/stm32l0xx_hal_rtc.c ****   /* Set Initialization mode */
 364:Drivers/STM32L0xx_HAL_Driver/Src/stm32l0xx_hal_rtc.c ****   if (RTC_EnterInitMode(hrtc) != HAL_OK)
 365:Drivers/STM32L0xx_HAL_Driver/Src/stm32l0xx_hal_rtc.c ****   {
 366:Drivers/STM32L0xx_HAL_Driver/Src/stm32l0xx_hal_rtc.c ****     /* Enable the write protection for RTC registers */
 367:Drivers/STM32L0xx_HAL_Driver/Src/stm32l0xx_hal_rtc.c ****     __HAL_RTC_WRITEPROTECTION_ENABLE(hrtc);
 368:Drivers/STM32L0xx_HAL_Driver/Src/stm32l0xx_hal_rtc.c **** 
 369:Drivers/STM32L0xx_HAL_Driver/Src/stm32l0xx_hal_rtc.c ****     /* Set RTC state */
 370:Drivers/STM32L0xx_HAL_Driver/Src/stm32l0xx_hal_rtc.c ****     hrtc->State = HAL_RTC_STATE_ERROR;
 371:Drivers/STM32L0xx_HAL_Driver/Src/stm32l0xx_hal_rtc.c **** 
 372:Drivers/STM32L0xx_HAL_Driver/Src/stm32l0xx_hal_rtc.c ****     return HAL_ERROR;
ARM GAS  /tmp/ccAh8F5t.s 			page 8


 373:Drivers/STM32L0xx_HAL_Driver/Src/stm32l0xx_hal_rtc.c ****   }
 374:Drivers/STM32L0xx_HAL_Driver/Src/stm32l0xx_hal_rtc.c ****   else
 375:Drivers/STM32L0xx_HAL_Driver/Src/stm32l0xx_hal_rtc.c ****   {
 376:Drivers/STM32L0xx_HAL_Driver/Src/stm32l0xx_hal_rtc.c ****     /* Reset TR, DR and CR registers */
 377:Drivers/STM32L0xx_HAL_Driver/Src/stm32l0xx_hal_rtc.c ****     hrtc->Instance->TR = (uint32_t)0x00000000U;
 378:Drivers/STM32L0xx_HAL_Driver/Src/stm32l0xx_hal_rtc.c ****     hrtc->Instance->DR = ((uint32_t)(RTC_DR_WDU_0 | RTC_DR_MU_0 | RTC_DR_DU_0));
 379:Drivers/STM32L0xx_HAL_Driver/Src/stm32l0xx_hal_rtc.c ****     /* Reset All CR bits except CR[2:0] */
 380:Drivers/STM32L0xx_HAL_Driver/Src/stm32l0xx_hal_rtc.c ****     hrtc->Instance->CR &= RTC_CR_WUCKSEL;
 381:Drivers/STM32L0xx_HAL_Driver/Src/stm32l0xx_hal_rtc.c **** 
 382:Drivers/STM32L0xx_HAL_Driver/Src/stm32l0xx_hal_rtc.c ****     tickstart = HAL_GetTick();
 383:Drivers/STM32L0xx_HAL_Driver/Src/stm32l0xx_hal_rtc.c **** 
 384:Drivers/STM32L0xx_HAL_Driver/Src/stm32l0xx_hal_rtc.c ****     /* Wait till WUTWF flag is set and if Time out is reached exit */
 385:Drivers/STM32L0xx_HAL_Driver/Src/stm32l0xx_hal_rtc.c ****     while (((hrtc->Instance->ISR) & RTC_ISR_WUTWF) == 0U)
 386:Drivers/STM32L0xx_HAL_Driver/Src/stm32l0xx_hal_rtc.c ****     {
 387:Drivers/STM32L0xx_HAL_Driver/Src/stm32l0xx_hal_rtc.c ****       if ((HAL_GetTick() - tickstart) > RTC_TIMEOUT_VALUE)
 388:Drivers/STM32L0xx_HAL_Driver/Src/stm32l0xx_hal_rtc.c ****       {
 389:Drivers/STM32L0xx_HAL_Driver/Src/stm32l0xx_hal_rtc.c ****         /* Enable the write protection for RTC registers */
 390:Drivers/STM32L0xx_HAL_Driver/Src/stm32l0xx_hal_rtc.c ****         __HAL_RTC_WRITEPROTECTION_ENABLE(hrtc);
 391:Drivers/STM32L0xx_HAL_Driver/Src/stm32l0xx_hal_rtc.c **** 
 392:Drivers/STM32L0xx_HAL_Driver/Src/stm32l0xx_hal_rtc.c ****         /* Set RTC state */
 393:Drivers/STM32L0xx_HAL_Driver/Src/stm32l0xx_hal_rtc.c ****         hrtc->State = HAL_RTC_STATE_TIMEOUT;
 394:Drivers/STM32L0xx_HAL_Driver/Src/stm32l0xx_hal_rtc.c **** 
 395:Drivers/STM32L0xx_HAL_Driver/Src/stm32l0xx_hal_rtc.c ****         return HAL_TIMEOUT;
 396:Drivers/STM32L0xx_HAL_Driver/Src/stm32l0xx_hal_rtc.c ****       }
 397:Drivers/STM32L0xx_HAL_Driver/Src/stm32l0xx_hal_rtc.c ****     }
 398:Drivers/STM32L0xx_HAL_Driver/Src/stm32l0xx_hal_rtc.c **** 
 399:Drivers/STM32L0xx_HAL_Driver/Src/stm32l0xx_hal_rtc.c ****     /* Reset all RTC CR register bits */
 400:Drivers/STM32L0xx_HAL_Driver/Src/stm32l0xx_hal_rtc.c ****     hrtc->Instance->CR &= (uint32_t)0x00000000U;
 401:Drivers/STM32L0xx_HAL_Driver/Src/stm32l0xx_hal_rtc.c ****     hrtc->Instance->WUTR = RTC_WUTR_WUT;
 402:Drivers/STM32L0xx_HAL_Driver/Src/stm32l0xx_hal_rtc.c ****     hrtc->Instance->PRER = ((uint32_t)(RTC_PRER_PREDIV_A | 0x000000FFU));
 403:Drivers/STM32L0xx_HAL_Driver/Src/stm32l0xx_hal_rtc.c ****     hrtc->Instance->ALRMAR = (uint32_t)0x00000000U;
 404:Drivers/STM32L0xx_HAL_Driver/Src/stm32l0xx_hal_rtc.c ****     hrtc->Instance->ALRMBR = (uint32_t)0x00000000U;
 405:Drivers/STM32L0xx_HAL_Driver/Src/stm32l0xx_hal_rtc.c ****     hrtc->Instance->SHIFTR = (uint32_t)0x00000000U;
 406:Drivers/STM32L0xx_HAL_Driver/Src/stm32l0xx_hal_rtc.c ****     hrtc->Instance->CALR = (uint32_t)0x00000000U;
 407:Drivers/STM32L0xx_HAL_Driver/Src/stm32l0xx_hal_rtc.c ****     hrtc->Instance->ALRMASSR = (uint32_t)0x00000000U;
 408:Drivers/STM32L0xx_HAL_Driver/Src/stm32l0xx_hal_rtc.c ****     hrtc->Instance->ALRMBSSR = (uint32_t)0x00000000U;
 409:Drivers/STM32L0xx_HAL_Driver/Src/stm32l0xx_hal_rtc.c **** 
 410:Drivers/STM32L0xx_HAL_Driver/Src/stm32l0xx_hal_rtc.c ****     /* Reset ISR register and exit initialization mode */
 411:Drivers/STM32L0xx_HAL_Driver/Src/stm32l0xx_hal_rtc.c ****     hrtc->Instance->ISR = (uint32_t)0x00000000U;
 412:Drivers/STM32L0xx_HAL_Driver/Src/stm32l0xx_hal_rtc.c **** 
 413:Drivers/STM32L0xx_HAL_Driver/Src/stm32l0xx_hal_rtc.c ****     /* Reset Tamper configuration register */
 414:Drivers/STM32L0xx_HAL_Driver/Src/stm32l0xx_hal_rtc.c ****     hrtc->Instance->TAMPCR = 0x00000000U;
 415:Drivers/STM32L0xx_HAL_Driver/Src/stm32l0xx_hal_rtc.c **** 
 416:Drivers/STM32L0xx_HAL_Driver/Src/stm32l0xx_hal_rtc.c ****     /* Reset Option register */
 417:Drivers/STM32L0xx_HAL_Driver/Src/stm32l0xx_hal_rtc.c ****     hrtc->Instance->OR = 0x00000000U;
 418:Drivers/STM32L0xx_HAL_Driver/Src/stm32l0xx_hal_rtc.c **** 
 419:Drivers/STM32L0xx_HAL_Driver/Src/stm32l0xx_hal_rtc.c ****     /* If  RTC_CR_BYPSHAD bit = 0, wait for synchro else this check is not needed */
 420:Drivers/STM32L0xx_HAL_Driver/Src/stm32l0xx_hal_rtc.c ****     if ((hrtc->Instance->CR & RTC_CR_BYPSHAD) == 0U)
 421:Drivers/STM32L0xx_HAL_Driver/Src/stm32l0xx_hal_rtc.c ****     {
 422:Drivers/STM32L0xx_HAL_Driver/Src/stm32l0xx_hal_rtc.c ****       if (HAL_RTC_WaitForSynchro(hrtc) != HAL_OK)
 423:Drivers/STM32L0xx_HAL_Driver/Src/stm32l0xx_hal_rtc.c ****       {
 424:Drivers/STM32L0xx_HAL_Driver/Src/stm32l0xx_hal_rtc.c ****         /* Enable the write protection for RTC registers */
 425:Drivers/STM32L0xx_HAL_Driver/Src/stm32l0xx_hal_rtc.c ****         __HAL_RTC_WRITEPROTECTION_ENABLE(hrtc);
 426:Drivers/STM32L0xx_HAL_Driver/Src/stm32l0xx_hal_rtc.c **** 
 427:Drivers/STM32L0xx_HAL_Driver/Src/stm32l0xx_hal_rtc.c ****         hrtc->State = HAL_RTC_STATE_ERROR;
 428:Drivers/STM32L0xx_HAL_Driver/Src/stm32l0xx_hal_rtc.c **** 
 429:Drivers/STM32L0xx_HAL_Driver/Src/stm32l0xx_hal_rtc.c ****         return HAL_ERROR;
ARM GAS  /tmp/ccAh8F5t.s 			page 9


 430:Drivers/STM32L0xx_HAL_Driver/Src/stm32l0xx_hal_rtc.c ****       }
 431:Drivers/STM32L0xx_HAL_Driver/Src/stm32l0xx_hal_rtc.c ****     }
 432:Drivers/STM32L0xx_HAL_Driver/Src/stm32l0xx_hal_rtc.c ****   }
 433:Drivers/STM32L0xx_HAL_Driver/Src/stm32l0xx_hal_rtc.c **** 
 434:Drivers/STM32L0xx_HAL_Driver/Src/stm32l0xx_hal_rtc.c ****   /* Enable the write protection for RTC registers */
 435:Drivers/STM32L0xx_HAL_Driver/Src/stm32l0xx_hal_rtc.c ****   __HAL_RTC_WRITEPROTECTION_ENABLE(hrtc);
 436:Drivers/STM32L0xx_HAL_Driver/Src/stm32l0xx_hal_rtc.c **** 
 437:Drivers/STM32L0xx_HAL_Driver/Src/stm32l0xx_hal_rtc.c **** #if (USE_HAL_RTC_REGISTER_CALLBACKS == 1)
 438:Drivers/STM32L0xx_HAL_Driver/Src/stm32l0xx_hal_rtc.c ****   if (hrtc->MspDeInitCallback == NULL)
 439:Drivers/STM32L0xx_HAL_Driver/Src/stm32l0xx_hal_rtc.c ****   {
 440:Drivers/STM32L0xx_HAL_Driver/Src/stm32l0xx_hal_rtc.c ****     hrtc->MspDeInitCallback = HAL_RTC_MspDeInit;
 441:Drivers/STM32L0xx_HAL_Driver/Src/stm32l0xx_hal_rtc.c ****   }
 442:Drivers/STM32L0xx_HAL_Driver/Src/stm32l0xx_hal_rtc.c **** 
 443:Drivers/STM32L0xx_HAL_Driver/Src/stm32l0xx_hal_rtc.c ****   /* DeInit the low level hardware: CLOCK, NVIC.*/
 444:Drivers/STM32L0xx_HAL_Driver/Src/stm32l0xx_hal_rtc.c ****   hrtc->MspDeInitCallback(hrtc);
 445:Drivers/STM32L0xx_HAL_Driver/Src/stm32l0xx_hal_rtc.c **** 
 446:Drivers/STM32L0xx_HAL_Driver/Src/stm32l0xx_hal_rtc.c **** #else
 447:Drivers/STM32L0xx_HAL_Driver/Src/stm32l0xx_hal_rtc.c ****   /* De-Initialize RTC MSP */
 448:Drivers/STM32L0xx_HAL_Driver/Src/stm32l0xx_hal_rtc.c ****   HAL_RTC_MspDeInit(hrtc);
 449:Drivers/STM32L0xx_HAL_Driver/Src/stm32l0xx_hal_rtc.c **** #endif /* (USE_HAL_RTC_REGISTER_CALLBACKS) */
 450:Drivers/STM32L0xx_HAL_Driver/Src/stm32l0xx_hal_rtc.c **** 
 451:Drivers/STM32L0xx_HAL_Driver/Src/stm32l0xx_hal_rtc.c ****   hrtc->State = HAL_RTC_STATE_RESET;
 452:Drivers/STM32L0xx_HAL_Driver/Src/stm32l0xx_hal_rtc.c **** 
 453:Drivers/STM32L0xx_HAL_Driver/Src/stm32l0xx_hal_rtc.c ****   /* Release Lock */
 454:Drivers/STM32L0xx_HAL_Driver/Src/stm32l0xx_hal_rtc.c ****   __HAL_UNLOCK(hrtc);
 455:Drivers/STM32L0xx_HAL_Driver/Src/stm32l0xx_hal_rtc.c **** 
 456:Drivers/STM32L0xx_HAL_Driver/Src/stm32l0xx_hal_rtc.c ****   return HAL_OK;
 457:Drivers/STM32L0xx_HAL_Driver/Src/stm32l0xx_hal_rtc.c **** }
 458:Drivers/STM32L0xx_HAL_Driver/Src/stm32l0xx_hal_rtc.c **** 
 459:Drivers/STM32L0xx_HAL_Driver/Src/stm32l0xx_hal_rtc.c **** #if (USE_HAL_RTC_REGISTER_CALLBACKS == 1)
 460:Drivers/STM32L0xx_HAL_Driver/Src/stm32l0xx_hal_rtc.c **** /**
 461:Drivers/STM32L0xx_HAL_Driver/Src/stm32l0xx_hal_rtc.c ****   * @brief  Register a User RTC Callback
 462:Drivers/STM32L0xx_HAL_Driver/Src/stm32l0xx_hal_rtc.c ****   *         To be used instead of the weak predefined callback
 463:Drivers/STM32L0xx_HAL_Driver/Src/stm32l0xx_hal_rtc.c ****   * @param  hrtc RTC handle
 464:Drivers/STM32L0xx_HAL_Driver/Src/stm32l0xx_hal_rtc.c ****   * @param  CallbackID ID of the callback to be registered
 465:Drivers/STM32L0xx_HAL_Driver/Src/stm32l0xx_hal_rtc.c ****   *         This parameter can be one of the following values:
 466:Drivers/STM32L0xx_HAL_Driver/Src/stm32l0xx_hal_rtc.c ****   *          @arg @ref HAL_RTC_ALARM_A_EVENT_CB_ID          Alarm A Event Callback ID
 467:Drivers/STM32L0xx_HAL_Driver/Src/stm32l0xx_hal_rtc.c ****   *          @arg @ref HAL_RTC_ALARM_B_EVENT_CB_ID          Alarm B Event Callback ID
 468:Drivers/STM32L0xx_HAL_Driver/Src/stm32l0xx_hal_rtc.c ****   *          @arg @ref HAL_RTC_TIMESTAMP_EVENT_CB_ID        TimeStamp Event Callback ID
 469:Drivers/STM32L0xx_HAL_Driver/Src/stm32l0xx_hal_rtc.c ****   *          @arg @ref HAL_RTC_WAKEUPTIMER_EVENT_CB_ID      WakeUp Timer Event Callback ID
 470:Drivers/STM32L0xx_HAL_Driver/Src/stm32l0xx_hal_rtc.c ****   *          @arg @ref HAL_RTC_TAMPER1_EVENT_CB_ID          Tamper 1 Callback ID
 471:Drivers/STM32L0xx_HAL_Driver/Src/stm32l0xx_hal_rtc.c ****   *          @arg @ref HAL_RTC_TAMPER2_EVENT_CB_ID          Tamper 2 Callback ID
 472:Drivers/STM32L0xx_HAL_Driver/Src/stm32l0xx_hal_rtc.c ****   *          @arg @ref HAL_RTC_TAMPER3_EVENT_CB_ID          Tamper 3 Callback ID
 473:Drivers/STM32L0xx_HAL_Driver/Src/stm32l0xx_hal_rtc.c ****   *          @arg @ref HAL_RTC_MSPINIT_CB_ID                Msp Init callback ID
 474:Drivers/STM32L0xx_HAL_Driver/Src/stm32l0xx_hal_rtc.c ****   *          @arg @ref HAL_RTC_MSPDEINIT_CB_ID              Msp DeInit callback ID
 475:Drivers/STM32L0xx_HAL_Driver/Src/stm32l0xx_hal_rtc.c ****   * @param  pCallback pointer to the Callback function
 476:Drivers/STM32L0xx_HAL_Driver/Src/stm32l0xx_hal_rtc.c ****   * @retval HAL status
 477:Drivers/STM32L0xx_HAL_Driver/Src/stm32l0xx_hal_rtc.c ****   */
 478:Drivers/STM32L0xx_HAL_Driver/Src/stm32l0xx_hal_rtc.c **** HAL_StatusTypeDef HAL_RTC_RegisterCallback(RTC_HandleTypeDef *hrtc, HAL_RTC_CallbackIDTypeDef Callb
 479:Drivers/STM32L0xx_HAL_Driver/Src/stm32l0xx_hal_rtc.c **** {
 480:Drivers/STM32L0xx_HAL_Driver/Src/stm32l0xx_hal_rtc.c ****   HAL_StatusTypeDef status = HAL_OK;
 481:Drivers/STM32L0xx_HAL_Driver/Src/stm32l0xx_hal_rtc.c **** 
 482:Drivers/STM32L0xx_HAL_Driver/Src/stm32l0xx_hal_rtc.c ****   if (pCallback == NULL)
 483:Drivers/STM32L0xx_HAL_Driver/Src/stm32l0xx_hal_rtc.c ****   {
 484:Drivers/STM32L0xx_HAL_Driver/Src/stm32l0xx_hal_rtc.c ****     return HAL_ERROR;
 485:Drivers/STM32L0xx_HAL_Driver/Src/stm32l0xx_hal_rtc.c ****   }
 486:Drivers/STM32L0xx_HAL_Driver/Src/stm32l0xx_hal_rtc.c **** 
ARM GAS  /tmp/ccAh8F5t.s 			page 10


 487:Drivers/STM32L0xx_HAL_Driver/Src/stm32l0xx_hal_rtc.c ****   /* Process locked */
 488:Drivers/STM32L0xx_HAL_Driver/Src/stm32l0xx_hal_rtc.c ****   __HAL_LOCK(hrtc);
 489:Drivers/STM32L0xx_HAL_Driver/Src/stm32l0xx_hal_rtc.c **** 
 490:Drivers/STM32L0xx_HAL_Driver/Src/stm32l0xx_hal_rtc.c ****   if (HAL_RTC_STATE_READY == hrtc->State)
 491:Drivers/STM32L0xx_HAL_Driver/Src/stm32l0xx_hal_rtc.c ****   {
 492:Drivers/STM32L0xx_HAL_Driver/Src/stm32l0xx_hal_rtc.c ****     switch (CallbackID)
 493:Drivers/STM32L0xx_HAL_Driver/Src/stm32l0xx_hal_rtc.c ****     {
 494:Drivers/STM32L0xx_HAL_Driver/Src/stm32l0xx_hal_rtc.c ****       case HAL_RTC_ALARM_A_EVENT_CB_ID :
 495:Drivers/STM32L0xx_HAL_Driver/Src/stm32l0xx_hal_rtc.c ****         hrtc->AlarmAEventCallback = pCallback;
 496:Drivers/STM32L0xx_HAL_Driver/Src/stm32l0xx_hal_rtc.c ****         break;
 497:Drivers/STM32L0xx_HAL_Driver/Src/stm32l0xx_hal_rtc.c **** 
 498:Drivers/STM32L0xx_HAL_Driver/Src/stm32l0xx_hal_rtc.c ****       case HAL_RTC_ALARM_B_EVENT_CB_ID :
 499:Drivers/STM32L0xx_HAL_Driver/Src/stm32l0xx_hal_rtc.c ****         hrtc->AlarmBEventCallback = pCallback;
 500:Drivers/STM32L0xx_HAL_Driver/Src/stm32l0xx_hal_rtc.c ****         break;
 501:Drivers/STM32L0xx_HAL_Driver/Src/stm32l0xx_hal_rtc.c **** 
 502:Drivers/STM32L0xx_HAL_Driver/Src/stm32l0xx_hal_rtc.c ****       case HAL_RTC_TIMESTAMP_EVENT_CB_ID :
 503:Drivers/STM32L0xx_HAL_Driver/Src/stm32l0xx_hal_rtc.c ****         hrtc->TimeStampEventCallback = pCallback;
 504:Drivers/STM32L0xx_HAL_Driver/Src/stm32l0xx_hal_rtc.c ****         break;
 505:Drivers/STM32L0xx_HAL_Driver/Src/stm32l0xx_hal_rtc.c **** 
 506:Drivers/STM32L0xx_HAL_Driver/Src/stm32l0xx_hal_rtc.c ****       case HAL_RTC_WAKEUPTIMER_EVENT_CB_ID :
 507:Drivers/STM32L0xx_HAL_Driver/Src/stm32l0xx_hal_rtc.c ****         hrtc->WakeUpTimerEventCallback = pCallback;
 508:Drivers/STM32L0xx_HAL_Driver/Src/stm32l0xx_hal_rtc.c ****         break;
 509:Drivers/STM32L0xx_HAL_Driver/Src/stm32l0xx_hal_rtc.c **** 
 510:Drivers/STM32L0xx_HAL_Driver/Src/stm32l0xx_hal_rtc.c ****       case HAL_RTC_TAMPER1_EVENT_CB_ID :
 511:Drivers/STM32L0xx_HAL_Driver/Src/stm32l0xx_hal_rtc.c ****         hrtc->Tamper1EventCallback = pCallback;
 512:Drivers/STM32L0xx_HAL_Driver/Src/stm32l0xx_hal_rtc.c ****         break;
 513:Drivers/STM32L0xx_HAL_Driver/Src/stm32l0xx_hal_rtc.c **** 
 514:Drivers/STM32L0xx_HAL_Driver/Src/stm32l0xx_hal_rtc.c ****       case HAL_RTC_TAMPER2_EVENT_CB_ID :
 515:Drivers/STM32L0xx_HAL_Driver/Src/stm32l0xx_hal_rtc.c ****         hrtc->Tamper2EventCallback = pCallback;
 516:Drivers/STM32L0xx_HAL_Driver/Src/stm32l0xx_hal_rtc.c ****         break;
 517:Drivers/STM32L0xx_HAL_Driver/Src/stm32l0xx_hal_rtc.c **** 
 518:Drivers/STM32L0xx_HAL_Driver/Src/stm32l0xx_hal_rtc.c ****       case HAL_RTC_TAMPER3_EVENT_CB_ID :
 519:Drivers/STM32L0xx_HAL_Driver/Src/stm32l0xx_hal_rtc.c ****         hrtc->Tamper3EventCallback = pCallback;
 520:Drivers/STM32L0xx_HAL_Driver/Src/stm32l0xx_hal_rtc.c ****         break;
 521:Drivers/STM32L0xx_HAL_Driver/Src/stm32l0xx_hal_rtc.c **** 
 522:Drivers/STM32L0xx_HAL_Driver/Src/stm32l0xx_hal_rtc.c ****       case HAL_RTC_MSPINIT_CB_ID :
 523:Drivers/STM32L0xx_HAL_Driver/Src/stm32l0xx_hal_rtc.c ****         hrtc->MspInitCallback = pCallback;
 524:Drivers/STM32L0xx_HAL_Driver/Src/stm32l0xx_hal_rtc.c ****         break;
 525:Drivers/STM32L0xx_HAL_Driver/Src/stm32l0xx_hal_rtc.c **** 
 526:Drivers/STM32L0xx_HAL_Driver/Src/stm32l0xx_hal_rtc.c ****       case HAL_RTC_MSPDEINIT_CB_ID :
 527:Drivers/STM32L0xx_HAL_Driver/Src/stm32l0xx_hal_rtc.c ****         hrtc->MspDeInitCallback = pCallback;
 528:Drivers/STM32L0xx_HAL_Driver/Src/stm32l0xx_hal_rtc.c ****         break;
 529:Drivers/STM32L0xx_HAL_Driver/Src/stm32l0xx_hal_rtc.c **** 
 530:Drivers/STM32L0xx_HAL_Driver/Src/stm32l0xx_hal_rtc.c ****       default :
 531:Drivers/STM32L0xx_HAL_Driver/Src/stm32l0xx_hal_rtc.c ****         /* Return error status */
 532:Drivers/STM32L0xx_HAL_Driver/Src/stm32l0xx_hal_rtc.c ****         status =  HAL_ERROR;
 533:Drivers/STM32L0xx_HAL_Driver/Src/stm32l0xx_hal_rtc.c ****         break;
 534:Drivers/STM32L0xx_HAL_Driver/Src/stm32l0xx_hal_rtc.c ****     }
 535:Drivers/STM32L0xx_HAL_Driver/Src/stm32l0xx_hal_rtc.c ****   }
 536:Drivers/STM32L0xx_HAL_Driver/Src/stm32l0xx_hal_rtc.c ****   else if (HAL_RTC_STATE_RESET == hrtc->State)
 537:Drivers/STM32L0xx_HAL_Driver/Src/stm32l0xx_hal_rtc.c ****   {
 538:Drivers/STM32L0xx_HAL_Driver/Src/stm32l0xx_hal_rtc.c ****     switch (CallbackID)
 539:Drivers/STM32L0xx_HAL_Driver/Src/stm32l0xx_hal_rtc.c ****     {
 540:Drivers/STM32L0xx_HAL_Driver/Src/stm32l0xx_hal_rtc.c ****       case HAL_RTC_MSPINIT_CB_ID :
 541:Drivers/STM32L0xx_HAL_Driver/Src/stm32l0xx_hal_rtc.c ****         hrtc->MspInitCallback = pCallback;
 542:Drivers/STM32L0xx_HAL_Driver/Src/stm32l0xx_hal_rtc.c ****         break;
 543:Drivers/STM32L0xx_HAL_Driver/Src/stm32l0xx_hal_rtc.c **** 
ARM GAS  /tmp/ccAh8F5t.s 			page 11


 544:Drivers/STM32L0xx_HAL_Driver/Src/stm32l0xx_hal_rtc.c ****       case HAL_RTC_MSPDEINIT_CB_ID :
 545:Drivers/STM32L0xx_HAL_Driver/Src/stm32l0xx_hal_rtc.c ****         hrtc->MspDeInitCallback = pCallback;
 546:Drivers/STM32L0xx_HAL_Driver/Src/stm32l0xx_hal_rtc.c ****         break;
 547:Drivers/STM32L0xx_HAL_Driver/Src/stm32l0xx_hal_rtc.c **** 
 548:Drivers/STM32L0xx_HAL_Driver/Src/stm32l0xx_hal_rtc.c ****       default :
 549:Drivers/STM32L0xx_HAL_Driver/Src/stm32l0xx_hal_rtc.c ****         /* Return error status */
 550:Drivers/STM32L0xx_HAL_Driver/Src/stm32l0xx_hal_rtc.c ****         status =  HAL_ERROR;
 551:Drivers/STM32L0xx_HAL_Driver/Src/stm32l0xx_hal_rtc.c ****         break;
 552:Drivers/STM32L0xx_HAL_Driver/Src/stm32l0xx_hal_rtc.c ****     }
 553:Drivers/STM32L0xx_HAL_Driver/Src/stm32l0xx_hal_rtc.c ****   }
 554:Drivers/STM32L0xx_HAL_Driver/Src/stm32l0xx_hal_rtc.c ****   else
 555:Drivers/STM32L0xx_HAL_Driver/Src/stm32l0xx_hal_rtc.c ****   {
 556:Drivers/STM32L0xx_HAL_Driver/Src/stm32l0xx_hal_rtc.c ****     /* Return error status */
 557:Drivers/STM32L0xx_HAL_Driver/Src/stm32l0xx_hal_rtc.c ****     status =  HAL_ERROR;
 558:Drivers/STM32L0xx_HAL_Driver/Src/stm32l0xx_hal_rtc.c ****   }
 559:Drivers/STM32L0xx_HAL_Driver/Src/stm32l0xx_hal_rtc.c **** 
 560:Drivers/STM32L0xx_HAL_Driver/Src/stm32l0xx_hal_rtc.c ****   /* Release Lock */
 561:Drivers/STM32L0xx_HAL_Driver/Src/stm32l0xx_hal_rtc.c ****   __HAL_UNLOCK(hrtc);
 562:Drivers/STM32L0xx_HAL_Driver/Src/stm32l0xx_hal_rtc.c **** 
 563:Drivers/STM32L0xx_HAL_Driver/Src/stm32l0xx_hal_rtc.c ****   return status;
 564:Drivers/STM32L0xx_HAL_Driver/Src/stm32l0xx_hal_rtc.c **** }
 565:Drivers/STM32L0xx_HAL_Driver/Src/stm32l0xx_hal_rtc.c **** 
 566:Drivers/STM32L0xx_HAL_Driver/Src/stm32l0xx_hal_rtc.c **** /**
 567:Drivers/STM32L0xx_HAL_Driver/Src/stm32l0xx_hal_rtc.c ****   * @brief  Unregister an RTC Callback
 568:Drivers/STM32L0xx_HAL_Driver/Src/stm32l0xx_hal_rtc.c ****   *         RTC callabck is redirected to the weak predefined callback
 569:Drivers/STM32L0xx_HAL_Driver/Src/stm32l0xx_hal_rtc.c ****   * @param  hrtc RTC handle
 570:Drivers/STM32L0xx_HAL_Driver/Src/stm32l0xx_hal_rtc.c ****   * @param  CallbackID ID of the callback to be unregistered
 571:Drivers/STM32L0xx_HAL_Driver/Src/stm32l0xx_hal_rtc.c ****   *         This parameter can be one of the following values:
 572:Drivers/STM32L0xx_HAL_Driver/Src/stm32l0xx_hal_rtc.c ****   *          @arg @ref HAL_RTC_ALARM_A_EVENT_CB_ID          Alarm A Event Callback ID
 573:Drivers/STM32L0xx_HAL_Driver/Src/stm32l0xx_hal_rtc.c ****   *          @arg @ref HAL_RTC_ALARM_B_EVENT_CB_ID          Alarm B Event Callback ID
 574:Drivers/STM32L0xx_HAL_Driver/Src/stm32l0xx_hal_rtc.c ****   *          @arg @ref HAL_RTC_TIMESTAMP_EVENT_CB_ID        TimeStamp Event Callback ID
 575:Drivers/STM32L0xx_HAL_Driver/Src/stm32l0xx_hal_rtc.c ****   *          @arg @ref HAL_RTC_WAKEUPTIMER_EVENT_CB_ID      WakeUp Timer Event Callback ID
 576:Drivers/STM32L0xx_HAL_Driver/Src/stm32l0xx_hal_rtc.c ****   *          @arg @ref HAL_RTC_TAMPER1_EVENT_CB_ID          Tamper 1 Callback ID
 577:Drivers/STM32L0xx_HAL_Driver/Src/stm32l0xx_hal_rtc.c ****   *          @arg @ref HAL_RTC_TAMPER2_EVENT_CB_ID          Tamper 2 Callback ID
 578:Drivers/STM32L0xx_HAL_Driver/Src/stm32l0xx_hal_rtc.c ****   *          @arg @ref HAL_RTC_TAMPER3_EVENT_CB_ID          Tamper 3 Callback ID
 579:Drivers/STM32L0xx_HAL_Driver/Src/stm32l0xx_hal_rtc.c ****   *          @arg @ref HAL_RTC_MSPINIT_CB_ID Msp Init callback ID
 580:Drivers/STM32L0xx_HAL_Driver/Src/stm32l0xx_hal_rtc.c ****   *          @arg @ref HAL_RTC_MSPDEINIT_CB_ID Msp DeInit callback ID
 581:Drivers/STM32L0xx_HAL_Driver/Src/stm32l0xx_hal_rtc.c ****   * @retval HAL status
 582:Drivers/STM32L0xx_HAL_Driver/Src/stm32l0xx_hal_rtc.c ****   */
 583:Drivers/STM32L0xx_HAL_Driver/Src/stm32l0xx_hal_rtc.c **** HAL_StatusTypeDef HAL_RTC_UnRegisterCallback(RTC_HandleTypeDef *hrtc, HAL_RTC_CallbackIDTypeDef Cal
 584:Drivers/STM32L0xx_HAL_Driver/Src/stm32l0xx_hal_rtc.c **** {
 585:Drivers/STM32L0xx_HAL_Driver/Src/stm32l0xx_hal_rtc.c ****   HAL_StatusTypeDef status = HAL_OK;
 586:Drivers/STM32L0xx_HAL_Driver/Src/stm32l0xx_hal_rtc.c **** 
 587:Drivers/STM32L0xx_HAL_Driver/Src/stm32l0xx_hal_rtc.c ****   /* Process locked */
 588:Drivers/STM32L0xx_HAL_Driver/Src/stm32l0xx_hal_rtc.c ****   __HAL_LOCK(hrtc);
 589:Drivers/STM32L0xx_HAL_Driver/Src/stm32l0xx_hal_rtc.c **** 
 590:Drivers/STM32L0xx_HAL_Driver/Src/stm32l0xx_hal_rtc.c ****   if (HAL_RTC_STATE_READY == hrtc->State)
 591:Drivers/STM32L0xx_HAL_Driver/Src/stm32l0xx_hal_rtc.c ****   {
 592:Drivers/STM32L0xx_HAL_Driver/Src/stm32l0xx_hal_rtc.c ****     switch (CallbackID)
 593:Drivers/STM32L0xx_HAL_Driver/Src/stm32l0xx_hal_rtc.c ****     {
 594:Drivers/STM32L0xx_HAL_Driver/Src/stm32l0xx_hal_rtc.c ****       case HAL_RTC_ALARM_A_EVENT_CB_ID :
 595:Drivers/STM32L0xx_HAL_Driver/Src/stm32l0xx_hal_rtc.c ****         hrtc->AlarmAEventCallback = HAL_RTC_AlarmAEventCallback;         /* Legacy weak AlarmAEvent
 596:Drivers/STM32L0xx_HAL_Driver/Src/stm32l0xx_hal_rtc.c ****         break;
 597:Drivers/STM32L0xx_HAL_Driver/Src/stm32l0xx_hal_rtc.c **** 
 598:Drivers/STM32L0xx_HAL_Driver/Src/stm32l0xx_hal_rtc.c ****       case HAL_RTC_ALARM_B_EVENT_CB_ID :
 599:Drivers/STM32L0xx_HAL_Driver/Src/stm32l0xx_hal_rtc.c ****         hrtc->AlarmBEventCallback = HAL_RTCEx_AlarmBEventCallback;          /* Legacy weak AlarmBEv
 600:Drivers/STM32L0xx_HAL_Driver/Src/stm32l0xx_hal_rtc.c ****         break;
ARM GAS  /tmp/ccAh8F5t.s 			page 12


 601:Drivers/STM32L0xx_HAL_Driver/Src/stm32l0xx_hal_rtc.c **** 
 602:Drivers/STM32L0xx_HAL_Driver/Src/stm32l0xx_hal_rtc.c ****       case HAL_RTC_TIMESTAMP_EVENT_CB_ID :
 603:Drivers/STM32L0xx_HAL_Driver/Src/stm32l0xx_hal_rtc.c ****         hrtc->TimeStampEventCallback = HAL_RTCEx_TimeStampEventCallback;    /* Legacy weak TimeStam
 604:Drivers/STM32L0xx_HAL_Driver/Src/stm32l0xx_hal_rtc.c ****         break;
 605:Drivers/STM32L0xx_HAL_Driver/Src/stm32l0xx_hal_rtc.c **** 
 606:Drivers/STM32L0xx_HAL_Driver/Src/stm32l0xx_hal_rtc.c ****       case HAL_RTC_WAKEUPTIMER_EVENT_CB_ID :
 607:Drivers/STM32L0xx_HAL_Driver/Src/stm32l0xx_hal_rtc.c ****         hrtc->WakeUpTimerEventCallback = HAL_RTCEx_WakeUpTimerEventCallback; /* Legacy weak WakeUpT
 608:Drivers/STM32L0xx_HAL_Driver/Src/stm32l0xx_hal_rtc.c ****         break;
 609:Drivers/STM32L0xx_HAL_Driver/Src/stm32l0xx_hal_rtc.c **** 
 610:Drivers/STM32L0xx_HAL_Driver/Src/stm32l0xx_hal_rtc.c ****       case HAL_RTC_TAMPER1_EVENT_CB_ID :
 611:Drivers/STM32L0xx_HAL_Driver/Src/stm32l0xx_hal_rtc.c ****         hrtc->Tamper1EventCallback = HAL_RTCEx_Tamper1EventCallback;         /* Legacy weak Tamper1
 612:Drivers/STM32L0xx_HAL_Driver/Src/stm32l0xx_hal_rtc.c ****         break;
 613:Drivers/STM32L0xx_HAL_Driver/Src/stm32l0xx_hal_rtc.c **** 
 614:Drivers/STM32L0xx_HAL_Driver/Src/stm32l0xx_hal_rtc.c ****       case HAL_RTC_TAMPER2_EVENT_CB_ID :
 615:Drivers/STM32L0xx_HAL_Driver/Src/stm32l0xx_hal_rtc.c ****         hrtc->Tamper2EventCallback = HAL_RTCEx_Tamper2EventCallback;         /* Legacy weak Tamper2
 616:Drivers/STM32L0xx_HAL_Driver/Src/stm32l0xx_hal_rtc.c ****         break;
 617:Drivers/STM32L0xx_HAL_Driver/Src/stm32l0xx_hal_rtc.c **** 
 618:Drivers/STM32L0xx_HAL_Driver/Src/stm32l0xx_hal_rtc.c ****       case HAL_RTC_TAMPER3_EVENT_CB_ID :
 619:Drivers/STM32L0xx_HAL_Driver/Src/stm32l0xx_hal_rtc.c ****         hrtc->Tamper3EventCallback = HAL_RTCEx_Tamper3EventCallback;         /* Legacy weak Tamper3
 620:Drivers/STM32L0xx_HAL_Driver/Src/stm32l0xx_hal_rtc.c ****         break;
 621:Drivers/STM32L0xx_HAL_Driver/Src/stm32l0xx_hal_rtc.c **** 
 622:Drivers/STM32L0xx_HAL_Driver/Src/stm32l0xx_hal_rtc.c ****       case HAL_RTC_MSPINIT_CB_ID :
 623:Drivers/STM32L0xx_HAL_Driver/Src/stm32l0xx_hal_rtc.c ****         hrtc->MspInitCallback = HAL_RTC_MspInit;
 624:Drivers/STM32L0xx_HAL_Driver/Src/stm32l0xx_hal_rtc.c ****         break;
 625:Drivers/STM32L0xx_HAL_Driver/Src/stm32l0xx_hal_rtc.c **** 
 626:Drivers/STM32L0xx_HAL_Driver/Src/stm32l0xx_hal_rtc.c ****       case HAL_RTC_MSPDEINIT_CB_ID :
 627:Drivers/STM32L0xx_HAL_Driver/Src/stm32l0xx_hal_rtc.c ****         hrtc->MspDeInitCallback = HAL_RTC_MspDeInit;
 628:Drivers/STM32L0xx_HAL_Driver/Src/stm32l0xx_hal_rtc.c ****         break;
 629:Drivers/STM32L0xx_HAL_Driver/Src/stm32l0xx_hal_rtc.c **** 
 630:Drivers/STM32L0xx_HAL_Driver/Src/stm32l0xx_hal_rtc.c ****       default :
 631:Drivers/STM32L0xx_HAL_Driver/Src/stm32l0xx_hal_rtc.c ****         /* Return error status */
 632:Drivers/STM32L0xx_HAL_Driver/Src/stm32l0xx_hal_rtc.c ****         status =  HAL_ERROR;
 633:Drivers/STM32L0xx_HAL_Driver/Src/stm32l0xx_hal_rtc.c ****         break;
 634:Drivers/STM32L0xx_HAL_Driver/Src/stm32l0xx_hal_rtc.c ****     }
 635:Drivers/STM32L0xx_HAL_Driver/Src/stm32l0xx_hal_rtc.c ****   }
 636:Drivers/STM32L0xx_HAL_Driver/Src/stm32l0xx_hal_rtc.c ****   else if (HAL_RTC_STATE_RESET == hrtc->State)
 637:Drivers/STM32L0xx_HAL_Driver/Src/stm32l0xx_hal_rtc.c ****   {
 638:Drivers/STM32L0xx_HAL_Driver/Src/stm32l0xx_hal_rtc.c ****     switch (CallbackID)
 639:Drivers/STM32L0xx_HAL_Driver/Src/stm32l0xx_hal_rtc.c ****     {
 640:Drivers/STM32L0xx_HAL_Driver/Src/stm32l0xx_hal_rtc.c ****       case HAL_RTC_MSPINIT_CB_ID :
 641:Drivers/STM32L0xx_HAL_Driver/Src/stm32l0xx_hal_rtc.c ****         hrtc->MspInitCallback = HAL_RTC_MspInit;
 642:Drivers/STM32L0xx_HAL_Driver/Src/stm32l0xx_hal_rtc.c ****         break;
 643:Drivers/STM32L0xx_HAL_Driver/Src/stm32l0xx_hal_rtc.c **** 
 644:Drivers/STM32L0xx_HAL_Driver/Src/stm32l0xx_hal_rtc.c ****       case HAL_RTC_MSPDEINIT_CB_ID :
 645:Drivers/STM32L0xx_HAL_Driver/Src/stm32l0xx_hal_rtc.c ****         hrtc->MspDeInitCallback = HAL_RTC_MspDeInit;
 646:Drivers/STM32L0xx_HAL_Driver/Src/stm32l0xx_hal_rtc.c ****         break;
 647:Drivers/STM32L0xx_HAL_Driver/Src/stm32l0xx_hal_rtc.c **** 
 648:Drivers/STM32L0xx_HAL_Driver/Src/stm32l0xx_hal_rtc.c ****       default :
 649:Drivers/STM32L0xx_HAL_Driver/Src/stm32l0xx_hal_rtc.c ****         /* Return error status */
 650:Drivers/STM32L0xx_HAL_Driver/Src/stm32l0xx_hal_rtc.c ****         status =  HAL_ERROR;
 651:Drivers/STM32L0xx_HAL_Driver/Src/stm32l0xx_hal_rtc.c ****         break;
 652:Drivers/STM32L0xx_HAL_Driver/Src/stm32l0xx_hal_rtc.c ****     }
 653:Drivers/STM32L0xx_HAL_Driver/Src/stm32l0xx_hal_rtc.c ****   }
 654:Drivers/STM32L0xx_HAL_Driver/Src/stm32l0xx_hal_rtc.c ****   else
 655:Drivers/STM32L0xx_HAL_Driver/Src/stm32l0xx_hal_rtc.c ****   {
 656:Drivers/STM32L0xx_HAL_Driver/Src/stm32l0xx_hal_rtc.c ****     /* Return error status */
 657:Drivers/STM32L0xx_HAL_Driver/Src/stm32l0xx_hal_rtc.c ****     status =  HAL_ERROR;
ARM GAS  /tmp/ccAh8F5t.s 			page 13


 658:Drivers/STM32L0xx_HAL_Driver/Src/stm32l0xx_hal_rtc.c ****   }
 659:Drivers/STM32L0xx_HAL_Driver/Src/stm32l0xx_hal_rtc.c **** 
 660:Drivers/STM32L0xx_HAL_Driver/Src/stm32l0xx_hal_rtc.c ****   /* Release Lock */
 661:Drivers/STM32L0xx_HAL_Driver/Src/stm32l0xx_hal_rtc.c ****   __HAL_UNLOCK(hrtc);
 662:Drivers/STM32L0xx_HAL_Driver/Src/stm32l0xx_hal_rtc.c **** 
 663:Drivers/STM32L0xx_HAL_Driver/Src/stm32l0xx_hal_rtc.c ****   return status;
 664:Drivers/STM32L0xx_HAL_Driver/Src/stm32l0xx_hal_rtc.c **** }
 665:Drivers/STM32L0xx_HAL_Driver/Src/stm32l0xx_hal_rtc.c **** #endif /* USE_HAL_RTC_REGISTER_CALLBACKS */
 666:Drivers/STM32L0xx_HAL_Driver/Src/stm32l0xx_hal_rtc.c **** 
 667:Drivers/STM32L0xx_HAL_Driver/Src/stm32l0xx_hal_rtc.c **** /**
 668:Drivers/STM32L0xx_HAL_Driver/Src/stm32l0xx_hal_rtc.c ****   * @brief  Initialize the RTC MSP.
 669:Drivers/STM32L0xx_HAL_Driver/Src/stm32l0xx_hal_rtc.c ****   * @param  hrtc RTC handle
 670:Drivers/STM32L0xx_HAL_Driver/Src/stm32l0xx_hal_rtc.c ****   * @retval None
 671:Drivers/STM32L0xx_HAL_Driver/Src/stm32l0xx_hal_rtc.c ****   */
 672:Drivers/STM32L0xx_HAL_Driver/Src/stm32l0xx_hal_rtc.c **** __weak void HAL_RTC_MspInit(RTC_HandleTypeDef *hrtc)
 673:Drivers/STM32L0xx_HAL_Driver/Src/stm32l0xx_hal_rtc.c **** {
  29              		.loc 1 673 1 view -0
  30              		.cfi_startproc
  31              		@ args = 0, pretend = 0, frame = 0
  32              		@ frame_needed = 0, uses_anonymous_args = 0
  33              		@ link register save eliminated.
 674:Drivers/STM32L0xx_HAL_Driver/Src/stm32l0xx_hal_rtc.c ****   /* Prevent unused argument(s) compilation warning */
 675:Drivers/STM32L0xx_HAL_Driver/Src/stm32l0xx_hal_rtc.c ****   UNUSED(hrtc);
  34              		.loc 1 675 3 view .LVU1
 676:Drivers/STM32L0xx_HAL_Driver/Src/stm32l0xx_hal_rtc.c **** 
 677:Drivers/STM32L0xx_HAL_Driver/Src/stm32l0xx_hal_rtc.c ****   /* NOTE : This function should not be modified, when the callback is needed,
 678:Drivers/STM32L0xx_HAL_Driver/Src/stm32l0xx_hal_rtc.c ****             the HAL_RTC_MspInit could be implemented in the user file
 679:Drivers/STM32L0xx_HAL_Driver/Src/stm32l0xx_hal_rtc.c ****    */
 680:Drivers/STM32L0xx_HAL_Driver/Src/stm32l0xx_hal_rtc.c **** }
  35              		.loc 1 680 1 is_stmt 0 view .LVU2
  36              		@ sp needed
  37 0000 7047     		bx	lr
  38              		.cfi_endproc
  39              	.LFE36:
  41 0002 C046     		.section	.text.HAL_RTC_MspDeInit,"ax",%progbits
  42              		.align	1
  43              		.p2align 2,,3
  44              		.weak	HAL_RTC_MspDeInit
  45              		.syntax unified
  46              		.code	16
  47              		.thumb_func
  48              		.fpu softvfp
  50              	HAL_RTC_MspDeInit:
  51              	.LFB55:
  52              		.cfi_startproc
  53              		@ args = 0, pretend = 0, frame = 0
  54              		@ frame_needed = 0, uses_anonymous_args = 0
  55              		@ link register save eliminated.
  56              		@ sp needed
  57 0000 7047     		bx	lr
  58              		.cfi_endproc
  59              	.LFE55:
  61 0002 C046     		.section	.text.HAL_RTC_GetTime,"ax",%progbits
  62              		.align	1
  63              		.p2align 2,,3
  64              		.global	HAL_RTC_GetTime
  65              		.syntax unified
ARM GAS  /tmp/ccAh8F5t.s 			page 14


  66              		.code	16
  67              		.thumb_func
  68              		.fpu softvfp
  70              	HAL_RTC_GetTime:
  71              	.LVL1:
  72              	.LFB39:
 681:Drivers/STM32L0xx_HAL_Driver/Src/stm32l0xx_hal_rtc.c **** 
 682:Drivers/STM32L0xx_HAL_Driver/Src/stm32l0xx_hal_rtc.c **** /**
 683:Drivers/STM32L0xx_HAL_Driver/Src/stm32l0xx_hal_rtc.c ****   * @brief  DeInitialize the RTC MSP.
 684:Drivers/STM32L0xx_HAL_Driver/Src/stm32l0xx_hal_rtc.c ****   * @param  hrtc RTC handle
 685:Drivers/STM32L0xx_HAL_Driver/Src/stm32l0xx_hal_rtc.c ****   * @retval None
 686:Drivers/STM32L0xx_HAL_Driver/Src/stm32l0xx_hal_rtc.c ****   */
 687:Drivers/STM32L0xx_HAL_Driver/Src/stm32l0xx_hal_rtc.c **** __weak void HAL_RTC_MspDeInit(RTC_HandleTypeDef *hrtc)
 688:Drivers/STM32L0xx_HAL_Driver/Src/stm32l0xx_hal_rtc.c **** {
 689:Drivers/STM32L0xx_HAL_Driver/Src/stm32l0xx_hal_rtc.c ****   /* Prevent unused argument(s) compilation warning */
 690:Drivers/STM32L0xx_HAL_Driver/Src/stm32l0xx_hal_rtc.c ****   UNUSED(hrtc);
 691:Drivers/STM32L0xx_HAL_Driver/Src/stm32l0xx_hal_rtc.c **** 
 692:Drivers/STM32L0xx_HAL_Driver/Src/stm32l0xx_hal_rtc.c ****   /* NOTE : This function should not be modified, when the callback is needed,
 693:Drivers/STM32L0xx_HAL_Driver/Src/stm32l0xx_hal_rtc.c ****             the HAL_RTC_MspDeInit could be implemented in the user file
 694:Drivers/STM32L0xx_HAL_Driver/Src/stm32l0xx_hal_rtc.c ****    */
 695:Drivers/STM32L0xx_HAL_Driver/Src/stm32l0xx_hal_rtc.c **** }
 696:Drivers/STM32L0xx_HAL_Driver/Src/stm32l0xx_hal_rtc.c **** 
 697:Drivers/STM32L0xx_HAL_Driver/Src/stm32l0xx_hal_rtc.c **** /**
 698:Drivers/STM32L0xx_HAL_Driver/Src/stm32l0xx_hal_rtc.c ****   * @}
 699:Drivers/STM32L0xx_HAL_Driver/Src/stm32l0xx_hal_rtc.c ****   */
 700:Drivers/STM32L0xx_HAL_Driver/Src/stm32l0xx_hal_rtc.c **** 
 701:Drivers/STM32L0xx_HAL_Driver/Src/stm32l0xx_hal_rtc.c **** /** @addtogroup RTC_Exported_Functions_Group2
 702:Drivers/STM32L0xx_HAL_Driver/Src/stm32l0xx_hal_rtc.c ****  *  @brief   RTC Time and Date functions
 703:Drivers/STM32L0xx_HAL_Driver/Src/stm32l0xx_hal_rtc.c ****  *
 704:Drivers/STM32L0xx_HAL_Driver/Src/stm32l0xx_hal_rtc.c **** @verbatim
 705:Drivers/STM32L0xx_HAL_Driver/Src/stm32l0xx_hal_rtc.c ****  ===============================================================================
 706:Drivers/STM32L0xx_HAL_Driver/Src/stm32l0xx_hal_rtc.c ****                  ##### RTC Time and Date functions #####
 707:Drivers/STM32L0xx_HAL_Driver/Src/stm32l0xx_hal_rtc.c ****  ===============================================================================
 708:Drivers/STM32L0xx_HAL_Driver/Src/stm32l0xx_hal_rtc.c **** 
 709:Drivers/STM32L0xx_HAL_Driver/Src/stm32l0xx_hal_rtc.c ****  [..] This section provides functions allowing to configure Time and Date features
 710:Drivers/STM32L0xx_HAL_Driver/Src/stm32l0xx_hal_rtc.c **** 
 711:Drivers/STM32L0xx_HAL_Driver/Src/stm32l0xx_hal_rtc.c **** @endverbatim
 712:Drivers/STM32L0xx_HAL_Driver/Src/stm32l0xx_hal_rtc.c ****   * @{
 713:Drivers/STM32L0xx_HAL_Driver/Src/stm32l0xx_hal_rtc.c ****   */
 714:Drivers/STM32L0xx_HAL_Driver/Src/stm32l0xx_hal_rtc.c **** 
 715:Drivers/STM32L0xx_HAL_Driver/Src/stm32l0xx_hal_rtc.c **** /**
 716:Drivers/STM32L0xx_HAL_Driver/Src/stm32l0xx_hal_rtc.c ****   * @brief  Set RTC current time.
 717:Drivers/STM32L0xx_HAL_Driver/Src/stm32l0xx_hal_rtc.c ****   * @param  hrtc RTC handle
 718:Drivers/STM32L0xx_HAL_Driver/Src/stm32l0xx_hal_rtc.c ****   * @param  sTime Pointer to Time structure
 719:Drivers/STM32L0xx_HAL_Driver/Src/stm32l0xx_hal_rtc.c ****   * @param  Format Specifies the format of the entered parameters.
 720:Drivers/STM32L0xx_HAL_Driver/Src/stm32l0xx_hal_rtc.c ****   *          This parameter can be one of the following values:
 721:Drivers/STM32L0xx_HAL_Driver/Src/stm32l0xx_hal_rtc.c ****   *            @arg RTC_FORMAT_BIN: Binary data format
 722:Drivers/STM32L0xx_HAL_Driver/Src/stm32l0xx_hal_rtc.c ****   *            @arg RTC_FORMAT_BCD: BCD data format
 723:Drivers/STM32L0xx_HAL_Driver/Src/stm32l0xx_hal_rtc.c ****   * @retval HAL status
 724:Drivers/STM32L0xx_HAL_Driver/Src/stm32l0xx_hal_rtc.c ****   */
 725:Drivers/STM32L0xx_HAL_Driver/Src/stm32l0xx_hal_rtc.c **** HAL_StatusTypeDef HAL_RTC_SetTime(RTC_HandleTypeDef *hrtc, RTC_TimeTypeDef *sTime, uint32_t Format)
 726:Drivers/STM32L0xx_HAL_Driver/Src/stm32l0xx_hal_rtc.c **** {
 727:Drivers/STM32L0xx_HAL_Driver/Src/stm32l0xx_hal_rtc.c ****   uint32_t tmpreg;
 728:Drivers/STM32L0xx_HAL_Driver/Src/stm32l0xx_hal_rtc.c **** 
 729:Drivers/STM32L0xx_HAL_Driver/Src/stm32l0xx_hal_rtc.c ****   /* Check the parameters */
 730:Drivers/STM32L0xx_HAL_Driver/Src/stm32l0xx_hal_rtc.c ****   assert_param(IS_RTC_FORMAT(Format));
 731:Drivers/STM32L0xx_HAL_Driver/Src/stm32l0xx_hal_rtc.c ****   assert_param(IS_RTC_DAYLIGHT_SAVING(sTime->DayLightSaving));
ARM GAS  /tmp/ccAh8F5t.s 			page 15


 732:Drivers/STM32L0xx_HAL_Driver/Src/stm32l0xx_hal_rtc.c ****   assert_param(IS_RTC_STORE_OPERATION(sTime->StoreOperation));
 733:Drivers/STM32L0xx_HAL_Driver/Src/stm32l0xx_hal_rtc.c **** 
 734:Drivers/STM32L0xx_HAL_Driver/Src/stm32l0xx_hal_rtc.c ****   /* Process Locked */
 735:Drivers/STM32L0xx_HAL_Driver/Src/stm32l0xx_hal_rtc.c ****   __HAL_LOCK(hrtc);
 736:Drivers/STM32L0xx_HAL_Driver/Src/stm32l0xx_hal_rtc.c **** 
 737:Drivers/STM32L0xx_HAL_Driver/Src/stm32l0xx_hal_rtc.c ****   hrtc->State = HAL_RTC_STATE_BUSY;
 738:Drivers/STM32L0xx_HAL_Driver/Src/stm32l0xx_hal_rtc.c **** 
 739:Drivers/STM32L0xx_HAL_Driver/Src/stm32l0xx_hal_rtc.c ****   if (Format == RTC_FORMAT_BIN)
 740:Drivers/STM32L0xx_HAL_Driver/Src/stm32l0xx_hal_rtc.c ****   {
 741:Drivers/STM32L0xx_HAL_Driver/Src/stm32l0xx_hal_rtc.c ****     if ((hrtc->Instance->CR & RTC_CR_FMT) != 0U)
 742:Drivers/STM32L0xx_HAL_Driver/Src/stm32l0xx_hal_rtc.c ****     {
 743:Drivers/STM32L0xx_HAL_Driver/Src/stm32l0xx_hal_rtc.c ****       assert_param(IS_RTC_HOUR12(sTime->Hours));
 744:Drivers/STM32L0xx_HAL_Driver/Src/stm32l0xx_hal_rtc.c ****       assert_param(IS_RTC_HOURFORMAT12(sTime->TimeFormat));
 745:Drivers/STM32L0xx_HAL_Driver/Src/stm32l0xx_hal_rtc.c ****     }
 746:Drivers/STM32L0xx_HAL_Driver/Src/stm32l0xx_hal_rtc.c ****     else
 747:Drivers/STM32L0xx_HAL_Driver/Src/stm32l0xx_hal_rtc.c ****     {
 748:Drivers/STM32L0xx_HAL_Driver/Src/stm32l0xx_hal_rtc.c ****       sTime->TimeFormat = 0x00U;
 749:Drivers/STM32L0xx_HAL_Driver/Src/stm32l0xx_hal_rtc.c ****       assert_param(IS_RTC_HOUR24(sTime->Hours));
 750:Drivers/STM32L0xx_HAL_Driver/Src/stm32l0xx_hal_rtc.c ****     }
 751:Drivers/STM32L0xx_HAL_Driver/Src/stm32l0xx_hal_rtc.c ****     assert_param(IS_RTC_MINUTES(sTime->Minutes));
 752:Drivers/STM32L0xx_HAL_Driver/Src/stm32l0xx_hal_rtc.c ****     assert_param(IS_RTC_SECONDS(sTime->Seconds));
 753:Drivers/STM32L0xx_HAL_Driver/Src/stm32l0xx_hal_rtc.c **** 
 754:Drivers/STM32L0xx_HAL_Driver/Src/stm32l0xx_hal_rtc.c ****     tmpreg = (uint32_t)(((uint32_t)RTC_ByteToBcd2(sTime->Hours) << 16U) | \
 755:Drivers/STM32L0xx_HAL_Driver/Src/stm32l0xx_hal_rtc.c ****                         ((uint32_t)RTC_ByteToBcd2(sTime->Minutes) << 8U) | \
 756:Drivers/STM32L0xx_HAL_Driver/Src/stm32l0xx_hal_rtc.c ****                         ((uint32_t)RTC_ByteToBcd2(sTime->Seconds)) | \
 757:Drivers/STM32L0xx_HAL_Driver/Src/stm32l0xx_hal_rtc.c ****                         (((uint32_t)sTime->TimeFormat) << 16U));
 758:Drivers/STM32L0xx_HAL_Driver/Src/stm32l0xx_hal_rtc.c ****   }
 759:Drivers/STM32L0xx_HAL_Driver/Src/stm32l0xx_hal_rtc.c ****   else
 760:Drivers/STM32L0xx_HAL_Driver/Src/stm32l0xx_hal_rtc.c ****   {
 761:Drivers/STM32L0xx_HAL_Driver/Src/stm32l0xx_hal_rtc.c ****     if ((hrtc->Instance->CR & RTC_CR_FMT) != 0U)
 762:Drivers/STM32L0xx_HAL_Driver/Src/stm32l0xx_hal_rtc.c ****     {
 763:Drivers/STM32L0xx_HAL_Driver/Src/stm32l0xx_hal_rtc.c ****       assert_param(IS_RTC_HOUR12(RTC_Bcd2ToByte(sTime->Hours)));
 764:Drivers/STM32L0xx_HAL_Driver/Src/stm32l0xx_hal_rtc.c ****       assert_param(IS_RTC_HOURFORMAT12(sTime->TimeFormat));
 765:Drivers/STM32L0xx_HAL_Driver/Src/stm32l0xx_hal_rtc.c ****     }
 766:Drivers/STM32L0xx_HAL_Driver/Src/stm32l0xx_hal_rtc.c ****     else
 767:Drivers/STM32L0xx_HAL_Driver/Src/stm32l0xx_hal_rtc.c ****     {
 768:Drivers/STM32L0xx_HAL_Driver/Src/stm32l0xx_hal_rtc.c ****       sTime->TimeFormat = 0x00U;
 769:Drivers/STM32L0xx_HAL_Driver/Src/stm32l0xx_hal_rtc.c ****       assert_param(IS_RTC_HOUR24(RTC_Bcd2ToByte(sTime->Hours)));
 770:Drivers/STM32L0xx_HAL_Driver/Src/stm32l0xx_hal_rtc.c ****     }
 771:Drivers/STM32L0xx_HAL_Driver/Src/stm32l0xx_hal_rtc.c ****     assert_param(IS_RTC_MINUTES(RTC_Bcd2ToByte(sTime->Minutes)));
 772:Drivers/STM32L0xx_HAL_Driver/Src/stm32l0xx_hal_rtc.c ****     assert_param(IS_RTC_SECONDS(RTC_Bcd2ToByte(sTime->Seconds)));
 773:Drivers/STM32L0xx_HAL_Driver/Src/stm32l0xx_hal_rtc.c ****     tmpreg = (((uint32_t)(sTime->Hours) << 16U) | \
 774:Drivers/STM32L0xx_HAL_Driver/Src/stm32l0xx_hal_rtc.c ****               ((uint32_t)(sTime->Minutes) << 8U) | \
 775:Drivers/STM32L0xx_HAL_Driver/Src/stm32l0xx_hal_rtc.c ****               ((uint32_t)sTime->Seconds) | \
 776:Drivers/STM32L0xx_HAL_Driver/Src/stm32l0xx_hal_rtc.c ****               ((uint32_t)(sTime->TimeFormat) << 16U));
 777:Drivers/STM32L0xx_HAL_Driver/Src/stm32l0xx_hal_rtc.c ****   }
 778:Drivers/STM32L0xx_HAL_Driver/Src/stm32l0xx_hal_rtc.c ****   UNUSED(tmpreg);
 779:Drivers/STM32L0xx_HAL_Driver/Src/stm32l0xx_hal_rtc.c ****   /* Disable the write protection for RTC registers */
 780:Drivers/STM32L0xx_HAL_Driver/Src/stm32l0xx_hal_rtc.c ****   __HAL_RTC_WRITEPROTECTION_DISABLE(hrtc);
 781:Drivers/STM32L0xx_HAL_Driver/Src/stm32l0xx_hal_rtc.c **** 
 782:Drivers/STM32L0xx_HAL_Driver/Src/stm32l0xx_hal_rtc.c ****   /* Set Initialization mode */
 783:Drivers/STM32L0xx_HAL_Driver/Src/stm32l0xx_hal_rtc.c ****   if (RTC_EnterInitMode(hrtc) != HAL_OK)
 784:Drivers/STM32L0xx_HAL_Driver/Src/stm32l0xx_hal_rtc.c ****   {
 785:Drivers/STM32L0xx_HAL_Driver/Src/stm32l0xx_hal_rtc.c ****     /* Enable the write protection for RTC registers */
 786:Drivers/STM32L0xx_HAL_Driver/Src/stm32l0xx_hal_rtc.c ****     __HAL_RTC_WRITEPROTECTION_ENABLE(hrtc);
 787:Drivers/STM32L0xx_HAL_Driver/Src/stm32l0xx_hal_rtc.c **** 
 788:Drivers/STM32L0xx_HAL_Driver/Src/stm32l0xx_hal_rtc.c ****     /* Set RTC state */
ARM GAS  /tmp/ccAh8F5t.s 			page 16


 789:Drivers/STM32L0xx_HAL_Driver/Src/stm32l0xx_hal_rtc.c ****     hrtc->State = HAL_RTC_STATE_ERROR;
 790:Drivers/STM32L0xx_HAL_Driver/Src/stm32l0xx_hal_rtc.c **** 
 791:Drivers/STM32L0xx_HAL_Driver/Src/stm32l0xx_hal_rtc.c ****     /* Process Unlocked */
 792:Drivers/STM32L0xx_HAL_Driver/Src/stm32l0xx_hal_rtc.c ****     __HAL_UNLOCK(hrtc);
 793:Drivers/STM32L0xx_HAL_Driver/Src/stm32l0xx_hal_rtc.c **** 
 794:Drivers/STM32L0xx_HAL_Driver/Src/stm32l0xx_hal_rtc.c ****     return HAL_ERROR;
 795:Drivers/STM32L0xx_HAL_Driver/Src/stm32l0xx_hal_rtc.c ****   }
 796:Drivers/STM32L0xx_HAL_Driver/Src/stm32l0xx_hal_rtc.c ****   else
 797:Drivers/STM32L0xx_HAL_Driver/Src/stm32l0xx_hal_rtc.c ****   {
 798:Drivers/STM32L0xx_HAL_Driver/Src/stm32l0xx_hal_rtc.c ****     /* Set the RTC_TR register */
 799:Drivers/STM32L0xx_HAL_Driver/Src/stm32l0xx_hal_rtc.c ****     hrtc->Instance->TR = (uint32_t)(tmpreg & RTC_TR_RESERVED_MASK);
 800:Drivers/STM32L0xx_HAL_Driver/Src/stm32l0xx_hal_rtc.c **** 
 801:Drivers/STM32L0xx_HAL_Driver/Src/stm32l0xx_hal_rtc.c ****     /* Clear the bits to be configured */
 802:Drivers/STM32L0xx_HAL_Driver/Src/stm32l0xx_hal_rtc.c ****     hrtc->Instance->CR &= ((uint32_t)~RTC_CR_BKP);
 803:Drivers/STM32L0xx_HAL_Driver/Src/stm32l0xx_hal_rtc.c **** 
 804:Drivers/STM32L0xx_HAL_Driver/Src/stm32l0xx_hal_rtc.c ****     /* Configure the RTC_CR register */
 805:Drivers/STM32L0xx_HAL_Driver/Src/stm32l0xx_hal_rtc.c ****     hrtc->Instance->CR |= (uint32_t)(sTime->DayLightSaving | sTime->StoreOperation);
 806:Drivers/STM32L0xx_HAL_Driver/Src/stm32l0xx_hal_rtc.c **** 
 807:Drivers/STM32L0xx_HAL_Driver/Src/stm32l0xx_hal_rtc.c ****     /* Exit Initialization mode */
 808:Drivers/STM32L0xx_HAL_Driver/Src/stm32l0xx_hal_rtc.c ****     hrtc->Instance->ISR &= ((uint32_t)~RTC_ISR_INIT);
 809:Drivers/STM32L0xx_HAL_Driver/Src/stm32l0xx_hal_rtc.c **** 
 810:Drivers/STM32L0xx_HAL_Driver/Src/stm32l0xx_hal_rtc.c ****     /* If  CR_BYPSHAD bit = 0, wait for synchro else this check is not needed */
 811:Drivers/STM32L0xx_HAL_Driver/Src/stm32l0xx_hal_rtc.c ****     if ((hrtc->Instance->CR & RTC_CR_BYPSHAD) == 0U)
 812:Drivers/STM32L0xx_HAL_Driver/Src/stm32l0xx_hal_rtc.c ****     {
 813:Drivers/STM32L0xx_HAL_Driver/Src/stm32l0xx_hal_rtc.c ****       if (HAL_RTC_WaitForSynchro(hrtc) != HAL_OK)
 814:Drivers/STM32L0xx_HAL_Driver/Src/stm32l0xx_hal_rtc.c ****       {
 815:Drivers/STM32L0xx_HAL_Driver/Src/stm32l0xx_hal_rtc.c ****         /* Enable the write protection for RTC registers */
 816:Drivers/STM32L0xx_HAL_Driver/Src/stm32l0xx_hal_rtc.c ****         __HAL_RTC_WRITEPROTECTION_ENABLE(hrtc);
 817:Drivers/STM32L0xx_HAL_Driver/Src/stm32l0xx_hal_rtc.c **** 
 818:Drivers/STM32L0xx_HAL_Driver/Src/stm32l0xx_hal_rtc.c ****         hrtc->State = HAL_RTC_STATE_ERROR;
 819:Drivers/STM32L0xx_HAL_Driver/Src/stm32l0xx_hal_rtc.c **** 
 820:Drivers/STM32L0xx_HAL_Driver/Src/stm32l0xx_hal_rtc.c ****         /* Process Unlocked */
 821:Drivers/STM32L0xx_HAL_Driver/Src/stm32l0xx_hal_rtc.c ****         __HAL_UNLOCK(hrtc);
 822:Drivers/STM32L0xx_HAL_Driver/Src/stm32l0xx_hal_rtc.c **** 
 823:Drivers/STM32L0xx_HAL_Driver/Src/stm32l0xx_hal_rtc.c ****         return HAL_ERROR;
 824:Drivers/STM32L0xx_HAL_Driver/Src/stm32l0xx_hal_rtc.c ****       }
 825:Drivers/STM32L0xx_HAL_Driver/Src/stm32l0xx_hal_rtc.c ****     }
 826:Drivers/STM32L0xx_HAL_Driver/Src/stm32l0xx_hal_rtc.c **** 
 827:Drivers/STM32L0xx_HAL_Driver/Src/stm32l0xx_hal_rtc.c ****     /* Enable the write protection for RTC registers */
 828:Drivers/STM32L0xx_HAL_Driver/Src/stm32l0xx_hal_rtc.c ****     __HAL_RTC_WRITEPROTECTION_ENABLE(hrtc);
 829:Drivers/STM32L0xx_HAL_Driver/Src/stm32l0xx_hal_rtc.c **** 
 830:Drivers/STM32L0xx_HAL_Driver/Src/stm32l0xx_hal_rtc.c ****     hrtc->State = HAL_RTC_STATE_READY;
 831:Drivers/STM32L0xx_HAL_Driver/Src/stm32l0xx_hal_rtc.c **** 
 832:Drivers/STM32L0xx_HAL_Driver/Src/stm32l0xx_hal_rtc.c ****     __HAL_UNLOCK(hrtc);
 833:Drivers/STM32L0xx_HAL_Driver/Src/stm32l0xx_hal_rtc.c **** 
 834:Drivers/STM32L0xx_HAL_Driver/Src/stm32l0xx_hal_rtc.c ****     return HAL_OK;
 835:Drivers/STM32L0xx_HAL_Driver/Src/stm32l0xx_hal_rtc.c ****   }
 836:Drivers/STM32L0xx_HAL_Driver/Src/stm32l0xx_hal_rtc.c **** }
 837:Drivers/STM32L0xx_HAL_Driver/Src/stm32l0xx_hal_rtc.c **** 
 838:Drivers/STM32L0xx_HAL_Driver/Src/stm32l0xx_hal_rtc.c **** /**
 839:Drivers/STM32L0xx_HAL_Driver/Src/stm32l0xx_hal_rtc.c ****   * @brief  Get RTC current time.
 840:Drivers/STM32L0xx_HAL_Driver/Src/stm32l0xx_hal_rtc.c ****   * @param  hrtc RTC handle
 841:Drivers/STM32L0xx_HAL_Driver/Src/stm32l0xx_hal_rtc.c ****   * @param  sTime Pointer to Time structure with Hours, Minutes and Seconds fields returned
 842:Drivers/STM32L0xx_HAL_Driver/Src/stm32l0xx_hal_rtc.c ****   *                with input format (BIN or BCD), also SubSeconds field returning the
 843:Drivers/STM32L0xx_HAL_Driver/Src/stm32l0xx_hal_rtc.c ****   *                RTC_SSR register content and SecondFraction field the Synchronous pre-scaler
 844:Drivers/STM32L0xx_HAL_Driver/Src/stm32l0xx_hal_rtc.c ****   *                factor to be used for second fraction ratio computation.
 845:Drivers/STM32L0xx_HAL_Driver/Src/stm32l0xx_hal_rtc.c ****   * @param  Format Specifies the format of the entered parameters.
ARM GAS  /tmp/ccAh8F5t.s 			page 17


 846:Drivers/STM32L0xx_HAL_Driver/Src/stm32l0xx_hal_rtc.c ****   *          This parameter can be one of the following values:
 847:Drivers/STM32L0xx_HAL_Driver/Src/stm32l0xx_hal_rtc.c ****   *            @arg RTC_FORMAT_BIN: Binary data format
 848:Drivers/STM32L0xx_HAL_Driver/Src/stm32l0xx_hal_rtc.c ****   *            @arg RTC_FORMAT_BCD: BCD data format
 849:Drivers/STM32L0xx_HAL_Driver/Src/stm32l0xx_hal_rtc.c ****   * @note  You can use SubSeconds and SecondFraction (sTime structure fields returned) to convert S
 850:Drivers/STM32L0xx_HAL_Driver/Src/stm32l0xx_hal_rtc.c ****   *        value in second fraction ratio with time unit following generic formula:
 851:Drivers/STM32L0xx_HAL_Driver/Src/stm32l0xx_hal_rtc.c ****   *        Second fraction ratio * time_unit= [(SecondFraction-SubSeconds)/(SecondFraction+1)] * ti
 852:Drivers/STM32L0xx_HAL_Driver/Src/stm32l0xx_hal_rtc.c ****   *        This conversion can be performed only if no shift operation is pending (ie. SHFP=0) when
 853:Drivers/STM32L0xx_HAL_Driver/Src/stm32l0xx_hal_rtc.c ****   * @note  You must call HAL_RTC_GetDate() after HAL_RTC_GetTime() to unlock the values
 854:Drivers/STM32L0xx_HAL_Driver/Src/stm32l0xx_hal_rtc.c ****   *        in the higher-order calendar shadow registers to ensure consistency between the time and
 855:Drivers/STM32L0xx_HAL_Driver/Src/stm32l0xx_hal_rtc.c ****   *        Reading RTC current time locks the values in calendar shadow registers until Current dat
 856:Drivers/STM32L0xx_HAL_Driver/Src/stm32l0xx_hal_rtc.c ****   *        to ensure consistency between the time and date values.
 857:Drivers/STM32L0xx_HAL_Driver/Src/stm32l0xx_hal_rtc.c ****   * @retval HAL status
 858:Drivers/STM32L0xx_HAL_Driver/Src/stm32l0xx_hal_rtc.c ****   */
 859:Drivers/STM32L0xx_HAL_Driver/Src/stm32l0xx_hal_rtc.c **** HAL_StatusTypeDef HAL_RTC_GetTime(RTC_HandleTypeDef *hrtc, RTC_TimeTypeDef *sTime, uint32_t Format)
 860:Drivers/STM32L0xx_HAL_Driver/Src/stm32l0xx_hal_rtc.c **** {
  73              		.loc 1 860 1 is_stmt 1 view -0
  74              		.cfi_startproc
  75              		@ args = 0, pretend = 0, frame = 0
  76              		@ frame_needed = 0, uses_anonymous_args = 0
 861:Drivers/STM32L0xx_HAL_Driver/Src/stm32l0xx_hal_rtc.c ****   uint32_t tmpreg;
  77              		.loc 1 861 3 view .LVU4
 862:Drivers/STM32L0xx_HAL_Driver/Src/stm32l0xx_hal_rtc.c **** 
 863:Drivers/STM32L0xx_HAL_Driver/Src/stm32l0xx_hal_rtc.c ****   /* Check the parameters */
 864:Drivers/STM32L0xx_HAL_Driver/Src/stm32l0xx_hal_rtc.c ****   assert_param(IS_RTC_FORMAT(Format));
  78              		.loc 1 864 3 view .LVU5
 865:Drivers/STM32L0xx_HAL_Driver/Src/stm32l0xx_hal_rtc.c **** 
 866:Drivers/STM32L0xx_HAL_Driver/Src/stm32l0xx_hal_rtc.c ****   /* Get subseconds structure field from the corresponding register*/
 867:Drivers/STM32L0xx_HAL_Driver/Src/stm32l0xx_hal_rtc.c ****   sTime->SubSeconds = (uint32_t)(hrtc->Instance->SSR);
  79              		.loc 1 867 3 view .LVU6
  80              		.loc 1 867 38 is_stmt 0 view .LVU7
  81 0000 0068     		ldr	r0, [r0]
  82              	.LVL2:
 860:Drivers/STM32L0xx_HAL_Driver/Src/stm32l0xx_hal_rtc.c ****   uint32_t tmpreg;
  83              		.loc 1 860 1 view .LVU8
  84 0002 70B5     		push	{r4, r5, r6, lr}
  85              	.LCFI0:
  86              		.cfi_def_cfa_offset 16
  87              		.cfi_offset 4, -16
  88              		.cfi_offset 5, -12
  89              		.cfi_offset 6, -8
  90              		.cfi_offset 14, -4
  91              		.loc 1 867 48 view .LVU9
  92 0004 836A     		ldr	r3, [r0, #40]
 868:Drivers/STM32L0xx_HAL_Driver/Src/stm32l0xx_hal_rtc.c **** 
 869:Drivers/STM32L0xx_HAL_Driver/Src/stm32l0xx_hal_rtc.c ****   /* Get SecondFraction structure field from the corresponding register field*/
 870:Drivers/STM32L0xx_HAL_Driver/Src/stm32l0xx_hal_rtc.c ****   sTime->SecondFraction = (uint32_t)(hrtc->Instance->PRER & RTC_PRER_PREDIV_S);
 871:Drivers/STM32L0xx_HAL_Driver/Src/stm32l0xx_hal_rtc.c **** 
 872:Drivers/STM32L0xx_HAL_Driver/Src/stm32l0xx_hal_rtc.c ****   /* Get the TR register */
 873:Drivers/STM32L0xx_HAL_Driver/Src/stm32l0xx_hal_rtc.c ****   tmpreg = (uint32_t)(hrtc->Instance->TR & RTC_TR_RESERVED_MASK);
 874:Drivers/STM32L0xx_HAL_Driver/Src/stm32l0xx_hal_rtc.c **** 
 875:Drivers/STM32L0xx_HAL_Driver/Src/stm32l0xx_hal_rtc.c ****   /* Fill the structure fields with the read parameters */
 876:Drivers/STM32L0xx_HAL_Driver/Src/stm32l0xx_hal_rtc.c ****   sTime->Hours = (uint8_t)((tmpreg & (RTC_TR_HT | RTC_TR_HU)) >> 16U);
 877:Drivers/STM32L0xx_HAL_Driver/Src/stm32l0xx_hal_rtc.c ****   sTime->Minutes = (uint8_t)((tmpreg & (RTC_TR_MNT | RTC_TR_MNU)) >> 8U);
 878:Drivers/STM32L0xx_HAL_Driver/Src/stm32l0xx_hal_rtc.c ****   sTime->Seconds = (uint8_t)(tmpreg & (RTC_TR_ST | RTC_TR_SU));
 879:Drivers/STM32L0xx_HAL_Driver/Src/stm32l0xx_hal_rtc.c ****   sTime->TimeFormat = (uint8_t)((tmpreg & (RTC_TR_PM)) >> 16U);
  93              		.loc 1 879 23 view .LVU10
  94 0006 4026     		movs	r6, #64
ARM GAS  /tmp/ccAh8F5t.s 			page 18


 867:Drivers/STM32L0xx_HAL_Driver/Src/stm32l0xx_hal_rtc.c **** 
  95              		.loc 1 867 21 view .LVU11
  96 0008 4B60     		str	r3, [r1, #4]
 870:Drivers/STM32L0xx_HAL_Driver/Src/stm32l0xx_hal_rtc.c **** 
  97              		.loc 1 870 3 is_stmt 1 view .LVU12
 870:Drivers/STM32L0xx_HAL_Driver/Src/stm32l0xx_hal_rtc.c **** 
  98              		.loc 1 870 52 is_stmt 0 view .LVU13
  99 000a 0369     		ldr	r3, [r0, #16]
 873:Drivers/STM32L0xx_HAL_Driver/Src/stm32l0xx_hal_rtc.c **** 
 100              		.loc 1 873 37 view .LVU14
 101 000c 0468     		ldr	r4, [r0]
 876:Drivers/STM32L0xx_HAL_Driver/Src/stm32l0xx_hal_rtc.c ****   sTime->Minutes = (uint8_t)((tmpreg & (RTC_TR_MNT | RTC_TR_MNU)) >> 8U);
 102              		.loc 1 876 18 view .LVU15
 103 000e 3F20     		movs	r0, #63
 870:Drivers/STM32L0xx_HAL_Driver/Src/stm32l0xx_hal_rtc.c **** 
 104              		.loc 1 870 27 view .LVU16
 105 0010 5B04     		lsls	r3, r3, #17
 106 0012 5B0C     		lsrs	r3, r3, #17
 870:Drivers/STM32L0xx_HAL_Driver/Src/stm32l0xx_hal_rtc.c **** 
 107              		.loc 1 870 25 view .LVU17
 108 0014 8B60     		str	r3, [r1, #8]
 873:Drivers/STM32L0xx_HAL_Driver/Src/stm32l0xx_hal_rtc.c **** 
 109              		.loc 1 873 3 is_stmt 1 view .LVU18
 873:Drivers/STM32L0xx_HAL_Driver/Src/stm32l0xx_hal_rtc.c **** 
 110              		.loc 1 873 10 is_stmt 0 view .LVU19
 111 0016 134B     		ldr	r3, .L6
 112 0018 1C40     		ands	r4, r3
 113              	.LVL3:
 876:Drivers/STM32L0xx_HAL_Driver/Src/stm32l0xx_hal_rtc.c ****   sTime->Minutes = (uint8_t)((tmpreg & (RTC_TR_MNT | RTC_TR_MNU)) >> 8U);
 114              		.loc 1 876 3 is_stmt 1 view .LVU20
 876:Drivers/STM32L0xx_HAL_Driver/Src/stm32l0xx_hal_rtc.c ****   sTime->Minutes = (uint8_t)((tmpreg & (RTC_TR_MNT | RTC_TR_MNU)) >> 8U);
 115              		.loc 1 876 18 is_stmt 0 view .LVU21
 116 001a 250C     		lsrs	r5, r4, #16
 877:Drivers/STM32L0xx_HAL_Driver/Src/stm32l0xx_hal_rtc.c ****   sTime->Seconds = (uint8_t)(tmpreg & (RTC_TR_ST | RTC_TR_SU));
 117              		.loc 1 877 67 view .LVU22
 118 001c 230A     		lsrs	r3, r4, #8
 876:Drivers/STM32L0xx_HAL_Driver/Src/stm32l0xx_hal_rtc.c ****   sTime->Minutes = (uint8_t)((tmpreg & (RTC_TR_MNT | RTC_TR_MNU)) >> 8U);
 119              		.loc 1 876 18 view .LVU23
 120 001e 2840     		ands	r0, r5
 877:Drivers/STM32L0xx_HAL_Driver/Src/stm32l0xx_hal_rtc.c ****   sTime->Seconds = (uint8_t)(tmpreg & (RTC_TR_ST | RTC_TR_SU));
 121              		.loc 1 877 20 view .LVU24
 122 0020 DBB2     		uxtb	r3, r3
 878:Drivers/STM32L0xx_HAL_Driver/Src/stm32l0xx_hal_rtc.c ****   sTime->TimeFormat = (uint8_t)((tmpreg & (RTC_TR_PM)) >> 16U);
 123              		.loc 1 878 20 view .LVU25
 124 0022 E4B2     		uxtb	r4, r4
 125              	.LVL4:
 126              		.loc 1 879 23 view .LVU26
 127 0024 2E40     		ands	r6, r5
 876:Drivers/STM32L0xx_HAL_Driver/Src/stm32l0xx_hal_rtc.c ****   sTime->Minutes = (uint8_t)((tmpreg & (RTC_TR_MNT | RTC_TR_MNU)) >> 8U);
 128              		.loc 1 876 16 view .LVU27
 129 0026 0870     		strb	r0, [r1]
 877:Drivers/STM32L0xx_HAL_Driver/Src/stm32l0xx_hal_rtc.c ****   sTime->Seconds = (uint8_t)(tmpreg & (RTC_TR_ST | RTC_TR_SU));
 130              		.loc 1 877 3 is_stmt 1 view .LVU28
 877:Drivers/STM32L0xx_HAL_Driver/Src/stm32l0xx_hal_rtc.c ****   sTime->Seconds = (uint8_t)(tmpreg & (RTC_TR_ST | RTC_TR_SU));
 131              		.loc 1 877 18 is_stmt 0 view .LVU29
 132 0028 4B70     		strb	r3, [r1, #1]
 878:Drivers/STM32L0xx_HAL_Driver/Src/stm32l0xx_hal_rtc.c ****   sTime->TimeFormat = (uint8_t)((tmpreg & (RTC_TR_PM)) >> 16U);
ARM GAS  /tmp/ccAh8F5t.s 			page 19


 133              		.loc 1 878 3 is_stmt 1 view .LVU30
 878:Drivers/STM32L0xx_HAL_Driver/Src/stm32l0xx_hal_rtc.c ****   sTime->TimeFormat = (uint8_t)((tmpreg & (RTC_TR_PM)) >> 16U);
 134              		.loc 1 878 18 is_stmt 0 view .LVU31
 135 002a 8C70     		strb	r4, [r1, #2]
 136              		.loc 1 879 3 is_stmt 1 view .LVU32
 137              		.loc 1 879 21 is_stmt 0 view .LVU33
 138 002c CE70     		strb	r6, [r1, #3]
 880:Drivers/STM32L0xx_HAL_Driver/Src/stm32l0xx_hal_rtc.c **** 
 881:Drivers/STM32L0xx_HAL_Driver/Src/stm32l0xx_hal_rtc.c ****   /* Check the input parameters format */
 882:Drivers/STM32L0xx_HAL_Driver/Src/stm32l0xx_hal_rtc.c ****   if (Format == RTC_FORMAT_BIN)
 139              		.loc 1 882 3 is_stmt 1 view .LVU34
 140              		.loc 1 882 6 is_stmt 0 view .LVU35
 141 002e 002A     		cmp	r2, #0
 142 0030 15D1     		bne	.L5
 883:Drivers/STM32L0xx_HAL_Driver/Src/stm32l0xx_hal_rtc.c ****   {
 884:Drivers/STM32L0xx_HAL_Driver/Src/stm32l0xx_hal_rtc.c ****     /* Convert the time structure parameters to Binary format */
 885:Drivers/STM32L0xx_HAL_Driver/Src/stm32l0xx_hal_rtc.c ****     sTime->Hours = (uint8_t)RTC_Bcd2ToByte(sTime->Hours);
 143              		.loc 1 885 5 is_stmt 1 view .LVU36
 144              	.LVL5:
 145              	.LBB50:
 146              	.LBI50:
 886:Drivers/STM32L0xx_HAL_Driver/Src/stm32l0xx_hal_rtc.c ****     sTime->Minutes = (uint8_t)RTC_Bcd2ToByte(sTime->Minutes);
 887:Drivers/STM32L0xx_HAL_Driver/Src/stm32l0xx_hal_rtc.c ****     sTime->Seconds = (uint8_t)RTC_Bcd2ToByte(sTime->Seconds);
 888:Drivers/STM32L0xx_HAL_Driver/Src/stm32l0xx_hal_rtc.c ****   }
 889:Drivers/STM32L0xx_HAL_Driver/Src/stm32l0xx_hal_rtc.c **** 
 890:Drivers/STM32L0xx_HAL_Driver/Src/stm32l0xx_hal_rtc.c ****   return HAL_OK;
 891:Drivers/STM32L0xx_HAL_Driver/Src/stm32l0xx_hal_rtc.c **** }
 892:Drivers/STM32L0xx_HAL_Driver/Src/stm32l0xx_hal_rtc.c **** 
 893:Drivers/STM32L0xx_HAL_Driver/Src/stm32l0xx_hal_rtc.c **** /**
 894:Drivers/STM32L0xx_HAL_Driver/Src/stm32l0xx_hal_rtc.c ****   * @brief  Set RTC current date.
 895:Drivers/STM32L0xx_HAL_Driver/Src/stm32l0xx_hal_rtc.c ****   * @param  hrtc RTC handle
 896:Drivers/STM32L0xx_HAL_Driver/Src/stm32l0xx_hal_rtc.c ****   * @param  sDate Pointer to date structure
 897:Drivers/STM32L0xx_HAL_Driver/Src/stm32l0xx_hal_rtc.c ****   * @param  Format specifies the format of the entered parameters.
 898:Drivers/STM32L0xx_HAL_Driver/Src/stm32l0xx_hal_rtc.c ****   *          This parameter can be one of the following values:
 899:Drivers/STM32L0xx_HAL_Driver/Src/stm32l0xx_hal_rtc.c ****   *            @arg RTC_FORMAT_BIN: Binary data format
 900:Drivers/STM32L0xx_HAL_Driver/Src/stm32l0xx_hal_rtc.c ****   *            @arg RTC_FORMAT_BCD: BCD data format
 901:Drivers/STM32L0xx_HAL_Driver/Src/stm32l0xx_hal_rtc.c ****   * @retval HAL status
 902:Drivers/STM32L0xx_HAL_Driver/Src/stm32l0xx_hal_rtc.c ****   */
 903:Drivers/STM32L0xx_HAL_Driver/Src/stm32l0xx_hal_rtc.c **** HAL_StatusTypeDef HAL_RTC_SetDate(RTC_HandleTypeDef *hrtc, RTC_DateTypeDef *sDate, uint32_t Format)
 904:Drivers/STM32L0xx_HAL_Driver/Src/stm32l0xx_hal_rtc.c **** {
 905:Drivers/STM32L0xx_HAL_Driver/Src/stm32l0xx_hal_rtc.c ****   uint32_t datetmpreg;
 906:Drivers/STM32L0xx_HAL_Driver/Src/stm32l0xx_hal_rtc.c **** 
 907:Drivers/STM32L0xx_HAL_Driver/Src/stm32l0xx_hal_rtc.c ****   /* Check the parameters */
 908:Drivers/STM32L0xx_HAL_Driver/Src/stm32l0xx_hal_rtc.c ****   assert_param(IS_RTC_FORMAT(Format));
 909:Drivers/STM32L0xx_HAL_Driver/Src/stm32l0xx_hal_rtc.c **** 
 910:Drivers/STM32L0xx_HAL_Driver/Src/stm32l0xx_hal_rtc.c ****   /* Process Locked */
 911:Drivers/STM32L0xx_HAL_Driver/Src/stm32l0xx_hal_rtc.c ****   __HAL_LOCK(hrtc);
 912:Drivers/STM32L0xx_HAL_Driver/Src/stm32l0xx_hal_rtc.c **** 
 913:Drivers/STM32L0xx_HAL_Driver/Src/stm32l0xx_hal_rtc.c ****   hrtc->State = HAL_RTC_STATE_BUSY;
 914:Drivers/STM32L0xx_HAL_Driver/Src/stm32l0xx_hal_rtc.c **** 
 915:Drivers/STM32L0xx_HAL_Driver/Src/stm32l0xx_hal_rtc.c ****   if ((Format == RTC_FORMAT_BIN) && ((sDate->Month & 0x10U) == 0x10U))
 916:Drivers/STM32L0xx_HAL_Driver/Src/stm32l0xx_hal_rtc.c ****   {
 917:Drivers/STM32L0xx_HAL_Driver/Src/stm32l0xx_hal_rtc.c ****     sDate->Month = (uint8_t)((sDate->Month & (uint8_t)~(0x10U)) + (uint8_t)0x0AU);
 918:Drivers/STM32L0xx_HAL_Driver/Src/stm32l0xx_hal_rtc.c ****   }
 919:Drivers/STM32L0xx_HAL_Driver/Src/stm32l0xx_hal_rtc.c **** 
 920:Drivers/STM32L0xx_HAL_Driver/Src/stm32l0xx_hal_rtc.c ****   assert_param(IS_RTC_WEEKDAY(sDate->WeekDay));
 921:Drivers/STM32L0xx_HAL_Driver/Src/stm32l0xx_hal_rtc.c **** 
ARM GAS  /tmp/ccAh8F5t.s 			page 20


 922:Drivers/STM32L0xx_HAL_Driver/Src/stm32l0xx_hal_rtc.c ****   if (Format == RTC_FORMAT_BIN)
 923:Drivers/STM32L0xx_HAL_Driver/Src/stm32l0xx_hal_rtc.c ****   {
 924:Drivers/STM32L0xx_HAL_Driver/Src/stm32l0xx_hal_rtc.c ****     assert_param(IS_RTC_YEAR(sDate->Year));
 925:Drivers/STM32L0xx_HAL_Driver/Src/stm32l0xx_hal_rtc.c ****     assert_param(IS_RTC_MONTH(sDate->Month));
 926:Drivers/STM32L0xx_HAL_Driver/Src/stm32l0xx_hal_rtc.c ****     assert_param(IS_RTC_DATE(sDate->Date));
 927:Drivers/STM32L0xx_HAL_Driver/Src/stm32l0xx_hal_rtc.c **** 
 928:Drivers/STM32L0xx_HAL_Driver/Src/stm32l0xx_hal_rtc.c ****     datetmpreg = (((uint32_t)RTC_ByteToBcd2(sDate->Year) << 16U) | \
 929:Drivers/STM32L0xx_HAL_Driver/Src/stm32l0xx_hal_rtc.c ****                   ((uint32_t)RTC_ByteToBcd2(sDate->Month) << 8U) | \
 930:Drivers/STM32L0xx_HAL_Driver/Src/stm32l0xx_hal_rtc.c ****                   ((uint32_t)RTC_ByteToBcd2(sDate->Date)) | \
 931:Drivers/STM32L0xx_HAL_Driver/Src/stm32l0xx_hal_rtc.c ****                   ((uint32_t)sDate->WeekDay << 13U));
 932:Drivers/STM32L0xx_HAL_Driver/Src/stm32l0xx_hal_rtc.c ****   }
 933:Drivers/STM32L0xx_HAL_Driver/Src/stm32l0xx_hal_rtc.c ****   else
 934:Drivers/STM32L0xx_HAL_Driver/Src/stm32l0xx_hal_rtc.c ****   {
 935:Drivers/STM32L0xx_HAL_Driver/Src/stm32l0xx_hal_rtc.c ****     assert_param(IS_RTC_YEAR(RTC_Bcd2ToByte(sDate->Year)));
 936:Drivers/STM32L0xx_HAL_Driver/Src/stm32l0xx_hal_rtc.c ****     assert_param(IS_RTC_MONTH(RTC_Bcd2ToByte(sDate->Month)));
 937:Drivers/STM32L0xx_HAL_Driver/Src/stm32l0xx_hal_rtc.c ****     assert_param(IS_RTC_DATE(RTC_Bcd2ToByte(sDate->Date)));
 938:Drivers/STM32L0xx_HAL_Driver/Src/stm32l0xx_hal_rtc.c **** 
 939:Drivers/STM32L0xx_HAL_Driver/Src/stm32l0xx_hal_rtc.c ****     datetmpreg = ((((uint32_t)sDate->Year) << 16U) | \
 940:Drivers/STM32L0xx_HAL_Driver/Src/stm32l0xx_hal_rtc.c ****                   (((uint32_t)sDate->Month) << 8U) | \
 941:Drivers/STM32L0xx_HAL_Driver/Src/stm32l0xx_hal_rtc.c ****                   ((uint32_t)sDate->Date) | \
 942:Drivers/STM32L0xx_HAL_Driver/Src/stm32l0xx_hal_rtc.c ****                   (((uint32_t)sDate->WeekDay) << 13U));
 943:Drivers/STM32L0xx_HAL_Driver/Src/stm32l0xx_hal_rtc.c ****   }
 944:Drivers/STM32L0xx_HAL_Driver/Src/stm32l0xx_hal_rtc.c **** 
 945:Drivers/STM32L0xx_HAL_Driver/Src/stm32l0xx_hal_rtc.c ****   /* Disable the write protection for RTC registers */
 946:Drivers/STM32L0xx_HAL_Driver/Src/stm32l0xx_hal_rtc.c ****   __HAL_RTC_WRITEPROTECTION_DISABLE(hrtc);
 947:Drivers/STM32L0xx_HAL_Driver/Src/stm32l0xx_hal_rtc.c **** 
 948:Drivers/STM32L0xx_HAL_Driver/Src/stm32l0xx_hal_rtc.c ****   /* Set Initialization mode */
 949:Drivers/STM32L0xx_HAL_Driver/Src/stm32l0xx_hal_rtc.c ****   if (RTC_EnterInitMode(hrtc) != HAL_OK)
 950:Drivers/STM32L0xx_HAL_Driver/Src/stm32l0xx_hal_rtc.c ****   {
 951:Drivers/STM32L0xx_HAL_Driver/Src/stm32l0xx_hal_rtc.c ****     /* Enable the write protection for RTC registers */
 952:Drivers/STM32L0xx_HAL_Driver/Src/stm32l0xx_hal_rtc.c ****     __HAL_RTC_WRITEPROTECTION_ENABLE(hrtc);
 953:Drivers/STM32L0xx_HAL_Driver/Src/stm32l0xx_hal_rtc.c **** 
 954:Drivers/STM32L0xx_HAL_Driver/Src/stm32l0xx_hal_rtc.c ****     /* Set RTC state*/
 955:Drivers/STM32L0xx_HAL_Driver/Src/stm32l0xx_hal_rtc.c ****     hrtc->State = HAL_RTC_STATE_ERROR;
 956:Drivers/STM32L0xx_HAL_Driver/Src/stm32l0xx_hal_rtc.c **** 
 957:Drivers/STM32L0xx_HAL_Driver/Src/stm32l0xx_hal_rtc.c ****     /* Process Unlocked */
 958:Drivers/STM32L0xx_HAL_Driver/Src/stm32l0xx_hal_rtc.c ****     __HAL_UNLOCK(hrtc);
 959:Drivers/STM32L0xx_HAL_Driver/Src/stm32l0xx_hal_rtc.c **** 
 960:Drivers/STM32L0xx_HAL_Driver/Src/stm32l0xx_hal_rtc.c ****     return HAL_ERROR;
 961:Drivers/STM32L0xx_HAL_Driver/Src/stm32l0xx_hal_rtc.c ****   }
 962:Drivers/STM32L0xx_HAL_Driver/Src/stm32l0xx_hal_rtc.c ****   else
 963:Drivers/STM32L0xx_HAL_Driver/Src/stm32l0xx_hal_rtc.c ****   {
 964:Drivers/STM32L0xx_HAL_Driver/Src/stm32l0xx_hal_rtc.c ****     /* Set the RTC_DR register */
 965:Drivers/STM32L0xx_HAL_Driver/Src/stm32l0xx_hal_rtc.c ****     hrtc->Instance->DR = (uint32_t)(datetmpreg & RTC_DR_RESERVED_MASK);
 966:Drivers/STM32L0xx_HAL_Driver/Src/stm32l0xx_hal_rtc.c **** 
 967:Drivers/STM32L0xx_HAL_Driver/Src/stm32l0xx_hal_rtc.c ****     /* Exit Initialization mode */
 968:Drivers/STM32L0xx_HAL_Driver/Src/stm32l0xx_hal_rtc.c ****     hrtc->Instance->ISR &= ((uint32_t)~RTC_ISR_INIT);
 969:Drivers/STM32L0xx_HAL_Driver/Src/stm32l0xx_hal_rtc.c **** 
 970:Drivers/STM32L0xx_HAL_Driver/Src/stm32l0xx_hal_rtc.c ****     /* If  CR_BYPSHAD bit = 0, wait for synchro else this check is not needed */
 971:Drivers/STM32L0xx_HAL_Driver/Src/stm32l0xx_hal_rtc.c ****     if ((hrtc->Instance->CR & RTC_CR_BYPSHAD) == 0U)
 972:Drivers/STM32L0xx_HAL_Driver/Src/stm32l0xx_hal_rtc.c ****     {
 973:Drivers/STM32L0xx_HAL_Driver/Src/stm32l0xx_hal_rtc.c ****       if (HAL_RTC_WaitForSynchro(hrtc) != HAL_OK)
 974:Drivers/STM32L0xx_HAL_Driver/Src/stm32l0xx_hal_rtc.c ****       {
 975:Drivers/STM32L0xx_HAL_Driver/Src/stm32l0xx_hal_rtc.c ****         /* Enable the write protection for RTC registers */
 976:Drivers/STM32L0xx_HAL_Driver/Src/stm32l0xx_hal_rtc.c ****         __HAL_RTC_WRITEPROTECTION_ENABLE(hrtc);
 977:Drivers/STM32L0xx_HAL_Driver/Src/stm32l0xx_hal_rtc.c **** 
 978:Drivers/STM32L0xx_HAL_Driver/Src/stm32l0xx_hal_rtc.c ****         hrtc->State = HAL_RTC_STATE_ERROR;
ARM GAS  /tmp/ccAh8F5t.s 			page 21


 979:Drivers/STM32L0xx_HAL_Driver/Src/stm32l0xx_hal_rtc.c **** 
 980:Drivers/STM32L0xx_HAL_Driver/Src/stm32l0xx_hal_rtc.c ****         /* Process Unlocked */
 981:Drivers/STM32L0xx_HAL_Driver/Src/stm32l0xx_hal_rtc.c ****         __HAL_UNLOCK(hrtc);
 982:Drivers/STM32L0xx_HAL_Driver/Src/stm32l0xx_hal_rtc.c **** 
 983:Drivers/STM32L0xx_HAL_Driver/Src/stm32l0xx_hal_rtc.c ****         return HAL_ERROR;
 984:Drivers/STM32L0xx_HAL_Driver/Src/stm32l0xx_hal_rtc.c ****       }
 985:Drivers/STM32L0xx_HAL_Driver/Src/stm32l0xx_hal_rtc.c ****     }
 986:Drivers/STM32L0xx_HAL_Driver/Src/stm32l0xx_hal_rtc.c **** 
 987:Drivers/STM32L0xx_HAL_Driver/Src/stm32l0xx_hal_rtc.c ****     /* Enable the write protection for RTC registers */
 988:Drivers/STM32L0xx_HAL_Driver/Src/stm32l0xx_hal_rtc.c ****     __HAL_RTC_WRITEPROTECTION_ENABLE(hrtc);
 989:Drivers/STM32L0xx_HAL_Driver/Src/stm32l0xx_hal_rtc.c **** 
 990:Drivers/STM32L0xx_HAL_Driver/Src/stm32l0xx_hal_rtc.c ****     hrtc->State = HAL_RTC_STATE_READY ;
 991:Drivers/STM32L0xx_HAL_Driver/Src/stm32l0xx_hal_rtc.c **** 
 992:Drivers/STM32L0xx_HAL_Driver/Src/stm32l0xx_hal_rtc.c ****     /* Process Unlocked */
 993:Drivers/STM32L0xx_HAL_Driver/Src/stm32l0xx_hal_rtc.c ****     __HAL_UNLOCK(hrtc);
 994:Drivers/STM32L0xx_HAL_Driver/Src/stm32l0xx_hal_rtc.c **** 
 995:Drivers/STM32L0xx_HAL_Driver/Src/stm32l0xx_hal_rtc.c ****     return HAL_OK;
 996:Drivers/STM32L0xx_HAL_Driver/Src/stm32l0xx_hal_rtc.c ****   }
 997:Drivers/STM32L0xx_HAL_Driver/Src/stm32l0xx_hal_rtc.c **** }
 998:Drivers/STM32L0xx_HAL_Driver/Src/stm32l0xx_hal_rtc.c **** 
 999:Drivers/STM32L0xx_HAL_Driver/Src/stm32l0xx_hal_rtc.c **** /**
1000:Drivers/STM32L0xx_HAL_Driver/Src/stm32l0xx_hal_rtc.c ****   * @brief  Get RTC current date.
1001:Drivers/STM32L0xx_HAL_Driver/Src/stm32l0xx_hal_rtc.c ****   * @param  hrtc RTC handle
1002:Drivers/STM32L0xx_HAL_Driver/Src/stm32l0xx_hal_rtc.c ****   * @param  sDate Pointer to Date structure
1003:Drivers/STM32L0xx_HAL_Driver/Src/stm32l0xx_hal_rtc.c ****   * @param  Format Specifies the format of the entered parameters.
1004:Drivers/STM32L0xx_HAL_Driver/Src/stm32l0xx_hal_rtc.c ****   *          This parameter can be one of the following values:
1005:Drivers/STM32L0xx_HAL_Driver/Src/stm32l0xx_hal_rtc.c ****   *            @arg RTC_FORMAT_BIN:  Binary data format
1006:Drivers/STM32L0xx_HAL_Driver/Src/stm32l0xx_hal_rtc.c ****   *            @arg RTC_FORMAT_BCD:  BCD data format
1007:Drivers/STM32L0xx_HAL_Driver/Src/stm32l0xx_hal_rtc.c ****   * @note  You must call HAL_RTC_GetDate() after HAL_RTC_GetTime() to unlock the values
1008:Drivers/STM32L0xx_HAL_Driver/Src/stm32l0xx_hal_rtc.c ****   *        in the higher-order calendar shadow registers to ensure consistency between the time and
1009:Drivers/STM32L0xx_HAL_Driver/Src/stm32l0xx_hal_rtc.c ****   *        Reading RTC current time locks the values in calendar shadow registers until Current dat
1010:Drivers/STM32L0xx_HAL_Driver/Src/stm32l0xx_hal_rtc.c ****   * @retval HAL status
1011:Drivers/STM32L0xx_HAL_Driver/Src/stm32l0xx_hal_rtc.c ****   */
1012:Drivers/STM32L0xx_HAL_Driver/Src/stm32l0xx_hal_rtc.c **** HAL_StatusTypeDef HAL_RTC_GetDate(RTC_HandleTypeDef *hrtc, RTC_DateTypeDef *sDate, uint32_t Format)
1013:Drivers/STM32L0xx_HAL_Driver/Src/stm32l0xx_hal_rtc.c **** {
1014:Drivers/STM32L0xx_HAL_Driver/Src/stm32l0xx_hal_rtc.c ****   uint32_t datetmpreg;
1015:Drivers/STM32L0xx_HAL_Driver/Src/stm32l0xx_hal_rtc.c **** 
1016:Drivers/STM32L0xx_HAL_Driver/Src/stm32l0xx_hal_rtc.c ****   /* Check the parameters */
1017:Drivers/STM32L0xx_HAL_Driver/Src/stm32l0xx_hal_rtc.c ****   assert_param(IS_RTC_FORMAT(Format));
1018:Drivers/STM32L0xx_HAL_Driver/Src/stm32l0xx_hal_rtc.c **** 
1019:Drivers/STM32L0xx_HAL_Driver/Src/stm32l0xx_hal_rtc.c ****   /* Get the DR register */
1020:Drivers/STM32L0xx_HAL_Driver/Src/stm32l0xx_hal_rtc.c ****   datetmpreg = (uint32_t)(hrtc->Instance->DR & RTC_DR_RESERVED_MASK);
1021:Drivers/STM32L0xx_HAL_Driver/Src/stm32l0xx_hal_rtc.c **** 
1022:Drivers/STM32L0xx_HAL_Driver/Src/stm32l0xx_hal_rtc.c ****   /* Fill the structure fields with the read parameters */
1023:Drivers/STM32L0xx_HAL_Driver/Src/stm32l0xx_hal_rtc.c ****   sDate->Year = (uint8_t)((datetmpreg & (RTC_DR_YT | RTC_DR_YU)) >> 16U);
1024:Drivers/STM32L0xx_HAL_Driver/Src/stm32l0xx_hal_rtc.c ****   sDate->Month = (uint8_t)((datetmpreg & (RTC_DR_MT | RTC_DR_MU)) >> 8U);
1025:Drivers/STM32L0xx_HAL_Driver/Src/stm32l0xx_hal_rtc.c ****   sDate->Date = (uint8_t)(datetmpreg & (RTC_DR_DT | RTC_DR_DU));
1026:Drivers/STM32L0xx_HAL_Driver/Src/stm32l0xx_hal_rtc.c ****   sDate->WeekDay = (uint8_t)((datetmpreg & (RTC_DR_WDU)) >> 13U);
1027:Drivers/STM32L0xx_HAL_Driver/Src/stm32l0xx_hal_rtc.c **** 
1028:Drivers/STM32L0xx_HAL_Driver/Src/stm32l0xx_hal_rtc.c ****   /* Check the input parameters format */
1029:Drivers/STM32L0xx_HAL_Driver/Src/stm32l0xx_hal_rtc.c ****   if (Format == RTC_FORMAT_BIN)
1030:Drivers/STM32L0xx_HAL_Driver/Src/stm32l0xx_hal_rtc.c ****   {
1031:Drivers/STM32L0xx_HAL_Driver/Src/stm32l0xx_hal_rtc.c ****     /* Convert the date structure parameters to Binary format */
1032:Drivers/STM32L0xx_HAL_Driver/Src/stm32l0xx_hal_rtc.c ****     sDate->Year = (uint8_t)RTC_Bcd2ToByte(sDate->Year);
1033:Drivers/STM32L0xx_HAL_Driver/Src/stm32l0xx_hal_rtc.c ****     sDate->Month = (uint8_t)RTC_Bcd2ToByte(sDate->Month);
1034:Drivers/STM32L0xx_HAL_Driver/Src/stm32l0xx_hal_rtc.c ****     sDate->Date = (uint8_t)RTC_Bcd2ToByte(sDate->Date);
1035:Drivers/STM32L0xx_HAL_Driver/Src/stm32l0xx_hal_rtc.c ****   }
ARM GAS  /tmp/ccAh8F5t.s 			page 22


1036:Drivers/STM32L0xx_HAL_Driver/Src/stm32l0xx_hal_rtc.c ****   return HAL_OK;
1037:Drivers/STM32L0xx_HAL_Driver/Src/stm32l0xx_hal_rtc.c **** }
1038:Drivers/STM32L0xx_HAL_Driver/Src/stm32l0xx_hal_rtc.c **** 
1039:Drivers/STM32L0xx_HAL_Driver/Src/stm32l0xx_hal_rtc.c **** /**
1040:Drivers/STM32L0xx_HAL_Driver/Src/stm32l0xx_hal_rtc.c ****   * @}
1041:Drivers/STM32L0xx_HAL_Driver/Src/stm32l0xx_hal_rtc.c ****   */
1042:Drivers/STM32L0xx_HAL_Driver/Src/stm32l0xx_hal_rtc.c **** 
1043:Drivers/STM32L0xx_HAL_Driver/Src/stm32l0xx_hal_rtc.c **** /** @addtogroup RTC_Exported_Functions_Group3
1044:Drivers/STM32L0xx_HAL_Driver/Src/stm32l0xx_hal_rtc.c ****  *  @brief   RTC Alarm functions
1045:Drivers/STM32L0xx_HAL_Driver/Src/stm32l0xx_hal_rtc.c ****  *
1046:Drivers/STM32L0xx_HAL_Driver/Src/stm32l0xx_hal_rtc.c **** @verbatim
1047:Drivers/STM32L0xx_HAL_Driver/Src/stm32l0xx_hal_rtc.c ****  ===============================================================================
1048:Drivers/STM32L0xx_HAL_Driver/Src/stm32l0xx_hal_rtc.c ****                  ##### RTC Alarm functions #####
1049:Drivers/STM32L0xx_HAL_Driver/Src/stm32l0xx_hal_rtc.c ****  ===============================================================================
1050:Drivers/STM32L0xx_HAL_Driver/Src/stm32l0xx_hal_rtc.c **** 
1051:Drivers/STM32L0xx_HAL_Driver/Src/stm32l0xx_hal_rtc.c ****  [..] This section provides functions allowing to configure Alarm feature
1052:Drivers/STM32L0xx_HAL_Driver/Src/stm32l0xx_hal_rtc.c **** 
1053:Drivers/STM32L0xx_HAL_Driver/Src/stm32l0xx_hal_rtc.c **** @endverbatim
1054:Drivers/STM32L0xx_HAL_Driver/Src/stm32l0xx_hal_rtc.c ****   * @{
1055:Drivers/STM32L0xx_HAL_Driver/Src/stm32l0xx_hal_rtc.c ****   */
1056:Drivers/STM32L0xx_HAL_Driver/Src/stm32l0xx_hal_rtc.c **** /**
1057:Drivers/STM32L0xx_HAL_Driver/Src/stm32l0xx_hal_rtc.c ****   * @brief  Set the specified RTC Alarm.
1058:Drivers/STM32L0xx_HAL_Driver/Src/stm32l0xx_hal_rtc.c ****   * @param  hrtc RTC handle
1059:Drivers/STM32L0xx_HAL_Driver/Src/stm32l0xx_hal_rtc.c ****   * @param  sAlarm Pointer to Alarm structure
1060:Drivers/STM32L0xx_HAL_Driver/Src/stm32l0xx_hal_rtc.c ****   * @param  Format Specifies the format of the entered parameters.
1061:Drivers/STM32L0xx_HAL_Driver/Src/stm32l0xx_hal_rtc.c ****   *          This parameter can be one of the following values:
1062:Drivers/STM32L0xx_HAL_Driver/Src/stm32l0xx_hal_rtc.c ****   *             @arg RTC_FORMAT_BIN: Binary data format
1063:Drivers/STM32L0xx_HAL_Driver/Src/stm32l0xx_hal_rtc.c ****   *             @arg RTC_FORMAT_BCD: BCD data format
1064:Drivers/STM32L0xx_HAL_Driver/Src/stm32l0xx_hal_rtc.c ****   * @retval HAL status
1065:Drivers/STM32L0xx_HAL_Driver/Src/stm32l0xx_hal_rtc.c ****   */
1066:Drivers/STM32L0xx_HAL_Driver/Src/stm32l0xx_hal_rtc.c **** HAL_StatusTypeDef HAL_RTC_SetAlarm(RTC_HandleTypeDef *hrtc, RTC_AlarmTypeDef *sAlarm, uint32_t Form
1067:Drivers/STM32L0xx_HAL_Driver/Src/stm32l0xx_hal_rtc.c **** {
1068:Drivers/STM32L0xx_HAL_Driver/Src/stm32l0xx_hal_rtc.c ****   uint32_t tickstart;
1069:Drivers/STM32L0xx_HAL_Driver/Src/stm32l0xx_hal_rtc.c ****   uint32_t tmpreg, subsecondtmpreg;
1070:Drivers/STM32L0xx_HAL_Driver/Src/stm32l0xx_hal_rtc.c **** 
1071:Drivers/STM32L0xx_HAL_Driver/Src/stm32l0xx_hal_rtc.c ****   /* Check the parameters */
1072:Drivers/STM32L0xx_HAL_Driver/Src/stm32l0xx_hal_rtc.c ****   assert_param(IS_RTC_FORMAT(Format));
1073:Drivers/STM32L0xx_HAL_Driver/Src/stm32l0xx_hal_rtc.c ****   assert_param(IS_RTC_ALARM(sAlarm->Alarm));
1074:Drivers/STM32L0xx_HAL_Driver/Src/stm32l0xx_hal_rtc.c ****   assert_param(IS_RTC_ALARM_MASK(sAlarm->AlarmMask));
1075:Drivers/STM32L0xx_HAL_Driver/Src/stm32l0xx_hal_rtc.c ****   assert_param(IS_RTC_ALARM_DATE_WEEKDAY_SEL(sAlarm->AlarmDateWeekDaySel));
1076:Drivers/STM32L0xx_HAL_Driver/Src/stm32l0xx_hal_rtc.c ****   assert_param(IS_RTC_ALARM_SUB_SECOND_VALUE(sAlarm->AlarmTime.SubSeconds));
1077:Drivers/STM32L0xx_HAL_Driver/Src/stm32l0xx_hal_rtc.c ****   assert_param(IS_RTC_ALARM_SUB_SECOND_MASK(sAlarm->AlarmSubSecondMask));
1078:Drivers/STM32L0xx_HAL_Driver/Src/stm32l0xx_hal_rtc.c **** 
1079:Drivers/STM32L0xx_HAL_Driver/Src/stm32l0xx_hal_rtc.c ****   /* Process Locked */
1080:Drivers/STM32L0xx_HAL_Driver/Src/stm32l0xx_hal_rtc.c ****   __HAL_LOCK(hrtc);
1081:Drivers/STM32L0xx_HAL_Driver/Src/stm32l0xx_hal_rtc.c **** 
1082:Drivers/STM32L0xx_HAL_Driver/Src/stm32l0xx_hal_rtc.c ****   hrtc->State = HAL_RTC_STATE_BUSY;
1083:Drivers/STM32L0xx_HAL_Driver/Src/stm32l0xx_hal_rtc.c **** 
1084:Drivers/STM32L0xx_HAL_Driver/Src/stm32l0xx_hal_rtc.c ****   if (Format == RTC_FORMAT_BIN)
1085:Drivers/STM32L0xx_HAL_Driver/Src/stm32l0xx_hal_rtc.c ****   {
1086:Drivers/STM32L0xx_HAL_Driver/Src/stm32l0xx_hal_rtc.c ****     if ((hrtc->Instance->CR & RTC_CR_FMT) != 0U)
1087:Drivers/STM32L0xx_HAL_Driver/Src/stm32l0xx_hal_rtc.c ****     {
1088:Drivers/STM32L0xx_HAL_Driver/Src/stm32l0xx_hal_rtc.c ****       assert_param(IS_RTC_HOUR12(sAlarm->AlarmTime.Hours));
1089:Drivers/STM32L0xx_HAL_Driver/Src/stm32l0xx_hal_rtc.c ****       assert_param(IS_RTC_HOURFORMAT12(sAlarm->AlarmTime.TimeFormat));
1090:Drivers/STM32L0xx_HAL_Driver/Src/stm32l0xx_hal_rtc.c ****     }
1091:Drivers/STM32L0xx_HAL_Driver/Src/stm32l0xx_hal_rtc.c ****     else
1092:Drivers/STM32L0xx_HAL_Driver/Src/stm32l0xx_hal_rtc.c ****     {
ARM GAS  /tmp/ccAh8F5t.s 			page 23


1093:Drivers/STM32L0xx_HAL_Driver/Src/stm32l0xx_hal_rtc.c ****       sAlarm->AlarmTime.TimeFormat = 0x00U;
1094:Drivers/STM32L0xx_HAL_Driver/Src/stm32l0xx_hal_rtc.c ****       assert_param(IS_RTC_HOUR24(sAlarm->AlarmTime.Hours));
1095:Drivers/STM32L0xx_HAL_Driver/Src/stm32l0xx_hal_rtc.c ****     }
1096:Drivers/STM32L0xx_HAL_Driver/Src/stm32l0xx_hal_rtc.c ****     assert_param(IS_RTC_MINUTES(sAlarm->AlarmTime.Minutes));
1097:Drivers/STM32L0xx_HAL_Driver/Src/stm32l0xx_hal_rtc.c ****     assert_param(IS_RTC_SECONDS(sAlarm->AlarmTime.Seconds));
1098:Drivers/STM32L0xx_HAL_Driver/Src/stm32l0xx_hal_rtc.c **** 
1099:Drivers/STM32L0xx_HAL_Driver/Src/stm32l0xx_hal_rtc.c ****     if (sAlarm->AlarmDateWeekDaySel == RTC_ALARMDATEWEEKDAYSEL_DATE)
1100:Drivers/STM32L0xx_HAL_Driver/Src/stm32l0xx_hal_rtc.c ****     {
1101:Drivers/STM32L0xx_HAL_Driver/Src/stm32l0xx_hal_rtc.c ****       assert_param(IS_RTC_ALARM_DATE_WEEKDAY_DATE(sAlarm->AlarmDateWeekDay));
1102:Drivers/STM32L0xx_HAL_Driver/Src/stm32l0xx_hal_rtc.c ****     }
1103:Drivers/STM32L0xx_HAL_Driver/Src/stm32l0xx_hal_rtc.c ****     else
1104:Drivers/STM32L0xx_HAL_Driver/Src/stm32l0xx_hal_rtc.c ****     {
1105:Drivers/STM32L0xx_HAL_Driver/Src/stm32l0xx_hal_rtc.c ****       assert_param(IS_RTC_ALARM_DATE_WEEKDAY_WEEKDAY(sAlarm->AlarmDateWeekDay));
1106:Drivers/STM32L0xx_HAL_Driver/Src/stm32l0xx_hal_rtc.c ****     }
1107:Drivers/STM32L0xx_HAL_Driver/Src/stm32l0xx_hal_rtc.c **** 
1108:Drivers/STM32L0xx_HAL_Driver/Src/stm32l0xx_hal_rtc.c ****     tmpreg = (((uint32_t)RTC_ByteToBcd2(sAlarm->AlarmTime.Hours) << 16U) | \
1109:Drivers/STM32L0xx_HAL_Driver/Src/stm32l0xx_hal_rtc.c ****               ((uint32_t)RTC_ByteToBcd2(sAlarm->AlarmTime.Minutes) << 8U) | \
1110:Drivers/STM32L0xx_HAL_Driver/Src/stm32l0xx_hal_rtc.c ****               ((uint32_t)RTC_ByteToBcd2(sAlarm->AlarmTime.Seconds)) | \
1111:Drivers/STM32L0xx_HAL_Driver/Src/stm32l0xx_hal_rtc.c ****               ((uint32_t)(sAlarm->AlarmTime.TimeFormat) << 16U) | \
1112:Drivers/STM32L0xx_HAL_Driver/Src/stm32l0xx_hal_rtc.c ****               ((uint32_t)RTC_ByteToBcd2(sAlarm->AlarmDateWeekDay) << 24U) | \
1113:Drivers/STM32L0xx_HAL_Driver/Src/stm32l0xx_hal_rtc.c ****               ((uint32_t)sAlarm->AlarmDateWeekDaySel) | \
1114:Drivers/STM32L0xx_HAL_Driver/Src/stm32l0xx_hal_rtc.c ****               ((uint32_t)sAlarm->AlarmMask));
1115:Drivers/STM32L0xx_HAL_Driver/Src/stm32l0xx_hal_rtc.c ****   }
1116:Drivers/STM32L0xx_HAL_Driver/Src/stm32l0xx_hal_rtc.c ****   else
1117:Drivers/STM32L0xx_HAL_Driver/Src/stm32l0xx_hal_rtc.c ****   {
1118:Drivers/STM32L0xx_HAL_Driver/Src/stm32l0xx_hal_rtc.c ****     if ((hrtc->Instance->CR & RTC_CR_FMT) != 0U)
1119:Drivers/STM32L0xx_HAL_Driver/Src/stm32l0xx_hal_rtc.c ****     {
1120:Drivers/STM32L0xx_HAL_Driver/Src/stm32l0xx_hal_rtc.c ****       assert_param(IS_RTC_HOUR12(RTC_Bcd2ToByte(sAlarm->AlarmTime.Hours)));
1121:Drivers/STM32L0xx_HAL_Driver/Src/stm32l0xx_hal_rtc.c ****       assert_param(IS_RTC_HOURFORMAT12(sAlarm->AlarmTime.TimeFormat));
1122:Drivers/STM32L0xx_HAL_Driver/Src/stm32l0xx_hal_rtc.c ****     }
1123:Drivers/STM32L0xx_HAL_Driver/Src/stm32l0xx_hal_rtc.c ****     else
1124:Drivers/STM32L0xx_HAL_Driver/Src/stm32l0xx_hal_rtc.c ****     {
1125:Drivers/STM32L0xx_HAL_Driver/Src/stm32l0xx_hal_rtc.c ****       sAlarm->AlarmTime.TimeFormat = 0x00U;
1126:Drivers/STM32L0xx_HAL_Driver/Src/stm32l0xx_hal_rtc.c ****       assert_param(IS_RTC_HOUR24(RTC_Bcd2ToByte(sAlarm->AlarmTime.Hours)));
1127:Drivers/STM32L0xx_HAL_Driver/Src/stm32l0xx_hal_rtc.c ****     }
1128:Drivers/STM32L0xx_HAL_Driver/Src/stm32l0xx_hal_rtc.c **** 
1129:Drivers/STM32L0xx_HAL_Driver/Src/stm32l0xx_hal_rtc.c ****     assert_param(IS_RTC_MINUTES(RTC_Bcd2ToByte(sAlarm->AlarmTime.Minutes)));
1130:Drivers/STM32L0xx_HAL_Driver/Src/stm32l0xx_hal_rtc.c ****     assert_param(IS_RTC_SECONDS(RTC_Bcd2ToByte(sAlarm->AlarmTime.Seconds)));
1131:Drivers/STM32L0xx_HAL_Driver/Src/stm32l0xx_hal_rtc.c **** 
1132:Drivers/STM32L0xx_HAL_Driver/Src/stm32l0xx_hal_rtc.c ****     if (sAlarm->AlarmDateWeekDaySel == RTC_ALARMDATEWEEKDAYSEL_DATE)
1133:Drivers/STM32L0xx_HAL_Driver/Src/stm32l0xx_hal_rtc.c ****     {
1134:Drivers/STM32L0xx_HAL_Driver/Src/stm32l0xx_hal_rtc.c ****       assert_param(IS_RTC_ALARM_DATE_WEEKDAY_DATE(RTC_Bcd2ToByte(sAlarm->AlarmDateWeekDay)));
1135:Drivers/STM32L0xx_HAL_Driver/Src/stm32l0xx_hal_rtc.c ****     }
1136:Drivers/STM32L0xx_HAL_Driver/Src/stm32l0xx_hal_rtc.c ****     else
1137:Drivers/STM32L0xx_HAL_Driver/Src/stm32l0xx_hal_rtc.c ****     {
1138:Drivers/STM32L0xx_HAL_Driver/Src/stm32l0xx_hal_rtc.c ****       assert_param(IS_RTC_ALARM_DATE_WEEKDAY_WEEKDAY(RTC_Bcd2ToByte(sAlarm->AlarmDateWeekDay)));
1139:Drivers/STM32L0xx_HAL_Driver/Src/stm32l0xx_hal_rtc.c ****     }
1140:Drivers/STM32L0xx_HAL_Driver/Src/stm32l0xx_hal_rtc.c **** 
1141:Drivers/STM32L0xx_HAL_Driver/Src/stm32l0xx_hal_rtc.c ****     tmpreg = (((uint32_t)(sAlarm->AlarmTime.Hours) << 16U) | \
1142:Drivers/STM32L0xx_HAL_Driver/Src/stm32l0xx_hal_rtc.c ****               ((uint32_t)(sAlarm->AlarmTime.Minutes) << 8U) | \
1143:Drivers/STM32L0xx_HAL_Driver/Src/stm32l0xx_hal_rtc.c ****               ((uint32_t) sAlarm->AlarmTime.Seconds) | \
1144:Drivers/STM32L0xx_HAL_Driver/Src/stm32l0xx_hal_rtc.c ****               ((uint32_t)(sAlarm->AlarmTime.TimeFormat) << 16U) | \
1145:Drivers/STM32L0xx_HAL_Driver/Src/stm32l0xx_hal_rtc.c ****               ((uint32_t)(sAlarm->AlarmDateWeekDay) << 24U) | \
1146:Drivers/STM32L0xx_HAL_Driver/Src/stm32l0xx_hal_rtc.c ****               ((uint32_t)sAlarm->AlarmDateWeekDaySel) | \
1147:Drivers/STM32L0xx_HAL_Driver/Src/stm32l0xx_hal_rtc.c ****               ((uint32_t)sAlarm->AlarmMask));
1148:Drivers/STM32L0xx_HAL_Driver/Src/stm32l0xx_hal_rtc.c ****   }
1149:Drivers/STM32L0xx_HAL_Driver/Src/stm32l0xx_hal_rtc.c **** 
ARM GAS  /tmp/ccAh8F5t.s 			page 24


1150:Drivers/STM32L0xx_HAL_Driver/Src/stm32l0xx_hal_rtc.c ****   /* Configure the Alarm A or Alarm B Sub Second registers */
1151:Drivers/STM32L0xx_HAL_Driver/Src/stm32l0xx_hal_rtc.c ****   subsecondtmpreg = (uint32_t)((uint32_t)(sAlarm->AlarmTime.SubSeconds) | (uint32_t)(sAlarm->AlarmS
1152:Drivers/STM32L0xx_HAL_Driver/Src/stm32l0xx_hal_rtc.c **** 
1153:Drivers/STM32L0xx_HAL_Driver/Src/stm32l0xx_hal_rtc.c ****   /* Disable the write protection for RTC registers */
1154:Drivers/STM32L0xx_HAL_Driver/Src/stm32l0xx_hal_rtc.c ****   __HAL_RTC_WRITEPROTECTION_DISABLE(hrtc);
1155:Drivers/STM32L0xx_HAL_Driver/Src/stm32l0xx_hal_rtc.c **** 
1156:Drivers/STM32L0xx_HAL_Driver/Src/stm32l0xx_hal_rtc.c ****   /* Configure the Alarm register */
1157:Drivers/STM32L0xx_HAL_Driver/Src/stm32l0xx_hal_rtc.c ****   if (sAlarm->Alarm == RTC_ALARM_A)
1158:Drivers/STM32L0xx_HAL_Driver/Src/stm32l0xx_hal_rtc.c ****   {
1159:Drivers/STM32L0xx_HAL_Driver/Src/stm32l0xx_hal_rtc.c ****     /* Disable the Alarm A interrupt */
1160:Drivers/STM32L0xx_HAL_Driver/Src/stm32l0xx_hal_rtc.c ****     __HAL_RTC_ALARMA_DISABLE(hrtc);
1161:Drivers/STM32L0xx_HAL_Driver/Src/stm32l0xx_hal_rtc.c **** 
1162:Drivers/STM32L0xx_HAL_Driver/Src/stm32l0xx_hal_rtc.c ****     /* In case of interrupt mode is used, the interrupt source must disabled */
1163:Drivers/STM32L0xx_HAL_Driver/Src/stm32l0xx_hal_rtc.c ****     __HAL_RTC_ALARM_DISABLE_IT(hrtc, RTC_IT_ALRA);
1164:Drivers/STM32L0xx_HAL_Driver/Src/stm32l0xx_hal_rtc.c **** 
1165:Drivers/STM32L0xx_HAL_Driver/Src/stm32l0xx_hal_rtc.c ****     tickstart = HAL_GetTick();
1166:Drivers/STM32L0xx_HAL_Driver/Src/stm32l0xx_hal_rtc.c ****     /* Wait till RTC ALRAWF flag is set and if Time out is reached exit */
1167:Drivers/STM32L0xx_HAL_Driver/Src/stm32l0xx_hal_rtc.c ****     while (__HAL_RTC_ALARM_GET_FLAG(hrtc, RTC_FLAG_ALRAWF) == 0U)
1168:Drivers/STM32L0xx_HAL_Driver/Src/stm32l0xx_hal_rtc.c ****     {
1169:Drivers/STM32L0xx_HAL_Driver/Src/stm32l0xx_hal_rtc.c ****       if ((HAL_GetTick() - tickstart) > RTC_TIMEOUT_VALUE)
1170:Drivers/STM32L0xx_HAL_Driver/Src/stm32l0xx_hal_rtc.c ****       {
1171:Drivers/STM32L0xx_HAL_Driver/Src/stm32l0xx_hal_rtc.c ****         /* Enable the write protection for RTC registers */
1172:Drivers/STM32L0xx_HAL_Driver/Src/stm32l0xx_hal_rtc.c ****         __HAL_RTC_WRITEPROTECTION_ENABLE(hrtc);
1173:Drivers/STM32L0xx_HAL_Driver/Src/stm32l0xx_hal_rtc.c **** 
1174:Drivers/STM32L0xx_HAL_Driver/Src/stm32l0xx_hal_rtc.c ****         hrtc->State = HAL_RTC_STATE_TIMEOUT;
1175:Drivers/STM32L0xx_HAL_Driver/Src/stm32l0xx_hal_rtc.c **** 
1176:Drivers/STM32L0xx_HAL_Driver/Src/stm32l0xx_hal_rtc.c ****         /* Process Unlocked */
1177:Drivers/STM32L0xx_HAL_Driver/Src/stm32l0xx_hal_rtc.c ****         __HAL_UNLOCK(hrtc);
1178:Drivers/STM32L0xx_HAL_Driver/Src/stm32l0xx_hal_rtc.c **** 
1179:Drivers/STM32L0xx_HAL_Driver/Src/stm32l0xx_hal_rtc.c ****         return HAL_TIMEOUT;
1180:Drivers/STM32L0xx_HAL_Driver/Src/stm32l0xx_hal_rtc.c ****       }
1181:Drivers/STM32L0xx_HAL_Driver/Src/stm32l0xx_hal_rtc.c ****     }
1182:Drivers/STM32L0xx_HAL_Driver/Src/stm32l0xx_hal_rtc.c **** 
1183:Drivers/STM32L0xx_HAL_Driver/Src/stm32l0xx_hal_rtc.c ****     hrtc->Instance->ALRMAR = (uint32_t)tmpreg;
1184:Drivers/STM32L0xx_HAL_Driver/Src/stm32l0xx_hal_rtc.c ****     /* Configure the Alarm A Sub Second register */
1185:Drivers/STM32L0xx_HAL_Driver/Src/stm32l0xx_hal_rtc.c ****     hrtc->Instance->ALRMASSR = subsecondtmpreg;
1186:Drivers/STM32L0xx_HAL_Driver/Src/stm32l0xx_hal_rtc.c ****     /* Configure the Alarm state: Enable Alarm */
1187:Drivers/STM32L0xx_HAL_Driver/Src/stm32l0xx_hal_rtc.c ****     __HAL_RTC_ALARMA_ENABLE(hrtc);
1188:Drivers/STM32L0xx_HAL_Driver/Src/stm32l0xx_hal_rtc.c ****   }
1189:Drivers/STM32L0xx_HAL_Driver/Src/stm32l0xx_hal_rtc.c ****   else
1190:Drivers/STM32L0xx_HAL_Driver/Src/stm32l0xx_hal_rtc.c ****   {
1191:Drivers/STM32L0xx_HAL_Driver/Src/stm32l0xx_hal_rtc.c ****     /* Disable the Alarm B interrupt */
1192:Drivers/STM32L0xx_HAL_Driver/Src/stm32l0xx_hal_rtc.c ****     __HAL_RTC_ALARMB_DISABLE(hrtc);
1193:Drivers/STM32L0xx_HAL_Driver/Src/stm32l0xx_hal_rtc.c **** 
1194:Drivers/STM32L0xx_HAL_Driver/Src/stm32l0xx_hal_rtc.c ****     /* In case of interrupt mode is used, the interrupt source must disabled */
1195:Drivers/STM32L0xx_HAL_Driver/Src/stm32l0xx_hal_rtc.c ****     __HAL_RTC_ALARM_DISABLE_IT(hrtc, RTC_IT_ALRB);
1196:Drivers/STM32L0xx_HAL_Driver/Src/stm32l0xx_hal_rtc.c **** 
1197:Drivers/STM32L0xx_HAL_Driver/Src/stm32l0xx_hal_rtc.c ****     tickstart = HAL_GetTick();
1198:Drivers/STM32L0xx_HAL_Driver/Src/stm32l0xx_hal_rtc.c ****     /* Wait till RTC ALRBWF flag is set and if Time out is reached exit */
1199:Drivers/STM32L0xx_HAL_Driver/Src/stm32l0xx_hal_rtc.c ****     while (__HAL_RTC_ALARM_GET_FLAG(hrtc, RTC_FLAG_ALRBWF) == 0U)
1200:Drivers/STM32L0xx_HAL_Driver/Src/stm32l0xx_hal_rtc.c ****     {
1201:Drivers/STM32L0xx_HAL_Driver/Src/stm32l0xx_hal_rtc.c ****       if ((HAL_GetTick() - tickstart) > RTC_TIMEOUT_VALUE)
1202:Drivers/STM32L0xx_HAL_Driver/Src/stm32l0xx_hal_rtc.c ****       {
1203:Drivers/STM32L0xx_HAL_Driver/Src/stm32l0xx_hal_rtc.c ****         /* Enable the write protection for RTC registers */
1204:Drivers/STM32L0xx_HAL_Driver/Src/stm32l0xx_hal_rtc.c ****         __HAL_RTC_WRITEPROTECTION_ENABLE(hrtc);
1205:Drivers/STM32L0xx_HAL_Driver/Src/stm32l0xx_hal_rtc.c **** 
1206:Drivers/STM32L0xx_HAL_Driver/Src/stm32l0xx_hal_rtc.c ****         hrtc->State = HAL_RTC_STATE_TIMEOUT;
ARM GAS  /tmp/ccAh8F5t.s 			page 25


1207:Drivers/STM32L0xx_HAL_Driver/Src/stm32l0xx_hal_rtc.c **** 
1208:Drivers/STM32L0xx_HAL_Driver/Src/stm32l0xx_hal_rtc.c ****         /* Process Unlocked */
1209:Drivers/STM32L0xx_HAL_Driver/Src/stm32l0xx_hal_rtc.c ****         __HAL_UNLOCK(hrtc);
1210:Drivers/STM32L0xx_HAL_Driver/Src/stm32l0xx_hal_rtc.c **** 
1211:Drivers/STM32L0xx_HAL_Driver/Src/stm32l0xx_hal_rtc.c ****         return HAL_TIMEOUT;
1212:Drivers/STM32L0xx_HAL_Driver/Src/stm32l0xx_hal_rtc.c ****       }
1213:Drivers/STM32L0xx_HAL_Driver/Src/stm32l0xx_hal_rtc.c ****     }
1214:Drivers/STM32L0xx_HAL_Driver/Src/stm32l0xx_hal_rtc.c **** 
1215:Drivers/STM32L0xx_HAL_Driver/Src/stm32l0xx_hal_rtc.c ****     hrtc->Instance->ALRMBR = (uint32_t)tmpreg;
1216:Drivers/STM32L0xx_HAL_Driver/Src/stm32l0xx_hal_rtc.c ****     /* Configure the Alarm B Sub Second register */
1217:Drivers/STM32L0xx_HAL_Driver/Src/stm32l0xx_hal_rtc.c ****     hrtc->Instance->ALRMBSSR = subsecondtmpreg;
1218:Drivers/STM32L0xx_HAL_Driver/Src/stm32l0xx_hal_rtc.c ****     /* Configure the Alarm state: Enable Alarm */
1219:Drivers/STM32L0xx_HAL_Driver/Src/stm32l0xx_hal_rtc.c ****     __HAL_RTC_ALARMB_ENABLE(hrtc);
1220:Drivers/STM32L0xx_HAL_Driver/Src/stm32l0xx_hal_rtc.c ****   }
1221:Drivers/STM32L0xx_HAL_Driver/Src/stm32l0xx_hal_rtc.c **** 
1222:Drivers/STM32L0xx_HAL_Driver/Src/stm32l0xx_hal_rtc.c ****   /* Enable the write protection for RTC registers */
1223:Drivers/STM32L0xx_HAL_Driver/Src/stm32l0xx_hal_rtc.c ****   __HAL_RTC_WRITEPROTECTION_ENABLE(hrtc);
1224:Drivers/STM32L0xx_HAL_Driver/Src/stm32l0xx_hal_rtc.c **** 
1225:Drivers/STM32L0xx_HAL_Driver/Src/stm32l0xx_hal_rtc.c ****   /* Change RTC state */
1226:Drivers/STM32L0xx_HAL_Driver/Src/stm32l0xx_hal_rtc.c ****   hrtc->State = HAL_RTC_STATE_READY;
1227:Drivers/STM32L0xx_HAL_Driver/Src/stm32l0xx_hal_rtc.c **** 
1228:Drivers/STM32L0xx_HAL_Driver/Src/stm32l0xx_hal_rtc.c ****   /* Process Unlocked */
1229:Drivers/STM32L0xx_HAL_Driver/Src/stm32l0xx_hal_rtc.c ****   __HAL_UNLOCK(hrtc);
1230:Drivers/STM32L0xx_HAL_Driver/Src/stm32l0xx_hal_rtc.c **** 
1231:Drivers/STM32L0xx_HAL_Driver/Src/stm32l0xx_hal_rtc.c ****   return HAL_OK;
1232:Drivers/STM32L0xx_HAL_Driver/Src/stm32l0xx_hal_rtc.c **** }
1233:Drivers/STM32L0xx_HAL_Driver/Src/stm32l0xx_hal_rtc.c **** 
1234:Drivers/STM32L0xx_HAL_Driver/Src/stm32l0xx_hal_rtc.c **** /**
1235:Drivers/STM32L0xx_HAL_Driver/Src/stm32l0xx_hal_rtc.c ****   * @brief  Set the specified RTC Alarm with Interrupt.
1236:Drivers/STM32L0xx_HAL_Driver/Src/stm32l0xx_hal_rtc.c ****   * @param  hrtc RTC handle
1237:Drivers/STM32L0xx_HAL_Driver/Src/stm32l0xx_hal_rtc.c ****   * @param  sAlarm Pointer to Alarm structure
1238:Drivers/STM32L0xx_HAL_Driver/Src/stm32l0xx_hal_rtc.c ****   * @param  Format Specifies the format of the entered parameters.
1239:Drivers/STM32L0xx_HAL_Driver/Src/stm32l0xx_hal_rtc.c ****   *          This parameter can be one of the following values:
1240:Drivers/STM32L0xx_HAL_Driver/Src/stm32l0xx_hal_rtc.c ****   *             @arg RTC_FORMAT_BIN: Binary data format
1241:Drivers/STM32L0xx_HAL_Driver/Src/stm32l0xx_hal_rtc.c ****   *             @arg RTC_FORMAT_BCD: BCD data format
1242:Drivers/STM32L0xx_HAL_Driver/Src/stm32l0xx_hal_rtc.c ****   * @note   The Alarm register can only be written when the corresponding Alarm
1243:Drivers/STM32L0xx_HAL_Driver/Src/stm32l0xx_hal_rtc.c ****   *         is disabled (Use the HAL_RTC_DeactivateAlarm()).
1244:Drivers/STM32L0xx_HAL_Driver/Src/stm32l0xx_hal_rtc.c ****   * @note   The HAL_RTC_SetTime() must be called before enabling the Alarm feature.
1245:Drivers/STM32L0xx_HAL_Driver/Src/stm32l0xx_hal_rtc.c ****   * @retval HAL status
1246:Drivers/STM32L0xx_HAL_Driver/Src/stm32l0xx_hal_rtc.c ****   */
1247:Drivers/STM32L0xx_HAL_Driver/Src/stm32l0xx_hal_rtc.c **** HAL_StatusTypeDef HAL_RTC_SetAlarm_IT(RTC_HandleTypeDef *hrtc, RTC_AlarmTypeDef *sAlarm, uint32_t F
1248:Drivers/STM32L0xx_HAL_Driver/Src/stm32l0xx_hal_rtc.c **** {
1249:Drivers/STM32L0xx_HAL_Driver/Src/stm32l0xx_hal_rtc.c ****   uint32_t tickstart;
1250:Drivers/STM32L0xx_HAL_Driver/Src/stm32l0xx_hal_rtc.c ****   uint32_t tmpreg, subsecondtmpreg;
1251:Drivers/STM32L0xx_HAL_Driver/Src/stm32l0xx_hal_rtc.c **** 
1252:Drivers/STM32L0xx_HAL_Driver/Src/stm32l0xx_hal_rtc.c ****   /* Check the parameters */
1253:Drivers/STM32L0xx_HAL_Driver/Src/stm32l0xx_hal_rtc.c ****   assert_param(IS_RTC_FORMAT(Format));
1254:Drivers/STM32L0xx_HAL_Driver/Src/stm32l0xx_hal_rtc.c ****   assert_param(IS_RTC_ALARM(sAlarm->Alarm));
1255:Drivers/STM32L0xx_HAL_Driver/Src/stm32l0xx_hal_rtc.c ****   assert_param(IS_RTC_ALARM_MASK(sAlarm->AlarmMask));
1256:Drivers/STM32L0xx_HAL_Driver/Src/stm32l0xx_hal_rtc.c ****   assert_param(IS_RTC_ALARM_DATE_WEEKDAY_SEL(sAlarm->AlarmDateWeekDaySel));
1257:Drivers/STM32L0xx_HAL_Driver/Src/stm32l0xx_hal_rtc.c ****   assert_param(IS_RTC_ALARM_SUB_SECOND_VALUE(sAlarm->AlarmTime.SubSeconds));
1258:Drivers/STM32L0xx_HAL_Driver/Src/stm32l0xx_hal_rtc.c ****   assert_param(IS_RTC_ALARM_SUB_SECOND_MASK(sAlarm->AlarmSubSecondMask));
1259:Drivers/STM32L0xx_HAL_Driver/Src/stm32l0xx_hal_rtc.c **** 
1260:Drivers/STM32L0xx_HAL_Driver/Src/stm32l0xx_hal_rtc.c ****   /* Process Locked */
1261:Drivers/STM32L0xx_HAL_Driver/Src/stm32l0xx_hal_rtc.c ****   __HAL_LOCK(hrtc);
1262:Drivers/STM32L0xx_HAL_Driver/Src/stm32l0xx_hal_rtc.c **** 
1263:Drivers/STM32L0xx_HAL_Driver/Src/stm32l0xx_hal_rtc.c ****   hrtc->State = HAL_RTC_STATE_BUSY;
ARM GAS  /tmp/ccAh8F5t.s 			page 26


1264:Drivers/STM32L0xx_HAL_Driver/Src/stm32l0xx_hal_rtc.c **** 
1265:Drivers/STM32L0xx_HAL_Driver/Src/stm32l0xx_hal_rtc.c ****   if (Format == RTC_FORMAT_BIN)
1266:Drivers/STM32L0xx_HAL_Driver/Src/stm32l0xx_hal_rtc.c ****   {
1267:Drivers/STM32L0xx_HAL_Driver/Src/stm32l0xx_hal_rtc.c ****     if ((hrtc->Instance->CR & RTC_CR_FMT) != 0U)
1268:Drivers/STM32L0xx_HAL_Driver/Src/stm32l0xx_hal_rtc.c ****     {
1269:Drivers/STM32L0xx_HAL_Driver/Src/stm32l0xx_hal_rtc.c ****       assert_param(IS_RTC_HOUR12(sAlarm->AlarmTime.Hours));
1270:Drivers/STM32L0xx_HAL_Driver/Src/stm32l0xx_hal_rtc.c ****       assert_param(IS_RTC_HOURFORMAT12(sAlarm->AlarmTime.TimeFormat));
1271:Drivers/STM32L0xx_HAL_Driver/Src/stm32l0xx_hal_rtc.c ****     }
1272:Drivers/STM32L0xx_HAL_Driver/Src/stm32l0xx_hal_rtc.c ****     else
1273:Drivers/STM32L0xx_HAL_Driver/Src/stm32l0xx_hal_rtc.c ****     {
1274:Drivers/STM32L0xx_HAL_Driver/Src/stm32l0xx_hal_rtc.c ****       sAlarm->AlarmTime.TimeFormat = 0x00U;
1275:Drivers/STM32L0xx_HAL_Driver/Src/stm32l0xx_hal_rtc.c ****       assert_param(IS_RTC_HOUR24(sAlarm->AlarmTime.Hours));
1276:Drivers/STM32L0xx_HAL_Driver/Src/stm32l0xx_hal_rtc.c ****     }
1277:Drivers/STM32L0xx_HAL_Driver/Src/stm32l0xx_hal_rtc.c ****     assert_param(IS_RTC_MINUTES(sAlarm->AlarmTime.Minutes));
1278:Drivers/STM32L0xx_HAL_Driver/Src/stm32l0xx_hal_rtc.c ****     assert_param(IS_RTC_SECONDS(sAlarm->AlarmTime.Seconds));
1279:Drivers/STM32L0xx_HAL_Driver/Src/stm32l0xx_hal_rtc.c **** 
1280:Drivers/STM32L0xx_HAL_Driver/Src/stm32l0xx_hal_rtc.c ****     if (sAlarm->AlarmDateWeekDaySel == RTC_ALARMDATEWEEKDAYSEL_DATE)
1281:Drivers/STM32L0xx_HAL_Driver/Src/stm32l0xx_hal_rtc.c ****     {
1282:Drivers/STM32L0xx_HAL_Driver/Src/stm32l0xx_hal_rtc.c ****       assert_param(IS_RTC_ALARM_DATE_WEEKDAY_DATE(sAlarm->AlarmDateWeekDay));
1283:Drivers/STM32L0xx_HAL_Driver/Src/stm32l0xx_hal_rtc.c ****     }
1284:Drivers/STM32L0xx_HAL_Driver/Src/stm32l0xx_hal_rtc.c ****     else
1285:Drivers/STM32L0xx_HAL_Driver/Src/stm32l0xx_hal_rtc.c ****     {
1286:Drivers/STM32L0xx_HAL_Driver/Src/stm32l0xx_hal_rtc.c ****       assert_param(IS_RTC_ALARM_DATE_WEEKDAY_WEEKDAY(sAlarm->AlarmDateWeekDay));
1287:Drivers/STM32L0xx_HAL_Driver/Src/stm32l0xx_hal_rtc.c ****     }
1288:Drivers/STM32L0xx_HAL_Driver/Src/stm32l0xx_hal_rtc.c ****     tmpreg = (((uint32_t)RTC_ByteToBcd2(sAlarm->AlarmTime.Hours) << 16U) | \
1289:Drivers/STM32L0xx_HAL_Driver/Src/stm32l0xx_hal_rtc.c ****               ((uint32_t)RTC_ByteToBcd2(sAlarm->AlarmTime.Minutes) << 8U) | \
1290:Drivers/STM32L0xx_HAL_Driver/Src/stm32l0xx_hal_rtc.c ****               ((uint32_t)RTC_ByteToBcd2(sAlarm->AlarmTime.Seconds)) | \
1291:Drivers/STM32L0xx_HAL_Driver/Src/stm32l0xx_hal_rtc.c ****               ((uint32_t)(sAlarm->AlarmTime.TimeFormat) << 16U) | \
1292:Drivers/STM32L0xx_HAL_Driver/Src/stm32l0xx_hal_rtc.c ****               ((uint32_t)RTC_ByteToBcd2(sAlarm->AlarmDateWeekDay) << 24U) | \
1293:Drivers/STM32L0xx_HAL_Driver/Src/stm32l0xx_hal_rtc.c ****               ((uint32_t)sAlarm->AlarmDateWeekDaySel) | \
1294:Drivers/STM32L0xx_HAL_Driver/Src/stm32l0xx_hal_rtc.c ****               ((uint32_t)sAlarm->AlarmMask));
1295:Drivers/STM32L0xx_HAL_Driver/Src/stm32l0xx_hal_rtc.c ****   }
1296:Drivers/STM32L0xx_HAL_Driver/Src/stm32l0xx_hal_rtc.c ****   else
1297:Drivers/STM32L0xx_HAL_Driver/Src/stm32l0xx_hal_rtc.c ****   {
1298:Drivers/STM32L0xx_HAL_Driver/Src/stm32l0xx_hal_rtc.c ****     if ((hrtc->Instance->CR & RTC_CR_FMT) != 0U)
1299:Drivers/STM32L0xx_HAL_Driver/Src/stm32l0xx_hal_rtc.c ****     {
1300:Drivers/STM32L0xx_HAL_Driver/Src/stm32l0xx_hal_rtc.c ****       assert_param(IS_RTC_HOUR12(RTC_Bcd2ToByte(sAlarm->AlarmTime.Hours)));
1301:Drivers/STM32L0xx_HAL_Driver/Src/stm32l0xx_hal_rtc.c ****       assert_param(IS_RTC_HOURFORMAT12(sAlarm->AlarmTime.TimeFormat));
1302:Drivers/STM32L0xx_HAL_Driver/Src/stm32l0xx_hal_rtc.c ****     }
1303:Drivers/STM32L0xx_HAL_Driver/Src/stm32l0xx_hal_rtc.c ****     else
1304:Drivers/STM32L0xx_HAL_Driver/Src/stm32l0xx_hal_rtc.c ****     {
1305:Drivers/STM32L0xx_HAL_Driver/Src/stm32l0xx_hal_rtc.c ****       sAlarm->AlarmTime.TimeFormat = 0x00U;
1306:Drivers/STM32L0xx_HAL_Driver/Src/stm32l0xx_hal_rtc.c ****       assert_param(IS_RTC_HOUR24(RTC_Bcd2ToByte(sAlarm->AlarmTime.Hours)));
1307:Drivers/STM32L0xx_HAL_Driver/Src/stm32l0xx_hal_rtc.c ****     }
1308:Drivers/STM32L0xx_HAL_Driver/Src/stm32l0xx_hal_rtc.c **** 
1309:Drivers/STM32L0xx_HAL_Driver/Src/stm32l0xx_hal_rtc.c ****     assert_param(IS_RTC_MINUTES(RTC_Bcd2ToByte(sAlarm->AlarmTime.Minutes)));
1310:Drivers/STM32L0xx_HAL_Driver/Src/stm32l0xx_hal_rtc.c ****     assert_param(IS_RTC_SECONDS(RTC_Bcd2ToByte(sAlarm->AlarmTime.Seconds)));
1311:Drivers/STM32L0xx_HAL_Driver/Src/stm32l0xx_hal_rtc.c **** 
1312:Drivers/STM32L0xx_HAL_Driver/Src/stm32l0xx_hal_rtc.c ****     if (sAlarm->AlarmDateWeekDaySel == RTC_ALARMDATEWEEKDAYSEL_DATE)
1313:Drivers/STM32L0xx_HAL_Driver/Src/stm32l0xx_hal_rtc.c ****     {
1314:Drivers/STM32L0xx_HAL_Driver/Src/stm32l0xx_hal_rtc.c ****       assert_param(IS_RTC_ALARM_DATE_WEEKDAY_DATE(RTC_Bcd2ToByte(sAlarm->AlarmDateWeekDay)));
1315:Drivers/STM32L0xx_HAL_Driver/Src/stm32l0xx_hal_rtc.c ****     }
1316:Drivers/STM32L0xx_HAL_Driver/Src/stm32l0xx_hal_rtc.c ****     else
1317:Drivers/STM32L0xx_HAL_Driver/Src/stm32l0xx_hal_rtc.c ****     {
1318:Drivers/STM32L0xx_HAL_Driver/Src/stm32l0xx_hal_rtc.c ****       assert_param(IS_RTC_ALARM_DATE_WEEKDAY_WEEKDAY(RTC_Bcd2ToByte(sAlarm->AlarmDateWeekDay)));
1319:Drivers/STM32L0xx_HAL_Driver/Src/stm32l0xx_hal_rtc.c ****     }
1320:Drivers/STM32L0xx_HAL_Driver/Src/stm32l0xx_hal_rtc.c ****     tmpreg = (((uint32_t)(sAlarm->AlarmTime.Hours) << 16U) | \
ARM GAS  /tmp/ccAh8F5t.s 			page 27


1321:Drivers/STM32L0xx_HAL_Driver/Src/stm32l0xx_hal_rtc.c ****               ((uint32_t)(sAlarm->AlarmTime.Minutes) << 8U) | \
1322:Drivers/STM32L0xx_HAL_Driver/Src/stm32l0xx_hal_rtc.c ****               ((uint32_t) sAlarm->AlarmTime.Seconds) | \
1323:Drivers/STM32L0xx_HAL_Driver/Src/stm32l0xx_hal_rtc.c ****               ((uint32_t)(sAlarm->AlarmTime.TimeFormat) << 16U) | \
1324:Drivers/STM32L0xx_HAL_Driver/Src/stm32l0xx_hal_rtc.c ****               ((uint32_t)(sAlarm->AlarmDateWeekDay) << 24U) | \
1325:Drivers/STM32L0xx_HAL_Driver/Src/stm32l0xx_hal_rtc.c ****               ((uint32_t)sAlarm->AlarmDateWeekDaySel) | \
1326:Drivers/STM32L0xx_HAL_Driver/Src/stm32l0xx_hal_rtc.c ****               ((uint32_t)sAlarm->AlarmMask));
1327:Drivers/STM32L0xx_HAL_Driver/Src/stm32l0xx_hal_rtc.c ****   }
1328:Drivers/STM32L0xx_HAL_Driver/Src/stm32l0xx_hal_rtc.c ****   /* Configure the Alarm A or Alarm B Sub Second registers */
1329:Drivers/STM32L0xx_HAL_Driver/Src/stm32l0xx_hal_rtc.c ****   subsecondtmpreg = (uint32_t)((uint32_t)(sAlarm->AlarmTime.SubSeconds) | (uint32_t)(sAlarm->AlarmS
1330:Drivers/STM32L0xx_HAL_Driver/Src/stm32l0xx_hal_rtc.c **** 
1331:Drivers/STM32L0xx_HAL_Driver/Src/stm32l0xx_hal_rtc.c ****   /* Disable the write protection for RTC registers */
1332:Drivers/STM32L0xx_HAL_Driver/Src/stm32l0xx_hal_rtc.c ****   __HAL_RTC_WRITEPROTECTION_DISABLE(hrtc);
1333:Drivers/STM32L0xx_HAL_Driver/Src/stm32l0xx_hal_rtc.c **** 
1334:Drivers/STM32L0xx_HAL_Driver/Src/stm32l0xx_hal_rtc.c ****   /* Configure the Alarm register */
1335:Drivers/STM32L0xx_HAL_Driver/Src/stm32l0xx_hal_rtc.c ****   if (sAlarm->Alarm == RTC_ALARM_A)
1336:Drivers/STM32L0xx_HAL_Driver/Src/stm32l0xx_hal_rtc.c ****   {
1337:Drivers/STM32L0xx_HAL_Driver/Src/stm32l0xx_hal_rtc.c ****     /* Disable the Alarm A interrupt */
1338:Drivers/STM32L0xx_HAL_Driver/Src/stm32l0xx_hal_rtc.c ****     __HAL_RTC_ALARMA_DISABLE(hrtc);
1339:Drivers/STM32L0xx_HAL_Driver/Src/stm32l0xx_hal_rtc.c **** 
1340:Drivers/STM32L0xx_HAL_Driver/Src/stm32l0xx_hal_rtc.c ****     /* Clear flag alarm A */
1341:Drivers/STM32L0xx_HAL_Driver/Src/stm32l0xx_hal_rtc.c ****     __HAL_RTC_ALARM_CLEAR_FLAG(hrtc, RTC_FLAG_ALRAF);
1342:Drivers/STM32L0xx_HAL_Driver/Src/stm32l0xx_hal_rtc.c **** 
1343:Drivers/STM32L0xx_HAL_Driver/Src/stm32l0xx_hal_rtc.c ****     tickstart = HAL_GetTick();
1344:Drivers/STM32L0xx_HAL_Driver/Src/stm32l0xx_hal_rtc.c ****     /* Wait till RTC ALRAWF flag is set and if Time out is reached exit */
1345:Drivers/STM32L0xx_HAL_Driver/Src/stm32l0xx_hal_rtc.c ****     while (__HAL_RTC_ALARM_GET_FLAG(hrtc, RTC_FLAG_ALRAWF) == 0U)
1346:Drivers/STM32L0xx_HAL_Driver/Src/stm32l0xx_hal_rtc.c ****     {
1347:Drivers/STM32L0xx_HAL_Driver/Src/stm32l0xx_hal_rtc.c ****       if ((HAL_GetTick() - tickstart) > RTC_TIMEOUT_VALUE)
1348:Drivers/STM32L0xx_HAL_Driver/Src/stm32l0xx_hal_rtc.c ****       {
1349:Drivers/STM32L0xx_HAL_Driver/Src/stm32l0xx_hal_rtc.c ****         /* Enable the write protection for RTC registers */
1350:Drivers/STM32L0xx_HAL_Driver/Src/stm32l0xx_hal_rtc.c ****         __HAL_RTC_WRITEPROTECTION_ENABLE(hrtc);
1351:Drivers/STM32L0xx_HAL_Driver/Src/stm32l0xx_hal_rtc.c **** 
1352:Drivers/STM32L0xx_HAL_Driver/Src/stm32l0xx_hal_rtc.c ****         hrtc->State = HAL_RTC_STATE_TIMEOUT;
1353:Drivers/STM32L0xx_HAL_Driver/Src/stm32l0xx_hal_rtc.c **** 
1354:Drivers/STM32L0xx_HAL_Driver/Src/stm32l0xx_hal_rtc.c ****         /* Process Unlocked */
1355:Drivers/STM32L0xx_HAL_Driver/Src/stm32l0xx_hal_rtc.c ****         __HAL_UNLOCK(hrtc);
1356:Drivers/STM32L0xx_HAL_Driver/Src/stm32l0xx_hal_rtc.c **** 
1357:Drivers/STM32L0xx_HAL_Driver/Src/stm32l0xx_hal_rtc.c ****         return HAL_TIMEOUT;
1358:Drivers/STM32L0xx_HAL_Driver/Src/stm32l0xx_hal_rtc.c ****       }
1359:Drivers/STM32L0xx_HAL_Driver/Src/stm32l0xx_hal_rtc.c ****     }
1360:Drivers/STM32L0xx_HAL_Driver/Src/stm32l0xx_hal_rtc.c **** 
1361:Drivers/STM32L0xx_HAL_Driver/Src/stm32l0xx_hal_rtc.c ****     hrtc->Instance->ALRMAR = (uint32_t)tmpreg;
1362:Drivers/STM32L0xx_HAL_Driver/Src/stm32l0xx_hal_rtc.c ****     /* Configure the Alarm A Sub Second register */
1363:Drivers/STM32L0xx_HAL_Driver/Src/stm32l0xx_hal_rtc.c ****     hrtc->Instance->ALRMASSR = subsecondtmpreg;
1364:Drivers/STM32L0xx_HAL_Driver/Src/stm32l0xx_hal_rtc.c ****     /* Configure the Alarm state: Enable Alarm */
1365:Drivers/STM32L0xx_HAL_Driver/Src/stm32l0xx_hal_rtc.c ****     __HAL_RTC_ALARMA_ENABLE(hrtc);
1366:Drivers/STM32L0xx_HAL_Driver/Src/stm32l0xx_hal_rtc.c ****     /* Configure the Alarm interrupt */
1367:Drivers/STM32L0xx_HAL_Driver/Src/stm32l0xx_hal_rtc.c ****     __HAL_RTC_ALARM_ENABLE_IT(hrtc, RTC_IT_ALRA);
1368:Drivers/STM32L0xx_HAL_Driver/Src/stm32l0xx_hal_rtc.c ****   }
1369:Drivers/STM32L0xx_HAL_Driver/Src/stm32l0xx_hal_rtc.c ****   else
1370:Drivers/STM32L0xx_HAL_Driver/Src/stm32l0xx_hal_rtc.c ****   {
1371:Drivers/STM32L0xx_HAL_Driver/Src/stm32l0xx_hal_rtc.c ****     /* Disable the Alarm B interrupt */
1372:Drivers/STM32L0xx_HAL_Driver/Src/stm32l0xx_hal_rtc.c ****     __HAL_RTC_ALARMB_DISABLE(hrtc);
1373:Drivers/STM32L0xx_HAL_Driver/Src/stm32l0xx_hal_rtc.c **** 
1374:Drivers/STM32L0xx_HAL_Driver/Src/stm32l0xx_hal_rtc.c ****     /* Clear flag alarm B */
1375:Drivers/STM32L0xx_HAL_Driver/Src/stm32l0xx_hal_rtc.c ****     __HAL_RTC_ALARM_CLEAR_FLAG(hrtc, RTC_FLAG_ALRBF);
1376:Drivers/STM32L0xx_HAL_Driver/Src/stm32l0xx_hal_rtc.c **** 
1377:Drivers/STM32L0xx_HAL_Driver/Src/stm32l0xx_hal_rtc.c ****     tickstart = HAL_GetTick();
ARM GAS  /tmp/ccAh8F5t.s 			page 28


1378:Drivers/STM32L0xx_HAL_Driver/Src/stm32l0xx_hal_rtc.c ****     /* Wait till RTC ALRBWF flag is set and if Time out is reached exit */
1379:Drivers/STM32L0xx_HAL_Driver/Src/stm32l0xx_hal_rtc.c ****     while (__HAL_RTC_ALARM_GET_FLAG(hrtc, RTC_FLAG_ALRBWF) == 0U)
1380:Drivers/STM32L0xx_HAL_Driver/Src/stm32l0xx_hal_rtc.c ****     {
1381:Drivers/STM32L0xx_HAL_Driver/Src/stm32l0xx_hal_rtc.c ****       if ((HAL_GetTick() - tickstart) > RTC_TIMEOUT_VALUE)
1382:Drivers/STM32L0xx_HAL_Driver/Src/stm32l0xx_hal_rtc.c ****       {
1383:Drivers/STM32L0xx_HAL_Driver/Src/stm32l0xx_hal_rtc.c ****         /* Enable the write protection for RTC registers */
1384:Drivers/STM32L0xx_HAL_Driver/Src/stm32l0xx_hal_rtc.c ****         __HAL_RTC_WRITEPROTECTION_ENABLE(hrtc);
1385:Drivers/STM32L0xx_HAL_Driver/Src/stm32l0xx_hal_rtc.c **** 
1386:Drivers/STM32L0xx_HAL_Driver/Src/stm32l0xx_hal_rtc.c ****         hrtc->State = HAL_RTC_STATE_TIMEOUT;
1387:Drivers/STM32L0xx_HAL_Driver/Src/stm32l0xx_hal_rtc.c **** 
1388:Drivers/STM32L0xx_HAL_Driver/Src/stm32l0xx_hal_rtc.c ****         /* Process Unlocked */
1389:Drivers/STM32L0xx_HAL_Driver/Src/stm32l0xx_hal_rtc.c ****         __HAL_UNLOCK(hrtc);
1390:Drivers/STM32L0xx_HAL_Driver/Src/stm32l0xx_hal_rtc.c **** 
1391:Drivers/STM32L0xx_HAL_Driver/Src/stm32l0xx_hal_rtc.c ****         return HAL_TIMEOUT;
1392:Drivers/STM32L0xx_HAL_Driver/Src/stm32l0xx_hal_rtc.c ****       }
1393:Drivers/STM32L0xx_HAL_Driver/Src/stm32l0xx_hal_rtc.c ****     }
1394:Drivers/STM32L0xx_HAL_Driver/Src/stm32l0xx_hal_rtc.c **** 
1395:Drivers/STM32L0xx_HAL_Driver/Src/stm32l0xx_hal_rtc.c ****     hrtc->Instance->ALRMBR = (uint32_t)tmpreg;
1396:Drivers/STM32L0xx_HAL_Driver/Src/stm32l0xx_hal_rtc.c ****     /* Configure the Alarm B Sub Second register */
1397:Drivers/STM32L0xx_HAL_Driver/Src/stm32l0xx_hal_rtc.c ****     hrtc->Instance->ALRMBSSR = subsecondtmpreg;
1398:Drivers/STM32L0xx_HAL_Driver/Src/stm32l0xx_hal_rtc.c ****     /* Configure the Alarm state: Enable Alarm */
1399:Drivers/STM32L0xx_HAL_Driver/Src/stm32l0xx_hal_rtc.c ****     __HAL_RTC_ALARMB_ENABLE(hrtc);
1400:Drivers/STM32L0xx_HAL_Driver/Src/stm32l0xx_hal_rtc.c ****     /* Configure the Alarm interrupt */
1401:Drivers/STM32L0xx_HAL_Driver/Src/stm32l0xx_hal_rtc.c ****     __HAL_RTC_ALARM_ENABLE_IT(hrtc, RTC_IT_ALRB);
1402:Drivers/STM32L0xx_HAL_Driver/Src/stm32l0xx_hal_rtc.c ****   }
1403:Drivers/STM32L0xx_HAL_Driver/Src/stm32l0xx_hal_rtc.c **** 
1404:Drivers/STM32L0xx_HAL_Driver/Src/stm32l0xx_hal_rtc.c ****   /* RTC Alarm Interrupt Configuration: EXTI configuration */
1405:Drivers/STM32L0xx_HAL_Driver/Src/stm32l0xx_hal_rtc.c ****   __HAL_RTC_ALARM_EXTI_ENABLE_IT();
1406:Drivers/STM32L0xx_HAL_Driver/Src/stm32l0xx_hal_rtc.c **** 
1407:Drivers/STM32L0xx_HAL_Driver/Src/stm32l0xx_hal_rtc.c ****   __HAL_RTC_ALARM_EXTI_ENABLE_RISING_EDGE();
1408:Drivers/STM32L0xx_HAL_Driver/Src/stm32l0xx_hal_rtc.c **** 
1409:Drivers/STM32L0xx_HAL_Driver/Src/stm32l0xx_hal_rtc.c ****   /* Enable the write protection for RTC registers */
1410:Drivers/STM32L0xx_HAL_Driver/Src/stm32l0xx_hal_rtc.c ****   __HAL_RTC_WRITEPROTECTION_ENABLE(hrtc);
1411:Drivers/STM32L0xx_HAL_Driver/Src/stm32l0xx_hal_rtc.c **** 
1412:Drivers/STM32L0xx_HAL_Driver/Src/stm32l0xx_hal_rtc.c ****   hrtc->State = HAL_RTC_STATE_READY;
1413:Drivers/STM32L0xx_HAL_Driver/Src/stm32l0xx_hal_rtc.c **** 
1414:Drivers/STM32L0xx_HAL_Driver/Src/stm32l0xx_hal_rtc.c ****   /* Process Unlocked */
1415:Drivers/STM32L0xx_HAL_Driver/Src/stm32l0xx_hal_rtc.c ****   __HAL_UNLOCK(hrtc);
1416:Drivers/STM32L0xx_HAL_Driver/Src/stm32l0xx_hal_rtc.c **** 
1417:Drivers/STM32L0xx_HAL_Driver/Src/stm32l0xx_hal_rtc.c ****   return HAL_OK;
1418:Drivers/STM32L0xx_HAL_Driver/Src/stm32l0xx_hal_rtc.c **** }
1419:Drivers/STM32L0xx_HAL_Driver/Src/stm32l0xx_hal_rtc.c **** 
1420:Drivers/STM32L0xx_HAL_Driver/Src/stm32l0xx_hal_rtc.c **** /**
1421:Drivers/STM32L0xx_HAL_Driver/Src/stm32l0xx_hal_rtc.c ****   * @brief  Deactivate the specified RTC Alarm.
1422:Drivers/STM32L0xx_HAL_Driver/Src/stm32l0xx_hal_rtc.c ****   * @param  hrtc RTC handle
1423:Drivers/STM32L0xx_HAL_Driver/Src/stm32l0xx_hal_rtc.c ****   * @param  Alarm Specifies the Alarm.
1424:Drivers/STM32L0xx_HAL_Driver/Src/stm32l0xx_hal_rtc.c ****   *          This parameter can be one of the following values:
1425:Drivers/STM32L0xx_HAL_Driver/Src/stm32l0xx_hal_rtc.c ****   *            @arg RTC_ALARM_A:  AlarmA
1426:Drivers/STM32L0xx_HAL_Driver/Src/stm32l0xx_hal_rtc.c ****   *            @arg RTC_ALARM_B:  AlarmB
1427:Drivers/STM32L0xx_HAL_Driver/Src/stm32l0xx_hal_rtc.c ****   * @retval HAL status
1428:Drivers/STM32L0xx_HAL_Driver/Src/stm32l0xx_hal_rtc.c ****   */
1429:Drivers/STM32L0xx_HAL_Driver/Src/stm32l0xx_hal_rtc.c **** HAL_StatusTypeDef HAL_RTC_DeactivateAlarm(RTC_HandleTypeDef *hrtc, uint32_t Alarm)
1430:Drivers/STM32L0xx_HAL_Driver/Src/stm32l0xx_hal_rtc.c **** {
1431:Drivers/STM32L0xx_HAL_Driver/Src/stm32l0xx_hal_rtc.c ****   uint32_t tickstart;
1432:Drivers/STM32L0xx_HAL_Driver/Src/stm32l0xx_hal_rtc.c **** 
1433:Drivers/STM32L0xx_HAL_Driver/Src/stm32l0xx_hal_rtc.c ****   /* Check the parameters */
1434:Drivers/STM32L0xx_HAL_Driver/Src/stm32l0xx_hal_rtc.c ****   assert_param(IS_RTC_ALARM(Alarm));
ARM GAS  /tmp/ccAh8F5t.s 			page 29


1435:Drivers/STM32L0xx_HAL_Driver/Src/stm32l0xx_hal_rtc.c **** 
1436:Drivers/STM32L0xx_HAL_Driver/Src/stm32l0xx_hal_rtc.c ****   /* Process Locked */
1437:Drivers/STM32L0xx_HAL_Driver/Src/stm32l0xx_hal_rtc.c ****   __HAL_LOCK(hrtc);
1438:Drivers/STM32L0xx_HAL_Driver/Src/stm32l0xx_hal_rtc.c **** 
1439:Drivers/STM32L0xx_HAL_Driver/Src/stm32l0xx_hal_rtc.c ****   hrtc->State = HAL_RTC_STATE_BUSY;
1440:Drivers/STM32L0xx_HAL_Driver/Src/stm32l0xx_hal_rtc.c **** 
1441:Drivers/STM32L0xx_HAL_Driver/Src/stm32l0xx_hal_rtc.c ****   /* Disable the write protection for RTC registers */
1442:Drivers/STM32L0xx_HAL_Driver/Src/stm32l0xx_hal_rtc.c ****   __HAL_RTC_WRITEPROTECTION_DISABLE(hrtc);
1443:Drivers/STM32L0xx_HAL_Driver/Src/stm32l0xx_hal_rtc.c **** 
1444:Drivers/STM32L0xx_HAL_Driver/Src/stm32l0xx_hal_rtc.c ****   if (Alarm == RTC_ALARM_A)
1445:Drivers/STM32L0xx_HAL_Driver/Src/stm32l0xx_hal_rtc.c ****   {
1446:Drivers/STM32L0xx_HAL_Driver/Src/stm32l0xx_hal_rtc.c ****     /* AlarmA */
1447:Drivers/STM32L0xx_HAL_Driver/Src/stm32l0xx_hal_rtc.c ****     __HAL_RTC_ALARMA_DISABLE(hrtc);
1448:Drivers/STM32L0xx_HAL_Driver/Src/stm32l0xx_hal_rtc.c **** 
1449:Drivers/STM32L0xx_HAL_Driver/Src/stm32l0xx_hal_rtc.c ****     /* In case of interrupt mode is used, the interrupt source must disabled */
1450:Drivers/STM32L0xx_HAL_Driver/Src/stm32l0xx_hal_rtc.c ****     __HAL_RTC_ALARM_DISABLE_IT(hrtc, RTC_IT_ALRA);
1451:Drivers/STM32L0xx_HAL_Driver/Src/stm32l0xx_hal_rtc.c **** 
1452:Drivers/STM32L0xx_HAL_Driver/Src/stm32l0xx_hal_rtc.c ****     tickstart = HAL_GetTick();
1453:Drivers/STM32L0xx_HAL_Driver/Src/stm32l0xx_hal_rtc.c **** 
1454:Drivers/STM32L0xx_HAL_Driver/Src/stm32l0xx_hal_rtc.c ****     /* Wait till RTC ALRxWF flag is set and if Time out is reached exit */
1455:Drivers/STM32L0xx_HAL_Driver/Src/stm32l0xx_hal_rtc.c ****     while (__HAL_RTC_ALARM_GET_FLAG(hrtc, RTC_FLAG_ALRAWF) == 0U)
1456:Drivers/STM32L0xx_HAL_Driver/Src/stm32l0xx_hal_rtc.c ****     {
1457:Drivers/STM32L0xx_HAL_Driver/Src/stm32l0xx_hal_rtc.c ****       if ((HAL_GetTick()  - tickstart) > RTC_TIMEOUT_VALUE)
1458:Drivers/STM32L0xx_HAL_Driver/Src/stm32l0xx_hal_rtc.c ****       {
1459:Drivers/STM32L0xx_HAL_Driver/Src/stm32l0xx_hal_rtc.c ****         /* Enable the write protection for RTC registers */
1460:Drivers/STM32L0xx_HAL_Driver/Src/stm32l0xx_hal_rtc.c ****         __HAL_RTC_WRITEPROTECTION_ENABLE(hrtc);
1461:Drivers/STM32L0xx_HAL_Driver/Src/stm32l0xx_hal_rtc.c **** 
1462:Drivers/STM32L0xx_HAL_Driver/Src/stm32l0xx_hal_rtc.c ****         hrtc->State = HAL_RTC_STATE_TIMEOUT;
1463:Drivers/STM32L0xx_HAL_Driver/Src/stm32l0xx_hal_rtc.c **** 
1464:Drivers/STM32L0xx_HAL_Driver/Src/stm32l0xx_hal_rtc.c ****         /* Process Unlocked */
1465:Drivers/STM32L0xx_HAL_Driver/Src/stm32l0xx_hal_rtc.c ****         __HAL_UNLOCK(hrtc);
1466:Drivers/STM32L0xx_HAL_Driver/Src/stm32l0xx_hal_rtc.c **** 
1467:Drivers/STM32L0xx_HAL_Driver/Src/stm32l0xx_hal_rtc.c ****         return HAL_TIMEOUT;
1468:Drivers/STM32L0xx_HAL_Driver/Src/stm32l0xx_hal_rtc.c ****       }
1469:Drivers/STM32L0xx_HAL_Driver/Src/stm32l0xx_hal_rtc.c ****     }
1470:Drivers/STM32L0xx_HAL_Driver/Src/stm32l0xx_hal_rtc.c ****   }
1471:Drivers/STM32L0xx_HAL_Driver/Src/stm32l0xx_hal_rtc.c ****   else
1472:Drivers/STM32L0xx_HAL_Driver/Src/stm32l0xx_hal_rtc.c ****   {
1473:Drivers/STM32L0xx_HAL_Driver/Src/stm32l0xx_hal_rtc.c ****     /* AlarmB */
1474:Drivers/STM32L0xx_HAL_Driver/Src/stm32l0xx_hal_rtc.c ****     __HAL_RTC_ALARMB_DISABLE(hrtc);
1475:Drivers/STM32L0xx_HAL_Driver/Src/stm32l0xx_hal_rtc.c **** 
1476:Drivers/STM32L0xx_HAL_Driver/Src/stm32l0xx_hal_rtc.c ****     /* In case of interrupt mode is used, the interrupt source must disabled */
1477:Drivers/STM32L0xx_HAL_Driver/Src/stm32l0xx_hal_rtc.c ****     __HAL_RTC_ALARM_DISABLE_IT(hrtc, RTC_IT_ALRB);
1478:Drivers/STM32L0xx_HAL_Driver/Src/stm32l0xx_hal_rtc.c **** 
1479:Drivers/STM32L0xx_HAL_Driver/Src/stm32l0xx_hal_rtc.c ****     tickstart = HAL_GetTick();
1480:Drivers/STM32L0xx_HAL_Driver/Src/stm32l0xx_hal_rtc.c **** 
1481:Drivers/STM32L0xx_HAL_Driver/Src/stm32l0xx_hal_rtc.c ****     /* Wait till RTC ALRxWF flag is set and if Time out is reached exit */
1482:Drivers/STM32L0xx_HAL_Driver/Src/stm32l0xx_hal_rtc.c ****     while (__HAL_RTC_ALARM_GET_FLAG(hrtc, RTC_FLAG_ALRBWF) == 0U)
1483:Drivers/STM32L0xx_HAL_Driver/Src/stm32l0xx_hal_rtc.c ****     {
1484:Drivers/STM32L0xx_HAL_Driver/Src/stm32l0xx_hal_rtc.c ****       if ((HAL_GetTick() - tickstart) > RTC_TIMEOUT_VALUE)
1485:Drivers/STM32L0xx_HAL_Driver/Src/stm32l0xx_hal_rtc.c ****       {
1486:Drivers/STM32L0xx_HAL_Driver/Src/stm32l0xx_hal_rtc.c ****         /* Enable the write protection for RTC registers */
1487:Drivers/STM32L0xx_HAL_Driver/Src/stm32l0xx_hal_rtc.c ****         __HAL_RTC_WRITEPROTECTION_ENABLE(hrtc);
1488:Drivers/STM32L0xx_HAL_Driver/Src/stm32l0xx_hal_rtc.c **** 
1489:Drivers/STM32L0xx_HAL_Driver/Src/stm32l0xx_hal_rtc.c ****         hrtc->State = HAL_RTC_STATE_TIMEOUT;
1490:Drivers/STM32L0xx_HAL_Driver/Src/stm32l0xx_hal_rtc.c **** 
1491:Drivers/STM32L0xx_HAL_Driver/Src/stm32l0xx_hal_rtc.c ****         /* Process Unlocked */
ARM GAS  /tmp/ccAh8F5t.s 			page 30


1492:Drivers/STM32L0xx_HAL_Driver/Src/stm32l0xx_hal_rtc.c ****         __HAL_UNLOCK(hrtc);
1493:Drivers/STM32L0xx_HAL_Driver/Src/stm32l0xx_hal_rtc.c **** 
1494:Drivers/STM32L0xx_HAL_Driver/Src/stm32l0xx_hal_rtc.c ****         return HAL_TIMEOUT;
1495:Drivers/STM32L0xx_HAL_Driver/Src/stm32l0xx_hal_rtc.c ****       }
1496:Drivers/STM32L0xx_HAL_Driver/Src/stm32l0xx_hal_rtc.c ****     }
1497:Drivers/STM32L0xx_HAL_Driver/Src/stm32l0xx_hal_rtc.c ****   }
1498:Drivers/STM32L0xx_HAL_Driver/Src/stm32l0xx_hal_rtc.c ****   /* Enable the write protection for RTC registers */
1499:Drivers/STM32L0xx_HAL_Driver/Src/stm32l0xx_hal_rtc.c ****   __HAL_RTC_WRITEPROTECTION_ENABLE(hrtc);
1500:Drivers/STM32L0xx_HAL_Driver/Src/stm32l0xx_hal_rtc.c **** 
1501:Drivers/STM32L0xx_HAL_Driver/Src/stm32l0xx_hal_rtc.c ****   hrtc->State = HAL_RTC_STATE_READY;
1502:Drivers/STM32L0xx_HAL_Driver/Src/stm32l0xx_hal_rtc.c **** 
1503:Drivers/STM32L0xx_HAL_Driver/Src/stm32l0xx_hal_rtc.c ****   /* Process Unlocked */
1504:Drivers/STM32L0xx_HAL_Driver/Src/stm32l0xx_hal_rtc.c ****   __HAL_UNLOCK(hrtc);
1505:Drivers/STM32L0xx_HAL_Driver/Src/stm32l0xx_hal_rtc.c **** 
1506:Drivers/STM32L0xx_HAL_Driver/Src/stm32l0xx_hal_rtc.c ****   return HAL_OK;
1507:Drivers/STM32L0xx_HAL_Driver/Src/stm32l0xx_hal_rtc.c **** }
1508:Drivers/STM32L0xx_HAL_Driver/Src/stm32l0xx_hal_rtc.c **** 
1509:Drivers/STM32L0xx_HAL_Driver/Src/stm32l0xx_hal_rtc.c **** /**
1510:Drivers/STM32L0xx_HAL_Driver/Src/stm32l0xx_hal_rtc.c ****   * @brief  Get the RTC Alarm value and masks.
1511:Drivers/STM32L0xx_HAL_Driver/Src/stm32l0xx_hal_rtc.c ****   * @param  hrtc RTC handle
1512:Drivers/STM32L0xx_HAL_Driver/Src/stm32l0xx_hal_rtc.c ****   * @param  sAlarm Pointer to Date structure
1513:Drivers/STM32L0xx_HAL_Driver/Src/stm32l0xx_hal_rtc.c ****   * @param  Alarm Specifies the Alarm.
1514:Drivers/STM32L0xx_HAL_Driver/Src/stm32l0xx_hal_rtc.c ****   *          This parameter can be one of the following values:
1515:Drivers/STM32L0xx_HAL_Driver/Src/stm32l0xx_hal_rtc.c ****   *             @arg RTC_ALARM_A: AlarmA
1516:Drivers/STM32L0xx_HAL_Driver/Src/stm32l0xx_hal_rtc.c ****   *             @arg RTC_ALARM_B: AlarmB
1517:Drivers/STM32L0xx_HAL_Driver/Src/stm32l0xx_hal_rtc.c ****   * @param  Format Specifies the format of the entered parameters.
1518:Drivers/STM32L0xx_HAL_Driver/Src/stm32l0xx_hal_rtc.c ****   *          This parameter can be one of the following values:
1519:Drivers/STM32L0xx_HAL_Driver/Src/stm32l0xx_hal_rtc.c ****   *             @arg RTC_FORMAT_BIN: Binary data format
1520:Drivers/STM32L0xx_HAL_Driver/Src/stm32l0xx_hal_rtc.c ****   *             @arg RTC_FORMAT_BCD: BCD data format
1521:Drivers/STM32L0xx_HAL_Driver/Src/stm32l0xx_hal_rtc.c ****   * @retval HAL status
1522:Drivers/STM32L0xx_HAL_Driver/Src/stm32l0xx_hal_rtc.c ****   */
1523:Drivers/STM32L0xx_HAL_Driver/Src/stm32l0xx_hal_rtc.c **** HAL_StatusTypeDef HAL_RTC_GetAlarm(RTC_HandleTypeDef *hrtc, RTC_AlarmTypeDef *sAlarm, uint32_t Alar
1524:Drivers/STM32L0xx_HAL_Driver/Src/stm32l0xx_hal_rtc.c **** {
1525:Drivers/STM32L0xx_HAL_Driver/Src/stm32l0xx_hal_rtc.c ****   uint32_t tmpreg, subsecondtmpreg;
1526:Drivers/STM32L0xx_HAL_Driver/Src/stm32l0xx_hal_rtc.c **** 
1527:Drivers/STM32L0xx_HAL_Driver/Src/stm32l0xx_hal_rtc.c ****   /* Check the parameters */
1528:Drivers/STM32L0xx_HAL_Driver/Src/stm32l0xx_hal_rtc.c ****   assert_param(IS_RTC_FORMAT(Format));
1529:Drivers/STM32L0xx_HAL_Driver/Src/stm32l0xx_hal_rtc.c ****   assert_param(IS_RTC_ALARM(Alarm));
1530:Drivers/STM32L0xx_HAL_Driver/Src/stm32l0xx_hal_rtc.c **** 
1531:Drivers/STM32L0xx_HAL_Driver/Src/stm32l0xx_hal_rtc.c ****   if (Alarm == RTC_ALARM_A)
1532:Drivers/STM32L0xx_HAL_Driver/Src/stm32l0xx_hal_rtc.c ****   {
1533:Drivers/STM32L0xx_HAL_Driver/Src/stm32l0xx_hal_rtc.c ****     /* AlarmA */
1534:Drivers/STM32L0xx_HAL_Driver/Src/stm32l0xx_hal_rtc.c ****     sAlarm->Alarm = RTC_ALARM_A;
1535:Drivers/STM32L0xx_HAL_Driver/Src/stm32l0xx_hal_rtc.c **** 
1536:Drivers/STM32L0xx_HAL_Driver/Src/stm32l0xx_hal_rtc.c ****     tmpreg = (uint32_t)(hrtc->Instance->ALRMAR);
1537:Drivers/STM32L0xx_HAL_Driver/Src/stm32l0xx_hal_rtc.c ****     subsecondtmpreg = (uint32_t)((hrtc->Instance->ALRMASSR) & RTC_ALRMASSR_SS);
1538:Drivers/STM32L0xx_HAL_Driver/Src/stm32l0xx_hal_rtc.c **** 
1539:Drivers/STM32L0xx_HAL_Driver/Src/stm32l0xx_hal_rtc.c ****     /* Fill the structure with the read parameters */
1540:Drivers/STM32L0xx_HAL_Driver/Src/stm32l0xx_hal_rtc.c ****     sAlarm->AlarmTime.Hours = (uint8_t)((tmpreg & (RTC_ALRMAR_HT | RTC_ALRMAR_HU)) >> 16U);
1541:Drivers/STM32L0xx_HAL_Driver/Src/stm32l0xx_hal_rtc.c ****     sAlarm->AlarmTime.Minutes = (uint8_t)((tmpreg & (RTC_ALRMAR_MNT | RTC_ALRMAR_MNU)) >> 8U);
1542:Drivers/STM32L0xx_HAL_Driver/Src/stm32l0xx_hal_rtc.c ****     sAlarm->AlarmTime.Seconds = (uint8_t)(tmpreg & (RTC_ALRMAR_ST | RTC_ALRMAR_SU));
1543:Drivers/STM32L0xx_HAL_Driver/Src/stm32l0xx_hal_rtc.c ****     sAlarm->AlarmTime.TimeFormat = (uint8_t)((tmpreg & RTC_ALRMAR_PM) >> 16U);
1544:Drivers/STM32L0xx_HAL_Driver/Src/stm32l0xx_hal_rtc.c ****     sAlarm->AlarmTime.SubSeconds = (uint32_t) subsecondtmpreg;
1545:Drivers/STM32L0xx_HAL_Driver/Src/stm32l0xx_hal_rtc.c ****     sAlarm->AlarmDateWeekDay = (uint8_t)((tmpreg & (RTC_ALRMAR_DT | RTC_ALRMAR_DU)) >> 24U);
1546:Drivers/STM32L0xx_HAL_Driver/Src/stm32l0xx_hal_rtc.c ****     sAlarm->AlarmDateWeekDaySel = (uint32_t)(tmpreg & RTC_ALRMAR_WDSEL);
1547:Drivers/STM32L0xx_HAL_Driver/Src/stm32l0xx_hal_rtc.c ****     sAlarm->AlarmMask = (uint32_t)(tmpreg & RTC_ALARMMASK_ALL);
1548:Drivers/STM32L0xx_HAL_Driver/Src/stm32l0xx_hal_rtc.c ****   }
ARM GAS  /tmp/ccAh8F5t.s 			page 31


1549:Drivers/STM32L0xx_HAL_Driver/Src/stm32l0xx_hal_rtc.c ****   else
1550:Drivers/STM32L0xx_HAL_Driver/Src/stm32l0xx_hal_rtc.c ****   {
1551:Drivers/STM32L0xx_HAL_Driver/Src/stm32l0xx_hal_rtc.c ****     sAlarm->Alarm = RTC_ALARM_B;
1552:Drivers/STM32L0xx_HAL_Driver/Src/stm32l0xx_hal_rtc.c **** 
1553:Drivers/STM32L0xx_HAL_Driver/Src/stm32l0xx_hal_rtc.c ****     tmpreg = (uint32_t)(hrtc->Instance->ALRMBR);
1554:Drivers/STM32L0xx_HAL_Driver/Src/stm32l0xx_hal_rtc.c ****     subsecondtmpreg = (uint32_t)((hrtc->Instance->ALRMBSSR) & RTC_ALRMBSSR_SS);
1555:Drivers/STM32L0xx_HAL_Driver/Src/stm32l0xx_hal_rtc.c **** 
1556:Drivers/STM32L0xx_HAL_Driver/Src/stm32l0xx_hal_rtc.c ****     /* Fill the structure with the read parameters */
1557:Drivers/STM32L0xx_HAL_Driver/Src/stm32l0xx_hal_rtc.c ****     sAlarm->AlarmTime.Hours = (uint8_t)((tmpreg & (RTC_ALRMBR_HT | RTC_ALRMBR_HU)) >> 16U);
1558:Drivers/STM32L0xx_HAL_Driver/Src/stm32l0xx_hal_rtc.c ****     sAlarm->AlarmTime.Minutes = (uint8_t)((tmpreg & (RTC_ALRMBR_MNT | RTC_ALRMBR_MNU)) >> 8U);
1559:Drivers/STM32L0xx_HAL_Driver/Src/stm32l0xx_hal_rtc.c ****     sAlarm->AlarmTime.Seconds = (uint8_t)(tmpreg & (RTC_ALRMBR_ST | RTC_ALRMBR_SU));
1560:Drivers/STM32L0xx_HAL_Driver/Src/stm32l0xx_hal_rtc.c ****     sAlarm->AlarmTime.TimeFormat = (uint8_t)((tmpreg & RTC_ALRMBR_PM) >> 16U);
1561:Drivers/STM32L0xx_HAL_Driver/Src/stm32l0xx_hal_rtc.c ****     sAlarm->AlarmTime.SubSeconds = (uint32_t) subsecondtmpreg;
1562:Drivers/STM32L0xx_HAL_Driver/Src/stm32l0xx_hal_rtc.c ****     sAlarm->AlarmDateWeekDay = (uint8_t)((tmpreg & (RTC_ALRMBR_DT | RTC_ALRMBR_DU)) >> 24U);
1563:Drivers/STM32L0xx_HAL_Driver/Src/stm32l0xx_hal_rtc.c ****     sAlarm->AlarmDateWeekDaySel = (uint32_t)(tmpreg & RTC_ALRMBR_WDSEL);
1564:Drivers/STM32L0xx_HAL_Driver/Src/stm32l0xx_hal_rtc.c ****     sAlarm->AlarmMask = (uint32_t)(tmpreg & RTC_ALARMMASK_ALL);
1565:Drivers/STM32L0xx_HAL_Driver/Src/stm32l0xx_hal_rtc.c ****   }
1566:Drivers/STM32L0xx_HAL_Driver/Src/stm32l0xx_hal_rtc.c **** 
1567:Drivers/STM32L0xx_HAL_Driver/Src/stm32l0xx_hal_rtc.c ****   if (Format == RTC_FORMAT_BIN)
1568:Drivers/STM32L0xx_HAL_Driver/Src/stm32l0xx_hal_rtc.c ****   {
1569:Drivers/STM32L0xx_HAL_Driver/Src/stm32l0xx_hal_rtc.c ****     sAlarm->AlarmTime.Hours = RTC_Bcd2ToByte(sAlarm->AlarmTime.Hours);
1570:Drivers/STM32L0xx_HAL_Driver/Src/stm32l0xx_hal_rtc.c ****     sAlarm->AlarmTime.Minutes = RTC_Bcd2ToByte(sAlarm->AlarmTime.Minutes);
1571:Drivers/STM32L0xx_HAL_Driver/Src/stm32l0xx_hal_rtc.c ****     sAlarm->AlarmTime.Seconds = RTC_Bcd2ToByte(sAlarm->AlarmTime.Seconds);
1572:Drivers/STM32L0xx_HAL_Driver/Src/stm32l0xx_hal_rtc.c ****     sAlarm->AlarmDateWeekDay = RTC_Bcd2ToByte(sAlarm->AlarmDateWeekDay);
1573:Drivers/STM32L0xx_HAL_Driver/Src/stm32l0xx_hal_rtc.c ****   }
1574:Drivers/STM32L0xx_HAL_Driver/Src/stm32l0xx_hal_rtc.c **** 
1575:Drivers/STM32L0xx_HAL_Driver/Src/stm32l0xx_hal_rtc.c ****   return HAL_OK;
1576:Drivers/STM32L0xx_HAL_Driver/Src/stm32l0xx_hal_rtc.c **** }
1577:Drivers/STM32L0xx_HAL_Driver/Src/stm32l0xx_hal_rtc.c **** 
1578:Drivers/STM32L0xx_HAL_Driver/Src/stm32l0xx_hal_rtc.c **** /**
1579:Drivers/STM32L0xx_HAL_Driver/Src/stm32l0xx_hal_rtc.c ****   * @brief  Handle Alarm interrupt request.
1580:Drivers/STM32L0xx_HAL_Driver/Src/stm32l0xx_hal_rtc.c ****   * @param  hrtc RTC handle
1581:Drivers/STM32L0xx_HAL_Driver/Src/stm32l0xx_hal_rtc.c ****   * @retval None
1582:Drivers/STM32L0xx_HAL_Driver/Src/stm32l0xx_hal_rtc.c ****   */
1583:Drivers/STM32L0xx_HAL_Driver/Src/stm32l0xx_hal_rtc.c **** void HAL_RTC_AlarmIRQHandler(RTC_HandleTypeDef *hrtc)
1584:Drivers/STM32L0xx_HAL_Driver/Src/stm32l0xx_hal_rtc.c **** {
1585:Drivers/STM32L0xx_HAL_Driver/Src/stm32l0xx_hal_rtc.c ****   /* Get the AlarmA interrupt source enable status */
1586:Drivers/STM32L0xx_HAL_Driver/Src/stm32l0xx_hal_rtc.c ****   if (__HAL_RTC_ALARM_GET_IT_SOURCE(hrtc, RTC_IT_ALRA) != 0U)
1587:Drivers/STM32L0xx_HAL_Driver/Src/stm32l0xx_hal_rtc.c ****   {
1588:Drivers/STM32L0xx_HAL_Driver/Src/stm32l0xx_hal_rtc.c ****     /* Get the pending status of the AlarmA Interrupt */
1589:Drivers/STM32L0xx_HAL_Driver/Src/stm32l0xx_hal_rtc.c ****     if (__HAL_RTC_ALARM_GET_FLAG(hrtc, RTC_FLAG_ALRAF) != 0U)
1590:Drivers/STM32L0xx_HAL_Driver/Src/stm32l0xx_hal_rtc.c ****     {
1591:Drivers/STM32L0xx_HAL_Driver/Src/stm32l0xx_hal_rtc.c ****       /* AlarmA callback */
1592:Drivers/STM32L0xx_HAL_Driver/Src/stm32l0xx_hal_rtc.c **** #if (USE_HAL_RTC_REGISTER_CALLBACKS == 1)
1593:Drivers/STM32L0xx_HAL_Driver/Src/stm32l0xx_hal_rtc.c ****       hrtc->AlarmAEventCallback(hrtc);
1594:Drivers/STM32L0xx_HAL_Driver/Src/stm32l0xx_hal_rtc.c **** #else
1595:Drivers/STM32L0xx_HAL_Driver/Src/stm32l0xx_hal_rtc.c ****       HAL_RTC_AlarmAEventCallback(hrtc);
1596:Drivers/STM32L0xx_HAL_Driver/Src/stm32l0xx_hal_rtc.c **** #endif /* USE_HAL_RTC_REGISTER_CALLBACKS */
1597:Drivers/STM32L0xx_HAL_Driver/Src/stm32l0xx_hal_rtc.c **** 
1598:Drivers/STM32L0xx_HAL_Driver/Src/stm32l0xx_hal_rtc.c ****       /* Clear the AlarmA interrupt pending bit */
1599:Drivers/STM32L0xx_HAL_Driver/Src/stm32l0xx_hal_rtc.c ****       __HAL_RTC_ALARM_CLEAR_FLAG(hrtc, RTC_FLAG_ALRAF);
1600:Drivers/STM32L0xx_HAL_Driver/Src/stm32l0xx_hal_rtc.c ****     }
1601:Drivers/STM32L0xx_HAL_Driver/Src/stm32l0xx_hal_rtc.c ****   }
1602:Drivers/STM32L0xx_HAL_Driver/Src/stm32l0xx_hal_rtc.c **** 
1603:Drivers/STM32L0xx_HAL_Driver/Src/stm32l0xx_hal_rtc.c ****   /* Get the AlarmB interrupt source enable status */
1604:Drivers/STM32L0xx_HAL_Driver/Src/stm32l0xx_hal_rtc.c ****   if (__HAL_RTC_ALARM_GET_IT_SOURCE(hrtc, RTC_IT_ALRB) != 0U)
1605:Drivers/STM32L0xx_HAL_Driver/Src/stm32l0xx_hal_rtc.c ****   {
ARM GAS  /tmp/ccAh8F5t.s 			page 32


1606:Drivers/STM32L0xx_HAL_Driver/Src/stm32l0xx_hal_rtc.c ****     /* Get the pending status of the AlarmB Interrupt */
1607:Drivers/STM32L0xx_HAL_Driver/Src/stm32l0xx_hal_rtc.c ****     if (__HAL_RTC_ALARM_GET_FLAG(hrtc, RTC_FLAG_ALRBF) != 0U)
1608:Drivers/STM32L0xx_HAL_Driver/Src/stm32l0xx_hal_rtc.c ****     {
1609:Drivers/STM32L0xx_HAL_Driver/Src/stm32l0xx_hal_rtc.c ****       /* AlarmB callback */
1610:Drivers/STM32L0xx_HAL_Driver/Src/stm32l0xx_hal_rtc.c **** #if (USE_HAL_RTC_REGISTER_CALLBACKS == 1)
1611:Drivers/STM32L0xx_HAL_Driver/Src/stm32l0xx_hal_rtc.c ****       hrtc->AlarmBEventCallback(hrtc);
1612:Drivers/STM32L0xx_HAL_Driver/Src/stm32l0xx_hal_rtc.c **** #else
1613:Drivers/STM32L0xx_HAL_Driver/Src/stm32l0xx_hal_rtc.c ****       HAL_RTCEx_AlarmBEventCallback(hrtc);
1614:Drivers/STM32L0xx_HAL_Driver/Src/stm32l0xx_hal_rtc.c **** #endif /* USE_HAL_RTC_REGISTER_CALLBACKS */
1615:Drivers/STM32L0xx_HAL_Driver/Src/stm32l0xx_hal_rtc.c **** 
1616:Drivers/STM32L0xx_HAL_Driver/Src/stm32l0xx_hal_rtc.c ****       /* Clear the AlarmB interrupt pending bit */
1617:Drivers/STM32L0xx_HAL_Driver/Src/stm32l0xx_hal_rtc.c ****       __HAL_RTC_ALARM_CLEAR_FLAG(hrtc, RTC_FLAG_ALRBF);
1618:Drivers/STM32L0xx_HAL_Driver/Src/stm32l0xx_hal_rtc.c ****     }
1619:Drivers/STM32L0xx_HAL_Driver/Src/stm32l0xx_hal_rtc.c ****   }
1620:Drivers/STM32L0xx_HAL_Driver/Src/stm32l0xx_hal_rtc.c ****   /* Clear the EXTI's line Flag for RTC Alarm */
1621:Drivers/STM32L0xx_HAL_Driver/Src/stm32l0xx_hal_rtc.c ****   __HAL_RTC_ALARM_EXTI_CLEAR_FLAG();
1622:Drivers/STM32L0xx_HAL_Driver/Src/stm32l0xx_hal_rtc.c **** 
1623:Drivers/STM32L0xx_HAL_Driver/Src/stm32l0xx_hal_rtc.c ****   /* Change RTC state */
1624:Drivers/STM32L0xx_HAL_Driver/Src/stm32l0xx_hal_rtc.c ****   hrtc->State = HAL_RTC_STATE_READY;
1625:Drivers/STM32L0xx_HAL_Driver/Src/stm32l0xx_hal_rtc.c **** }
1626:Drivers/STM32L0xx_HAL_Driver/Src/stm32l0xx_hal_rtc.c **** 
1627:Drivers/STM32L0xx_HAL_Driver/Src/stm32l0xx_hal_rtc.c **** /**
1628:Drivers/STM32L0xx_HAL_Driver/Src/stm32l0xx_hal_rtc.c ****   * @brief  Alarm A callback.
1629:Drivers/STM32L0xx_HAL_Driver/Src/stm32l0xx_hal_rtc.c ****   * @param  hrtc RTC handle
1630:Drivers/STM32L0xx_HAL_Driver/Src/stm32l0xx_hal_rtc.c ****   * @retval None
1631:Drivers/STM32L0xx_HAL_Driver/Src/stm32l0xx_hal_rtc.c ****   */
1632:Drivers/STM32L0xx_HAL_Driver/Src/stm32l0xx_hal_rtc.c **** __weak void HAL_RTC_AlarmAEventCallback(RTC_HandleTypeDef *hrtc)
1633:Drivers/STM32L0xx_HAL_Driver/Src/stm32l0xx_hal_rtc.c **** {
1634:Drivers/STM32L0xx_HAL_Driver/Src/stm32l0xx_hal_rtc.c ****   /* Prevent unused argument(s) compilation warning */
1635:Drivers/STM32L0xx_HAL_Driver/Src/stm32l0xx_hal_rtc.c ****   UNUSED(hrtc);
1636:Drivers/STM32L0xx_HAL_Driver/Src/stm32l0xx_hal_rtc.c **** 
1637:Drivers/STM32L0xx_HAL_Driver/Src/stm32l0xx_hal_rtc.c ****   /* NOTE : This function should not be modified, when the callback is needed,
1638:Drivers/STM32L0xx_HAL_Driver/Src/stm32l0xx_hal_rtc.c ****             the HAL_RTC_AlarmAEventCallback could be implemented in the user file
1639:Drivers/STM32L0xx_HAL_Driver/Src/stm32l0xx_hal_rtc.c ****    */
1640:Drivers/STM32L0xx_HAL_Driver/Src/stm32l0xx_hal_rtc.c **** }
1641:Drivers/STM32L0xx_HAL_Driver/Src/stm32l0xx_hal_rtc.c **** 
1642:Drivers/STM32L0xx_HAL_Driver/Src/stm32l0xx_hal_rtc.c **** /**
1643:Drivers/STM32L0xx_HAL_Driver/Src/stm32l0xx_hal_rtc.c ****   * @brief  Handle AlarmA Polling request.
1644:Drivers/STM32L0xx_HAL_Driver/Src/stm32l0xx_hal_rtc.c ****   * @param  hrtc RTC handle
1645:Drivers/STM32L0xx_HAL_Driver/Src/stm32l0xx_hal_rtc.c ****   * @param  Timeout Timeout duration
1646:Drivers/STM32L0xx_HAL_Driver/Src/stm32l0xx_hal_rtc.c ****   * @retval HAL status
1647:Drivers/STM32L0xx_HAL_Driver/Src/stm32l0xx_hal_rtc.c ****   */
1648:Drivers/STM32L0xx_HAL_Driver/Src/stm32l0xx_hal_rtc.c **** HAL_StatusTypeDef HAL_RTC_PollForAlarmAEvent(RTC_HandleTypeDef *hrtc, uint32_t Timeout)
1649:Drivers/STM32L0xx_HAL_Driver/Src/stm32l0xx_hal_rtc.c **** {
1650:Drivers/STM32L0xx_HAL_Driver/Src/stm32l0xx_hal_rtc.c **** 
1651:Drivers/STM32L0xx_HAL_Driver/Src/stm32l0xx_hal_rtc.c ****   uint32_t tickstart = HAL_GetTick();
1652:Drivers/STM32L0xx_HAL_Driver/Src/stm32l0xx_hal_rtc.c **** 
1653:Drivers/STM32L0xx_HAL_Driver/Src/stm32l0xx_hal_rtc.c ****   while (__HAL_RTC_ALARM_GET_FLAG(hrtc, RTC_FLAG_ALRAF) == 0U)
1654:Drivers/STM32L0xx_HAL_Driver/Src/stm32l0xx_hal_rtc.c ****   {
1655:Drivers/STM32L0xx_HAL_Driver/Src/stm32l0xx_hal_rtc.c ****     if (Timeout != HAL_MAX_DELAY)
1656:Drivers/STM32L0xx_HAL_Driver/Src/stm32l0xx_hal_rtc.c ****     {
1657:Drivers/STM32L0xx_HAL_Driver/Src/stm32l0xx_hal_rtc.c ****       if (((HAL_GetTick() - tickstart) > Timeout) || (Timeout == 0U))
1658:Drivers/STM32L0xx_HAL_Driver/Src/stm32l0xx_hal_rtc.c ****       {
1659:Drivers/STM32L0xx_HAL_Driver/Src/stm32l0xx_hal_rtc.c ****         hrtc->State = HAL_RTC_STATE_TIMEOUT;
1660:Drivers/STM32L0xx_HAL_Driver/Src/stm32l0xx_hal_rtc.c ****         return HAL_TIMEOUT;
1661:Drivers/STM32L0xx_HAL_Driver/Src/stm32l0xx_hal_rtc.c ****       }
1662:Drivers/STM32L0xx_HAL_Driver/Src/stm32l0xx_hal_rtc.c ****     }
ARM GAS  /tmp/ccAh8F5t.s 			page 33


1663:Drivers/STM32L0xx_HAL_Driver/Src/stm32l0xx_hal_rtc.c ****   }
1664:Drivers/STM32L0xx_HAL_Driver/Src/stm32l0xx_hal_rtc.c **** 
1665:Drivers/STM32L0xx_HAL_Driver/Src/stm32l0xx_hal_rtc.c ****   /* Clear the Alarm interrupt pending bit */
1666:Drivers/STM32L0xx_HAL_Driver/Src/stm32l0xx_hal_rtc.c ****   __HAL_RTC_ALARM_CLEAR_FLAG(hrtc, RTC_FLAG_ALRAF);
1667:Drivers/STM32L0xx_HAL_Driver/Src/stm32l0xx_hal_rtc.c **** 
1668:Drivers/STM32L0xx_HAL_Driver/Src/stm32l0xx_hal_rtc.c ****   /* Change RTC state */
1669:Drivers/STM32L0xx_HAL_Driver/Src/stm32l0xx_hal_rtc.c ****   hrtc->State = HAL_RTC_STATE_READY;
1670:Drivers/STM32L0xx_HAL_Driver/Src/stm32l0xx_hal_rtc.c **** 
1671:Drivers/STM32L0xx_HAL_Driver/Src/stm32l0xx_hal_rtc.c ****   return HAL_OK;
1672:Drivers/STM32L0xx_HAL_Driver/Src/stm32l0xx_hal_rtc.c **** }
1673:Drivers/STM32L0xx_HAL_Driver/Src/stm32l0xx_hal_rtc.c **** 
1674:Drivers/STM32L0xx_HAL_Driver/Src/stm32l0xx_hal_rtc.c **** /**
1675:Drivers/STM32L0xx_HAL_Driver/Src/stm32l0xx_hal_rtc.c ****   * @}
1676:Drivers/STM32L0xx_HAL_Driver/Src/stm32l0xx_hal_rtc.c ****   */
1677:Drivers/STM32L0xx_HAL_Driver/Src/stm32l0xx_hal_rtc.c **** 
1678:Drivers/STM32L0xx_HAL_Driver/Src/stm32l0xx_hal_rtc.c **** /** @addtogroup RTC_Exported_Functions_Group4
1679:Drivers/STM32L0xx_HAL_Driver/Src/stm32l0xx_hal_rtc.c ****  *  @brief   Peripheral Control functions
1680:Drivers/STM32L0xx_HAL_Driver/Src/stm32l0xx_hal_rtc.c ****  *
1681:Drivers/STM32L0xx_HAL_Driver/Src/stm32l0xx_hal_rtc.c **** @verbatim
1682:Drivers/STM32L0xx_HAL_Driver/Src/stm32l0xx_hal_rtc.c ****  ===============================================================================
1683:Drivers/STM32L0xx_HAL_Driver/Src/stm32l0xx_hal_rtc.c ****                      ##### Peripheral Control functions #####
1684:Drivers/STM32L0xx_HAL_Driver/Src/stm32l0xx_hal_rtc.c ****  ===============================================================================
1685:Drivers/STM32L0xx_HAL_Driver/Src/stm32l0xx_hal_rtc.c ****     [..]
1686:Drivers/STM32L0xx_HAL_Driver/Src/stm32l0xx_hal_rtc.c ****     This subsection provides functions allowing to
1687:Drivers/STM32L0xx_HAL_Driver/Src/stm32l0xx_hal_rtc.c ****       (+) Wait for RTC Time and Date Synchronization
1688:Drivers/STM32L0xx_HAL_Driver/Src/stm32l0xx_hal_rtc.c **** 
1689:Drivers/STM32L0xx_HAL_Driver/Src/stm32l0xx_hal_rtc.c **** @endverbatim
1690:Drivers/STM32L0xx_HAL_Driver/Src/stm32l0xx_hal_rtc.c ****   * @{
1691:Drivers/STM32L0xx_HAL_Driver/Src/stm32l0xx_hal_rtc.c ****   */
1692:Drivers/STM32L0xx_HAL_Driver/Src/stm32l0xx_hal_rtc.c **** 
1693:Drivers/STM32L0xx_HAL_Driver/Src/stm32l0xx_hal_rtc.c **** /**
1694:Drivers/STM32L0xx_HAL_Driver/Src/stm32l0xx_hal_rtc.c ****   * @brief  Wait until the RTC Time and Date registers (RTC_TR and RTC_DR) are
1695:Drivers/STM32L0xx_HAL_Driver/Src/stm32l0xx_hal_rtc.c ****   *         synchronized with RTC APB clock.
1696:Drivers/STM32L0xx_HAL_Driver/Src/stm32l0xx_hal_rtc.c ****   * @note   The RTC Resynchronization mode is write protected, use the
1697:Drivers/STM32L0xx_HAL_Driver/Src/stm32l0xx_hal_rtc.c ****   *         __HAL_RTC_WRITEPROTECTION_DISABLE() before calling this function.
1698:Drivers/STM32L0xx_HAL_Driver/Src/stm32l0xx_hal_rtc.c ****   * @note   To read the calendar through the shadow registers after Calendar
1699:Drivers/STM32L0xx_HAL_Driver/Src/stm32l0xx_hal_rtc.c ****   *         initialization, calendar update or after wakeup from low power modes
1700:Drivers/STM32L0xx_HAL_Driver/Src/stm32l0xx_hal_rtc.c ****   *         the software must first clear the RSF flag.
1701:Drivers/STM32L0xx_HAL_Driver/Src/stm32l0xx_hal_rtc.c ****   *         The software must then wait until it is set again before reading
1702:Drivers/STM32L0xx_HAL_Driver/Src/stm32l0xx_hal_rtc.c ****   *         the calendar, which means that the calendar registers have been
1703:Drivers/STM32L0xx_HAL_Driver/Src/stm32l0xx_hal_rtc.c ****   *         correctly copied into the RTC_TR and RTC_DR shadow registers.
1704:Drivers/STM32L0xx_HAL_Driver/Src/stm32l0xx_hal_rtc.c ****   * @param  hrtc RTC handle
1705:Drivers/STM32L0xx_HAL_Driver/Src/stm32l0xx_hal_rtc.c ****   * @retval HAL status
1706:Drivers/STM32L0xx_HAL_Driver/Src/stm32l0xx_hal_rtc.c ****   */
1707:Drivers/STM32L0xx_HAL_Driver/Src/stm32l0xx_hal_rtc.c **** HAL_StatusTypeDef HAL_RTC_WaitForSynchro(RTC_HandleTypeDef *hrtc)
1708:Drivers/STM32L0xx_HAL_Driver/Src/stm32l0xx_hal_rtc.c **** {
1709:Drivers/STM32L0xx_HAL_Driver/Src/stm32l0xx_hal_rtc.c ****   uint32_t tickstart;
1710:Drivers/STM32L0xx_HAL_Driver/Src/stm32l0xx_hal_rtc.c **** 
1711:Drivers/STM32L0xx_HAL_Driver/Src/stm32l0xx_hal_rtc.c ****   /* Clear RSF flag */
1712:Drivers/STM32L0xx_HAL_Driver/Src/stm32l0xx_hal_rtc.c ****   hrtc->Instance->ISR &= (uint32_t)RTC_RSF_MASK;
1713:Drivers/STM32L0xx_HAL_Driver/Src/stm32l0xx_hal_rtc.c **** 
1714:Drivers/STM32L0xx_HAL_Driver/Src/stm32l0xx_hal_rtc.c ****   tickstart = HAL_GetTick();
1715:Drivers/STM32L0xx_HAL_Driver/Src/stm32l0xx_hal_rtc.c **** 
1716:Drivers/STM32L0xx_HAL_Driver/Src/stm32l0xx_hal_rtc.c ****   /* Wait the registers to be synchronised */
1717:Drivers/STM32L0xx_HAL_Driver/Src/stm32l0xx_hal_rtc.c ****   while ((hrtc->Instance->ISR & RTC_ISR_RSF) == 0U)
1718:Drivers/STM32L0xx_HAL_Driver/Src/stm32l0xx_hal_rtc.c ****   {
1719:Drivers/STM32L0xx_HAL_Driver/Src/stm32l0xx_hal_rtc.c ****     if ((HAL_GetTick() - tickstart) > RTC_TIMEOUT_VALUE)
ARM GAS  /tmp/ccAh8F5t.s 			page 34


1720:Drivers/STM32L0xx_HAL_Driver/Src/stm32l0xx_hal_rtc.c ****     {
1721:Drivers/STM32L0xx_HAL_Driver/Src/stm32l0xx_hal_rtc.c ****       return HAL_TIMEOUT;
1722:Drivers/STM32L0xx_HAL_Driver/Src/stm32l0xx_hal_rtc.c ****     }
1723:Drivers/STM32L0xx_HAL_Driver/Src/stm32l0xx_hal_rtc.c ****   }
1724:Drivers/STM32L0xx_HAL_Driver/Src/stm32l0xx_hal_rtc.c **** 
1725:Drivers/STM32L0xx_HAL_Driver/Src/stm32l0xx_hal_rtc.c ****   return HAL_OK;
1726:Drivers/STM32L0xx_HAL_Driver/Src/stm32l0xx_hal_rtc.c **** }
1727:Drivers/STM32L0xx_HAL_Driver/Src/stm32l0xx_hal_rtc.c **** 
1728:Drivers/STM32L0xx_HAL_Driver/Src/stm32l0xx_hal_rtc.c **** /**
1729:Drivers/STM32L0xx_HAL_Driver/Src/stm32l0xx_hal_rtc.c ****   * @}
1730:Drivers/STM32L0xx_HAL_Driver/Src/stm32l0xx_hal_rtc.c ****   */
1731:Drivers/STM32L0xx_HAL_Driver/Src/stm32l0xx_hal_rtc.c **** 
1732:Drivers/STM32L0xx_HAL_Driver/Src/stm32l0xx_hal_rtc.c **** /** @addtogroup RTC_Exported_Functions_Group5
1733:Drivers/STM32L0xx_HAL_Driver/Src/stm32l0xx_hal_rtc.c ****  *  @brief   Peripheral State functions
1734:Drivers/STM32L0xx_HAL_Driver/Src/stm32l0xx_hal_rtc.c ****  *
1735:Drivers/STM32L0xx_HAL_Driver/Src/stm32l0xx_hal_rtc.c **** @verbatim
1736:Drivers/STM32L0xx_HAL_Driver/Src/stm32l0xx_hal_rtc.c ****  ===============================================================================
1737:Drivers/STM32L0xx_HAL_Driver/Src/stm32l0xx_hal_rtc.c ****                      ##### Peripheral State functions #####
1738:Drivers/STM32L0xx_HAL_Driver/Src/stm32l0xx_hal_rtc.c ****  ===============================================================================
1739:Drivers/STM32L0xx_HAL_Driver/Src/stm32l0xx_hal_rtc.c ****     [..]
1740:Drivers/STM32L0xx_HAL_Driver/Src/stm32l0xx_hal_rtc.c ****     This subsection provides functions allowing to
1741:Drivers/STM32L0xx_HAL_Driver/Src/stm32l0xx_hal_rtc.c ****       (+) Get RTC state
1742:Drivers/STM32L0xx_HAL_Driver/Src/stm32l0xx_hal_rtc.c **** 
1743:Drivers/STM32L0xx_HAL_Driver/Src/stm32l0xx_hal_rtc.c **** @endverbatim
1744:Drivers/STM32L0xx_HAL_Driver/Src/stm32l0xx_hal_rtc.c ****   * @{
1745:Drivers/STM32L0xx_HAL_Driver/Src/stm32l0xx_hal_rtc.c ****   */
1746:Drivers/STM32L0xx_HAL_Driver/Src/stm32l0xx_hal_rtc.c **** /**
1747:Drivers/STM32L0xx_HAL_Driver/Src/stm32l0xx_hal_rtc.c ****   * @brief  Return the RTC handle state.
1748:Drivers/STM32L0xx_HAL_Driver/Src/stm32l0xx_hal_rtc.c ****   * @param  hrtc RTC handle
1749:Drivers/STM32L0xx_HAL_Driver/Src/stm32l0xx_hal_rtc.c ****   * @retval HAL state
1750:Drivers/STM32L0xx_HAL_Driver/Src/stm32l0xx_hal_rtc.c ****   */
1751:Drivers/STM32L0xx_HAL_Driver/Src/stm32l0xx_hal_rtc.c **** HAL_RTCStateTypeDef HAL_RTC_GetState(RTC_HandleTypeDef *hrtc)
1752:Drivers/STM32L0xx_HAL_Driver/Src/stm32l0xx_hal_rtc.c **** {
1753:Drivers/STM32L0xx_HAL_Driver/Src/stm32l0xx_hal_rtc.c ****   /* Return RTC handle state */
1754:Drivers/STM32L0xx_HAL_Driver/Src/stm32l0xx_hal_rtc.c ****   return hrtc->State;
1755:Drivers/STM32L0xx_HAL_Driver/Src/stm32l0xx_hal_rtc.c **** }
1756:Drivers/STM32L0xx_HAL_Driver/Src/stm32l0xx_hal_rtc.c **** 
1757:Drivers/STM32L0xx_HAL_Driver/Src/stm32l0xx_hal_rtc.c **** /**
1758:Drivers/STM32L0xx_HAL_Driver/Src/stm32l0xx_hal_rtc.c ****   * @}
1759:Drivers/STM32L0xx_HAL_Driver/Src/stm32l0xx_hal_rtc.c ****   */
1760:Drivers/STM32L0xx_HAL_Driver/Src/stm32l0xx_hal_rtc.c **** /**
1761:Drivers/STM32L0xx_HAL_Driver/Src/stm32l0xx_hal_rtc.c ****   * @}
1762:Drivers/STM32L0xx_HAL_Driver/Src/stm32l0xx_hal_rtc.c ****   */
1763:Drivers/STM32L0xx_HAL_Driver/Src/stm32l0xx_hal_rtc.c **** 
1764:Drivers/STM32L0xx_HAL_Driver/Src/stm32l0xx_hal_rtc.c **** /** @addtogroup RTC_Private_Functions
1765:Drivers/STM32L0xx_HAL_Driver/Src/stm32l0xx_hal_rtc.c ****   * @{
1766:Drivers/STM32L0xx_HAL_Driver/Src/stm32l0xx_hal_rtc.c ****   */
1767:Drivers/STM32L0xx_HAL_Driver/Src/stm32l0xx_hal_rtc.c **** /**
1768:Drivers/STM32L0xx_HAL_Driver/Src/stm32l0xx_hal_rtc.c ****   * @brief  Enter the RTC Initialization mode.
1769:Drivers/STM32L0xx_HAL_Driver/Src/stm32l0xx_hal_rtc.c ****   * @note   The RTC Initialization mode is write protected, use the
1770:Drivers/STM32L0xx_HAL_Driver/Src/stm32l0xx_hal_rtc.c ****   *         __HAL_RTC_WRITEPROTECTION_DISABLE() before calling this function.
1771:Drivers/STM32L0xx_HAL_Driver/Src/stm32l0xx_hal_rtc.c ****   * @param  hrtc RTC handle
1772:Drivers/STM32L0xx_HAL_Driver/Src/stm32l0xx_hal_rtc.c ****   * @retval HAL status
1773:Drivers/STM32L0xx_HAL_Driver/Src/stm32l0xx_hal_rtc.c ****   */
1774:Drivers/STM32L0xx_HAL_Driver/Src/stm32l0xx_hal_rtc.c **** HAL_StatusTypeDef RTC_EnterInitMode(RTC_HandleTypeDef *hrtc)
1775:Drivers/STM32L0xx_HAL_Driver/Src/stm32l0xx_hal_rtc.c **** {
1776:Drivers/STM32L0xx_HAL_Driver/Src/stm32l0xx_hal_rtc.c ****   uint32_t tickstart;
ARM GAS  /tmp/ccAh8F5t.s 			page 35


1777:Drivers/STM32L0xx_HAL_Driver/Src/stm32l0xx_hal_rtc.c **** 
1778:Drivers/STM32L0xx_HAL_Driver/Src/stm32l0xx_hal_rtc.c ****   /* Check if the Initialization mode is set */
1779:Drivers/STM32L0xx_HAL_Driver/Src/stm32l0xx_hal_rtc.c ****   if ((hrtc->Instance->ISR & RTC_ISR_INITF) == 0U)
1780:Drivers/STM32L0xx_HAL_Driver/Src/stm32l0xx_hal_rtc.c ****   {
1781:Drivers/STM32L0xx_HAL_Driver/Src/stm32l0xx_hal_rtc.c ****     /* Set the Initialization mode */
1782:Drivers/STM32L0xx_HAL_Driver/Src/stm32l0xx_hal_rtc.c ****     hrtc->Instance->ISR = (uint32_t)RTC_INIT_MASK;
1783:Drivers/STM32L0xx_HAL_Driver/Src/stm32l0xx_hal_rtc.c **** 
1784:Drivers/STM32L0xx_HAL_Driver/Src/stm32l0xx_hal_rtc.c ****     tickstart = HAL_GetTick();
1785:Drivers/STM32L0xx_HAL_Driver/Src/stm32l0xx_hal_rtc.c ****     /* Wait till RTC is in INIT state and if Time out is reached exit */
1786:Drivers/STM32L0xx_HAL_Driver/Src/stm32l0xx_hal_rtc.c ****     while ((hrtc->Instance->ISR & RTC_ISR_INITF) == 0U)
1787:Drivers/STM32L0xx_HAL_Driver/Src/stm32l0xx_hal_rtc.c ****     {
1788:Drivers/STM32L0xx_HAL_Driver/Src/stm32l0xx_hal_rtc.c ****       if ((HAL_GetTick()  - tickstart) > RTC_TIMEOUT_VALUE)
1789:Drivers/STM32L0xx_HAL_Driver/Src/stm32l0xx_hal_rtc.c ****       {
1790:Drivers/STM32L0xx_HAL_Driver/Src/stm32l0xx_hal_rtc.c ****         return HAL_TIMEOUT;
1791:Drivers/STM32L0xx_HAL_Driver/Src/stm32l0xx_hal_rtc.c ****       }
1792:Drivers/STM32L0xx_HAL_Driver/Src/stm32l0xx_hal_rtc.c ****     }
1793:Drivers/STM32L0xx_HAL_Driver/Src/stm32l0xx_hal_rtc.c ****   }
1794:Drivers/STM32L0xx_HAL_Driver/Src/stm32l0xx_hal_rtc.c **** 
1795:Drivers/STM32L0xx_HAL_Driver/Src/stm32l0xx_hal_rtc.c ****   return HAL_OK;
1796:Drivers/STM32L0xx_HAL_Driver/Src/stm32l0xx_hal_rtc.c **** }
1797:Drivers/STM32L0xx_HAL_Driver/Src/stm32l0xx_hal_rtc.c **** 
1798:Drivers/STM32L0xx_HAL_Driver/Src/stm32l0xx_hal_rtc.c **** 
1799:Drivers/STM32L0xx_HAL_Driver/Src/stm32l0xx_hal_rtc.c **** /**
1800:Drivers/STM32L0xx_HAL_Driver/Src/stm32l0xx_hal_rtc.c ****   * @brief  Convert a 2 digit decimal to BCD format.
1801:Drivers/STM32L0xx_HAL_Driver/Src/stm32l0xx_hal_rtc.c ****   * @param  Value Byte to be converted
1802:Drivers/STM32L0xx_HAL_Driver/Src/stm32l0xx_hal_rtc.c ****   * @retval Converted byte
1803:Drivers/STM32L0xx_HAL_Driver/Src/stm32l0xx_hal_rtc.c ****   */
1804:Drivers/STM32L0xx_HAL_Driver/Src/stm32l0xx_hal_rtc.c **** uint8_t RTC_ByteToBcd2(uint8_t Value)
1805:Drivers/STM32L0xx_HAL_Driver/Src/stm32l0xx_hal_rtc.c **** {
1806:Drivers/STM32L0xx_HAL_Driver/Src/stm32l0xx_hal_rtc.c ****   uint32_t bcdhigh = 0U;
1807:Drivers/STM32L0xx_HAL_Driver/Src/stm32l0xx_hal_rtc.c ****   uint8_t Param = Value;
1808:Drivers/STM32L0xx_HAL_Driver/Src/stm32l0xx_hal_rtc.c **** 
1809:Drivers/STM32L0xx_HAL_Driver/Src/stm32l0xx_hal_rtc.c ****   while (Param >= 10U)
1810:Drivers/STM32L0xx_HAL_Driver/Src/stm32l0xx_hal_rtc.c ****   {
1811:Drivers/STM32L0xx_HAL_Driver/Src/stm32l0xx_hal_rtc.c ****     bcdhigh++;
1812:Drivers/STM32L0xx_HAL_Driver/Src/stm32l0xx_hal_rtc.c ****     Param -= 10U;
1813:Drivers/STM32L0xx_HAL_Driver/Src/stm32l0xx_hal_rtc.c ****   }
1814:Drivers/STM32L0xx_HAL_Driver/Src/stm32l0xx_hal_rtc.c **** 
1815:Drivers/STM32L0xx_HAL_Driver/Src/stm32l0xx_hal_rtc.c ****   return ((uint8_t)(bcdhigh << 4U) | Param);
1816:Drivers/STM32L0xx_HAL_Driver/Src/stm32l0xx_hal_rtc.c **** }
1817:Drivers/STM32L0xx_HAL_Driver/Src/stm32l0xx_hal_rtc.c **** 
1818:Drivers/STM32L0xx_HAL_Driver/Src/stm32l0xx_hal_rtc.c **** /**
1819:Drivers/STM32L0xx_HAL_Driver/Src/stm32l0xx_hal_rtc.c ****   * @brief  Convert from 2 digit BCD to Binary.
1820:Drivers/STM32L0xx_HAL_Driver/Src/stm32l0xx_hal_rtc.c ****   * @param  Value BCD value to be converted
1821:Drivers/STM32L0xx_HAL_Driver/Src/stm32l0xx_hal_rtc.c ****   * @retval Converted word
1822:Drivers/STM32L0xx_HAL_Driver/Src/stm32l0xx_hal_rtc.c ****   */
1823:Drivers/STM32L0xx_HAL_Driver/Src/stm32l0xx_hal_rtc.c **** uint8_t RTC_Bcd2ToByte(uint8_t Value)
 147              		.loc 1 1823 9 view .LVU37
 148              	.LBB51:
1824:Drivers/STM32L0xx_HAL_Driver/Src/stm32l0xx_hal_rtc.c **** {
1825:Drivers/STM32L0xx_HAL_Driver/Src/stm32l0xx_hal_rtc.c ****   uint32_t tmp;
 149              		.loc 1 1825 3 view .LVU38
1826:Drivers/STM32L0xx_HAL_Driver/Src/stm32l0xx_hal_rtc.c ****   tmp = (((uint32_t)Value & 0xF0U) >> 4U) * 10U;
 150              		.loc 1 1826 3 view .LVU39
1827:Drivers/STM32L0xx_HAL_Driver/Src/stm32l0xx_hal_rtc.c ****   return (uint8_t)(tmp + ((uint32_t)Value & 0x0FU));
 151              		.loc 1 1827 3 view .LVU40
 152              		.loc 1 1827 43 is_stmt 0 view .LVU41
ARM GAS  /tmp/ccAh8F5t.s 			page 36


 153 0032 0F26     		movs	r6, #15
1826:Drivers/STM32L0xx_HAL_Driver/Src/stm32l0xx_hal_rtc.c ****   tmp = (((uint32_t)Value & 0xF0U) >> 4U) * 10U;
 154              		.loc 1 1826 36 view .LVU42
 155 0034 0009     		lsrs	r0, r0, #4
1826:Drivers/STM32L0xx_HAL_Driver/Src/stm32l0xx_hal_rtc.c ****   tmp = (((uint32_t)Value & 0xF0U) >> 4U) * 10U;
 156              		.loc 1 1826 7 view .LVU43
 157 0036 8200     		lsls	r2, r0, #2
 158              	.LVL6:
1826:Drivers/STM32L0xx_HAL_Driver/Src/stm32l0xx_hal_rtc.c ****   tmp = (((uint32_t)Value & 0xF0U) >> 4U) * 10U;
 159              		.loc 1 1826 7 view .LVU44
 160 0038 1018     		adds	r0, r2, r0
 161 003a 4000     		lsls	r0, r0, #1
 162              		.loc 1 1827 43 view .LVU45
 163 003c 3540     		ands	r5, r6
 164              		.loc 1 1827 10 view .LVU46
 165 003e 4519     		adds	r5, r0, r5
 166              	.LBE51:
 167              	.LBE50:
 168              	.LBB52:
 169              	.LBB53:
1826:Drivers/STM32L0xx_HAL_Driver/Src/stm32l0xx_hal_rtc.c ****   tmp = (((uint32_t)Value & 0xF0U) >> 4U) * 10U;
 170              		.loc 1 1826 36 view .LVU47
 171 0040 1809     		lsrs	r0, r3, #4
1826:Drivers/STM32L0xx_HAL_Driver/Src/stm32l0xx_hal_rtc.c ****   tmp = (((uint32_t)Value & 0xF0U) >> 4U) * 10U;
 172              		.loc 1 1826 7 view .LVU48
 173 0042 8200     		lsls	r2, r0, #2
 174 0044 1218     		adds	r2, r2, r0
 175 0046 5200     		lsls	r2, r2, #1
 176              		.loc 1 1827 43 view .LVU49
 177 0048 3340     		ands	r3, r6
 178              		.loc 1 1827 10 view .LVU50
 179 004a D318     		adds	r3, r2, r3
 180              	.LBE53:
 181              	.LBE52:
 182              	.LBB55:
 183              	.LBB56:
1826:Drivers/STM32L0xx_HAL_Driver/Src/stm32l0xx_hal_rtc.c ****   tmp = (((uint32_t)Value & 0xF0U) >> 4U) * 10U;
 184              		.loc 1 1826 36 view .LVU51
 185 004c 2209     		lsrs	r2, r4, #4
 186              	.LBE56:
 187              	.LBE55:
 886:Drivers/STM32L0xx_HAL_Driver/Src/stm32l0xx_hal_rtc.c ****     sTime->Seconds = (uint8_t)RTC_Bcd2ToByte(sTime->Seconds);
 188              		.loc 1 886 20 view .LVU52
 189 004e 4B70     		strb	r3, [r1, #1]
 190              	.LBB59:
 191              	.LBB57:
1826:Drivers/STM32L0xx_HAL_Driver/Src/stm32l0xx_hal_rtc.c ****   tmp = (((uint32_t)Value & 0xF0U) >> 4U) * 10U;
 192              		.loc 1 1826 7 view .LVU53
 193 0050 9300     		lsls	r3, r2, #2
 194 0052 9B18     		adds	r3, r3, r2
 195 0054 5B00     		lsls	r3, r3, #1
 196              		.loc 1 1827 43 view .LVU54
 197 0056 3440     		ands	r4, r6
 198              		.loc 1 1827 10 view .LVU55
 199 0058 1C19     		adds	r4, r3, r4
 200              	.LBE57:
 201              	.LBE59:
ARM GAS  /tmp/ccAh8F5t.s 			page 37


 885:Drivers/STM32L0xx_HAL_Driver/Src/stm32l0xx_hal_rtc.c ****     sTime->Minutes = (uint8_t)RTC_Bcd2ToByte(sTime->Minutes);
 202              		.loc 1 885 18 view .LVU56
 203 005a 0D70     		strb	r5, [r1]
 886:Drivers/STM32L0xx_HAL_Driver/Src/stm32l0xx_hal_rtc.c ****     sTime->Seconds = (uint8_t)RTC_Bcd2ToByte(sTime->Seconds);
 204              		.loc 1 886 5 is_stmt 1 view .LVU57
 205              	.LBB60:
 206              	.LBI52:
1823:Drivers/STM32L0xx_HAL_Driver/Src/stm32l0xx_hal_rtc.c **** {
 207              		.loc 1 1823 9 view .LVU58
 208              	.LBB54:
1825:Drivers/STM32L0xx_HAL_Driver/Src/stm32l0xx_hal_rtc.c ****   tmp = (((uint32_t)Value & 0xF0U) >> 4U) * 10U;
 209              		.loc 1 1825 3 view .LVU59
1826:Drivers/STM32L0xx_HAL_Driver/Src/stm32l0xx_hal_rtc.c ****   return (uint8_t)(tmp + ((uint32_t)Value & 0x0FU));
 210              		.loc 1 1826 3 view .LVU60
 211              		.loc 1 1827 3 view .LVU61
 212              	.LBE54:
 213              	.LBE60:
 887:Drivers/STM32L0xx_HAL_Driver/Src/stm32l0xx_hal_rtc.c ****   }
 214              		.loc 1 887 5 view .LVU62
 215              	.LBB61:
 216              	.LBI55:
1823:Drivers/STM32L0xx_HAL_Driver/Src/stm32l0xx_hal_rtc.c **** {
 217              		.loc 1 1823 9 view .LVU63
 218              	.LBB58:
1825:Drivers/STM32L0xx_HAL_Driver/Src/stm32l0xx_hal_rtc.c ****   tmp = (((uint32_t)Value & 0xF0U) >> 4U) * 10U;
 219              		.loc 1 1825 3 view .LVU64
1826:Drivers/STM32L0xx_HAL_Driver/Src/stm32l0xx_hal_rtc.c ****   return (uint8_t)(tmp + ((uint32_t)Value & 0x0FU));
 220              		.loc 1 1826 3 view .LVU65
 221              		.loc 1 1827 3 view .LVU66
 222              	.LBE58:
 223              	.LBE61:
 887:Drivers/STM32L0xx_HAL_Driver/Src/stm32l0xx_hal_rtc.c ****   }
 224              		.loc 1 887 20 is_stmt 0 view .LVU67
 225 005c 8C70     		strb	r4, [r1, #2]
 226              	.L5:
 890:Drivers/STM32L0xx_HAL_Driver/Src/stm32l0xx_hal_rtc.c **** }
 227              		.loc 1 890 3 is_stmt 1 view .LVU68
 891:Drivers/STM32L0xx_HAL_Driver/Src/stm32l0xx_hal_rtc.c **** 
 228              		.loc 1 891 1 is_stmt 0 view .LVU69
 229 005e 0020     		movs	r0, #0
 230              		@ sp needed
 231 0060 70BD     		pop	{r4, r5, r6, pc}
 232              	.L7:
 233 0062 C046     		.align	2
 234              	.L6:
 235 0064 7F7F7F00 		.word	8355711
 236              		.cfi_endproc
 237              	.LFE39:
 239              		.section	.text.HAL_RTC_GetDate,"ax",%progbits
 240              		.align	1
 241              		.p2align 2,,3
 242              		.global	HAL_RTC_GetDate
 243              		.syntax unified
 244              		.code	16
 245              		.thumb_func
 246              		.fpu softvfp
 248              	HAL_RTC_GetDate:
ARM GAS  /tmp/ccAh8F5t.s 			page 38


 249              	.LVL7:
 250              	.LFB41:
1013:Drivers/STM32L0xx_HAL_Driver/Src/stm32l0xx_hal_rtc.c ****   uint32_t datetmpreg;
 251              		.loc 1 1013 1 is_stmt 1 view -0
 252              		.cfi_startproc
 253              		@ args = 0, pretend = 0, frame = 0
 254              		@ frame_needed = 0, uses_anonymous_args = 0
1014:Drivers/STM32L0xx_HAL_Driver/Src/stm32l0xx_hal_rtc.c **** 
 255              		.loc 1 1014 3 view .LVU71
1017:Drivers/STM32L0xx_HAL_Driver/Src/stm32l0xx_hal_rtc.c **** 
 256              		.loc 1 1017 3 view .LVU72
1020:Drivers/STM32L0xx_HAL_Driver/Src/stm32l0xx_hal_rtc.c **** 
 257              		.loc 1 1020 3 view .LVU73
1013:Drivers/STM32L0xx_HAL_Driver/Src/stm32l0xx_hal_rtc.c ****   uint32_t datetmpreg;
 258              		.loc 1 1013 1 is_stmt 0 view .LVU74
 259 0000 F0B5     		push	{r4, r5, r6, r7, lr}
 260              	.LCFI1:
 261              		.cfi_def_cfa_offset 20
 262              		.cfi_offset 4, -20
 263              		.cfi_offset 5, -16
 264              		.cfi_offset 6, -12
 265              		.cfi_offset 7, -8
 266              		.cfi_offset 14, -4
1024:Drivers/STM32L0xx_HAL_Driver/Src/stm32l0xx_hal_rtc.c ****   sDate->Date = (uint8_t)(datetmpreg & (RTC_DR_DT | RTC_DR_DU));
 267              		.loc 1 1024 18 view .LVU75
 268 0002 1F24     		movs	r4, #31
1020:Drivers/STM32L0xx_HAL_Driver/Src/stm32l0xx_hal_rtc.c **** 
 269              		.loc 1 1020 31 view .LVU76
 270 0004 0368     		ldr	r3, [r0]
1020:Drivers/STM32L0xx_HAL_Driver/Src/stm32l0xx_hal_rtc.c **** 
 271              		.loc 1 1020 14 view .LVU77
 272 0006 1448     		ldr	r0, .L10
 273              	.LVL8:
1020:Drivers/STM32L0xx_HAL_Driver/Src/stm32l0xx_hal_rtc.c **** 
 274              		.loc 1 1020 41 view .LVU78
 275 0008 5B68     		ldr	r3, [r3, #4]
1020:Drivers/STM32L0xx_HAL_Driver/Src/stm32l0xx_hal_rtc.c **** 
 276              		.loc 1 1020 14 view .LVU79
 277 000a 0340     		ands	r3, r0
 278              	.LVL9:
1023:Drivers/STM32L0xx_HAL_Driver/Src/stm32l0xx_hal_rtc.c ****   sDate->Month = (uint8_t)((datetmpreg & (RTC_DR_MT | RTC_DR_MU)) >> 8U);
 279              		.loc 1 1023 3 is_stmt 1 view .LVU80
1024:Drivers/STM32L0xx_HAL_Driver/Src/stm32l0xx_hal_rtc.c ****   sDate->Date = (uint8_t)(datetmpreg & (RTC_DR_DT | RTC_DR_DU));
 280              		.loc 1 1024 67 is_stmt 0 view .LVU81
 281 000c 180A     		lsrs	r0, r3, #8
1023:Drivers/STM32L0xx_HAL_Driver/Src/stm32l0xx_hal_rtc.c ****   sDate->Month = (uint8_t)((datetmpreg & (RTC_DR_MT | RTC_DR_MU)) >> 8U);
 282              		.loc 1 1023 17 view .LVU82
 283 000e 1F0C     		lsrs	r7, r3, #16
1024:Drivers/STM32L0xx_HAL_Driver/Src/stm32l0xx_hal_rtc.c ****   sDate->Date = (uint8_t)(datetmpreg & (RTC_DR_DT | RTC_DR_DU));
 284              		.loc 1 1024 18 view .LVU83
 285 0010 C6B2     		uxtb	r6, r0
 286 0012 2040     		ands	r0, r4
1025:Drivers/STM32L0xx_HAL_Driver/Src/stm32l0xx_hal_rtc.c ****   sDate->WeekDay = (uint8_t)((datetmpreg & (RTC_DR_WDU)) >> 13U);
 287              		.loc 1 1025 17 view .LVU84
 288 0014 DCB2     		uxtb	r4, r3
1026:Drivers/STM32L0xx_HAL_Driver/Src/stm32l0xx_hal_rtc.c **** 
 289              		.loc 1 1026 20 view .LVU85
ARM GAS  /tmp/ccAh8F5t.s 			page 39


 290 0016 1B04     		lsls	r3, r3, #16
 291              	.LVL10:
1026:Drivers/STM32L0xx_HAL_Driver/Src/stm32l0xx_hal_rtc.c **** 
 292              		.loc 1 1026 20 view .LVU86
 293 0018 5B0F     		lsrs	r3, r3, #29
1023:Drivers/STM32L0xx_HAL_Driver/Src/stm32l0xx_hal_rtc.c ****   sDate->Month = (uint8_t)((datetmpreg & (RTC_DR_MT | RTC_DR_MU)) >> 8U);
 294              		.loc 1 1023 15 view .LVU87
 295 001a CF70     		strb	r7, [r1, #3]
1024:Drivers/STM32L0xx_HAL_Driver/Src/stm32l0xx_hal_rtc.c ****   sDate->Date = (uint8_t)(datetmpreg & (RTC_DR_DT | RTC_DR_DU));
 296              		.loc 1 1024 3 is_stmt 1 view .LVU88
1024:Drivers/STM32L0xx_HAL_Driver/Src/stm32l0xx_hal_rtc.c ****   sDate->Date = (uint8_t)(datetmpreg & (RTC_DR_DT | RTC_DR_DU));
 297              		.loc 1 1024 16 is_stmt 0 view .LVU89
 298 001c 4870     		strb	r0, [r1, #1]
1025:Drivers/STM32L0xx_HAL_Driver/Src/stm32l0xx_hal_rtc.c ****   sDate->WeekDay = (uint8_t)((datetmpreg & (RTC_DR_WDU)) >> 13U);
 299              		.loc 1 1025 3 is_stmt 1 view .LVU90
1025:Drivers/STM32L0xx_HAL_Driver/Src/stm32l0xx_hal_rtc.c ****   sDate->WeekDay = (uint8_t)((datetmpreg & (RTC_DR_WDU)) >> 13U);
 300              		.loc 1 1025 15 is_stmt 0 view .LVU91
 301 001e 8C70     		strb	r4, [r1, #2]
1026:Drivers/STM32L0xx_HAL_Driver/Src/stm32l0xx_hal_rtc.c **** 
 302              		.loc 1 1026 3 is_stmt 1 view .LVU92
1026:Drivers/STM32L0xx_HAL_Driver/Src/stm32l0xx_hal_rtc.c **** 
 303              		.loc 1 1026 18 is_stmt 0 view .LVU93
 304 0020 0B70     		strb	r3, [r1]
1029:Drivers/STM32L0xx_HAL_Driver/Src/stm32l0xx_hal_rtc.c ****   {
 305              		.loc 1 1029 3 is_stmt 1 view .LVU94
1029:Drivers/STM32L0xx_HAL_Driver/Src/stm32l0xx_hal_rtc.c ****   {
 306              		.loc 1 1029 6 is_stmt 0 view .LVU95
 307 0022 002A     		cmp	r2, #0
 308 0024 15D1     		bne	.L9
1032:Drivers/STM32L0xx_HAL_Driver/Src/stm32l0xx_hal_rtc.c ****     sDate->Month = (uint8_t)RTC_Bcd2ToByte(sDate->Month);
 309              		.loc 1 1032 5 is_stmt 1 view .LVU96
 310              	.LVL11:
 311              	.LBB62:
 312              	.LBI62:
1823:Drivers/STM32L0xx_HAL_Driver/Src/stm32l0xx_hal_rtc.c **** {
 313              		.loc 1 1823 9 view .LVU97
 314              	.LBB63:
1825:Drivers/STM32L0xx_HAL_Driver/Src/stm32l0xx_hal_rtc.c ****   tmp = (((uint32_t)Value & 0xF0U) >> 4U) * 10U;
 315              		.loc 1 1825 3 view .LVU98
1826:Drivers/STM32L0xx_HAL_Driver/Src/stm32l0xx_hal_rtc.c ****   return (uint8_t)(tmp + ((uint32_t)Value & 0x0FU));
 316              		.loc 1 1826 3 view .LVU99
 317              		.loc 1 1827 3 view .LVU100
 318              		.loc 1 1827 43 is_stmt 0 view .LVU101
 319 0026 0F25     		movs	r5, #15
1826:Drivers/STM32L0xx_HAL_Driver/Src/stm32l0xx_hal_rtc.c ****   return (uint8_t)(tmp + ((uint32_t)Value & 0x0FU));
 320              		.loc 1 1826 36 view .LVU102
 321 0028 3B09     		lsrs	r3, r7, #4
1826:Drivers/STM32L0xx_HAL_Driver/Src/stm32l0xx_hal_rtc.c ****   return (uint8_t)(tmp + ((uint32_t)Value & 0x0FU));
 322              		.loc 1 1826 7 view .LVU103
 323 002a 9A00     		lsls	r2, r3, #2
 324              	.LVL12:
1826:Drivers/STM32L0xx_HAL_Driver/Src/stm32l0xx_hal_rtc.c ****   return (uint8_t)(tmp + ((uint32_t)Value & 0x0FU));
 325              		.loc 1 1826 7 view .LVU104
 326 002c D218     		adds	r2, r2, r3
 327 002e 5200     		lsls	r2, r2, #1
 328              		.loc 1 1827 43 view .LVU105
 329 0030 2F40     		ands	r7, r5
ARM GAS  /tmp/ccAh8F5t.s 			page 40


 330              		.loc 1 1827 10 view .LVU106
 331 0032 D219     		adds	r2, r2, r7
 332              	.LBE63:
 333              	.LBE62:
1032:Drivers/STM32L0xx_HAL_Driver/Src/stm32l0xx_hal_rtc.c ****     sDate->Month = (uint8_t)RTC_Bcd2ToByte(sDate->Month);
 334              		.loc 1 1032 17 view .LVU107
 335 0034 CA70     		strb	r2, [r1, #3]
1033:Drivers/STM32L0xx_HAL_Driver/Src/stm32l0xx_hal_rtc.c ****     sDate->Date = (uint8_t)RTC_Bcd2ToByte(sDate->Date);
 336              		.loc 1 1033 5 is_stmt 1 view .LVU108
 337              	.LVL13:
 338              	.LBB64:
 339              	.LBI64:
1823:Drivers/STM32L0xx_HAL_Driver/Src/stm32l0xx_hal_rtc.c **** {
 340              		.loc 1 1823 9 view .LVU109
 341              	.LBB65:
1825:Drivers/STM32L0xx_HAL_Driver/Src/stm32l0xx_hal_rtc.c ****   tmp = (((uint32_t)Value & 0xF0U) >> 4U) * 10U;
 342              		.loc 1 1825 3 view .LVU110
1826:Drivers/STM32L0xx_HAL_Driver/Src/stm32l0xx_hal_rtc.c ****   return (uint8_t)(tmp + ((uint32_t)Value & 0x0FU));
 343              		.loc 1 1826 3 view .LVU111
 344              		.loc 1 1827 3 view .LVU112
1826:Drivers/STM32L0xx_HAL_Driver/Src/stm32l0xx_hal_rtc.c ****   return (uint8_t)(tmp + ((uint32_t)Value & 0x0FU));
 345              		.loc 1 1826 36 is_stmt 0 view .LVU113
 346 0036 0209     		lsrs	r2, r0, #4
1826:Drivers/STM32L0xx_HAL_Driver/Src/stm32l0xx_hal_rtc.c ****   return (uint8_t)(tmp + ((uint32_t)Value & 0x0FU));
 347              		.loc 1 1826 7 view .LVU114
 348 0038 9000     		lsls	r0, r2, #2
 349 003a 8018     		adds	r0, r0, r2
 350              	.LBE65:
 351              	.LBE64:
 352              	.LBB68:
 353              	.LBB69:
1826:Drivers/STM32L0xx_HAL_Driver/Src/stm32l0xx_hal_rtc.c ****   return (uint8_t)(tmp + ((uint32_t)Value & 0x0FU));
 354              		.loc 1 1826 36 view .LVU115
 355 003c 2209     		lsrs	r2, r4, #4
1826:Drivers/STM32L0xx_HAL_Driver/Src/stm32l0xx_hal_rtc.c ****   return (uint8_t)(tmp + ((uint32_t)Value & 0x0FU));
 356              		.loc 1 1826 7 view .LVU116
 357 003e 9300     		lsls	r3, r2, #2
 358 0040 9B18     		adds	r3, r3, r2
 359              	.LBE69:
 360              	.LBE68:
 361              	.LBB73:
 362              	.LBB66:
 363 0042 4000     		lsls	r0, r0, #1
 364              		.loc 1 1827 43 view .LVU117
 365 0044 2E40     		ands	r6, r5
 366              	.LBE66:
 367              	.LBE73:
 368              	.LBB74:
 369              	.LBB70:
1826:Drivers/STM32L0xx_HAL_Driver/Src/stm32l0xx_hal_rtc.c ****   return (uint8_t)(tmp + ((uint32_t)Value & 0x0FU));
 370              		.loc 1 1826 7 view .LVU118
 371 0046 5B00     		lsls	r3, r3, #1
 372              		.loc 1 1827 43 view .LVU119
 373 0048 2C40     		ands	r4, r5
 374              	.LBE70:
 375              	.LBE74:
 376              	.LBB75:
ARM GAS  /tmp/ccAh8F5t.s 			page 41


 377              	.LBB67:
 378              		.loc 1 1827 10 view .LVU120
 379 004a 8019     		adds	r0, r0, r6
 380              	.LBE67:
 381              	.LBE75:
 382              	.LBB76:
 383              	.LBB71:
 384 004c 1B19     		adds	r3, r3, r4
 385              	.LBE71:
 386              	.LBE76:
1033:Drivers/STM32L0xx_HAL_Driver/Src/stm32l0xx_hal_rtc.c ****     sDate->Date = (uint8_t)RTC_Bcd2ToByte(sDate->Date);
 387              		.loc 1 1033 18 view .LVU121
 388 004e 4870     		strb	r0, [r1, #1]
1034:Drivers/STM32L0xx_HAL_Driver/Src/stm32l0xx_hal_rtc.c ****   }
 389              		.loc 1 1034 5 is_stmt 1 view .LVU122
 390              	.LBB77:
 391              	.LBI68:
1823:Drivers/STM32L0xx_HAL_Driver/Src/stm32l0xx_hal_rtc.c **** {
 392              		.loc 1 1823 9 view .LVU123
 393              	.LBB72:
1825:Drivers/STM32L0xx_HAL_Driver/Src/stm32l0xx_hal_rtc.c ****   tmp = (((uint32_t)Value & 0xF0U) >> 4U) * 10U;
 394              		.loc 1 1825 3 view .LVU124
1826:Drivers/STM32L0xx_HAL_Driver/Src/stm32l0xx_hal_rtc.c ****   return (uint8_t)(tmp + ((uint32_t)Value & 0x0FU));
 395              		.loc 1 1826 3 view .LVU125
 396              		.loc 1 1827 3 view .LVU126
 397              	.LBE72:
 398              	.LBE77:
1034:Drivers/STM32L0xx_HAL_Driver/Src/stm32l0xx_hal_rtc.c ****   }
 399              		.loc 1 1034 17 is_stmt 0 view .LVU127
 400 0050 8B70     		strb	r3, [r1, #2]
 401              	.L9:
1036:Drivers/STM32L0xx_HAL_Driver/Src/stm32l0xx_hal_rtc.c **** }
 402              		.loc 1 1036 3 is_stmt 1 view .LVU128
1037:Drivers/STM32L0xx_HAL_Driver/Src/stm32l0xx_hal_rtc.c **** 
 403              		.loc 1 1037 1 is_stmt 0 view .LVU129
 404 0052 0020     		movs	r0, #0
 405              		@ sp needed
 406 0054 F0BD     		pop	{r4, r5, r6, r7, pc}
 407              	.L11:
 408 0056 C046     		.align	2
 409              	.L10:
 410 0058 3FFFFF00 		.word	16777023
 411              		.cfi_endproc
 412              	.LFE41:
 414              		.section	.text.HAL_RTC_SetAlarm,"ax",%progbits
 415              		.align	1
 416              		.p2align 2,,3
 417              		.global	HAL_RTC_SetAlarm
 418              		.syntax unified
 419              		.code	16
 420              		.thumb_func
 421              		.fpu softvfp
 423              	HAL_RTC_SetAlarm:
 424              	.LVL14:
 425              	.LFB42:
1067:Drivers/STM32L0xx_HAL_Driver/Src/stm32l0xx_hal_rtc.c ****   uint32_t tickstart;
 426              		.loc 1 1067 1 is_stmt 1 view -0
ARM GAS  /tmp/ccAh8F5t.s 			page 42


 427              		.cfi_startproc
 428              		@ args = 0, pretend = 0, frame = 0
 429              		@ frame_needed = 0, uses_anonymous_args = 0
1068:Drivers/STM32L0xx_HAL_Driver/Src/stm32l0xx_hal_rtc.c ****   uint32_t tmpreg, subsecondtmpreg;
 430              		.loc 1 1068 3 view .LVU131
1069:Drivers/STM32L0xx_HAL_Driver/Src/stm32l0xx_hal_rtc.c **** 
 431              		.loc 1 1069 3 view .LVU132
1072:Drivers/STM32L0xx_HAL_Driver/Src/stm32l0xx_hal_rtc.c ****   assert_param(IS_RTC_ALARM(sAlarm->Alarm));
 432              		.loc 1 1072 3 view .LVU133
1073:Drivers/STM32L0xx_HAL_Driver/Src/stm32l0xx_hal_rtc.c ****   assert_param(IS_RTC_ALARM_MASK(sAlarm->AlarmMask));
 433              		.loc 1 1073 3 view .LVU134
1074:Drivers/STM32L0xx_HAL_Driver/Src/stm32l0xx_hal_rtc.c ****   assert_param(IS_RTC_ALARM_DATE_WEEKDAY_SEL(sAlarm->AlarmDateWeekDaySel));
 434              		.loc 1 1074 3 view .LVU135
1075:Drivers/STM32L0xx_HAL_Driver/Src/stm32l0xx_hal_rtc.c ****   assert_param(IS_RTC_ALARM_SUB_SECOND_VALUE(sAlarm->AlarmTime.SubSeconds));
 435              		.loc 1 1075 3 view .LVU136
1076:Drivers/STM32L0xx_HAL_Driver/Src/stm32l0xx_hal_rtc.c ****   assert_param(IS_RTC_ALARM_SUB_SECOND_MASK(sAlarm->AlarmSubSecondMask));
 436              		.loc 1 1076 3 view .LVU137
1077:Drivers/STM32L0xx_HAL_Driver/Src/stm32l0xx_hal_rtc.c **** 
 437              		.loc 1 1077 3 view .LVU138
1080:Drivers/STM32L0xx_HAL_Driver/Src/stm32l0xx_hal_rtc.c **** 
 438              		.loc 1 1080 3 view .LVU139
1080:Drivers/STM32L0xx_HAL_Driver/Src/stm32l0xx_hal_rtc.c **** 
 439              		.loc 1 1080 3 view .LVU140
1067:Drivers/STM32L0xx_HAL_Driver/Src/stm32l0xx_hal_rtc.c ****   uint32_t tickstart;
 440              		.loc 1 1067 1 is_stmt 0 view .LVU141
 441 0000 F0B5     		push	{r4, r5, r6, r7, lr}
 442              	.LCFI2:
 443              		.cfi_def_cfa_offset 20
 444              		.cfi_offset 4, -20
 445              		.cfi_offset 5, -16
 446              		.cfi_offset 6, -12
 447              		.cfi_offset 7, -8
 448              		.cfi_offset 14, -4
 449 0002 D646     		mov	lr, r10
 450 0004 4F46     		mov	r7, r9
 451 0006 4646     		mov	r6, r8
1080:Drivers/STM32L0xx_HAL_Driver/Src/stm32l0xx_hal_rtc.c **** 
 452              		.loc 1 1080 3 view .LVU142
 453 0008 2023     		movs	r3, #32
1067:Drivers/STM32L0xx_HAL_Driver/Src/stm32l0xx_hal_rtc.c ****   uint32_t tickstart;
 454              		.loc 1 1067 1 view .LVU143
 455 000a C0B5     		push	{r6, r7, lr}
 456              	.LCFI3:
 457              		.cfi_def_cfa_offset 32
 458              		.cfi_offset 8, -32
 459              		.cfi_offset 9, -28
 460              		.cfi_offset 10, -24
1067:Drivers/STM32L0xx_HAL_Driver/Src/stm32l0xx_hal_rtc.c ****   uint32_t tickstart;
 461              		.loc 1 1067 1 view .LVU144
 462 000c 0500     		movs	r5, r0
1080:Drivers/STM32L0xx_HAL_Driver/Src/stm32l0xx_hal_rtc.c **** 
 463              		.loc 1 1080 3 view .LVU145
 464 000e C05C     		ldrb	r0, [r0, r3]
 465              	.LVL15:
1080:Drivers/STM32L0xx_HAL_Driver/Src/stm32l0xx_hal_rtc.c **** 
 466              		.loc 1 1080 3 view .LVU146
 467 0010 0128     		cmp	r0, #1
ARM GAS  /tmp/ccAh8F5t.s 			page 43


 468 0012 00D1     		bne	.LCB360
 469 0014 DDE0     		b	.L34	@long jump
 470              	.LCB360:
1080:Drivers/STM32L0xx_HAL_Driver/Src/stm32l0xx_hal_rtc.c **** 
 471              		.loc 1 1080 3 is_stmt 1 discriminator 2 view .LVU147
 472 0016 0120     		movs	r0, #1
 473 0018 E854     		strb	r0, [r5, r3]
1080:Drivers/STM32L0xx_HAL_Driver/Src/stm32l0xx_hal_rtc.c **** 
 474              		.loc 1 1080 3 discriminator 2 view .LVU148
1082:Drivers/STM32L0xx_HAL_Driver/Src/stm32l0xx_hal_rtc.c **** 
 475              		.loc 1 1082 3 discriminator 2 view .LVU149
1082:Drivers/STM32L0xx_HAL_Driver/Src/stm32l0xx_hal_rtc.c **** 
 476              		.loc 1 1082 15 is_stmt 0 discriminator 2 view .LVU150
 477 001a 0133     		adds	r3, r3, #1
 478 001c 0130     		adds	r0, r0, #1
 479 001e E854     		strb	r0, [r5, r3]
1084:Drivers/STM32L0xx_HAL_Driver/Src/stm32l0xx_hal_rtc.c ****   {
 480              		.loc 1 1084 3 is_stmt 1 discriminator 2 view .LVU151
1086:Drivers/STM32L0xx_HAL_Driver/Src/stm32l0xx_hal_rtc.c ****     {
 481              		.loc 1 1086 14 is_stmt 0 discriminator 2 view .LVU152
 482 0020 2E68     		ldr	r6, [r5]
1086:Drivers/STM32L0xx_HAL_Driver/Src/stm32l0xx_hal_rtc.c ****     {
 483              		.loc 1 1086 24 discriminator 2 view .LVU153
 484 0022 B368     		ldr	r3, [r6, #8]
1084:Drivers/STM32L0xx_HAL_Driver/Src/stm32l0xx_hal_rtc.c ****   {
 485              		.loc 1 1084 6 discriminator 2 view .LVU154
 486 0024 002A     		cmp	r2, #0
 487 0026 57D0     		beq	.L42
1118:Drivers/STM32L0xx_HAL_Driver/Src/stm32l0xx_hal_rtc.c ****     {
 488              		.loc 1 1118 5 is_stmt 1 view .LVU155
1118:Drivers/STM32L0xx_HAL_Driver/Src/stm32l0xx_hal_rtc.c ****     {
 489              		.loc 1 1118 29 is_stmt 0 view .LVU156
 490 0028 4022     		movs	r2, #64
 491              	.LVL16:
1118:Drivers/STM32L0xx_HAL_Driver/Src/stm32l0xx_hal_rtc.c ****     {
 492              		.loc 1 1118 29 view .LVU157
 493 002a 1700     		movs	r7, r2
 494 002c 1F40     		ands	r7, r3
1118:Drivers/STM32L0xx_HAL_Driver/Src/stm32l0xx_hal_rtc.c ****     {
 495              		.loc 1 1118 8 view .LVU158
 496 002e 1A42     		tst	r2, r3
 497 0030 00D1     		bne	.LCB380
 498 0032 CAE0     		b	.L26	@long jump
 499              	.LCB380:
 500 0034 CF78     		ldrb	r7, [r1, #3]
 501 0036 3F04     		lsls	r7, r7, #16
 502              	.L27:
1126:Drivers/STM32L0xx_HAL_Driver/Src/stm32l0xx_hal_rtc.c ****     }
 503              		.loc 1 1126 7 is_stmt 1 view .LVU159
1129:Drivers/STM32L0xx_HAL_Driver/Src/stm32l0xx_hal_rtc.c ****     assert_param(IS_RTC_SECONDS(RTC_Bcd2ToByte(sAlarm->AlarmTime.Seconds)));
 504              		.loc 1 1129 5 view .LVU160
1130:Drivers/STM32L0xx_HAL_Driver/Src/stm32l0xx_hal_rtc.c **** 
 505              		.loc 1 1130 5 view .LVU161
1132:Drivers/STM32L0xx_HAL_Driver/Src/stm32l0xx_hal_rtc.c ****     {
 506              		.loc 1 1132 5 view .LVU162
1138:Drivers/STM32L0xx_HAL_Driver/Src/stm32l0xx_hal_rtc.c ****     }
 507              		.loc 1 1138 7 view .LVU163
ARM GAS  /tmp/ccAh8F5t.s 			page 44


1141:Drivers/STM32L0xx_HAL_Driver/Src/stm32l0xx_hal_rtc.c ****               ((uint32_t)(sAlarm->AlarmTime.Minutes) << 8U) | \
 508              		.loc 1 1141 5 view .LVU164
1141:Drivers/STM32L0xx_HAL_Driver/Src/stm32l0xx_hal_rtc.c ****               ((uint32_t)(sAlarm->AlarmTime.Minutes) << 8U) | \
 509              		.loc 1 1141 12 is_stmt 0 view .LVU165
 510 0038 4B69     		ldr	r3, [r1, #20]
 511 003a CC69     		ldr	r4, [r1, #28]
1142:Drivers/STM32L0xx_HAL_Driver/Src/stm32l0xx_hal_rtc.c ****               ((uint32_t) sAlarm->AlarmTime.Seconds) | \
 512              		.loc 1 1142 16 view .LVU166
 513 003c 4A78     		ldrb	r2, [r1, #1]
1141:Drivers/STM32L0xx_HAL_Driver/Src/stm32l0xx_hal_rtc.c ****               ((uint32_t)(sAlarm->AlarmTime.Minutes) << 8U) | \
 514              		.loc 1 1141 12 view .LVU167
 515 003e 1C43     		orrs	r4, r3
1143:Drivers/STM32L0xx_HAL_Driver/Src/stm32l0xx_hal_rtc.c ****               ((uint32_t)(sAlarm->AlarmTime.TimeFormat) << 16U) | \
 516              		.loc 1 1143 16 view .LVU168
 517 0040 8B78     		ldrb	r3, [r1, #2]
1142:Drivers/STM32L0xx_HAL_Driver/Src/stm32l0xx_hal_rtc.c ****               ((uint32_t) sAlarm->AlarmTime.Seconds) | \
 518              		.loc 1 1142 54 view .LVU169
 519 0042 1202     		lsls	r2, r2, #8
1141:Drivers/STM32L0xx_HAL_Driver/Src/stm32l0xx_hal_rtc.c ****               ((uint32_t)(sAlarm->AlarmTime.Minutes) << 8U) | \
 520              		.loc 1 1141 12 view .LVU170
 521 0044 1C43     		orrs	r4, r3
1141:Drivers/STM32L0xx_HAL_Driver/Src/stm32l0xx_hal_rtc.c ****               ((uint32_t)(sAlarm->AlarmTime.Minutes) << 8U) | \
 522              		.loc 1 1141 16 view .LVU171
 523 0046 0B78     		ldrb	r3, [r1]
1141:Drivers/STM32L0xx_HAL_Driver/Src/stm32l0xx_hal_rtc.c ****               ((uint32_t)(sAlarm->AlarmTime.Minutes) << 8U) | \
 524              		.loc 1 1141 52 view .LVU172
 525 0048 1B04     		lsls	r3, r3, #16
1141:Drivers/STM32L0xx_HAL_Driver/Src/stm32l0xx_hal_rtc.c ****               ((uint32_t)(sAlarm->AlarmTime.Minutes) << 8U) | \
 526              		.loc 1 1141 12 view .LVU173
 527 004a 1C43     		orrs	r4, r3
1145:Drivers/STM32L0xx_HAL_Driver/Src/stm32l0xx_hal_rtc.c ****               ((uint32_t)sAlarm->AlarmDateWeekDaySel) | \
 528              		.loc 1 1145 33 view .LVU174
 529 004c 2023     		movs	r3, #32
1145:Drivers/STM32L0xx_HAL_Driver/Src/stm32l0xx_hal_rtc.c ****               ((uint32_t)sAlarm->AlarmDateWeekDaySel) | \
 530              		.loc 1 1145 16 view .LVU175
 531 004e CB5C     		ldrb	r3, [r1, r3]
1141:Drivers/STM32L0xx_HAL_Driver/Src/stm32l0xx_hal_rtc.c ****               ((uint32_t)(sAlarm->AlarmTime.Minutes) << 8U) | \
 532              		.loc 1 1141 12 view .LVU176
 533 0050 1443     		orrs	r4, r2
1145:Drivers/STM32L0xx_HAL_Driver/Src/stm32l0xx_hal_rtc.c ****               ((uint32_t)sAlarm->AlarmDateWeekDaySel) | \
 534              		.loc 1 1145 53 view .LVU177
 535 0052 1B06     		lsls	r3, r3, #24
1141:Drivers/STM32L0xx_HAL_Driver/Src/stm32l0xx_hal_rtc.c ****               ((uint32_t)(sAlarm->AlarmTime.Minutes) << 8U) | \
 536              		.loc 1 1141 12 view .LVU178
 537 0054 1C43     		orrs	r4, r3
 538 0056 3C43     		orrs	r4, r7
 539 0058 A146     		mov	r9, r4
 540              	.LVL17:
 541              	.L25:
1151:Drivers/STM32L0xx_HAL_Driver/Src/stm32l0xx_hal_rtc.c **** 
 542              		.loc 1 1151 3 is_stmt 1 view .LVU179
1151:Drivers/STM32L0xx_HAL_Driver/Src/stm32l0xx_hal_rtc.c **** 
 543              		.loc 1 1151 19 is_stmt 0 view .LVU180
 544 005a 8A69     		ldr	r2, [r1, #24]
 545 005c 4B68     		ldr	r3, [r1, #4]
 546 005e 1343     		orrs	r3, r2
 547 0060 9846     		mov	r8, r3
ARM GAS  /tmp/ccAh8F5t.s 			page 45


 548              	.LVL18:
1154:Drivers/STM32L0xx_HAL_Driver/Src/stm32l0xx_hal_rtc.c **** 
 549              		.loc 1 1154 3 is_stmt 1 view .LVU181
1154:Drivers/STM32L0xx_HAL_Driver/Src/stm32l0xx_hal_rtc.c **** 
 550              		.loc 1 1154 3 view .LVU182
 551 0062 CA23     		movs	r3, #202
 552              	.LVL19:
1157:Drivers/STM32L0xx_HAL_Driver/Src/stm32l0xx_hal_rtc.c ****   {
 553              		.loc 1 1157 6 is_stmt 0 view .LVU183
 554 0064 4A6A     		ldr	r2, [r1, #36]
1154:Drivers/STM32L0xx_HAL_Driver/Src/stm32l0xx_hal_rtc.c **** 
 555              		.loc 1 1154 3 view .LVU184
 556 0066 7362     		str	r3, [r6, #36]
1154:Drivers/STM32L0xx_HAL_Driver/Src/stm32l0xx_hal_rtc.c **** 
 557              		.loc 1 1154 3 is_stmt 1 view .LVU185
 558 0068 773B     		subs	r3, r3, #119
 559 006a 7362     		str	r3, [r6, #36]
1154:Drivers/STM32L0xx_HAL_Driver/Src/stm32l0xx_hal_rtc.c **** 
 560              		.loc 1 1154 3 view .LVU186
1157:Drivers/STM32L0xx_HAL_Driver/Src/stm32l0xx_hal_rtc.c ****   {
 561              		.loc 1 1157 3 view .LVU187
1157:Drivers/STM32L0xx_HAL_Driver/Src/stm32l0xx_hal_rtc.c ****   {
 562              		.loc 1 1157 6 is_stmt 0 view .LVU188
 563 006c AD33     		adds	r3, r3, #173
 564 006e 9A42     		cmp	r2, r3
 565 0070 00D1     		bne	.LCB437
 566 0072 85E0     		b	.L43	@long jump
 567              	.LCB437:
1192:Drivers/STM32L0xx_HAL_Driver/Src/stm32l0xx_hal_rtc.c **** 
 568              		.loc 1 1192 5 is_stmt 1 view .LVU189
 569 0074 B368     		ldr	r3, [r6, #8]
 570 0076 584A     		ldr	r2, .L44
 571 0078 1340     		ands	r3, r2
 572 007a B360     		str	r3, [r6, #8]
1195:Drivers/STM32L0xx_HAL_Driver/Src/stm32l0xx_hal_rtc.c **** 
 573              		.loc 1 1195 5 view .LVU190
 574 007c B368     		ldr	r3, [r6, #8]
 575 007e 574A     		ldr	r2, .L44+4
 576 0080 1340     		ands	r3, r2
 577 0082 B360     		str	r3, [r6, #8]
1197:Drivers/STM32L0xx_HAL_Driver/Src/stm32l0xx_hal_rtc.c ****     /* Wait till RTC ALRBWF flag is set and if Time out is reached exit */
 578              		.loc 1 1197 5 view .LVU191
1197:Drivers/STM32L0xx_HAL_Driver/Src/stm32l0xx_hal_rtc.c ****     /* Wait till RTC ALRBWF flag is set and if Time out is reached exit */
 579              		.loc 1 1197 17 is_stmt 0 view .LVU192
 580 0084 FFF7FEFF 		bl	HAL_GetTick
 581              	.LVL20:
1201:Drivers/STM32L0xx_HAL_Driver/Src/stm32l0xx_hal_rtc.c ****       {
 582              		.loc 1 1201 10 view .LVU193
 583 0088 FA23     		movs	r3, #250
 584 008a 9B00     		lsls	r3, r3, #2
1197:Drivers/STM32L0xx_HAL_Driver/Src/stm32l0xx_hal_rtc.c ****     /* Wait till RTC ALRBWF flag is set and if Time out is reached exit */
 585              		.loc 1 1197 17 view .LVU194
 586 008c 0700     		movs	r7, r0
 587              	.LVL21:
1199:Drivers/STM32L0xx_HAL_Driver/Src/stm32l0xx_hal_rtc.c ****     {
 588              		.loc 1 1199 5 is_stmt 1 view .LVU195
1199:Drivers/STM32L0xx_HAL_Driver/Src/stm32l0xx_hal_rtc.c ****     {
ARM GAS  /tmp/ccAh8F5t.s 			page 46


 589              		.loc 1 1199 12 is_stmt 0 view .LVU196
 590 008e 0226     		movs	r6, #2
1201:Drivers/STM32L0xx_HAL_Driver/Src/stm32l0xx_hal_rtc.c ****       {
 591              		.loc 1 1201 10 view .LVU197
 592 0090 9A46     		mov	r10, r3
1199:Drivers/STM32L0xx_HAL_Driver/Src/stm32l0xx_hal_rtc.c ****     {
 593              		.loc 1 1199 11 view .LVU198
 594 0092 04E0     		b	.L32
 595              	.LVL22:
 596              	.L33:
1201:Drivers/STM32L0xx_HAL_Driver/Src/stm32l0xx_hal_rtc.c ****       {
 597              		.loc 1 1201 7 is_stmt 1 view .LVU199
1201:Drivers/STM32L0xx_HAL_Driver/Src/stm32l0xx_hal_rtc.c ****       {
 598              		.loc 1 1201 12 is_stmt 0 view .LVU200
 599 0094 FFF7FEFF 		bl	HAL_GetTick
 600              	.LVL23:
1201:Drivers/STM32L0xx_HAL_Driver/Src/stm32l0xx_hal_rtc.c ****       {
 601              		.loc 1 1201 26 view .LVU201
 602 0098 C01B     		subs	r0, r0, r7
1201:Drivers/STM32L0xx_HAL_Driver/Src/stm32l0xx_hal_rtc.c ****       {
 603              		.loc 1 1201 10 view .LVU202
 604 009a 5045     		cmp	r0, r10
 605 009c 66D8     		bhi	.L41
 606              	.L32:
1199:Drivers/STM32L0xx_HAL_Driver/Src/stm32l0xx_hal_rtc.c ****     {
 607              		.loc 1 1199 11 is_stmt 1 view .LVU203
1199:Drivers/STM32L0xx_HAL_Driver/Src/stm32l0xx_hal_rtc.c ****     {
 608              		.loc 1 1199 12 is_stmt 0 view .LVU204
 609 009e 3400     		movs	r4, r6
 610 00a0 2B68     		ldr	r3, [r5]
 611 00a2 DA68     		ldr	r2, [r3, #12]
 612 00a4 1440     		ands	r4, r2
1199:Drivers/STM32L0xx_HAL_Driver/Src/stm32l0xx_hal_rtc.c ****     {
 613              		.loc 1 1199 11 view .LVU205
 614 00a6 1642     		tst	r6, r2
 615 00a8 F4D0     		beq	.L33
1215:Drivers/STM32L0xx_HAL_Driver/Src/stm32l0xx_hal_rtc.c ****     /* Configure the Alarm B Sub Second register */
 616              		.loc 1 1215 5 is_stmt 1 view .LVU206
1215:Drivers/STM32L0xx_HAL_Driver/Src/stm32l0xx_hal_rtc.c ****     /* Configure the Alarm B Sub Second register */
 617              		.loc 1 1215 28 is_stmt 0 view .LVU207
 618 00aa 4A46     		mov	r2, r9
 619 00ac 1A62     		str	r2, [r3, #32]
1217:Drivers/STM32L0xx_HAL_Driver/Src/stm32l0xx_hal_rtc.c ****     /* Configure the Alarm state: Enable Alarm */
 620              		.loc 1 1217 5 is_stmt 1 view .LVU208
1217:Drivers/STM32L0xx_HAL_Driver/Src/stm32l0xx_hal_rtc.c ****     /* Configure the Alarm state: Enable Alarm */
 621              		.loc 1 1217 30 is_stmt 0 view .LVU209
 622 00ae 4246     		mov	r2, r8
 623 00b0 9A64     		str	r2, [r3, #72]
1219:Drivers/STM32L0xx_HAL_Driver/Src/stm32l0xx_hal_rtc.c ****   }
 624              		.loc 1 1219 5 is_stmt 1 view .LVU210
 625 00b2 8022     		movs	r2, #128
 626 00b4 9968     		ldr	r1, [r3, #8]
 627 00b6 9200     		lsls	r2, r2, #2
 628 00b8 0A43     		orrs	r2, r1
 629 00ba 9A60     		str	r2, [r3, #8]
 630              	.L31:
1223:Drivers/STM32L0xx_HAL_Driver/Src/stm32l0xx_hal_rtc.c **** 
ARM GAS  /tmp/ccAh8F5t.s 			page 47


 631              		.loc 1 1223 3 view .LVU211
1223:Drivers/STM32L0xx_HAL_Driver/Src/stm32l0xx_hal_rtc.c **** 
 632              		.loc 1 1223 3 view .LVU212
 633 00bc FF22     		movs	r2, #255
 634 00be 5A62     		str	r2, [r3, #36]
1223:Drivers/STM32L0xx_HAL_Driver/Src/stm32l0xx_hal_rtc.c **** 
 635              		.loc 1 1223 3 view .LVU213
1226:Drivers/STM32L0xx_HAL_Driver/Src/stm32l0xx_hal_rtc.c **** 
 636              		.loc 1 1226 3 view .LVU214
1226:Drivers/STM32L0xx_HAL_Driver/Src/stm32l0xx_hal_rtc.c **** 
 637              		.loc 1 1226 15 is_stmt 0 view .LVU215
 638 00c0 2123     		movs	r3, #33
 639 00c2 FE3A     		subs	r2, r2, #254
 640 00c4 EA54     		strb	r2, [r5, r3]
1229:Drivers/STM32L0xx_HAL_Driver/Src/stm32l0xx_hal_rtc.c **** 
 641              		.loc 1 1229 3 is_stmt 1 view .LVU216
1229:Drivers/STM32L0xx_HAL_Driver/Src/stm32l0xx_hal_rtc.c **** 
 642              		.loc 1 1229 3 view .LVU217
 643 00c6 0022     		movs	r2, #0
1231:Drivers/STM32L0xx_HAL_Driver/Src/stm32l0xx_hal_rtc.c **** }
 644              		.loc 1 1231 10 is_stmt 0 view .LVU218
 645 00c8 0020     		movs	r0, #0
1229:Drivers/STM32L0xx_HAL_Driver/Src/stm32l0xx_hal_rtc.c **** 
 646              		.loc 1 1229 3 view .LVU219
 647 00ca 013B     		subs	r3, r3, #1
 648 00cc EA54     		strb	r2, [r5, r3]
1229:Drivers/STM32L0xx_HAL_Driver/Src/stm32l0xx_hal_rtc.c **** 
 649              		.loc 1 1229 3 is_stmt 1 view .LVU220
1231:Drivers/STM32L0xx_HAL_Driver/Src/stm32l0xx_hal_rtc.c **** }
 650              		.loc 1 1231 3 view .LVU221
 651              	.LVL24:
 652              	.L13:
1232:Drivers/STM32L0xx_HAL_Driver/Src/stm32l0xx_hal_rtc.c **** 
 653              		.loc 1 1232 1 is_stmt 0 view .LVU222
 654              		@ sp needed
 655              	.LVL25:
1232:Drivers/STM32L0xx_HAL_Driver/Src/stm32l0xx_hal_rtc.c **** 
 656              		.loc 1 1232 1 view .LVU223
 657 00ce 1CBC     		pop	{r2, r3, r4}
 658 00d0 9046     		mov	r8, r2
 659 00d2 9946     		mov	r9, r3
 660 00d4 A246     		mov	r10, r4
 661 00d6 F0BD     		pop	{r4, r5, r6, r7, pc}
 662              	.LVL26:
 663              	.L42:
1086:Drivers/STM32L0xx_HAL_Driver/Src/stm32l0xx_hal_rtc.c ****     {
 664              		.loc 1 1086 5 is_stmt 1 view .LVU224
1086:Drivers/STM32L0xx_HAL_Driver/Src/stm32l0xx_hal_rtc.c ****     {
 665              		.loc 1 1086 29 is_stmt 0 view .LVU225
 666 00d8 3E30     		adds	r0, r0, #62
 667 00da 0700     		movs	r7, r0
 668 00dc 1F40     		ands	r7, r3
1086:Drivers/STM32L0xx_HAL_Driver/Src/stm32l0xx_hal_rtc.c ****     {
 669              		.loc 1 1086 8 view .LVU226
 670 00de 1842     		tst	r0, r3
 671 00e0 75D0     		beq	.L15
 672 00e2 CF78     		ldrb	r7, [r1, #3]
ARM GAS  /tmp/ccAh8F5t.s 			page 48


 673 00e4 3F04     		lsls	r7, r7, #16
 674              	.L16:
1094:Drivers/STM32L0xx_HAL_Driver/Src/stm32l0xx_hal_rtc.c ****     }
 675              		.loc 1 1094 7 is_stmt 1 view .LVU227
1096:Drivers/STM32L0xx_HAL_Driver/Src/stm32l0xx_hal_rtc.c ****     assert_param(IS_RTC_SECONDS(sAlarm->AlarmTime.Seconds));
 676              		.loc 1 1096 5 view .LVU228
1097:Drivers/STM32L0xx_HAL_Driver/Src/stm32l0xx_hal_rtc.c **** 
 677              		.loc 1 1097 5 view .LVU229
1099:Drivers/STM32L0xx_HAL_Driver/Src/stm32l0xx_hal_rtc.c ****     {
 678              		.loc 1 1099 5 view .LVU230
1099:Drivers/STM32L0xx_HAL_Driver/Src/stm32l0xx_hal_rtc.c ****     {
 679              		.loc 1 1099 15 is_stmt 0 view .LVU231
 680 00e6 CB69     		ldr	r3, [r1, #28]
1108:Drivers/STM32L0xx_HAL_Driver/Src/stm32l0xx_hal_rtc.c ****               ((uint32_t)RTC_ByteToBcd2(sAlarm->AlarmTime.Minutes) << 8U) | \
 681              		.loc 1 1108 26 view .LVU232
 682 00e8 0C78     		ldrb	r4, [r1]
1099:Drivers/STM32L0xx_HAL_Driver/Src/stm32l0xx_hal_rtc.c ****     {
 683              		.loc 1 1099 15 view .LVU233
 684 00ea 9846     		mov	r8, r3
1105:Drivers/STM32L0xx_HAL_Driver/Src/stm32l0xx_hal_rtc.c ****     }
 685              		.loc 1 1105 7 is_stmt 1 view .LVU234
1108:Drivers/STM32L0xx_HAL_Driver/Src/stm32l0xx_hal_rtc.c ****               ((uint32_t)RTC_ByteToBcd2(sAlarm->AlarmTime.Minutes) << 8U) | \
 686              		.loc 1 1108 5 view .LVU235
 687              	.LVL27:
 688              	.LBB78:
 689              	.LBI78:
1804:Drivers/STM32L0xx_HAL_Driver/Src/stm32l0xx_hal_rtc.c **** {
 690              		.loc 1 1804 9 view .LVU236
 691              	.LBB79:
1806:Drivers/STM32L0xx_HAL_Driver/Src/stm32l0xx_hal_rtc.c ****   uint8_t Param = Value;
 692              		.loc 1 1806 3 view .LVU237
1807:Drivers/STM32L0xx_HAL_Driver/Src/stm32l0xx_hal_rtc.c **** 
 693              		.loc 1 1807 3 view .LVU238
1809:Drivers/STM32L0xx_HAL_Driver/Src/stm32l0xx_hal_rtc.c ****   {
 694              		.loc 1 1809 3 view .LVU239
1809:Drivers/STM32L0xx_HAL_Driver/Src/stm32l0xx_hal_rtc.c ****   {
 695              		.loc 1 1809 9 view .LVU240
 696 00ec 092C     		cmp	r4, #9
 697 00ee 08D9     		bls	.L17
1806:Drivers/STM32L0xx_HAL_Driver/Src/stm32l0xx_hal_rtc.c ****   uint8_t Param = Value;
 698              		.loc 1 1806 12 is_stmt 0 view .LVU241
 699 00f0 0023     		movs	r3, #0
 700              	.LVL28:
 701              	.L18:
1811:Drivers/STM32L0xx_HAL_Driver/Src/stm32l0xx_hal_rtc.c ****     Param -= 10U;
 702              		.loc 1 1811 5 is_stmt 1 view .LVU242
1812:Drivers/STM32L0xx_HAL_Driver/Src/stm32l0xx_hal_rtc.c ****   }
 703              		.loc 1 1812 11 is_stmt 0 view .LVU243
 704 00f2 0A3C     		subs	r4, r4, #10
 705              	.LVL29:
1812:Drivers/STM32L0xx_HAL_Driver/Src/stm32l0xx_hal_rtc.c ****   }
 706              		.loc 1 1812 11 view .LVU244
 707 00f4 E4B2     		uxtb	r4, r4
1811:Drivers/STM32L0xx_HAL_Driver/Src/stm32l0xx_hal_rtc.c ****     Param -= 10U;
 708              		.loc 1 1811 12 view .LVU245
 709 00f6 0133     		adds	r3, r3, #1
 710              	.LVL30:
ARM GAS  /tmp/ccAh8F5t.s 			page 49


1812:Drivers/STM32L0xx_HAL_Driver/Src/stm32l0xx_hal_rtc.c ****   }
 711              		.loc 1 1812 5 is_stmt 1 view .LVU246
1809:Drivers/STM32L0xx_HAL_Driver/Src/stm32l0xx_hal_rtc.c ****   {
 712              		.loc 1 1809 9 view .LVU247
 713 00f8 092C     		cmp	r4, #9
 714 00fa FAD8     		bhi	.L18
 715 00fc 1B01     		lsls	r3, r3, #4
 716              	.LVL31:
1809:Drivers/STM32L0xx_HAL_Driver/Src/stm32l0xx_hal_rtc.c ****   {
 717              		.loc 1 1809 9 is_stmt 0 view .LVU248
 718 00fe 1C43     		orrs	r4, r3
 719              	.LVL32:
1809:Drivers/STM32L0xx_HAL_Driver/Src/stm32l0xx_hal_rtc.c ****   {
 720              		.loc 1 1809 9 view .LVU249
 721 0100 E4B2     		uxtb	r4, r4
 722              	.L17:
1815:Drivers/STM32L0xx_HAL_Driver/Src/stm32l0xx_hal_rtc.c **** }
 723              		.loc 1 1815 3 is_stmt 1 view .LVU250
 724              	.LVL33:
1815:Drivers/STM32L0xx_HAL_Driver/Src/stm32l0xx_hal_rtc.c **** }
 725              		.loc 1 1815 3 is_stmt 0 view .LVU251
 726              	.LBE79:
 727              	.LBE78:
1108:Drivers/STM32L0xx_HAL_Driver/Src/stm32l0xx_hal_rtc.c ****               ((uint32_t)RTC_ByteToBcd2(sAlarm->AlarmTime.Minutes) << 8U) | \
 728              		.loc 1 1108 66 view .LVU252
 729 0102 2304     		lsls	r3, r4, #16
1109:Drivers/STM32L0xx_HAL_Driver/Src/stm32l0xx_hal_rtc.c ****               ((uint32_t)RTC_ByteToBcd2(sAlarm->AlarmTime.Seconds)) | \
 730              		.loc 1 1109 26 view .LVU253
 731 0104 4C78     		ldrb	r4, [r1, #1]
 732              	.LVL34:
 733              	.LBB80:
 734              	.LBI80:
1804:Drivers/STM32L0xx_HAL_Driver/Src/stm32l0xx_hal_rtc.c **** {
 735              		.loc 1 1804 9 is_stmt 1 view .LVU254
 736              	.LBB81:
1809:Drivers/STM32L0xx_HAL_Driver/Src/stm32l0xx_hal_rtc.c ****   {
 737              		.loc 1 1809 9 view .LVU255
 738              	.LBE81:
 739              	.LBE80:
1108:Drivers/STM32L0xx_HAL_Driver/Src/stm32l0xx_hal_rtc.c ****               ((uint32_t)RTC_ByteToBcd2(sAlarm->AlarmTime.Minutes) << 8U) | \
 740              		.loc 1 1108 66 is_stmt 0 view .LVU256
 741 0106 9C46     		mov	ip, r3
 742              	.LBB83:
 743              	.LBB82:
1809:Drivers/STM32L0xx_HAL_Driver/Src/stm32l0xx_hal_rtc.c ****   {
 744              		.loc 1 1809 9 view .LVU257
 745 0108 092C     		cmp	r4, #9
 746 010a 08D9     		bls	.L19
1806:Drivers/STM32L0xx_HAL_Driver/Src/stm32l0xx_hal_rtc.c ****   uint8_t Param = Value;
 747              		.loc 1 1806 12 view .LVU258
 748 010c 0023     		movs	r3, #0
 749              	.LVL35:
 750              	.L20:
1811:Drivers/STM32L0xx_HAL_Driver/Src/stm32l0xx_hal_rtc.c ****     Param -= 10U;
 751              		.loc 1 1811 5 is_stmt 1 view .LVU259
1812:Drivers/STM32L0xx_HAL_Driver/Src/stm32l0xx_hal_rtc.c ****   }
 752              		.loc 1 1812 11 is_stmt 0 view .LVU260
ARM GAS  /tmp/ccAh8F5t.s 			page 50


 753 010e 0A3C     		subs	r4, r4, #10
 754              	.LVL36:
1812:Drivers/STM32L0xx_HAL_Driver/Src/stm32l0xx_hal_rtc.c ****   }
 755              		.loc 1 1812 11 view .LVU261
 756 0110 E4B2     		uxtb	r4, r4
1811:Drivers/STM32L0xx_HAL_Driver/Src/stm32l0xx_hal_rtc.c ****     Param -= 10U;
 757              		.loc 1 1811 12 view .LVU262
 758 0112 0133     		adds	r3, r3, #1
 759              	.LVL37:
1812:Drivers/STM32L0xx_HAL_Driver/Src/stm32l0xx_hal_rtc.c ****   }
 760              		.loc 1 1812 5 is_stmt 1 view .LVU263
1809:Drivers/STM32L0xx_HAL_Driver/Src/stm32l0xx_hal_rtc.c ****   {
 761              		.loc 1 1809 9 view .LVU264
 762 0114 092C     		cmp	r4, #9
 763 0116 FAD8     		bhi	.L20
 764 0118 1B01     		lsls	r3, r3, #4
 765              	.LVL38:
1809:Drivers/STM32L0xx_HAL_Driver/Src/stm32l0xx_hal_rtc.c ****   {
 766              		.loc 1 1809 9 is_stmt 0 view .LVU265
 767 011a 1C43     		orrs	r4, r3
 768              	.LVL39:
1809:Drivers/STM32L0xx_HAL_Driver/Src/stm32l0xx_hal_rtc.c ****   {
 769              		.loc 1 1809 9 view .LVU266
 770 011c E4B2     		uxtb	r4, r4
 771              	.L19:
1815:Drivers/STM32L0xx_HAL_Driver/Src/stm32l0xx_hal_rtc.c **** }
 772              		.loc 1 1815 3 is_stmt 1 view .LVU267
 773              	.LVL40:
1815:Drivers/STM32L0xx_HAL_Driver/Src/stm32l0xx_hal_rtc.c **** }
 774              		.loc 1 1815 3 is_stmt 0 view .LVU268
 775              	.LBE82:
 776              	.LBE83:
1110:Drivers/STM32L0xx_HAL_Driver/Src/stm32l0xx_hal_rtc.c ****               ((uint32_t)(sAlarm->AlarmTime.TimeFormat) << 16U) | \
 777              		.loc 1 1110 26 view .LVU269
 778 011e 8878     		ldrb	r0, [r1, #2]
 779              	.LVL41:
 780              	.LBB84:
 781              	.LBI84:
1804:Drivers/STM32L0xx_HAL_Driver/Src/stm32l0xx_hal_rtc.c **** {
 782              		.loc 1 1804 9 is_stmt 1 view .LVU270
 783              	.LBB85:
1809:Drivers/STM32L0xx_HAL_Driver/Src/stm32l0xx_hal_rtc.c ****   {
 784              		.loc 1 1809 9 view .LVU271
 785              	.LBE85:
 786              	.LBE84:
1109:Drivers/STM32L0xx_HAL_Driver/Src/stm32l0xx_hal_rtc.c ****               ((uint32_t)RTC_ByteToBcd2(sAlarm->AlarmTime.Seconds)) | \
 787              		.loc 1 1109 68 is_stmt 0 view .LVU272
 788 0120 2302     		lsls	r3, r4, #8
 789 0122 9946     		mov	r9, r3
 790              	.LBB87:
 791              	.LBB86:
1809:Drivers/STM32L0xx_HAL_Driver/Src/stm32l0xx_hal_rtc.c ****   {
 792              		.loc 1 1809 9 view .LVU273
 793 0124 0928     		cmp	r0, #9
 794 0126 08D9     		bls	.L21
1806:Drivers/STM32L0xx_HAL_Driver/Src/stm32l0xx_hal_rtc.c ****   uint8_t Param = Value;
 795              		.loc 1 1806 12 view .LVU274
ARM GAS  /tmp/ccAh8F5t.s 			page 51


 796 0128 0023     		movs	r3, #0
 797              	.LVL42:
 798              	.L22:
1811:Drivers/STM32L0xx_HAL_Driver/Src/stm32l0xx_hal_rtc.c ****     Param -= 10U;
 799              		.loc 1 1811 5 is_stmt 1 view .LVU275
1812:Drivers/STM32L0xx_HAL_Driver/Src/stm32l0xx_hal_rtc.c ****   }
 800              		.loc 1 1812 11 is_stmt 0 view .LVU276
 801 012a 0A38     		subs	r0, r0, #10
 802              	.LVL43:
1812:Drivers/STM32L0xx_HAL_Driver/Src/stm32l0xx_hal_rtc.c ****   }
 803              		.loc 1 1812 11 view .LVU277
 804 012c C0B2     		uxtb	r0, r0
1811:Drivers/STM32L0xx_HAL_Driver/Src/stm32l0xx_hal_rtc.c ****     Param -= 10U;
 805              		.loc 1 1811 12 view .LVU278
 806 012e 0133     		adds	r3, r3, #1
 807              	.LVL44:
1812:Drivers/STM32L0xx_HAL_Driver/Src/stm32l0xx_hal_rtc.c ****   }
 808              		.loc 1 1812 5 is_stmt 1 view .LVU279
1809:Drivers/STM32L0xx_HAL_Driver/Src/stm32l0xx_hal_rtc.c ****   {
 809              		.loc 1 1809 9 view .LVU280
 810 0130 0928     		cmp	r0, #9
 811 0132 FAD8     		bhi	.L22
 812 0134 1B01     		lsls	r3, r3, #4
 813              	.LVL45:
1809:Drivers/STM32L0xx_HAL_Driver/Src/stm32l0xx_hal_rtc.c ****   {
 814              		.loc 1 1809 9 is_stmt 0 view .LVU281
 815 0136 1843     		orrs	r0, r3
 816              	.LVL46:
1809:Drivers/STM32L0xx_HAL_Driver/Src/stm32l0xx_hal_rtc.c ****   {
 817              		.loc 1 1809 9 view .LVU282
 818 0138 C0B2     		uxtb	r0, r0
 819              	.L21:
1815:Drivers/STM32L0xx_HAL_Driver/Src/stm32l0xx_hal_rtc.c **** }
 820              		.loc 1 1815 3 is_stmt 1 view .LVU283
 821              	.LVL47:
1815:Drivers/STM32L0xx_HAL_Driver/Src/stm32l0xx_hal_rtc.c **** }
 822              		.loc 1 1815 3 is_stmt 0 view .LVU284
 823              	.LBE86:
 824              	.LBE87:
1112:Drivers/STM32L0xx_HAL_Driver/Src/stm32l0xx_hal_rtc.c ****               ((uint32_t)sAlarm->AlarmDateWeekDaySel) | \
 825              		.loc 1 1112 26 view .LVU285
 826 013a 2023     		movs	r3, #32
 827 013c CB5C     		ldrb	r3, [r1, r3]
 828              	.LVL48:
 829              	.LBB88:
 830              	.LBI88:
1804:Drivers/STM32L0xx_HAL_Driver/Src/stm32l0xx_hal_rtc.c **** {
 831              		.loc 1 1804 9 is_stmt 1 view .LVU286
 832              	.LBB89:
1809:Drivers/STM32L0xx_HAL_Driver/Src/stm32l0xx_hal_rtc.c ****   {
 833              		.loc 1 1809 9 view .LVU287
 834 013e 092B     		cmp	r3, #9
 835 0140 07D9     		bls	.L23
 836              	.LVL49:
 837              	.L24:
1811:Drivers/STM32L0xx_HAL_Driver/Src/stm32l0xx_hal_rtc.c ****     Param -= 10U;
 838              		.loc 1 1811 5 view .LVU288
ARM GAS  /tmp/ccAh8F5t.s 			page 52


1812:Drivers/STM32L0xx_HAL_Driver/Src/stm32l0xx_hal_rtc.c ****   }
 839              		.loc 1 1812 11 is_stmt 0 view .LVU289
 840 0142 0A3B     		subs	r3, r3, #10
 841              	.LVL50:
1812:Drivers/STM32L0xx_HAL_Driver/Src/stm32l0xx_hal_rtc.c ****   }
 842              		.loc 1 1812 11 view .LVU290
 843 0144 DBB2     		uxtb	r3, r3
1811:Drivers/STM32L0xx_HAL_Driver/Src/stm32l0xx_hal_rtc.c ****     Param -= 10U;
 844              		.loc 1 1811 12 view .LVU291
 845 0146 0132     		adds	r2, r2, #1
 846              	.LVL51:
1812:Drivers/STM32L0xx_HAL_Driver/Src/stm32l0xx_hal_rtc.c ****   }
 847              		.loc 1 1812 5 is_stmt 1 view .LVU292
1809:Drivers/STM32L0xx_HAL_Driver/Src/stm32l0xx_hal_rtc.c ****   {
 848              		.loc 1 1809 9 view .LVU293
 849 0148 092B     		cmp	r3, #9
 850 014a FAD8     		bhi	.L24
 851 014c 1201     		lsls	r2, r2, #4
 852              	.LVL52:
1809:Drivers/STM32L0xx_HAL_Driver/Src/stm32l0xx_hal_rtc.c ****   {
 853              		.loc 1 1809 9 is_stmt 0 view .LVU294
 854 014e 1343     		orrs	r3, r2
 855              	.LVL53:
1809:Drivers/STM32L0xx_HAL_Driver/Src/stm32l0xx_hal_rtc.c ****   {
 856              		.loc 1 1809 9 view .LVU295
 857 0150 DBB2     		uxtb	r3, r3
 858              	.L23:
1815:Drivers/STM32L0xx_HAL_Driver/Src/stm32l0xx_hal_rtc.c **** }
 859              		.loc 1 1815 3 is_stmt 1 view .LVU296
 860              	.LVL54:
1815:Drivers/STM32L0xx_HAL_Driver/Src/stm32l0xx_hal_rtc.c **** }
 861              		.loc 1 1815 3 is_stmt 0 view .LVU297
 862              	.LBE89:
 863              	.LBE88:
1108:Drivers/STM32L0xx_HAL_Driver/Src/stm32l0xx_hal_rtc.c ****               ((uint32_t)RTC_ByteToBcd2(sAlarm->AlarmTime.Minutes) << 8U) | \
 864              		.loc 1 1108 12 view .LVU298
 865 0152 4246     		mov	r2, r8
 866 0154 4C69     		ldr	r4, [r1, #20]
1112:Drivers/STM32L0xx_HAL_Driver/Src/stm32l0xx_hal_rtc.c ****               ((uint32_t)sAlarm->AlarmDateWeekDaySel) | \
 867              		.loc 1 1112 67 view .LVU299
 868 0156 1B06     		lsls	r3, r3, #24
1108:Drivers/STM32L0xx_HAL_Driver/Src/stm32l0xx_hal_rtc.c ****               ((uint32_t)RTC_ByteToBcd2(sAlarm->AlarmTime.Minutes) << 8U) | \
 869              		.loc 1 1108 12 view .LVU300
 870 0158 2243     		orrs	r2, r4
 871 015a 1743     		orrs	r7, r2
 872 015c 6246     		mov	r2, ip
 873 015e 4C46     		mov	r4, r9
 874 0160 1743     		orrs	r7, r2
 875 0162 3C43     		orrs	r4, r7
 876 0164 0443     		orrs	r4, r0
 877 0166 1C43     		orrs	r4, r3
 878 0168 A146     		mov	r9, r4
 879              	.LVL55:
1108:Drivers/STM32L0xx_HAL_Driver/Src/stm32l0xx_hal_rtc.c ****               ((uint32_t)RTC_ByteToBcd2(sAlarm->AlarmTime.Minutes) << 8U) | \
 880              		.loc 1 1108 12 view .LVU301
 881 016a 76E7     		b	.L25
 882              	.LVL56:
ARM GAS  /tmp/ccAh8F5t.s 			page 53


 883              	.L41:
1204:Drivers/STM32L0xx_HAL_Driver/Src/stm32l0xx_hal_rtc.c **** 
 884              		.loc 1 1204 9 is_stmt 1 view .LVU302
1204:Drivers/STM32L0xx_HAL_Driver/Src/stm32l0xx_hal_rtc.c **** 
 885              		.loc 1 1204 9 view .LVU303
 886 016c FF22     		movs	r2, #255
 887 016e 2B68     		ldr	r3, [r5]
1211:Drivers/STM32L0xx_HAL_Driver/Src/stm32l0xx_hal_rtc.c ****       }
 888              		.loc 1 1211 16 is_stmt 0 view .LVU304
 889 0170 0320     		movs	r0, #3
1204:Drivers/STM32L0xx_HAL_Driver/Src/stm32l0xx_hal_rtc.c **** 
 890              		.loc 1 1204 9 view .LVU305
 891 0172 5A62     		str	r2, [r3, #36]
1204:Drivers/STM32L0xx_HAL_Driver/Src/stm32l0xx_hal_rtc.c **** 
 892              		.loc 1 1204 9 is_stmt 1 view .LVU306
1206:Drivers/STM32L0xx_HAL_Driver/Src/stm32l0xx_hal_rtc.c **** 
 893              		.loc 1 1206 9 view .LVU307
1206:Drivers/STM32L0xx_HAL_Driver/Src/stm32l0xx_hal_rtc.c **** 
 894              		.loc 1 1206 21 is_stmt 0 view .LVU308
 895 0174 2123     		movs	r3, #33
 896 0176 FC3A     		subs	r2, r2, #252
 897 0178 EA54     		strb	r2, [r5, r3]
1209:Drivers/STM32L0xx_HAL_Driver/Src/stm32l0xx_hal_rtc.c **** 
 898              		.loc 1 1209 9 is_stmt 1 view .LVU309
1209:Drivers/STM32L0xx_HAL_Driver/Src/stm32l0xx_hal_rtc.c **** 
 899              		.loc 1 1209 9 view .LVU310
 900 017a 013B     		subs	r3, r3, #1
 901 017c EC54     		strb	r4, [r5, r3]
1209:Drivers/STM32L0xx_HAL_Driver/Src/stm32l0xx_hal_rtc.c **** 
 902              		.loc 1 1209 9 view .LVU311
1211:Drivers/STM32L0xx_HAL_Driver/Src/stm32l0xx_hal_rtc.c ****       }
 903              		.loc 1 1211 9 view .LVU312
1211:Drivers/STM32L0xx_HAL_Driver/Src/stm32l0xx_hal_rtc.c ****       }
 904              		.loc 1 1211 16 is_stmt 0 view .LVU313
 905 017e A6E7     		b	.L13
 906              	.LVL57:
 907              	.L43:
1160:Drivers/STM32L0xx_HAL_Driver/Src/stm32l0xx_hal_rtc.c **** 
 908              		.loc 1 1160 5 is_stmt 1 view .LVU314
 909 0180 B368     		ldr	r3, [r6, #8]
 910 0182 174A     		ldr	r2, .L44+8
 911 0184 1340     		ands	r3, r2
 912 0186 B360     		str	r3, [r6, #8]
1163:Drivers/STM32L0xx_HAL_Driver/Src/stm32l0xx_hal_rtc.c **** 
 913              		.loc 1 1163 5 view .LVU315
 914 0188 B368     		ldr	r3, [r6, #8]
 915 018a 164A     		ldr	r2, .L44+12
 916 018c 1340     		ands	r3, r2
 917 018e B360     		str	r3, [r6, #8]
1165:Drivers/STM32L0xx_HAL_Driver/Src/stm32l0xx_hal_rtc.c ****     /* Wait till RTC ALRAWF flag is set and if Time out is reached exit */
 918              		.loc 1 1165 5 view .LVU316
1165:Drivers/STM32L0xx_HAL_Driver/Src/stm32l0xx_hal_rtc.c ****     /* Wait till RTC ALRAWF flag is set and if Time out is reached exit */
 919              		.loc 1 1165 17 is_stmt 0 view .LVU317
 920 0190 FFF7FEFF 		bl	HAL_GetTick
 921              	.LVL58:
1169:Drivers/STM32L0xx_HAL_Driver/Src/stm32l0xx_hal_rtc.c ****       {
 922              		.loc 1 1169 10 view .LVU318
ARM GAS  /tmp/ccAh8F5t.s 			page 54


 923 0194 FA23     		movs	r3, #250
 924 0196 9B00     		lsls	r3, r3, #2
1165:Drivers/STM32L0xx_HAL_Driver/Src/stm32l0xx_hal_rtc.c ****     /* Wait till RTC ALRAWF flag is set and if Time out is reached exit */
 925              		.loc 1 1165 17 view .LVU319
 926 0198 0700     		movs	r7, r0
 927              	.LVL59:
1167:Drivers/STM32L0xx_HAL_Driver/Src/stm32l0xx_hal_rtc.c ****     {
 928              		.loc 1 1167 5 is_stmt 1 view .LVU320
1167:Drivers/STM32L0xx_HAL_Driver/Src/stm32l0xx_hal_rtc.c ****     {
 929              		.loc 1 1167 12 is_stmt 0 view .LVU321
 930 019a 0126     		movs	r6, #1
1169:Drivers/STM32L0xx_HAL_Driver/Src/stm32l0xx_hal_rtc.c ****       {
 931              		.loc 1 1169 10 view .LVU322
 932 019c 9A46     		mov	r10, r3
1167:Drivers/STM32L0xx_HAL_Driver/Src/stm32l0xx_hal_rtc.c ****     {
 933              		.loc 1 1167 11 view .LVU323
 934 019e 04E0     		b	.L29
 935              	.LVL60:
 936              	.L30:
1169:Drivers/STM32L0xx_HAL_Driver/Src/stm32l0xx_hal_rtc.c ****       {
 937              		.loc 1 1169 7 is_stmt 1 view .LVU324
1169:Drivers/STM32L0xx_HAL_Driver/Src/stm32l0xx_hal_rtc.c ****       {
 938              		.loc 1 1169 12 is_stmt 0 view .LVU325
 939 01a0 FFF7FEFF 		bl	HAL_GetTick
 940              	.LVL61:
1169:Drivers/STM32L0xx_HAL_Driver/Src/stm32l0xx_hal_rtc.c ****       {
 941              		.loc 1 1169 26 view .LVU326
 942 01a4 C01B     		subs	r0, r0, r7
1169:Drivers/STM32L0xx_HAL_Driver/Src/stm32l0xx_hal_rtc.c ****       {
 943              		.loc 1 1169 10 view .LVU327
 944 01a6 5045     		cmp	r0, r10
 945 01a8 E0D8     		bhi	.L41
 946              	.L29:
1167:Drivers/STM32L0xx_HAL_Driver/Src/stm32l0xx_hal_rtc.c ****     {
 947              		.loc 1 1167 11 is_stmt 1 view .LVU328
1167:Drivers/STM32L0xx_HAL_Driver/Src/stm32l0xx_hal_rtc.c ****     {
 948              		.loc 1 1167 12 is_stmt 0 view .LVU329
 949 01aa 3400     		movs	r4, r6
 950 01ac 2B68     		ldr	r3, [r5]
 951 01ae DA68     		ldr	r2, [r3, #12]
 952 01b0 1440     		ands	r4, r2
1167:Drivers/STM32L0xx_HAL_Driver/Src/stm32l0xx_hal_rtc.c ****     {
 953              		.loc 1 1167 11 view .LVU330
 954 01b2 1642     		tst	r6, r2
 955 01b4 F4D0     		beq	.L30
1183:Drivers/STM32L0xx_HAL_Driver/Src/stm32l0xx_hal_rtc.c ****     /* Configure the Alarm A Sub Second register */
 956              		.loc 1 1183 5 is_stmt 1 view .LVU331
1183:Drivers/STM32L0xx_HAL_Driver/Src/stm32l0xx_hal_rtc.c ****     /* Configure the Alarm A Sub Second register */
 957              		.loc 1 1183 28 is_stmt 0 view .LVU332
 958 01b6 4A46     		mov	r2, r9
 959 01b8 DA61     		str	r2, [r3, #28]
1185:Drivers/STM32L0xx_HAL_Driver/Src/stm32l0xx_hal_rtc.c ****     /* Configure the Alarm state: Enable Alarm */
 960              		.loc 1 1185 5 is_stmt 1 view .LVU333
1185:Drivers/STM32L0xx_HAL_Driver/Src/stm32l0xx_hal_rtc.c ****     /* Configure the Alarm state: Enable Alarm */
 961              		.loc 1 1185 30 is_stmt 0 view .LVU334
 962 01ba 4246     		mov	r2, r8
 963 01bc 5A64     		str	r2, [r3, #68]
ARM GAS  /tmp/ccAh8F5t.s 			page 55


1187:Drivers/STM32L0xx_HAL_Driver/Src/stm32l0xx_hal_rtc.c ****   }
 964              		.loc 1 1187 5 is_stmt 1 view .LVU335
 965 01be 8022     		movs	r2, #128
 966 01c0 9968     		ldr	r1, [r3, #8]
 967 01c2 5200     		lsls	r2, r2, #1
 968 01c4 0A43     		orrs	r2, r1
 969 01c6 9A60     		str	r2, [r3, #8]
 970 01c8 78E7     		b	.L31
 971              	.LVL62:
 972              	.L26:
1125:Drivers/STM32L0xx_HAL_Driver/Src/stm32l0xx_hal_rtc.c ****       assert_param(IS_RTC_HOUR24(RTC_Bcd2ToByte(sAlarm->AlarmTime.Hours)));
 973              		.loc 1 1125 7 view .LVU336
1125:Drivers/STM32L0xx_HAL_Driver/Src/stm32l0xx_hal_rtc.c ****       assert_param(IS_RTC_HOUR24(RTC_Bcd2ToByte(sAlarm->AlarmTime.Hours)));
 974              		.loc 1 1125 36 is_stmt 0 view .LVU337
 975 01ca CF70     		strb	r7, [r1, #3]
 976 01cc 34E7     		b	.L27
 977              	.LVL63:
 978              	.L15:
1093:Drivers/STM32L0xx_HAL_Driver/Src/stm32l0xx_hal_rtc.c ****       assert_param(IS_RTC_HOUR24(sAlarm->AlarmTime.Hours));
 979              		.loc 1 1093 7 is_stmt 1 view .LVU338
1093:Drivers/STM32L0xx_HAL_Driver/Src/stm32l0xx_hal_rtc.c ****       assert_param(IS_RTC_HOUR24(sAlarm->AlarmTime.Hours));
 980              		.loc 1 1093 36 is_stmt 0 view .LVU339
 981 01ce CF70     		strb	r7, [r1, #3]
 982 01d0 89E7     		b	.L16
 983              	.L34:
1080:Drivers/STM32L0xx_HAL_Driver/Src/stm32l0xx_hal_rtc.c **** 
 984              		.loc 1 1080 3 view .LVU340
 985 01d2 0220     		movs	r0, #2
 986 01d4 7BE7     		b	.L13
 987              	.L45:
 988 01d6 C046     		.align	2
 989              	.L44:
 990 01d8 FFFDFFFF 		.word	-513
 991 01dc FFDFFFFF 		.word	-8193
 992 01e0 FFFEFFFF 		.word	-257
 993 01e4 FFEFFFFF 		.word	-4097
 994              		.cfi_endproc
 995              	.LFE42:
 997              		.section	.text.HAL_RTC_SetAlarm_IT,"ax",%progbits
 998              		.align	1
 999              		.p2align 2,,3
 1000              		.global	HAL_RTC_SetAlarm_IT
 1001              		.syntax unified
 1002              		.code	16
 1003              		.thumb_func
 1004              		.fpu softvfp
 1006              	HAL_RTC_SetAlarm_IT:
 1007              	.LVL64:
 1008              	.LFB43:
1248:Drivers/STM32L0xx_HAL_Driver/Src/stm32l0xx_hal_rtc.c ****   uint32_t tickstart;
 1009              		.loc 1 1248 1 is_stmt 1 view -0
 1010              		.cfi_startproc
 1011              		@ args = 0, pretend = 0, frame = 0
 1012              		@ frame_needed = 0, uses_anonymous_args = 0
1249:Drivers/STM32L0xx_HAL_Driver/Src/stm32l0xx_hal_rtc.c ****   uint32_t tmpreg, subsecondtmpreg;
 1013              		.loc 1 1249 3 view .LVU342
1250:Drivers/STM32L0xx_HAL_Driver/Src/stm32l0xx_hal_rtc.c **** 
ARM GAS  /tmp/ccAh8F5t.s 			page 56


 1014              		.loc 1 1250 3 view .LVU343
1253:Drivers/STM32L0xx_HAL_Driver/Src/stm32l0xx_hal_rtc.c ****   assert_param(IS_RTC_ALARM(sAlarm->Alarm));
 1015              		.loc 1 1253 3 view .LVU344
1254:Drivers/STM32L0xx_HAL_Driver/Src/stm32l0xx_hal_rtc.c ****   assert_param(IS_RTC_ALARM_MASK(sAlarm->AlarmMask));
 1016              		.loc 1 1254 3 view .LVU345
1255:Drivers/STM32L0xx_HAL_Driver/Src/stm32l0xx_hal_rtc.c ****   assert_param(IS_RTC_ALARM_DATE_WEEKDAY_SEL(sAlarm->AlarmDateWeekDaySel));
 1017              		.loc 1 1255 3 view .LVU346
1256:Drivers/STM32L0xx_HAL_Driver/Src/stm32l0xx_hal_rtc.c ****   assert_param(IS_RTC_ALARM_SUB_SECOND_VALUE(sAlarm->AlarmTime.SubSeconds));
 1018              		.loc 1 1256 3 view .LVU347
1257:Drivers/STM32L0xx_HAL_Driver/Src/stm32l0xx_hal_rtc.c ****   assert_param(IS_RTC_ALARM_SUB_SECOND_MASK(sAlarm->AlarmSubSecondMask));
 1019              		.loc 1 1257 3 view .LVU348
1258:Drivers/STM32L0xx_HAL_Driver/Src/stm32l0xx_hal_rtc.c **** 
 1020              		.loc 1 1258 3 view .LVU349
1261:Drivers/STM32L0xx_HAL_Driver/Src/stm32l0xx_hal_rtc.c **** 
 1021              		.loc 1 1261 3 view .LVU350
1261:Drivers/STM32L0xx_HAL_Driver/Src/stm32l0xx_hal_rtc.c **** 
 1022              		.loc 1 1261 3 view .LVU351
1248:Drivers/STM32L0xx_HAL_Driver/Src/stm32l0xx_hal_rtc.c ****   uint32_t tickstart;
 1023              		.loc 1 1248 1 is_stmt 0 view .LVU352
 1024 0000 F0B5     		push	{r4, r5, r6, r7, lr}
 1025              	.LCFI4:
 1026              		.cfi_def_cfa_offset 20
 1027              		.cfi_offset 4, -20
 1028              		.cfi_offset 5, -16
 1029              		.cfi_offset 6, -12
 1030              		.cfi_offset 7, -8
 1031              		.cfi_offset 14, -4
 1032 0002 D646     		mov	lr, r10
 1033 0004 4F46     		mov	r7, r9
 1034 0006 4646     		mov	r6, r8
1261:Drivers/STM32L0xx_HAL_Driver/Src/stm32l0xx_hal_rtc.c **** 
 1035              		.loc 1 1261 3 view .LVU353
 1036 0008 2023     		movs	r3, #32
1248:Drivers/STM32L0xx_HAL_Driver/Src/stm32l0xx_hal_rtc.c ****   uint32_t tickstart;
 1037              		.loc 1 1248 1 view .LVU354
 1038 000a C0B5     		push	{r6, r7, lr}
 1039              	.LCFI5:
 1040              		.cfi_def_cfa_offset 32
 1041              		.cfi_offset 8, -32
 1042              		.cfi_offset 9, -28
 1043              		.cfi_offset 10, -24
1248:Drivers/STM32L0xx_HAL_Driver/Src/stm32l0xx_hal_rtc.c ****   uint32_t tickstart;
 1044              		.loc 1 1248 1 view .LVU355
 1045 000c 0500     		movs	r5, r0
1261:Drivers/STM32L0xx_HAL_Driver/Src/stm32l0xx_hal_rtc.c **** 
 1046              		.loc 1 1261 3 view .LVU356
 1047 000e C05C     		ldrb	r0, [r0, r3]
 1048              	.LVL65:
1261:Drivers/STM32L0xx_HAL_Driver/Src/stm32l0xx_hal_rtc.c **** 
 1049              		.loc 1 1261 3 view .LVU357
 1050 0010 0128     		cmp	r0, #1
 1051 0012 00D1     		bne	.LCB932
 1052 0014 F5E0     		b	.L68	@long jump
 1053              	.LCB932:
1261:Drivers/STM32L0xx_HAL_Driver/Src/stm32l0xx_hal_rtc.c **** 
 1054              		.loc 1 1261 3 is_stmt 1 discriminator 2 view .LVU358
 1055 0016 0120     		movs	r0, #1
ARM GAS  /tmp/ccAh8F5t.s 			page 57


 1056 0018 E854     		strb	r0, [r5, r3]
1261:Drivers/STM32L0xx_HAL_Driver/Src/stm32l0xx_hal_rtc.c **** 
 1057              		.loc 1 1261 3 discriminator 2 view .LVU359
1263:Drivers/STM32L0xx_HAL_Driver/Src/stm32l0xx_hal_rtc.c **** 
 1058              		.loc 1 1263 3 discriminator 2 view .LVU360
1263:Drivers/STM32L0xx_HAL_Driver/Src/stm32l0xx_hal_rtc.c **** 
 1059              		.loc 1 1263 15 is_stmt 0 discriminator 2 view .LVU361
 1060 001a 0133     		adds	r3, r3, #1
 1061 001c 0130     		adds	r0, r0, #1
 1062 001e E854     		strb	r0, [r5, r3]
1265:Drivers/STM32L0xx_HAL_Driver/Src/stm32l0xx_hal_rtc.c ****   {
 1063              		.loc 1 1265 3 is_stmt 1 discriminator 2 view .LVU362
1267:Drivers/STM32L0xx_HAL_Driver/Src/stm32l0xx_hal_rtc.c ****     {
 1064              		.loc 1 1267 14 is_stmt 0 discriminator 2 view .LVU363
 1065 0020 2E68     		ldr	r6, [r5]
1267:Drivers/STM32L0xx_HAL_Driver/Src/stm32l0xx_hal_rtc.c ****     {
 1066              		.loc 1 1267 24 discriminator 2 view .LVU364
 1067 0022 B368     		ldr	r3, [r6, #8]
1265:Drivers/STM32L0xx_HAL_Driver/Src/stm32l0xx_hal_rtc.c ****   {
 1068              		.loc 1 1265 6 discriminator 2 view .LVU365
 1069 0024 002A     		cmp	r2, #0
 1070 0026 68D0     		beq	.L76
1298:Drivers/STM32L0xx_HAL_Driver/Src/stm32l0xx_hal_rtc.c ****     {
 1071              		.loc 1 1298 5 is_stmt 1 view .LVU366
1298:Drivers/STM32L0xx_HAL_Driver/Src/stm32l0xx_hal_rtc.c ****     {
 1072              		.loc 1 1298 29 is_stmt 0 view .LVU367
 1073 0028 4022     		movs	r2, #64
 1074              	.LVL66:
1298:Drivers/STM32L0xx_HAL_Driver/Src/stm32l0xx_hal_rtc.c ****     {
