ARM GAS  /tmp/ccI53EIM.s 			page 1


   1              		.cpu cortex-m0plus
   2              		.eabi_attribute 20, 1
   3              		.eabi_attribute 21, 1
   4              		.eabi_attribute 23, 3
   5              		.eabi_attribute 24, 1
   6              		.eabi_attribute 25, 1
   7              		.eabi_attribute 26, 1
   8              		.eabi_attribute 30, 2
   9              		.eabi_attribute 34, 0
  10              		.eabi_attribute 18, 4
  11              		.file	"stm32l0xx_hal_dma.c"
  12              		.text
  13              	.Ltext0:
  14              		.cfi_sections	.debug_frame
  15              		.global	__aeabi_uidiv
  16              		.section	.text.HAL_DMA_Init,"ax",%progbits
  17              		.align	1
  18              		.p2align 2,,3
  19              		.global	HAL_DMA_Init
  20              		.arch armv6s-m
  21              		.syntax unified
  22              		.code	16
  23              		.thumb_func
  24              		.fpu softvfp
  26              	HAL_DMA_Init:
  27              	.LVL0:
  28              	.LFB34:
  29              		.file 1 "Drivers/STM32L0xx_HAL_Driver/Src/stm32l0xx_hal_dma.c"
   1:Drivers/STM32L0xx_HAL_Driver/Src/stm32l0xx_hal_dma.c **** /**
   2:Drivers/STM32L0xx_HAL_Driver/Src/stm32l0xx_hal_dma.c ****   ******************************************************************************
   3:Drivers/STM32L0xx_HAL_Driver/Src/stm32l0xx_hal_dma.c ****   * @file    stm32l0xx_hal_dma.c
   4:Drivers/STM32L0xx_HAL_Driver/Src/stm32l0xx_hal_dma.c ****   * @author  MCD Application Team
   5:Drivers/STM32L0xx_HAL_Driver/Src/stm32l0xx_hal_dma.c ****   * @brief   DMA HAL module driver.
   6:Drivers/STM32L0xx_HAL_Driver/Src/stm32l0xx_hal_dma.c ****   *         This file provides firmware functions to manage the following
   7:Drivers/STM32L0xx_HAL_Driver/Src/stm32l0xx_hal_dma.c ****   *         functionalities of the Direct Memory Access (DMA) peripheral:
   8:Drivers/STM32L0xx_HAL_Driver/Src/stm32l0xx_hal_dma.c ****   *           + Initialization and de-initialization functions
   9:Drivers/STM32L0xx_HAL_Driver/Src/stm32l0xx_hal_dma.c ****   *           + IO operation functions
  10:Drivers/STM32L0xx_HAL_Driver/Src/stm32l0xx_hal_dma.c ****   *           + Peripheral State and errors functions
  11:Drivers/STM32L0xx_HAL_Driver/Src/stm32l0xx_hal_dma.c ****   @verbatim
  12:Drivers/STM32L0xx_HAL_Driver/Src/stm32l0xx_hal_dma.c ****   ==============================================================================
  13:Drivers/STM32L0xx_HAL_Driver/Src/stm32l0xx_hal_dma.c ****                         ##### How to use this driver #####
  14:Drivers/STM32L0xx_HAL_Driver/Src/stm32l0xx_hal_dma.c ****   ==============================================================================
  15:Drivers/STM32L0xx_HAL_Driver/Src/stm32l0xx_hal_dma.c ****   [..]
  16:Drivers/STM32L0xx_HAL_Driver/Src/stm32l0xx_hal_dma.c ****    (#) Enable and configure the peripheral to be connected to the DMA Channel
  17:Drivers/STM32L0xx_HAL_Driver/Src/stm32l0xx_hal_dma.c ****        (except for internal SRAM / FLASH memories: no initialization is
  18:Drivers/STM32L0xx_HAL_Driver/Src/stm32l0xx_hal_dma.c ****        necessary).
  19:Drivers/STM32L0xx_HAL_Driver/Src/stm32l0xx_hal_dma.c **** 
  20:Drivers/STM32L0xx_HAL_Driver/Src/stm32l0xx_hal_dma.c ****    (#) For a given Channel, program the required configuration through the following parameters:
  21:Drivers/STM32L0xx_HAL_Driver/Src/stm32l0xx_hal_dma.c ****        Channel request, Transfer Direction, Source and Destination data formats,
  22:Drivers/STM32L0xx_HAL_Driver/Src/stm32l0xx_hal_dma.c ****        Circular or Normal mode, Channel Priority level, Source and Destination Increment mode
  23:Drivers/STM32L0xx_HAL_Driver/Src/stm32l0xx_hal_dma.c ****        using HAL_DMA_Init() function.
  24:Drivers/STM32L0xx_HAL_Driver/Src/stm32l0xx_hal_dma.c **** 
  25:Drivers/STM32L0xx_HAL_Driver/Src/stm32l0xx_hal_dma.c ****    (#) Use HAL_DMA_GetState() function to return the DMA state and HAL_DMA_GetError() in case of er
  26:Drivers/STM32L0xx_HAL_Driver/Src/stm32l0xx_hal_dma.c ****        detection.
  27:Drivers/STM32L0xx_HAL_Driver/Src/stm32l0xx_hal_dma.c **** 
  28:Drivers/STM32L0xx_HAL_Driver/Src/stm32l0xx_hal_dma.c ****    (#) Use HAL_DMA_Abort() function to abort the current transfer
  29:Drivers/STM32L0xx_HAL_Driver/Src/stm32l0xx_hal_dma.c **** 
ARM GAS  /tmp/ccI53EIM.s 			page 2


  30:Drivers/STM32L0xx_HAL_Driver/Src/stm32l0xx_hal_dma.c ****      -@-   In Memory-to-Memory transfer mode, Circular mode is not allowed.
  31:Drivers/STM32L0xx_HAL_Driver/Src/stm32l0xx_hal_dma.c **** 
  32:Drivers/STM32L0xx_HAL_Driver/Src/stm32l0xx_hal_dma.c ****      *** Polling mode IO operation ***
  33:Drivers/STM32L0xx_HAL_Driver/Src/stm32l0xx_hal_dma.c ****      =================================
  34:Drivers/STM32L0xx_HAL_Driver/Src/stm32l0xx_hal_dma.c ****     [..]
  35:Drivers/STM32L0xx_HAL_Driver/Src/stm32l0xx_hal_dma.c ****           (+) Use HAL_DMA_Start() to start DMA transfer after the configuration of Source
  36:Drivers/STM32L0xx_HAL_Driver/Src/stm32l0xx_hal_dma.c ****               address and destination address and the Length of data to be transferred
  37:Drivers/STM32L0xx_HAL_Driver/Src/stm32l0xx_hal_dma.c ****           (+) Use HAL_DMA_PollForTransfer() to poll for the end of current transfer, in this
  38:Drivers/STM32L0xx_HAL_Driver/Src/stm32l0xx_hal_dma.c ****               case a fixed Timeout can be configured by User depending from his application.
  39:Drivers/STM32L0xx_HAL_Driver/Src/stm32l0xx_hal_dma.c **** 
  40:Drivers/STM32L0xx_HAL_Driver/Src/stm32l0xx_hal_dma.c ****      *** Interrupt mode IO operation ***
  41:Drivers/STM32L0xx_HAL_Driver/Src/stm32l0xx_hal_dma.c ****      ===================================
  42:Drivers/STM32L0xx_HAL_Driver/Src/stm32l0xx_hal_dma.c ****     [..]
  43:Drivers/STM32L0xx_HAL_Driver/Src/stm32l0xx_hal_dma.c ****           (+) Configure the DMA interrupt priority using HAL_NVIC_SetPriority()
  44:Drivers/STM32L0xx_HAL_Driver/Src/stm32l0xx_hal_dma.c ****           (+) Enable the DMA IRQ handler using HAL_NVIC_EnableIRQ()
  45:Drivers/STM32L0xx_HAL_Driver/Src/stm32l0xx_hal_dma.c ****           (+) Use HAL_DMA_Start_IT() to start DMA transfer after the configuration of
  46:Drivers/STM32L0xx_HAL_Driver/Src/stm32l0xx_hal_dma.c ****               Source address and destination address and the Length of data to be transferred.
  47:Drivers/STM32L0xx_HAL_Driver/Src/stm32l0xx_hal_dma.c ****               In this case the DMA interrupt is configured
  48:Drivers/STM32L0xx_HAL_Driver/Src/stm32l0xx_hal_dma.c ****           (+) Use HAL_DMA_IRQHandler() called under DMA_IRQHandler() Interrupt subroutine
  49:Drivers/STM32L0xx_HAL_Driver/Src/stm32l0xx_hal_dma.c ****           (+) At the end of data transfer HAL_DMA_IRQHandler() function is executed and user can
  50:Drivers/STM32L0xx_HAL_Driver/Src/stm32l0xx_hal_dma.c ****               add his own function to register callbacks with HAL_DMA_RegisterCallback().
  51:Drivers/STM32L0xx_HAL_Driver/Src/stm32l0xx_hal_dma.c **** 
  52:Drivers/STM32L0xx_HAL_Driver/Src/stm32l0xx_hal_dma.c ****      *** DMA HAL driver macros list ***
  53:Drivers/STM32L0xx_HAL_Driver/Src/stm32l0xx_hal_dma.c ****      =============================================
  54:Drivers/STM32L0xx_HAL_Driver/Src/stm32l0xx_hal_dma.c ****       [..]
  55:Drivers/STM32L0xx_HAL_Driver/Src/stm32l0xx_hal_dma.c ****        Below the list of macros in DMA HAL driver.
  56:Drivers/STM32L0xx_HAL_Driver/Src/stm32l0xx_hal_dma.c **** 
  57:Drivers/STM32L0xx_HAL_Driver/Src/stm32l0xx_hal_dma.c ****        (+) __HAL_DMA_ENABLE: Enable the specified DMA Channel.
  58:Drivers/STM32L0xx_HAL_Driver/Src/stm32l0xx_hal_dma.c ****        (+) __HAL_DMA_DISABLE: Disable the specified DMA Channel.
  59:Drivers/STM32L0xx_HAL_Driver/Src/stm32l0xx_hal_dma.c ****        (+) __HAL_DMA_GET_FLAG: Get the DMA Channel pending flags.
  60:Drivers/STM32L0xx_HAL_Driver/Src/stm32l0xx_hal_dma.c ****        (+) __HAL_DMA_CLEAR_FLAG: Clear the DMA Channel pending flags.
  61:Drivers/STM32L0xx_HAL_Driver/Src/stm32l0xx_hal_dma.c ****        (+) __HAL_DMA_ENABLE_IT: Enable the specified DMA Channel interrupts.
  62:Drivers/STM32L0xx_HAL_Driver/Src/stm32l0xx_hal_dma.c ****        (+) __HAL_DMA_DISABLE_IT: Disable the specified DMA Channel interrupts.
  63:Drivers/STM32L0xx_HAL_Driver/Src/stm32l0xx_hal_dma.c ****        (+) __HAL_DMA_GET_IT_SOURCE: Check whether the specified DMA Channel interrupt has occurred 
  64:Drivers/STM32L0xx_HAL_Driver/Src/stm32l0xx_hal_dma.c **** 
  65:Drivers/STM32L0xx_HAL_Driver/Src/stm32l0xx_hal_dma.c ****      [..]
  66:Drivers/STM32L0xx_HAL_Driver/Src/stm32l0xx_hal_dma.c ****       (@) You can refer to the DMA HAL driver header file for more useful macros
  67:Drivers/STM32L0xx_HAL_Driver/Src/stm32l0xx_hal_dma.c **** 
  68:Drivers/STM32L0xx_HAL_Driver/Src/stm32l0xx_hal_dma.c ****   @endverbatim
  69:Drivers/STM32L0xx_HAL_Driver/Src/stm32l0xx_hal_dma.c ****   ******************************************************************************
  70:Drivers/STM32L0xx_HAL_Driver/Src/stm32l0xx_hal_dma.c ****   * @attention
  71:Drivers/STM32L0xx_HAL_Driver/Src/stm32l0xx_hal_dma.c ****   *
  72:Drivers/STM32L0xx_HAL_Driver/Src/stm32l0xx_hal_dma.c ****   * <h2><center>&copy; COPYRIGHT(c) 2016 STMicroelectronics.
  73:Drivers/STM32L0xx_HAL_Driver/Src/stm32l0xx_hal_dma.c ****   * All rights reserved.</center></h2>
  74:Drivers/STM32L0xx_HAL_Driver/Src/stm32l0xx_hal_dma.c ****   *
  75:Drivers/STM32L0xx_HAL_Driver/Src/stm32l0xx_hal_dma.c ****   * This software component is licensed by ST under BSD 3-Clause license,
  76:Drivers/STM32L0xx_HAL_Driver/Src/stm32l0xx_hal_dma.c ****   * the "License"; You may not use this file except in compliance with the
  77:Drivers/STM32L0xx_HAL_Driver/Src/stm32l0xx_hal_dma.c ****   * License. You may obtain a copy of the License at:
  78:Drivers/STM32L0xx_HAL_Driver/Src/stm32l0xx_hal_dma.c ****   *                        opensource.org/licenses/BSD-3-Clause
  79:Drivers/STM32L0xx_HAL_Driver/Src/stm32l0xx_hal_dma.c ****   *
  80:Drivers/STM32L0xx_HAL_Driver/Src/stm32l0xx_hal_dma.c ****   ******************************************************************************
  81:Drivers/STM32L0xx_HAL_Driver/Src/stm32l0xx_hal_dma.c ****   */
  82:Drivers/STM32L0xx_HAL_Driver/Src/stm32l0xx_hal_dma.c **** 
  83:Drivers/STM32L0xx_HAL_Driver/Src/stm32l0xx_hal_dma.c **** /* Includes ------------------------------------------------------------------*/
  84:Drivers/STM32L0xx_HAL_Driver/Src/stm32l0xx_hal_dma.c **** #include "stm32l0xx_hal.h"
  85:Drivers/STM32L0xx_HAL_Driver/Src/stm32l0xx_hal_dma.c **** 
  86:Drivers/STM32L0xx_HAL_Driver/Src/stm32l0xx_hal_dma.c **** /** @addtogroup STM32L0xx_HAL_Driver
ARM GAS  /tmp/ccI53EIM.s 			page 3


  87:Drivers/STM32L0xx_HAL_Driver/Src/stm32l0xx_hal_dma.c ****   * @{
  88:Drivers/STM32L0xx_HAL_Driver/Src/stm32l0xx_hal_dma.c ****   */
  89:Drivers/STM32L0xx_HAL_Driver/Src/stm32l0xx_hal_dma.c **** 
  90:Drivers/STM32L0xx_HAL_Driver/Src/stm32l0xx_hal_dma.c **** /** @defgroup DMA DMA
  91:Drivers/STM32L0xx_HAL_Driver/Src/stm32l0xx_hal_dma.c ****   * @brief DMA HAL module driver
  92:Drivers/STM32L0xx_HAL_Driver/Src/stm32l0xx_hal_dma.c ****   * @{
  93:Drivers/STM32L0xx_HAL_Driver/Src/stm32l0xx_hal_dma.c ****   */
  94:Drivers/STM32L0xx_HAL_Driver/Src/stm32l0xx_hal_dma.c **** 
  95:Drivers/STM32L0xx_HAL_Driver/Src/stm32l0xx_hal_dma.c **** #ifdef HAL_DMA_MODULE_ENABLED
  96:Drivers/STM32L0xx_HAL_Driver/Src/stm32l0xx_hal_dma.c **** 
  97:Drivers/STM32L0xx_HAL_Driver/Src/stm32l0xx_hal_dma.c **** /* Private typedef -----------------------------------------------------------*/
  98:Drivers/STM32L0xx_HAL_Driver/Src/stm32l0xx_hal_dma.c **** /** @defgroup DMA_Private_Functions DMA Private Functions
  99:Drivers/STM32L0xx_HAL_Driver/Src/stm32l0xx_hal_dma.c ****   * @{
 100:Drivers/STM32L0xx_HAL_Driver/Src/stm32l0xx_hal_dma.c ****   */
 101:Drivers/STM32L0xx_HAL_Driver/Src/stm32l0xx_hal_dma.c **** 
 102:Drivers/STM32L0xx_HAL_Driver/Src/stm32l0xx_hal_dma.c **** static void DMA_SetConfig(DMA_HandleTypeDef *hdma, uint32_t SrcAddress, uint32_t DstAddress, uint32
 103:Drivers/STM32L0xx_HAL_Driver/Src/stm32l0xx_hal_dma.c **** /**
 104:Drivers/STM32L0xx_HAL_Driver/Src/stm32l0xx_hal_dma.c ****   * @}
 105:Drivers/STM32L0xx_HAL_Driver/Src/stm32l0xx_hal_dma.c ****   */
 106:Drivers/STM32L0xx_HAL_Driver/Src/stm32l0xx_hal_dma.c **** 
 107:Drivers/STM32L0xx_HAL_Driver/Src/stm32l0xx_hal_dma.c **** /* Exported functions ---------------------------------------------------------*/
 108:Drivers/STM32L0xx_HAL_Driver/Src/stm32l0xx_hal_dma.c **** 
 109:Drivers/STM32L0xx_HAL_Driver/Src/stm32l0xx_hal_dma.c **** /** @defgroup DMA_Exported_Functions DMA Exported Functions
 110:Drivers/STM32L0xx_HAL_Driver/Src/stm32l0xx_hal_dma.c ****   * @{
 111:Drivers/STM32L0xx_HAL_Driver/Src/stm32l0xx_hal_dma.c ****   */
 112:Drivers/STM32L0xx_HAL_Driver/Src/stm32l0xx_hal_dma.c **** 
 113:Drivers/STM32L0xx_HAL_Driver/Src/stm32l0xx_hal_dma.c **** /** @defgroup DMA_Exported_Functions_Group1 Initialization and de-initialization functions
 114:Drivers/STM32L0xx_HAL_Driver/Src/stm32l0xx_hal_dma.c ****  *  @brief   Initialization and de-initialization functions
 115:Drivers/STM32L0xx_HAL_Driver/Src/stm32l0xx_hal_dma.c ****  *
 116:Drivers/STM32L0xx_HAL_Driver/Src/stm32l0xx_hal_dma.c **** @verbatim
 117:Drivers/STM32L0xx_HAL_Driver/Src/stm32l0xx_hal_dma.c ****  ===============================================================================
 118:Drivers/STM32L0xx_HAL_Driver/Src/stm32l0xx_hal_dma.c ****              ##### Initialization and de-initialization functions  #####
 119:Drivers/STM32L0xx_HAL_Driver/Src/stm32l0xx_hal_dma.c ****  ===============================================================================
 120:Drivers/STM32L0xx_HAL_Driver/Src/stm32l0xx_hal_dma.c ****     [..]
 121:Drivers/STM32L0xx_HAL_Driver/Src/stm32l0xx_hal_dma.c ****     This section provides functions allowing to initialize the DMA Channel source
 122:Drivers/STM32L0xx_HAL_Driver/Src/stm32l0xx_hal_dma.c ****     and destination addresses, incrementation and data sizes, transfer direction,
 123:Drivers/STM32L0xx_HAL_Driver/Src/stm32l0xx_hal_dma.c ****     circular/normal mode selection, memory-to-memory mode selection and Channel priority value.
 124:Drivers/STM32L0xx_HAL_Driver/Src/stm32l0xx_hal_dma.c ****     [..]
 125:Drivers/STM32L0xx_HAL_Driver/Src/stm32l0xx_hal_dma.c ****     The HAL_DMA_Init() function follows the DMA configuration procedures as described in
 126:Drivers/STM32L0xx_HAL_Driver/Src/stm32l0xx_hal_dma.c ****     reference manual.
 127:Drivers/STM32L0xx_HAL_Driver/Src/stm32l0xx_hal_dma.c **** 
 128:Drivers/STM32L0xx_HAL_Driver/Src/stm32l0xx_hal_dma.c **** @endverbatim
 129:Drivers/STM32L0xx_HAL_Driver/Src/stm32l0xx_hal_dma.c ****   * @{
 130:Drivers/STM32L0xx_HAL_Driver/Src/stm32l0xx_hal_dma.c ****   */
 131:Drivers/STM32L0xx_HAL_Driver/Src/stm32l0xx_hal_dma.c **** 
 132:Drivers/STM32L0xx_HAL_Driver/Src/stm32l0xx_hal_dma.c **** /**
 133:Drivers/STM32L0xx_HAL_Driver/Src/stm32l0xx_hal_dma.c ****   * @brief  Initialize the DMA according to the specified
 134:Drivers/STM32L0xx_HAL_Driver/Src/stm32l0xx_hal_dma.c ****   *         parameters in the DMA_InitTypeDef and initialize the associated handle.
 135:Drivers/STM32L0xx_HAL_Driver/Src/stm32l0xx_hal_dma.c ****   * @param  hdma Pointer to a DMA_HandleTypeDef structure that contains
 136:Drivers/STM32L0xx_HAL_Driver/Src/stm32l0xx_hal_dma.c ****   *               the configuration information for the specified DMA Channel.
 137:Drivers/STM32L0xx_HAL_Driver/Src/stm32l0xx_hal_dma.c ****   * @retval HAL status
 138:Drivers/STM32L0xx_HAL_Driver/Src/stm32l0xx_hal_dma.c ****   */
 139:Drivers/STM32L0xx_HAL_Driver/Src/stm32l0xx_hal_dma.c **** HAL_StatusTypeDef HAL_DMA_Init(DMA_HandleTypeDef *hdma)
 140:Drivers/STM32L0xx_HAL_Driver/Src/stm32l0xx_hal_dma.c **** {
  30              		.loc 1 140 1 view -0
  31              		.cfi_startproc
  32              		@ args = 0, pretend = 0, frame = 0
ARM GAS  /tmp/ccI53EIM.s 			page 4


  33              		@ frame_needed = 0, uses_anonymous_args = 0
 141:Drivers/STM32L0xx_HAL_Driver/Src/stm32l0xx_hal_dma.c ****   uint32_t tmp;
  34              		.loc 1 141 3 view .LVU1
 142:Drivers/STM32L0xx_HAL_Driver/Src/stm32l0xx_hal_dma.c **** 
 143:Drivers/STM32L0xx_HAL_Driver/Src/stm32l0xx_hal_dma.c ****   /* Check the DMA handle allocation */
 144:Drivers/STM32L0xx_HAL_Driver/Src/stm32l0xx_hal_dma.c ****   if(hdma == NULL)
  35              		.loc 1 144 3 view .LVU2
 140:Drivers/STM32L0xx_HAL_Driver/Src/stm32l0xx_hal_dma.c ****   uint32_t tmp;
  36              		.loc 1 140 1 is_stmt 0 view .LVU3
  37 0000 70B5     		push	{r4, r5, r6, lr}
  38              	.LCFI0:
  39              		.cfi_def_cfa_offset 16
  40              		.cfi_offset 4, -16
  41              		.cfi_offset 5, -12
  42              		.cfi_offset 6, -8
  43              		.cfi_offset 14, -4
 140:Drivers/STM32L0xx_HAL_Driver/Src/stm32l0xx_hal_dma.c ****   uint32_t tmp;
  44              		.loc 1 140 1 view .LVU4
  45 0002 041E     		subs	r4, r0, #0
  46              		.loc 1 144 5 view .LVU5
  47 0004 38D0     		beq	.L4
 145:Drivers/STM32L0xx_HAL_Driver/Src/stm32l0xx_hal_dma.c ****   {
 146:Drivers/STM32L0xx_HAL_Driver/Src/stm32l0xx_hal_dma.c ****     return HAL_ERROR;
 147:Drivers/STM32L0xx_HAL_Driver/Src/stm32l0xx_hal_dma.c ****   }
 148:Drivers/STM32L0xx_HAL_Driver/Src/stm32l0xx_hal_dma.c **** 
 149:Drivers/STM32L0xx_HAL_Driver/Src/stm32l0xx_hal_dma.c ****   /* Check the parameters */
 150:Drivers/STM32L0xx_HAL_Driver/Src/stm32l0xx_hal_dma.c ****   assert_param(IS_DMA_ALL_INSTANCE(hdma->Instance));
  48              		.loc 1 150 3 is_stmt 1 view .LVU6
 151:Drivers/STM32L0xx_HAL_Driver/Src/stm32l0xx_hal_dma.c ****   assert_param(IS_DMA_ALL_REQUEST(hdma->Init.Request));
  49              		.loc 1 151 3 view .LVU7
 152:Drivers/STM32L0xx_HAL_Driver/Src/stm32l0xx_hal_dma.c ****   assert_param(IS_DMA_DIRECTION(hdma->Init.Direction));
  50              		.loc 1 152 3 view .LVU8
 153:Drivers/STM32L0xx_HAL_Driver/Src/stm32l0xx_hal_dma.c ****   assert_param(IS_DMA_PERIPHERAL_INC_STATE(hdma->Init.PeriphInc));
  51              		.loc 1 153 3 view .LVU9
 154:Drivers/STM32L0xx_HAL_Driver/Src/stm32l0xx_hal_dma.c ****   assert_param(IS_DMA_MEMORY_INC_STATE(hdma->Init.MemInc));
  52              		.loc 1 154 3 view .LVU10
 155:Drivers/STM32L0xx_HAL_Driver/Src/stm32l0xx_hal_dma.c ****   assert_param(IS_DMA_PERIPHERAL_DATA_SIZE(hdma->Init.PeriphDataAlignment));
  53              		.loc 1 155 3 view .LVU11
 156:Drivers/STM32L0xx_HAL_Driver/Src/stm32l0xx_hal_dma.c ****   assert_param(IS_DMA_MEMORY_DATA_SIZE(hdma->Init.MemDataAlignment));
  54              		.loc 1 156 3 view .LVU12
 157:Drivers/STM32L0xx_HAL_Driver/Src/stm32l0xx_hal_dma.c ****   assert_param(IS_DMA_MODE(hdma->Init.Mode));
  55              		.loc 1 157 3 view .LVU13
 158:Drivers/STM32L0xx_HAL_Driver/Src/stm32l0xx_hal_dma.c ****   assert_param(IS_DMA_PRIORITY(hdma->Init.Priority));
  56              		.loc 1 158 3 view .LVU14
 159:Drivers/STM32L0xx_HAL_Driver/Src/stm32l0xx_hal_dma.c **** 
 160:Drivers/STM32L0xx_HAL_Driver/Src/stm32l0xx_hal_dma.c ****   /* Compute the channel index */
 161:Drivers/STM32L0xx_HAL_Driver/Src/stm32l0xx_hal_dma.c ****   /* Only one DMA: DMA1 */
 162:Drivers/STM32L0xx_HAL_Driver/Src/stm32l0xx_hal_dma.c ****   hdma->ChannelIndex = (((uint32_t)hdma->Instance - (uint32_t)DMA1_Channel1) / ((uint32_t)DMA1_Chan
  57              		.loc 1 162 3 view .LVU15
  58              		.loc 1 162 40 is_stmt 0 view .LVU16
  59 0006 0568     		ldr	r5, [r0]
  60              		.loc 1 162 51 view .LVU17
  61 0008 1C4B     		ldr	r3, .L6
  62              		.loc 1 162 78 view .LVU18
  63 000a 1421     		movs	r1, #20
  64              		.loc 1 162 51 view .LVU19
  65 000c E818     		adds	r0, r5, r3
ARM GAS  /tmp/ccI53EIM.s 			page 5


  66              	.LVL1:
  67              		.loc 1 162 78 view .LVU20
  68 000e FFF7FEFF 		bl	__aeabi_uidiv
  69              	.LVL2:
 163:Drivers/STM32L0xx_HAL_Driver/Src/stm32l0xx_hal_dma.c ****   hdma->DmaBaseAddress = DMA1;
  70              		.loc 1 163 24 view .LVU21
  71 0012 1B4B     		ldr	r3, .L6+4
 164:Drivers/STM32L0xx_HAL_Driver/Src/stm32l0xx_hal_dma.c **** 
 165:Drivers/STM32L0xx_HAL_Driver/Src/stm32l0xx_hal_dma.c ****   /* Change DMA peripheral state */
 166:Drivers/STM32L0xx_HAL_Driver/Src/stm32l0xx_hal_dma.c ****   hdma->State = HAL_DMA_STATE_BUSY;
  72              		.loc 1 166 15 view .LVU22
  73 0014 0222     		movs	r2, #2
 163:Drivers/STM32L0xx_HAL_Driver/Src/stm32l0xx_hal_dma.c ****   hdma->DmaBaseAddress = DMA1;
  74              		.loc 1 163 24 view .LVU23
  75 0016 2364     		str	r3, [r4, #64]
  76              		.loc 1 166 15 view .LVU24
  77 0018 2523     		movs	r3, #37
 162:Drivers/STM32L0xx_HAL_Driver/Src/stm32l0xx_hal_dma.c ****   hdma->DmaBaseAddress = DMA1;
  78              		.loc 1 162 133 view .LVU25
  79 001a 8000     		lsls	r0, r0, #2
 162:Drivers/STM32L0xx_HAL_Driver/Src/stm32l0xx_hal_dma.c ****   hdma->DmaBaseAddress = DMA1;
  80              		.loc 1 162 22 view .LVU26
  81 001c 6064     		str	r0, [r4, #68]
 163:Drivers/STM32L0xx_HAL_Driver/Src/stm32l0xx_hal_dma.c ****   hdma->DmaBaseAddress = DMA1;
  82              		.loc 1 163 3 is_stmt 1 view .LVU27
  83              		.loc 1 166 3 view .LVU28
  84              		.loc 1 166 15 is_stmt 0 view .LVU29
  85 001e E254     		strb	r2, [r4, r3]
 167:Drivers/STM32L0xx_HAL_Driver/Src/stm32l0xx_hal_dma.c **** 
 168:Drivers/STM32L0xx_HAL_Driver/Src/stm32l0xx_hal_dma.c ****   /* Get the CR register value */
 169:Drivers/STM32L0xx_HAL_Driver/Src/stm32l0xx_hal_dma.c ****   tmp = hdma->Instance->CCR;
  86              		.loc 1 169 3 is_stmt 1 view .LVU30
  87              		.loc 1 169 7 is_stmt 0 view .LVU31
  88 0020 2B68     		ldr	r3, [r5]
  89              	.LVL3:
 170:Drivers/STM32L0xx_HAL_Driver/Src/stm32l0xx_hal_dma.c **** 
 171:Drivers/STM32L0xx_HAL_Driver/Src/stm32l0xx_hal_dma.c ****   /* Clear PL, MSIZE, PSIZE, MINC, PINC, CIRC, DIR and MEM2MEM bits */
 172:Drivers/STM32L0xx_HAL_Driver/Src/stm32l0xx_hal_dma.c ****   tmp &= ((uint32_t)~(DMA_CCR_PL    | DMA_CCR_MSIZE  | DMA_CCR_PSIZE  |
  90              		.loc 1 172 3 is_stmt 1 view .LVU32
  91              		.loc 1 172 7 is_stmt 0 view .LVU33
  92 0022 184A     		ldr	r2, .L6+8
 173:Drivers/STM32L0xx_HAL_Driver/Src/stm32l0xx_hal_dma.c ****                       DMA_CCR_MINC  | DMA_CCR_PINC   | DMA_CCR_CIRC   |
 174:Drivers/STM32L0xx_HAL_Driver/Src/stm32l0xx_hal_dma.c ****                       DMA_CCR_DIR   | DMA_CCR_MEM2MEM));
 175:Drivers/STM32L0xx_HAL_Driver/Src/stm32l0xx_hal_dma.c **** 
 176:Drivers/STM32L0xx_HAL_Driver/Src/stm32l0xx_hal_dma.c ****   /* Prepare the DMA Channel configuration */
 177:Drivers/STM32L0xx_HAL_Driver/Src/stm32l0xx_hal_dma.c ****   tmp |=  hdma->Init.Direction        |
  93              		.loc 1 177 21 view .LVU34
  94 0024 A168     		ldr	r1, [r4, #8]
 172:Drivers/STM32L0xx_HAL_Driver/Src/stm32l0xx_hal_dma.c ****                       DMA_CCR_MINC  | DMA_CCR_PINC   | DMA_CCR_CIRC   |
  95              		.loc 1 172 7 view .LVU35
  96 0026 1A40     		ands	r2, r3
  97              	.LVL4:
  98              		.loc 1 177 3 is_stmt 1 view .LVU36
  99              		.loc 1 177 39 is_stmt 0 view .LVU37
 100 0028 E368     		ldr	r3, [r4, #12]
 178:Drivers/STM32L0xx_HAL_Driver/Src/stm32l0xx_hal_dma.c ****           hdma->Init.PeriphInc           | hdma->Init.MemInc           |
 101              		.loc 1 178 42 view .LVU38
ARM GAS  /tmp/ccI53EIM.s 			page 6


 102 002a 2669     		ldr	r6, [r4, #16]
 177:Drivers/STM32L0xx_HAL_Driver/Src/stm32l0xx_hal_dma.c ****           hdma->Init.PeriphInc           | hdma->Init.MemInc           |
 103              		.loc 1 177 39 view .LVU39
 104 002c 0B43     		orrs	r3, r1
 105              		.loc 1 178 42 view .LVU40
 106 002e 3343     		orrs	r3, r6
 107              		.loc 1 178 72 view .LVU41
 108 0030 6669     		ldr	r6, [r4, #20]
 109 0032 3343     		orrs	r3, r6
 179:Drivers/STM32L0xx_HAL_Driver/Src/stm32l0xx_hal_dma.c ****           hdma->Init.PeriphDataAlignment | hdma->Init.MemDataAlignment |
 110              		.loc 1 179 42 view .LVU42
 111 0034 A669     		ldr	r6, [r4, #24]
 112 0036 3343     		orrs	r3, r6
 113              		.loc 1 179 72 view .LVU43
 114 0038 E669     		ldr	r6, [r4, #28]
 115 003a 3343     		orrs	r3, r6
 180:Drivers/STM32L0xx_HAL_Driver/Src/stm32l0xx_hal_dma.c ****           hdma->Init.Mode                | hdma->Init.Priority;
 116              		.loc 1 180 42 view .LVU44
 117 003c 266A     		ldr	r6, [r4, #32]
 118 003e 3343     		orrs	r3, r6
 177:Drivers/STM32L0xx_HAL_Driver/Src/stm32l0xx_hal_dma.c ****           hdma->Init.PeriphInc           | hdma->Init.MemInc           |
 119              		.loc 1 177 7 view .LVU45
 120 0040 1343     		orrs	r3, r2
 121              	.LVL5:
 181:Drivers/STM32L0xx_HAL_Driver/Src/stm32l0xx_hal_dma.c **** 
 182:Drivers/STM32L0xx_HAL_Driver/Src/stm32l0xx_hal_dma.c ****   /* Write to DMA Channel CR register */
 183:Drivers/STM32L0xx_HAL_Driver/Src/stm32l0xx_hal_dma.c ****   hdma->Instance->CCR = tmp;
 122              		.loc 1 183 3 is_stmt 1 view .LVU46
 123              		.loc 1 183 23 is_stmt 0 view .LVU47
 124 0042 2B60     		str	r3, [r5]
 184:Drivers/STM32L0xx_HAL_Driver/Src/stm32l0xx_hal_dma.c **** 
 185:Drivers/STM32L0xx_HAL_Driver/Src/stm32l0xx_hal_dma.c ****   /* Set request selection */
 186:Drivers/STM32L0xx_HAL_Driver/Src/stm32l0xx_hal_dma.c ****   if(hdma->Init.Direction != DMA_MEMORY_TO_MEMORY)
 125              		.loc 1 186 3 is_stmt 1 view .LVU48
 126              		.loc 1 186 5 is_stmt 0 view .LVU49
 127 0044 8023     		movs	r3, #128
 128              	.LVL6:
 129              		.loc 1 186 5 view .LVU50
 130 0046 DB01     		lsls	r3, r3, #7
 131 0048 9942     		cmp	r1, r3
 132 004a 0CD0     		beq	.L3
 187:Drivers/STM32L0xx_HAL_Driver/Src/stm32l0xx_hal_dma.c ****   {
 188:Drivers/STM32L0xx_HAL_Driver/Src/stm32l0xx_hal_dma.c ****     /* Write to DMA channel selection register */
 189:Drivers/STM32L0xx_HAL_Driver/Src/stm32l0xx_hal_dma.c ****     /* Reset request selection for DMA1 Channelx */
 190:Drivers/STM32L0xx_HAL_Driver/Src/stm32l0xx_hal_dma.c ****     DMA1_CSELR->CSELR &= ~(DMA_CSELR_C1S << (hdma->ChannelIndex & 0x1cU));
 133              		.loc 1 190 5 is_stmt 1 view .LVU51
 134              		.loc 1 190 65 is_stmt 0 view .LVU52
 135 004c 1C23     		movs	r3, #28
 136 004e 1840     		ands	r0, r3
 137              		.loc 1 190 42 view .LVU53
 138 0050 0D3B     		subs	r3, r3, #13
 139 0052 8340     		lsls	r3, r3, r0
 140              		.loc 1 190 23 view .LVU54
 141 0054 0C4A     		ldr	r2, .L6+12
 142 0056 1168     		ldr	r1, [r2]
 143 0058 9943     		bics	r1, r3
 144 005a 1160     		str	r1, [r2]
ARM GAS  /tmp/ccI53EIM.s 			page 7


 145              	.LVL7:
 191:Drivers/STM32L0xx_HAL_Driver/Src/stm32l0xx_hal_dma.c **** 
 192:Drivers/STM32L0xx_HAL_Driver/Src/stm32l0xx_hal_dma.c ****     /* Configure request selection for DMA1 Channelx */
 193:Drivers/STM32L0xx_HAL_Driver/Src/stm32l0xx_hal_dma.c ****     DMA1_CSELR->CSELR |= (uint32_t) (hdma->Init.Request << (hdma->ChannelIndex & 0x1cU));
 146              		.loc 1 193 5 is_stmt 1 view .LVU55
 147              		.loc 1 193 57 is_stmt 0 view .LVU56
 148 005c 6368     		ldr	r3, [r4, #4]
 149              		.loc 1 193 23 view .LVU57
 150 005e 1168     		ldr	r1, [r2]
 151              		.loc 1 193 57 view .LVU58
 152 0060 8340     		lsls	r3, r3, r0
 153              		.loc 1 193 23 view .LVU59
 154 0062 0B43     		orrs	r3, r1
 155 0064 1360     		str	r3, [r2]
 156              	.L3:
 194:Drivers/STM32L0xx_HAL_Driver/Src/stm32l0xx_hal_dma.c ****   }
 195:Drivers/STM32L0xx_HAL_Driver/Src/stm32l0xx_hal_dma.c **** 
 196:Drivers/STM32L0xx_HAL_Driver/Src/stm32l0xx_hal_dma.c ****   /* Initialise the error code */
 197:Drivers/STM32L0xx_HAL_Driver/Src/stm32l0xx_hal_dma.c ****   hdma->ErrorCode = HAL_DMA_ERROR_NONE;
 157              		.loc 1 197 3 is_stmt 1 view .LVU60
 158              		.loc 1 197 19 is_stmt 0 view .LVU61
 159 0066 0023     		movs	r3, #0
 198:Drivers/STM32L0xx_HAL_Driver/Src/stm32l0xx_hal_dma.c **** 
 199:Drivers/STM32L0xx_HAL_Driver/Src/stm32l0xx_hal_dma.c ****   /* Initialize the DMA state*/
 200:Drivers/STM32L0xx_HAL_Driver/Src/stm32l0xx_hal_dma.c ****   hdma->State  = HAL_DMA_STATE_READY;
 160              		.loc 1 200 16 view .LVU62
 161 0068 2522     		movs	r2, #37
 162 006a 0121     		movs	r1, #1
 201:Drivers/STM32L0xx_HAL_Driver/Src/stm32l0xx_hal_dma.c **** 
 202:Drivers/STM32L0xx_HAL_Driver/Src/stm32l0xx_hal_dma.c ****   /* Allocate lock resource and initialize it */
 203:Drivers/STM32L0xx_HAL_Driver/Src/stm32l0xx_hal_dma.c ****   hdma->Lock = HAL_UNLOCKED;
 204:Drivers/STM32L0xx_HAL_Driver/Src/stm32l0xx_hal_dma.c **** 
 205:Drivers/STM32L0xx_HAL_Driver/Src/stm32l0xx_hal_dma.c ****   return HAL_OK;
 163              		.loc 1 205 10 view .LVU63
 164 006c 0020     		movs	r0, #0
 197:Drivers/STM32L0xx_HAL_Driver/Src/stm32l0xx_hal_dma.c **** 
 165              		.loc 1 197 19 view .LVU64
 166 006e E363     		str	r3, [r4, #60]
 200:Drivers/STM32L0xx_HAL_Driver/Src/stm32l0xx_hal_dma.c **** 
 167              		.loc 1 200 3 is_stmt 1 view .LVU65
 200:Drivers/STM32L0xx_HAL_Driver/Src/stm32l0xx_hal_dma.c **** 
 168              		.loc 1 200 16 is_stmt 0 view .LVU66
 169 0070 A154     		strb	r1, [r4, r2]
 203:Drivers/STM32L0xx_HAL_Driver/Src/stm32l0xx_hal_dma.c **** 
 170              		.loc 1 203 3 is_stmt 1 view .LVU67
 203:Drivers/STM32L0xx_HAL_Driver/Src/stm32l0xx_hal_dma.c **** 
 171              		.loc 1 203 14 is_stmt 0 view .LVU68
 172 0072 013A     		subs	r2, r2, #1
 173 0074 A354     		strb	r3, [r4, r2]
 174              		.loc 1 205 3 is_stmt 1 view .LVU69
 175              	.L2:
 206:Drivers/STM32L0xx_HAL_Driver/Src/stm32l0xx_hal_dma.c **** }
 176              		.loc 1 206 1 is_stmt 0 view .LVU70
 177              		@ sp needed
 178              	.LVL8:
 179              		.loc 1 206 1 view .LVU71
 180 0076 70BD     		pop	{r4, r5, r6, pc}
ARM GAS  /tmp/ccI53EIM.s 			page 8


 181              	.LVL9:
 182              	.L4:
 146:Drivers/STM32L0xx_HAL_Driver/Src/stm32l0xx_hal_dma.c ****   }
 183              		.loc 1 146 12 view .LVU72
 184 0078 0120     		movs	r0, #1
 185              	.LVL10:
 146:Drivers/STM32L0xx_HAL_Driver/Src/stm32l0xx_hal_dma.c ****   }
 186              		.loc 1 146 12 view .LVU73
 187 007a FCE7     		b	.L2
 188              	.L7:
 189              		.align	2
 190              	.L6:
 191 007c F8FFFDBF 		.word	-1073872904
 192 0080 00000240 		.word	1073872896
 193 0084 0F80FFFF 		.word	-32753
 194 0088 A8000240 		.word	1073873064
 195              		.cfi_endproc
 196              	.LFE34:
 198              		.section	.text.HAL_DMA_DeInit,"ax",%progbits
 199              		.align	1
 200              		.p2align 2,,3
 201              		.global	HAL_DMA_DeInit
 202              		.syntax unified
 203              		.code	16
 204              		.thumb_func
 205              		.fpu softvfp
 207              	HAL_DMA_DeInit:
 208              	.LVL11:
 209              	.LFB35:
 207:Drivers/STM32L0xx_HAL_Driver/Src/stm32l0xx_hal_dma.c **** 
 208:Drivers/STM32L0xx_HAL_Driver/Src/stm32l0xx_hal_dma.c **** /**
 209:Drivers/STM32L0xx_HAL_Driver/Src/stm32l0xx_hal_dma.c ****   * @brief  DeInitialize the DMA peripheral.
 210:Drivers/STM32L0xx_HAL_Driver/Src/stm32l0xx_hal_dma.c ****   * @param  hdma pointer to a DMA_HandleTypeDef structure that contains
 211:Drivers/STM32L0xx_HAL_Driver/Src/stm32l0xx_hal_dma.c ****   *               the configuration information for the specified DMA Channel.
 212:Drivers/STM32L0xx_HAL_Driver/Src/stm32l0xx_hal_dma.c ****   * @retval HAL status
 213:Drivers/STM32L0xx_HAL_Driver/Src/stm32l0xx_hal_dma.c ****   */
 214:Drivers/STM32L0xx_HAL_Driver/Src/stm32l0xx_hal_dma.c **** HAL_StatusTypeDef HAL_DMA_DeInit(DMA_HandleTypeDef *hdma)
 215:Drivers/STM32L0xx_HAL_Driver/Src/stm32l0xx_hal_dma.c **** {
 210              		.loc 1 215 1 is_stmt 1 view -0
 211              		.cfi_startproc
 212              		@ args = 0, pretend = 0, frame = 0
 213              		@ frame_needed = 0, uses_anonymous_args = 0
 216:Drivers/STM32L0xx_HAL_Driver/Src/stm32l0xx_hal_dma.c **** 
 217:Drivers/STM32L0xx_HAL_Driver/Src/stm32l0xx_hal_dma.c ****   /* Check the DMA handle allocation */
 218:Drivers/STM32L0xx_HAL_Driver/Src/stm32l0xx_hal_dma.c ****   if (NULL == hdma )
 214              		.loc 1 218 3 view .LVU75
 215:Drivers/STM32L0xx_HAL_Driver/Src/stm32l0xx_hal_dma.c **** 
 215              		.loc 1 215 1 is_stmt 0 view .LVU76
 216 0000 70B5     		push	{r4, r5, r6, lr}
 217              	.LCFI1:
 218              		.cfi_def_cfa_offset 16
 219              		.cfi_offset 4, -16
 220              		.cfi_offset 5, -12
 221              		.cfi_offset 6, -8
 222              		.cfi_offset 14, -4
 215:Drivers/STM32L0xx_HAL_Driver/Src/stm32l0xx_hal_dma.c **** 
 223              		.loc 1 215 1 view .LVU77
ARM GAS  /tmp/ccI53EIM.s 			page 9


 224 0002 041E     		subs	r4, r0, #0
 225              		.loc 1 218 6 view .LVU78
 226 0004 24D0     		beq	.L10
 219:Drivers/STM32L0xx_HAL_Driver/Src/stm32l0xx_hal_dma.c ****   {
 220:Drivers/STM32L0xx_HAL_Driver/Src/stm32l0xx_hal_dma.c ****     return HAL_ERROR;
 221:Drivers/STM32L0xx_HAL_Driver/Src/stm32l0xx_hal_dma.c ****   }
 222:Drivers/STM32L0xx_HAL_Driver/Src/stm32l0xx_hal_dma.c **** 
 223:Drivers/STM32L0xx_HAL_Driver/Src/stm32l0xx_hal_dma.c ****   /* Check the parameters */
 224:Drivers/STM32L0xx_HAL_Driver/Src/stm32l0xx_hal_dma.c ****   assert_param(IS_DMA_ALL_INSTANCE(hdma->Instance));
 227              		.loc 1 224 3 is_stmt 1 view .LVU79
 225:Drivers/STM32L0xx_HAL_Driver/Src/stm32l0xx_hal_dma.c **** 
 226:Drivers/STM32L0xx_HAL_Driver/Src/stm32l0xx_hal_dma.c ****   /* Disable the selected DMA Channelx */
 227:Drivers/STM32L0xx_HAL_Driver/Src/stm32l0xx_hal_dma.c ****   __HAL_DMA_DISABLE(hdma);
 228              		.loc 1 227 3 view .LVU80
 229 0006 0125     		movs	r5, #1
 230 0008 0668     		ldr	r6, [r0]
 228:Drivers/STM32L0xx_HAL_Driver/Src/stm32l0xx_hal_dma.c **** 
 229:Drivers/STM32L0xx_HAL_Driver/Src/stm32l0xx_hal_dma.c ****   /* Compute the channel index */
 230:Drivers/STM32L0xx_HAL_Driver/Src/stm32l0xx_hal_dma.c ****   /* DMA1 */
 231:Drivers/STM32L0xx_HAL_Driver/Src/stm32l0xx_hal_dma.c ****   hdma->ChannelIndex = (((uint32_t)hdma->Instance - (uint32_t)DMA1_Channel1) / ((uint32_t)DMA1_Chan
 231              		.loc 1 231 78 is_stmt 0 view .LVU81
 232 000a 1421     		movs	r1, #20
 227:Drivers/STM32L0xx_HAL_Driver/Src/stm32l0xx_hal_dma.c **** 
 233              		.loc 1 227 3 view .LVU82
 234 000c 3368     		ldr	r3, [r6]
 235 000e AB43     		bics	r3, r5
 236 0010 3360     		str	r3, [r6]
 237              		.loc 1 231 3 is_stmt 1 view .LVU83
 238              		.loc 1 231 51 is_stmt 0 view .LVU84
 239 0012 104B     		ldr	r3, .L11
 240 0014 F018     		adds	r0, r6, r3
 241              	.LVL12:
 242              		.loc 1 231 78 view .LVU85
 243 0016 FFF7FEFF 		bl	__aeabi_uidiv
 244              	.LVL13:
 245              		.loc 1 231 133 view .LVU86
 246 001a 8200     		lsls	r2, r0, #2
 232:Drivers/STM32L0xx_HAL_Driver/Src/stm32l0xx_hal_dma.c ****   hdma->DmaBaseAddress = DMA1;
 233:Drivers/STM32L0xx_HAL_Driver/Src/stm32l0xx_hal_dma.c **** 
 234:Drivers/STM32L0xx_HAL_Driver/Src/stm32l0xx_hal_dma.c ****   /* Reset DMA Channel control register */
 235:Drivers/STM32L0xx_HAL_Driver/Src/stm32l0xx_hal_dma.c ****   hdma->Instance->CCR  = 0U;
 236:Drivers/STM32L0xx_HAL_Driver/Src/stm32l0xx_hal_dma.c **** 
 237:Drivers/STM32L0xx_HAL_Driver/Src/stm32l0xx_hal_dma.c ****   /* Clear all flags */
 238:Drivers/STM32L0xx_HAL_Driver/Src/stm32l0xx_hal_dma.c ****   hdma->DmaBaseAddress->IFCR = (DMA_ISR_GIF1 << (hdma->ChannelIndex & 0x1cU));
 247              		.loc 1 238 69 view .LVU87
 248 001c 1C20     		movs	r0, #28
 249 001e 1040     		ands	r0, r2
 235:Drivers/STM32L0xx_HAL_Driver/Src/stm32l0xx_hal_dma.c **** 
 250              		.loc 1 235 24 view .LVU88
 251 0020 0023     		movs	r3, #0
 252              		.loc 1 238 46 view .LVU89
 253 0022 8540     		lsls	r5, r5, r0
 232:Drivers/STM32L0xx_HAL_Driver/Src/stm32l0xx_hal_dma.c ****   hdma->DmaBaseAddress = DMA1;
 254              		.loc 1 232 24 view .LVU90
 255 0024 0C49     		ldr	r1, .L11+4
 231:Drivers/STM32L0xx_HAL_Driver/Src/stm32l0xx_hal_dma.c ****   hdma->DmaBaseAddress = DMA1;
 256              		.loc 1 231 22 view .LVU91
ARM GAS  /tmp/ccI53EIM.s 			page 10


 257 0026 6264     		str	r2, [r4, #68]
 232:Drivers/STM32L0xx_HAL_Driver/Src/stm32l0xx_hal_dma.c ****   hdma->DmaBaseAddress = DMA1;
 258              		.loc 1 232 3 is_stmt 1 view .LVU92
 232:Drivers/STM32L0xx_HAL_Driver/Src/stm32l0xx_hal_dma.c ****   hdma->DmaBaseAddress = DMA1;
 259              		.loc 1 232 24 is_stmt 0 view .LVU93
 260 0028 2164     		str	r1, [r4, #64]
 235:Drivers/STM32L0xx_HAL_Driver/Src/stm32l0xx_hal_dma.c **** 
 261              		.loc 1 235 3 is_stmt 1 view .LVU94
 235:Drivers/STM32L0xx_HAL_Driver/Src/stm32l0xx_hal_dma.c **** 
 262              		.loc 1 235 24 is_stmt 0 view .LVU95
 263 002a 3360     		str	r3, [r6]
 264              		.loc 1 238 3 is_stmt 1 view .LVU96
 265              		.loc 1 238 30 is_stmt 0 view .LVU97
 266 002c 4D60     		str	r5, [r1, #4]
 239:Drivers/STM32L0xx_HAL_Driver/Src/stm32l0xx_hal_dma.c **** 
 240:Drivers/STM32L0xx_HAL_Driver/Src/stm32l0xx_hal_dma.c ****   /* Reset DMA channel selection register */
 241:Drivers/STM32L0xx_HAL_Driver/Src/stm32l0xx_hal_dma.c ****   /* DMA1 */
 242:Drivers/STM32L0xx_HAL_Driver/Src/stm32l0xx_hal_dma.c ****   DMA1_CSELR->CSELR &= ~(DMA_CSELR_C1S << (hdma->ChannelIndex & 0x1cU));
 267              		.loc 1 242 3 is_stmt 1 view .LVU98
 268              		.loc 1 242 40 is_stmt 0 view .LVU99
 269 002e 0F21     		movs	r1, #15
 270 0030 8140     		lsls	r1, r1, r0
 271              		.loc 1 242 21 view .LVU100
 272 0032 0A4D     		ldr	r5, .L11+8
 243:Drivers/STM32L0xx_HAL_Driver/Src/stm32l0xx_hal_dma.c **** 
 244:Drivers/STM32L0xx_HAL_Driver/Src/stm32l0xx_hal_dma.c ****   /* Clean callbacks */
 245:Drivers/STM32L0xx_HAL_Driver/Src/stm32l0xx_hal_dma.c ****   hdma->XferCpltCallback = NULL;
 246:Drivers/STM32L0xx_HAL_Driver/Src/stm32l0xx_hal_dma.c ****   hdma->XferHalfCpltCallback = NULL;
 247:Drivers/STM32L0xx_HAL_Driver/Src/stm32l0xx_hal_dma.c ****   hdma->XferErrorCallback = NULL;
 248:Drivers/STM32L0xx_HAL_Driver/Src/stm32l0xx_hal_dma.c ****   hdma->XferAbortCallback = NULL;
 249:Drivers/STM32L0xx_HAL_Driver/Src/stm32l0xx_hal_dma.c **** 
 250:Drivers/STM32L0xx_HAL_Driver/Src/stm32l0xx_hal_dma.c ****   /* Initialise the error code */
 251:Drivers/STM32L0xx_HAL_Driver/Src/stm32l0xx_hal_dma.c ****   hdma->ErrorCode = HAL_DMA_ERROR_NONE;
 252:Drivers/STM32L0xx_HAL_Driver/Src/stm32l0xx_hal_dma.c **** 
 253:Drivers/STM32L0xx_HAL_Driver/Src/stm32l0xx_hal_dma.c ****   /* Initialize the DMA state */
 254:Drivers/STM32L0xx_HAL_Driver/Src/stm32l0xx_hal_dma.c ****   hdma->State = HAL_DMA_STATE_RESET;
 255:Drivers/STM32L0xx_HAL_Driver/Src/stm32l0xx_hal_dma.c **** 
 256:Drivers/STM32L0xx_HAL_Driver/Src/stm32l0xx_hal_dma.c ****   /* Release Lock */
 257:Drivers/STM32L0xx_HAL_Driver/Src/stm32l0xx_hal_dma.c ****   __HAL_UNLOCK(hdma);
 258:Drivers/STM32L0xx_HAL_Driver/Src/stm32l0xx_hal_dma.c **** 
 259:Drivers/STM32L0xx_HAL_Driver/Src/stm32l0xx_hal_dma.c ****   return HAL_OK;
 273              		.loc 1 259 10 view .LVU101
 274 0034 0020     		movs	r0, #0
 242:Drivers/STM32L0xx_HAL_Driver/Src/stm32l0xx_hal_dma.c **** 
 275              		.loc 1 242 21 view .LVU102
 276 0036 2A68     		ldr	r2, [r5]
 277 0038 8A43     		bics	r2, r1
 278 003a 2A60     		str	r2, [r5]
 245:Drivers/STM32L0xx_HAL_Driver/Src/stm32l0xx_hal_dma.c ****   hdma->XferHalfCpltCallback = NULL;
 279              		.loc 1 245 3 is_stmt 1 view .LVU103
 254:Drivers/STM32L0xx_HAL_Driver/Src/stm32l0xx_hal_dma.c **** 
 280              		.loc 1 254 15 is_stmt 0 view .LVU104
 281 003c 2522     		movs	r2, #37
 245:Drivers/STM32L0xx_HAL_Driver/Src/stm32l0xx_hal_dma.c ****   hdma->XferHalfCpltCallback = NULL;
 282              		.loc 1 245 26 view .LVU105
 283 003e E362     		str	r3, [r4, #44]
 246:Drivers/STM32L0xx_HAL_Driver/Src/stm32l0xx_hal_dma.c ****   hdma->XferErrorCallback = NULL;
ARM GAS  /tmp/ccI53EIM.s 			page 11


 284              		.loc 1 246 3 is_stmt 1 view .LVU106
 246:Drivers/STM32L0xx_HAL_Driver/Src/stm32l0xx_hal_dma.c ****   hdma->XferErrorCallback = NULL;
 285              		.loc 1 246 30 is_stmt 0 view .LVU107
 286 0040 2363     		str	r3, [r4, #48]
 247:Drivers/STM32L0xx_HAL_Driver/Src/stm32l0xx_hal_dma.c ****   hdma->XferAbortCallback = NULL;
 287              		.loc 1 247 3 is_stmt 1 view .LVU108
 247:Drivers/STM32L0xx_HAL_Driver/Src/stm32l0xx_hal_dma.c ****   hdma->XferAbortCallback = NULL;
 288              		.loc 1 247 27 is_stmt 0 view .LVU109
 289 0042 6363     		str	r3, [r4, #52]
 248:Drivers/STM32L0xx_HAL_Driver/Src/stm32l0xx_hal_dma.c **** 
 290              		.loc 1 248 3 is_stmt 1 view .LVU110
 248:Drivers/STM32L0xx_HAL_Driver/Src/stm32l0xx_hal_dma.c **** 
 291              		.loc 1 248 27 is_stmt 0 view .LVU111
 292 0044 A363     		str	r3, [r4, #56]
 251:Drivers/STM32L0xx_HAL_Driver/Src/stm32l0xx_hal_dma.c **** 
 293              		.loc 1 251 3 is_stmt 1 view .LVU112
 251:Drivers/STM32L0xx_HAL_Driver/Src/stm32l0xx_hal_dma.c **** 
 294              		.loc 1 251 19 is_stmt 0 view .LVU113
 295 0046 E363     		str	r3, [r4, #60]
 254:Drivers/STM32L0xx_HAL_Driver/Src/stm32l0xx_hal_dma.c **** 
 296              		.loc 1 254 3 is_stmt 1 view .LVU114
 254:Drivers/STM32L0xx_HAL_Driver/Src/stm32l0xx_hal_dma.c **** 
 297              		.loc 1 254 15 is_stmt 0 view .LVU115
 298 0048 A354     		strb	r3, [r4, r2]
 257:Drivers/STM32L0xx_HAL_Driver/Src/stm32l0xx_hal_dma.c **** 
 299              		.loc 1 257 3 is_stmt 1 view .LVU116
 257:Drivers/STM32L0xx_HAL_Driver/Src/stm32l0xx_hal_dma.c **** 
 300              		.loc 1 257 3 view .LVU117
 301 004a 013A     		subs	r2, r2, #1
 302 004c A354     		strb	r3, [r4, r2]
 257:Drivers/STM32L0xx_HAL_Driver/Src/stm32l0xx_hal_dma.c **** 
 303              		.loc 1 257 3 view .LVU118
 304              		.loc 1 259 3 view .LVU119
 305              	.L9:
 260:Drivers/STM32L0xx_HAL_Driver/Src/stm32l0xx_hal_dma.c **** }
 306              		.loc 1 260 1 is_stmt 0 view .LVU120
 307              		@ sp needed
 308              	.LVL14:
 309              		.loc 1 260 1 view .LVU121
 310 004e 70BD     		pop	{r4, r5, r6, pc}
 311              	.LVL15:
 312              	.L10:
 220:Drivers/STM32L0xx_HAL_Driver/Src/stm32l0xx_hal_dma.c ****   }
 313              		.loc 1 220 12 view .LVU122
 314 0050 0120     		movs	r0, #1
 315              	.LVL16:
 220:Drivers/STM32L0xx_HAL_Driver/Src/stm32l0xx_hal_dma.c ****   }
 316              		.loc 1 220 12 view .LVU123
 317 0052 FCE7     		b	.L9
 318              	.L12:
 319              		.align	2
 320              	.L11:
 321 0054 F8FFFDBF 		.word	-1073872904
 322 0058 00000240 		.word	1073872896
 323 005c A8000240 		.word	1073873064
 324              		.cfi_endproc
 325              	.LFE35:
ARM GAS  /tmp/ccI53EIM.s 			page 12


 327              		.section	.text.HAL_DMA_Start,"ax",%progbits
 328              		.align	1
 329              		.p2align 2,,3
 330              		.global	HAL_DMA_Start
 331              		.syntax unified
 332              		.code	16
 333              		.thumb_func
 334              		.fpu softvfp
 336              	HAL_DMA_Start:
 337              	.LVL17:
 338              	.LFB36:
 261:Drivers/STM32L0xx_HAL_Driver/Src/stm32l0xx_hal_dma.c **** 
 262:Drivers/STM32L0xx_HAL_Driver/Src/stm32l0xx_hal_dma.c **** /**
 263:Drivers/STM32L0xx_HAL_Driver/Src/stm32l0xx_hal_dma.c ****   * @}
 264:Drivers/STM32L0xx_HAL_Driver/Src/stm32l0xx_hal_dma.c ****   */
 265:Drivers/STM32L0xx_HAL_Driver/Src/stm32l0xx_hal_dma.c **** 
 266:Drivers/STM32L0xx_HAL_Driver/Src/stm32l0xx_hal_dma.c **** /** @defgroup DMA_Exported_Functions_Group2 Input and Output operation functions
 267:Drivers/STM32L0xx_HAL_Driver/Src/stm32l0xx_hal_dma.c ****  *  @brief   Input and Output operation functions
 268:Drivers/STM32L0xx_HAL_Driver/Src/stm32l0xx_hal_dma.c ****  *
 269:Drivers/STM32L0xx_HAL_Driver/Src/stm32l0xx_hal_dma.c **** @verbatim
 270:Drivers/STM32L0xx_HAL_Driver/Src/stm32l0xx_hal_dma.c ****  ===============================================================================
 271:Drivers/STM32L0xx_HAL_Driver/Src/stm32l0xx_hal_dma.c ****                       #####  IO operation functions  #####
 272:Drivers/STM32L0xx_HAL_Driver/Src/stm32l0xx_hal_dma.c ****  ===============================================================================
 273:Drivers/STM32L0xx_HAL_Driver/Src/stm32l0xx_hal_dma.c ****     [..]  This section provides functions allowing to:
 274:Drivers/STM32L0xx_HAL_Driver/Src/stm32l0xx_hal_dma.c ****       (+) Configure the source, destination address and data length and Start DMA transfer
 275:Drivers/STM32L0xx_HAL_Driver/Src/stm32l0xx_hal_dma.c ****       (+) Configure the source, destination address and data length and
 276:Drivers/STM32L0xx_HAL_Driver/Src/stm32l0xx_hal_dma.c ****           Start DMA transfer with interrupt
 277:Drivers/STM32L0xx_HAL_Driver/Src/stm32l0xx_hal_dma.c ****       (+) Abort DMA transfer
 278:Drivers/STM32L0xx_HAL_Driver/Src/stm32l0xx_hal_dma.c ****       (+) Poll for transfer complete
 279:Drivers/STM32L0xx_HAL_Driver/Src/stm32l0xx_hal_dma.c ****       (+) Handle DMA interrupt request
 280:Drivers/STM32L0xx_HAL_Driver/Src/stm32l0xx_hal_dma.c **** 
 281:Drivers/STM32L0xx_HAL_Driver/Src/stm32l0xx_hal_dma.c **** @endverbatim
 282:Drivers/STM32L0xx_HAL_Driver/Src/stm32l0xx_hal_dma.c ****   * @{
 283:Drivers/STM32L0xx_HAL_Driver/Src/stm32l0xx_hal_dma.c ****   */
 284:Drivers/STM32L0xx_HAL_Driver/Src/stm32l0xx_hal_dma.c **** 
 285:Drivers/STM32L0xx_HAL_Driver/Src/stm32l0xx_hal_dma.c **** /**
 286:Drivers/STM32L0xx_HAL_Driver/Src/stm32l0xx_hal_dma.c ****   * @brief  Start the DMA Transfer.
 287:Drivers/STM32L0xx_HAL_Driver/Src/stm32l0xx_hal_dma.c ****   * @param  hdma pointer to a DMA_HandleTypeDef structure that contains
 288:Drivers/STM32L0xx_HAL_Driver/Src/stm32l0xx_hal_dma.c ****   *               the configuration information for the specified DMA Channel.
 289:Drivers/STM32L0xx_HAL_Driver/Src/stm32l0xx_hal_dma.c ****   * @param  SrcAddress The source memory Buffer address
 290:Drivers/STM32L0xx_HAL_Driver/Src/stm32l0xx_hal_dma.c ****   * @param  DstAddress The destination memory Buffer address
 291:Drivers/STM32L0xx_HAL_Driver/Src/stm32l0xx_hal_dma.c ****   * @param  DataLength The length of data to be transferred from source to destination
 292:Drivers/STM32L0xx_HAL_Driver/Src/stm32l0xx_hal_dma.c ****   * @retval HAL status
 293:Drivers/STM32L0xx_HAL_Driver/Src/stm32l0xx_hal_dma.c ****   */
 294:Drivers/STM32L0xx_HAL_Driver/Src/stm32l0xx_hal_dma.c **** HAL_StatusTypeDef HAL_DMA_Start(DMA_HandleTypeDef *hdma, uint32_t SrcAddress, uint32_t DstAddress, 
 295:Drivers/STM32L0xx_HAL_Driver/Src/stm32l0xx_hal_dma.c **** {
 339              		.loc 1 295 1 is_stmt 1 view -0
 340              		.cfi_startproc
 341              		@ args = 0, pretend = 0, frame = 8
 342              		@ frame_needed = 0, uses_anonymous_args = 0
 296:Drivers/STM32L0xx_HAL_Driver/Src/stm32l0xx_hal_dma.c ****   HAL_StatusTypeDef status = HAL_OK;
 343              		.loc 1 296 3 view .LVU125
 297:Drivers/STM32L0xx_HAL_Driver/Src/stm32l0xx_hal_dma.c **** 
 298:Drivers/STM32L0xx_HAL_Driver/Src/stm32l0xx_hal_dma.c ****   /* Check the parameters */
 299:Drivers/STM32L0xx_HAL_Driver/Src/stm32l0xx_hal_dma.c ****   assert_param(IS_DMA_BUFFER_SIZE(DataLength));
 344              		.loc 1 299 3 view .LVU126
 300:Drivers/STM32L0xx_HAL_Driver/Src/stm32l0xx_hal_dma.c **** 
ARM GAS  /tmp/ccI53EIM.s 			page 13


 301:Drivers/STM32L0xx_HAL_Driver/Src/stm32l0xx_hal_dma.c ****   /* Process locked */
 302:Drivers/STM32L0xx_HAL_Driver/Src/stm32l0xx_hal_dma.c ****   __HAL_LOCK(hdma);
 345              		.loc 1 302 3 view .LVU127
 346              		.loc 1 302 3 view .LVU128
 295:Drivers/STM32L0xx_HAL_Driver/Src/stm32l0xx_hal_dma.c ****   HAL_StatusTypeDef status = HAL_OK;
 347              		.loc 1 295 1 is_stmt 0 view .LVU129
 348 0000 F0B5     		push	{r4, r5, r6, r7, lr}
 349              	.LCFI2:
 350              		.cfi_def_cfa_offset 20
 351              		.cfi_offset 4, -20
 352              		.cfi_offset 5, -16
 353              		.cfi_offset 6, -12
 354              		.cfi_offset 7, -8
 355              		.cfi_offset 14, -4
 356              		.loc 1 302 3 view .LVU130
 357 0002 2424     		movs	r4, #36
 358 0004 055D     		ldrb	r5, [r0, r4]
 295:Drivers/STM32L0xx_HAL_Driver/Src/stm32l0xx_hal_dma.c ****   HAL_StatusTypeDef status = HAL_OK;
 359              		.loc 1 295 1 view .LVU131
 360 0006 83B0     		sub	sp, sp, #12
 361              	.LCFI3:
 362              		.cfi_def_cfa_offset 32
 363              		.loc 1 302 3 view .LVU132
 364 0008 012D     		cmp	r5, #1
 365 000a 2AD0     		beq	.L18
 366              		.loc 1 302 3 is_stmt 1 discriminator 2 view .LVU133
 367 000c 0125     		movs	r5, #1
 303:Drivers/STM32L0xx_HAL_Driver/Src/stm32l0xx_hal_dma.c **** 
 304:Drivers/STM32L0xx_HAL_Driver/Src/stm32l0xx_hal_dma.c ****   if(HAL_DMA_STATE_READY == hdma->State)
 368              		.loc 1 304 33 is_stmt 0 discriminator 2 view .LVU134
 369 000e 2527     		movs	r7, #37
 302:Drivers/STM32L0xx_HAL_Driver/Src/stm32l0xx_hal_dma.c **** 
 370              		.loc 1 302 3 discriminator 2 view .LVU135
 371 0010 0555     		strb	r5, [r0, r4]
 302:Drivers/STM32L0xx_HAL_Driver/Src/stm32l0xx_hal_dma.c **** 
 372              		.loc 1 302 3 is_stmt 1 discriminator 2 view .LVU136
 373              		.loc 1 304 3 discriminator 2 view .LVU137
 374              		.loc 1 304 33 is_stmt 0 discriminator 2 view .LVU138
 375 0012 C55D     		ldrb	r5, [r0, r7]
 376 0014 EEB2     		uxtb	r6, r5
 377              		.loc 1 304 5 discriminator 2 view .LVU139
 378 0016 012D     		cmp	r5, #1
 379 0018 04D0     		beq	.L19
 305:Drivers/STM32L0xx_HAL_Driver/Src/stm32l0xx_hal_dma.c ****   {
 306:Drivers/STM32L0xx_HAL_Driver/Src/stm32l0xx_hal_dma.c ****     /* Change DMA peripheral state */
 307:Drivers/STM32L0xx_HAL_Driver/Src/stm32l0xx_hal_dma.c ****     hdma->State = HAL_DMA_STATE_BUSY;
 308:Drivers/STM32L0xx_HAL_Driver/Src/stm32l0xx_hal_dma.c ****     hdma->ErrorCode = HAL_DMA_ERROR_NONE;
 309:Drivers/STM32L0xx_HAL_Driver/Src/stm32l0xx_hal_dma.c **** 
 310:Drivers/STM32L0xx_HAL_Driver/Src/stm32l0xx_hal_dma.c ****     /* Disable the peripheral */
 311:Drivers/STM32L0xx_HAL_Driver/Src/stm32l0xx_hal_dma.c ****     __HAL_DMA_DISABLE(hdma);
 312:Drivers/STM32L0xx_HAL_Driver/Src/stm32l0xx_hal_dma.c **** 
 313:Drivers/STM32L0xx_HAL_Driver/Src/stm32l0xx_hal_dma.c ****     /* Configure the source, destination address and the data length & clear flags*/
 314:Drivers/STM32L0xx_HAL_Driver/Src/stm32l0xx_hal_dma.c ****     DMA_SetConfig(hdma, SrcAddress, DstAddress, DataLength);
 315:Drivers/STM32L0xx_HAL_Driver/Src/stm32l0xx_hal_dma.c **** 
 316:Drivers/STM32L0xx_HAL_Driver/Src/stm32l0xx_hal_dma.c ****     /* Enable the Peripheral */
 317:Drivers/STM32L0xx_HAL_Driver/Src/stm32l0xx_hal_dma.c ****     __HAL_DMA_ENABLE(hdma);
 318:Drivers/STM32L0xx_HAL_Driver/Src/stm32l0xx_hal_dma.c ****   }
ARM GAS  /tmp/ccI53EIM.s 			page 14


 319:Drivers/STM32L0xx_HAL_Driver/Src/stm32l0xx_hal_dma.c ****   else
 320:Drivers/STM32L0xx_HAL_Driver/Src/stm32l0xx_hal_dma.c ****   {
 321:Drivers/STM32L0xx_HAL_Driver/Src/stm32l0xx_hal_dma.c ****     /* Process Unlocked */
 322:Drivers/STM32L0xx_HAL_Driver/Src/stm32l0xx_hal_dma.c ****     __HAL_UNLOCK(hdma);
 380              		.loc 1 322 5 is_stmt 1 view .LVU140
 381              		.loc 1 322 5 view .LVU141
 382 001a 0023     		movs	r3, #0
 383              	.LVL18:
 384              		.loc 1 322 5 is_stmt 0 view .LVU142
 385 001c 0355     		strb	r3, [r0, r4]
 386              		.loc 1 322 5 is_stmt 1 view .LVU143
 323:Drivers/STM32L0xx_HAL_Driver/Src/stm32l0xx_hal_dma.c ****     status = HAL_BUSY;
 387              		.loc 1 323 5 view .LVU144
 388              	.LVL19:
 389              		.loc 1 323 12 is_stmt 0 view .LVU145
 390 001e 0220     		movs	r0, #2
 391              	.LVL20:
 392              	.L14:
 324:Drivers/STM32L0xx_HAL_Driver/Src/stm32l0xx_hal_dma.c ****   }
 325:Drivers/STM32L0xx_HAL_Driver/Src/stm32l0xx_hal_dma.c ****   return status;
 326:Drivers/STM32L0xx_HAL_Driver/Src/stm32l0xx_hal_dma.c **** }
 393              		.loc 1 326 1 view .LVU146
 394 0020 03B0     		add	sp, sp, #12
 395              		@ sp needed
 396 0022 F0BD     		pop	{r4, r5, r6, r7, pc}
 397              	.LVL21:
 398              	.L19:
 307:Drivers/STM32L0xx_HAL_Driver/Src/stm32l0xx_hal_dma.c ****     hdma->ErrorCode = HAL_DMA_ERROR_NONE;
 399              		.loc 1 307 5 is_stmt 1 view .LVU147
 307:Drivers/STM32L0xx_HAL_Driver/Src/stm32l0xx_hal_dma.c ****     hdma->ErrorCode = HAL_DMA_ERROR_NONE;
 400              		.loc 1 307 17 is_stmt 0 view .LVU148
 401 0024 223C     		subs	r4, r4, #34
 402 0026 C455     		strb	r4, [r0, r7]
 308:Drivers/STM32L0xx_HAL_Driver/Src/stm32l0xx_hal_dma.c **** 
 403              		.loc 1 308 5 is_stmt 1 view .LVU149
 308:Drivers/STM32L0xx_HAL_Driver/Src/stm32l0xx_hal_dma.c **** 
 404              		.loc 1 308 21 is_stmt 0 view .LVU150
 405 0028 0024     		movs	r4, #0
 406 002a C463     		str	r4, [r0, #60]
 311:Drivers/STM32L0xx_HAL_Driver/Src/stm32l0xx_hal_dma.c **** 
 407              		.loc 1 311 5 is_stmt 1 view .LVU151
 408 002c 0468     		ldr	r4, [r0]
 409              	.LBB6:
 410              	.LBB7:
 327:Drivers/STM32L0xx_HAL_Driver/Src/stm32l0xx_hal_dma.c **** 
 328:Drivers/STM32L0xx_HAL_Driver/Src/stm32l0xx_hal_dma.c **** /**
 329:Drivers/STM32L0xx_HAL_Driver/Src/stm32l0xx_hal_dma.c ****   * @brief  Start the DMA Transfer with interrupt enabled.
 330:Drivers/STM32L0xx_HAL_Driver/Src/stm32l0xx_hal_dma.c ****   * @param  hdma pointer to a DMA_HandleTypeDef structure that contains
 331:Drivers/STM32L0xx_HAL_Driver/Src/stm32l0xx_hal_dma.c ****   *               the configuration information for the specified DMA Channel.
 332:Drivers/STM32L0xx_HAL_Driver/Src/stm32l0xx_hal_dma.c ****   * @param  SrcAddress The source memory Buffer address
 333:Drivers/STM32L0xx_HAL_Driver/Src/stm32l0xx_hal_dma.c ****   * @param  DstAddress The destination memory Buffer address
 334:Drivers/STM32L0xx_HAL_Driver/Src/stm32l0xx_hal_dma.c ****   * @param  DataLength The length of data to be transferred from source to destination
 335:Drivers/STM32L0xx_HAL_Driver/Src/stm32l0xx_hal_dma.c ****   * @retval HAL status
 336:Drivers/STM32L0xx_HAL_Driver/Src/stm32l0xx_hal_dma.c ****   */
 337:Drivers/STM32L0xx_HAL_Driver/Src/stm32l0xx_hal_dma.c **** HAL_StatusTypeDef HAL_DMA_Start_IT(DMA_HandleTypeDef *hdma, uint32_t SrcAddress, uint32_t DstAddres
 338:Drivers/STM32L0xx_HAL_Driver/Src/stm32l0xx_hal_dma.c **** {
 339:Drivers/STM32L0xx_HAL_Driver/Src/stm32l0xx_hal_dma.c ****   HAL_StatusTypeDef status = HAL_OK;
ARM GAS  /tmp/ccI53EIM.s 			page 15


 340:Drivers/STM32L0xx_HAL_Driver/Src/stm32l0xx_hal_dma.c **** 
 341:Drivers/STM32L0xx_HAL_Driver/Src/stm32l0xx_hal_dma.c ****   /* Check the parameters */
 342:Drivers/STM32L0xx_HAL_Driver/Src/stm32l0xx_hal_dma.c ****   assert_param(IS_DMA_BUFFER_SIZE(DataLength));
 343:Drivers/STM32L0xx_HAL_Driver/Src/stm32l0xx_hal_dma.c **** 
 344:Drivers/STM32L0xx_HAL_Driver/Src/stm32l0xx_hal_dma.c ****   /* Process locked */
 345:Drivers/STM32L0xx_HAL_Driver/Src/stm32l0xx_hal_dma.c ****   __HAL_LOCK(hdma);
 346:Drivers/STM32L0xx_HAL_Driver/Src/stm32l0xx_hal_dma.c **** 
 347:Drivers/STM32L0xx_HAL_Driver/Src/stm32l0xx_hal_dma.c ****   if(HAL_DMA_STATE_READY == hdma->State)
 348:Drivers/STM32L0xx_HAL_Driver/Src/stm32l0xx_hal_dma.c ****   {
 349:Drivers/STM32L0xx_HAL_Driver/Src/stm32l0xx_hal_dma.c ****     /* Change DMA peripheral state */
 350:Drivers/STM32L0xx_HAL_Driver/Src/stm32l0xx_hal_dma.c ****     hdma->State = HAL_DMA_STATE_BUSY;
 351:Drivers/STM32L0xx_HAL_Driver/Src/stm32l0xx_hal_dma.c ****     hdma->ErrorCode = HAL_DMA_ERROR_NONE;
 352:Drivers/STM32L0xx_HAL_Driver/Src/stm32l0xx_hal_dma.c **** 
 353:Drivers/STM32L0xx_HAL_Driver/Src/stm32l0xx_hal_dma.c ****     /* Disable the peripheral */
 354:Drivers/STM32L0xx_HAL_Driver/Src/stm32l0xx_hal_dma.c ****     __HAL_DMA_DISABLE(hdma);
 355:Drivers/STM32L0xx_HAL_Driver/Src/stm32l0xx_hal_dma.c **** 
 356:Drivers/STM32L0xx_HAL_Driver/Src/stm32l0xx_hal_dma.c ****     /* Configure the source, destination address and the data length & clear flags*/
 357:Drivers/STM32L0xx_HAL_Driver/Src/stm32l0xx_hal_dma.c ****     DMA_SetConfig(hdma, SrcAddress, DstAddress, DataLength);
 358:Drivers/STM32L0xx_HAL_Driver/Src/stm32l0xx_hal_dma.c **** 
 359:Drivers/STM32L0xx_HAL_Driver/Src/stm32l0xx_hal_dma.c ****     /* Enable the transfer complete interrupt */
 360:Drivers/STM32L0xx_HAL_Driver/Src/stm32l0xx_hal_dma.c ****     /* Enable the transfer Error interrupt */
 361:Drivers/STM32L0xx_HAL_Driver/Src/stm32l0xx_hal_dma.c ****     if(NULL != hdma->XferHalfCpltCallback )
 362:Drivers/STM32L0xx_HAL_Driver/Src/stm32l0xx_hal_dma.c ****     {
 363:Drivers/STM32L0xx_HAL_Driver/Src/stm32l0xx_hal_dma.c ****       /* Enable the Half transfer complete interrupt as well */
 364:Drivers/STM32L0xx_HAL_Driver/Src/stm32l0xx_hal_dma.c ****       __HAL_DMA_ENABLE_IT(hdma, (DMA_IT_TC | DMA_IT_HT | DMA_IT_TE));
 365:Drivers/STM32L0xx_HAL_Driver/Src/stm32l0xx_hal_dma.c ****     }
 366:Drivers/STM32L0xx_HAL_Driver/Src/stm32l0xx_hal_dma.c ****     else
 367:Drivers/STM32L0xx_HAL_Driver/Src/stm32l0xx_hal_dma.c ****     {
 368:Drivers/STM32L0xx_HAL_Driver/Src/stm32l0xx_hal_dma.c ****       __HAL_DMA_DISABLE_IT(hdma, DMA_IT_HT);
 369:Drivers/STM32L0xx_HAL_Driver/Src/stm32l0xx_hal_dma.c ****       __HAL_DMA_ENABLE_IT(hdma, (DMA_IT_TC | DMA_IT_TE));
 370:Drivers/STM32L0xx_HAL_Driver/Src/stm32l0xx_hal_dma.c ****     }
 371:Drivers/STM32L0xx_HAL_Driver/Src/stm32l0xx_hal_dma.c **** 
 372:Drivers/STM32L0xx_HAL_Driver/Src/stm32l0xx_hal_dma.c ****     /* Enable the Peripheral */
 373:Drivers/STM32L0xx_HAL_Driver/Src/stm32l0xx_hal_dma.c ****     __HAL_DMA_ENABLE(hdma);
 374:Drivers/STM32L0xx_HAL_Driver/Src/stm32l0xx_hal_dma.c ****   }
 375:Drivers/STM32L0xx_HAL_Driver/Src/stm32l0xx_hal_dma.c ****   else
 376:Drivers/STM32L0xx_HAL_Driver/Src/stm32l0xx_hal_dma.c ****   {
 377:Drivers/STM32L0xx_HAL_Driver/Src/stm32l0xx_hal_dma.c ****     /* Process Unlocked */
 378:Drivers/STM32L0xx_HAL_Driver/Src/stm32l0xx_hal_dma.c ****     __HAL_UNLOCK(hdma);
 379:Drivers/STM32L0xx_HAL_Driver/Src/stm32l0xx_hal_dma.c **** 
 380:Drivers/STM32L0xx_HAL_Driver/Src/stm32l0xx_hal_dma.c ****     /* Remain BUSY */
 381:Drivers/STM32L0xx_HAL_Driver/Src/stm32l0xx_hal_dma.c ****     status = HAL_BUSY;
 382:Drivers/STM32L0xx_HAL_Driver/Src/stm32l0xx_hal_dma.c ****   }
 383:Drivers/STM32L0xx_HAL_Driver/Src/stm32l0xx_hal_dma.c ****   return status;
 384:Drivers/STM32L0xx_HAL_Driver/Src/stm32l0xx_hal_dma.c **** }
 385:Drivers/STM32L0xx_HAL_Driver/Src/stm32l0xx_hal_dma.c **** 
 386:Drivers/STM32L0xx_HAL_Driver/Src/stm32l0xx_hal_dma.c **** /**
 387:Drivers/STM32L0xx_HAL_Driver/Src/stm32l0xx_hal_dma.c ****   * @brief  Abort the DMA Transfer.
 388:Drivers/STM32L0xx_HAL_Driver/Src/stm32l0xx_hal_dma.c ****   * @param  hdma pointer to a DMA_HandleTypeDef structure that contains
 389:Drivers/STM32L0xx_HAL_Driver/Src/stm32l0xx_hal_dma.c ****   *               the configuration information for the specified DMA Channel.
 390:Drivers/STM32L0xx_HAL_Driver/Src/stm32l0xx_hal_dma.c ****     * @retval HAL status
 391:Drivers/STM32L0xx_HAL_Driver/Src/stm32l0xx_hal_dma.c ****   */
 392:Drivers/STM32L0xx_HAL_Driver/Src/stm32l0xx_hal_dma.c **** HAL_StatusTypeDef HAL_DMA_Abort(DMA_HandleTypeDef *hdma)
 393:Drivers/STM32L0xx_HAL_Driver/Src/stm32l0xx_hal_dma.c **** {
 394:Drivers/STM32L0xx_HAL_Driver/Src/stm32l0xx_hal_dma.c ****   HAL_StatusTypeDef status = HAL_OK;
 395:Drivers/STM32L0xx_HAL_Driver/Src/stm32l0xx_hal_dma.c **** 
 396:Drivers/STM32L0xx_HAL_Driver/Src/stm32l0xx_hal_dma.c ****   /* Check the DMA peripheral state */
ARM GAS  /tmp/ccI53EIM.s 			page 16


 397:Drivers/STM32L0xx_HAL_Driver/Src/stm32l0xx_hal_dma.c ****   if(hdma->State != HAL_DMA_STATE_BUSY)
 398:Drivers/STM32L0xx_HAL_Driver/Src/stm32l0xx_hal_dma.c ****   {
 399:Drivers/STM32L0xx_HAL_Driver/Src/stm32l0xx_hal_dma.c ****     hdma->ErrorCode = HAL_DMA_ERROR_NO_XFER;
 400:Drivers/STM32L0xx_HAL_Driver/Src/stm32l0xx_hal_dma.c **** 
 401:Drivers/STM32L0xx_HAL_Driver/Src/stm32l0xx_hal_dma.c ****     /* Process Unlocked */
 402:Drivers/STM32L0xx_HAL_Driver/Src/stm32l0xx_hal_dma.c ****     __HAL_UNLOCK(hdma);
 403:Drivers/STM32L0xx_HAL_Driver/Src/stm32l0xx_hal_dma.c **** 
 404:Drivers/STM32L0xx_HAL_Driver/Src/stm32l0xx_hal_dma.c ****     return HAL_ERROR;
 405:Drivers/STM32L0xx_HAL_Driver/Src/stm32l0xx_hal_dma.c ****   }
 406:Drivers/STM32L0xx_HAL_Driver/Src/stm32l0xx_hal_dma.c ****   else
 407:Drivers/STM32L0xx_HAL_Driver/Src/stm32l0xx_hal_dma.c ****   {
 408:Drivers/STM32L0xx_HAL_Driver/Src/stm32l0xx_hal_dma.c ****     /* Disable DMA IT */
 409:Drivers/STM32L0xx_HAL_Driver/Src/stm32l0xx_hal_dma.c ****     __HAL_DMA_DISABLE_IT(hdma, (DMA_IT_TC | DMA_IT_HT | DMA_IT_TE));
 410:Drivers/STM32L0xx_HAL_Driver/Src/stm32l0xx_hal_dma.c **** 
 411:Drivers/STM32L0xx_HAL_Driver/Src/stm32l0xx_hal_dma.c ****     /* Disable the channel */
 412:Drivers/STM32L0xx_HAL_Driver/Src/stm32l0xx_hal_dma.c ****     __HAL_DMA_DISABLE(hdma);
 413:Drivers/STM32L0xx_HAL_Driver/Src/stm32l0xx_hal_dma.c **** 
 414:Drivers/STM32L0xx_HAL_Driver/Src/stm32l0xx_hal_dma.c ****     /* Clear all flags */
 415:Drivers/STM32L0xx_HAL_Driver/Src/stm32l0xx_hal_dma.c ****     hdma->DmaBaseAddress->IFCR = (DMA_ISR_GIF1 << (hdma->ChannelIndex & 0x1cU));
 416:Drivers/STM32L0xx_HAL_Driver/Src/stm32l0xx_hal_dma.c **** 
 417:Drivers/STM32L0xx_HAL_Driver/Src/stm32l0xx_hal_dma.c ****     /* Change the DMA state */
 418:Drivers/STM32L0xx_HAL_Driver/Src/stm32l0xx_hal_dma.c ****     hdma->State = HAL_DMA_STATE_READY;
 419:Drivers/STM32L0xx_HAL_Driver/Src/stm32l0xx_hal_dma.c **** 
 420:Drivers/STM32L0xx_HAL_Driver/Src/stm32l0xx_hal_dma.c ****     /* Process Unlocked */
 421:Drivers/STM32L0xx_HAL_Driver/Src/stm32l0xx_hal_dma.c ****     __HAL_UNLOCK(hdma);
 422:Drivers/STM32L0xx_HAL_Driver/Src/stm32l0xx_hal_dma.c **** 
 423:Drivers/STM32L0xx_HAL_Driver/Src/stm32l0xx_hal_dma.c ****     return status;
 424:Drivers/STM32L0xx_HAL_Driver/Src/stm32l0xx_hal_dma.c ****   }
 425:Drivers/STM32L0xx_HAL_Driver/Src/stm32l0xx_hal_dma.c **** }
 426:Drivers/STM32L0xx_HAL_Driver/Src/stm32l0xx_hal_dma.c **** 
 427:Drivers/STM32L0xx_HAL_Driver/Src/stm32l0xx_hal_dma.c **** /**
 428:Drivers/STM32L0xx_HAL_Driver/Src/stm32l0xx_hal_dma.c ****   * @brief  Aborts the DMA Transfer in Interrupt mode.
 429:Drivers/STM32L0xx_HAL_Driver/Src/stm32l0xx_hal_dma.c ****   * @param  hdma pointer to a DMA_HandleTypeDef structure that contains
 430:Drivers/STM32L0xx_HAL_Driver/Src/stm32l0xx_hal_dma.c ****   *                 the configuration information for the specified DMA Channel.
 431:Drivers/STM32L0xx_HAL_Driver/Src/stm32l0xx_hal_dma.c ****   * @retval HAL status
 432:Drivers/STM32L0xx_HAL_Driver/Src/stm32l0xx_hal_dma.c ****   */
 433:Drivers/STM32L0xx_HAL_Driver/Src/stm32l0xx_hal_dma.c **** HAL_StatusTypeDef HAL_DMA_Abort_IT(DMA_HandleTypeDef *hdma)
 434:Drivers/STM32L0xx_HAL_Driver/Src/stm32l0xx_hal_dma.c **** {
 435:Drivers/STM32L0xx_HAL_Driver/Src/stm32l0xx_hal_dma.c ****   HAL_StatusTypeDef status = HAL_OK;
 436:Drivers/STM32L0xx_HAL_Driver/Src/stm32l0xx_hal_dma.c **** 
 437:Drivers/STM32L0xx_HAL_Driver/Src/stm32l0xx_hal_dma.c ****   if(HAL_DMA_STATE_BUSY != hdma->State)
 438:Drivers/STM32L0xx_HAL_Driver/Src/stm32l0xx_hal_dma.c ****   {
 439:Drivers/STM32L0xx_HAL_Driver/Src/stm32l0xx_hal_dma.c ****     /* no transfer ongoing */
 440:Drivers/STM32L0xx_HAL_Driver/Src/stm32l0xx_hal_dma.c ****     hdma->ErrorCode = HAL_DMA_ERROR_NO_XFER;
 441:Drivers/STM32L0xx_HAL_Driver/Src/stm32l0xx_hal_dma.c **** 
 442:Drivers/STM32L0xx_HAL_Driver/Src/stm32l0xx_hal_dma.c ****     status = HAL_ERROR;
 443:Drivers/STM32L0xx_HAL_Driver/Src/stm32l0xx_hal_dma.c ****   }
 444:Drivers/STM32L0xx_HAL_Driver/Src/stm32l0xx_hal_dma.c ****   else
 445:Drivers/STM32L0xx_HAL_Driver/Src/stm32l0xx_hal_dma.c ****   {
 446:Drivers/STM32L0xx_HAL_Driver/Src/stm32l0xx_hal_dma.c ****     /* Disable DMA IT */
 447:Drivers/STM32L0xx_HAL_Driver/Src/stm32l0xx_hal_dma.c ****     __HAL_DMA_DISABLE_IT(hdma, (DMA_IT_TC | DMA_IT_HT | DMA_IT_TE));
 448:Drivers/STM32L0xx_HAL_Driver/Src/stm32l0xx_hal_dma.c **** 
 449:Drivers/STM32L0xx_HAL_Driver/Src/stm32l0xx_hal_dma.c ****     /* Disable the channel */
 450:Drivers/STM32L0xx_HAL_Driver/Src/stm32l0xx_hal_dma.c ****     __HAL_DMA_DISABLE(hdma);
 451:Drivers/STM32L0xx_HAL_Driver/Src/stm32l0xx_hal_dma.c **** 
 452:Drivers/STM32L0xx_HAL_Driver/Src/stm32l0xx_hal_dma.c ****     /* Clear all flags */
 453:Drivers/STM32L0xx_HAL_Driver/Src/stm32l0xx_hal_dma.c ****     hdma->DmaBaseAddress->IFCR = (DMA_ISR_GIF1 << (hdma->ChannelIndex & 0x1cU));
ARM GAS  /tmp/ccI53EIM.s 			page 17


 454:Drivers/STM32L0xx_HAL_Driver/Src/stm32l0xx_hal_dma.c **** 
 455:Drivers/STM32L0xx_HAL_Driver/Src/stm32l0xx_hal_dma.c ****     /* Change the DMA state */
 456:Drivers/STM32L0xx_HAL_Driver/Src/stm32l0xx_hal_dma.c ****     hdma->State = HAL_DMA_STATE_READY;
 457:Drivers/STM32L0xx_HAL_Driver/Src/stm32l0xx_hal_dma.c **** 
 458:Drivers/STM32L0xx_HAL_Driver/Src/stm32l0xx_hal_dma.c ****     /* Process Unlocked */
 459:Drivers/STM32L0xx_HAL_Driver/Src/stm32l0xx_hal_dma.c ****     __HAL_UNLOCK(hdma);
 460:Drivers/STM32L0xx_HAL_Driver/Src/stm32l0xx_hal_dma.c **** 
 461:Drivers/STM32L0xx_HAL_Driver/Src/stm32l0xx_hal_dma.c ****     /* Call User Abort callback */
 462:Drivers/STM32L0xx_HAL_Driver/Src/stm32l0xx_hal_dma.c ****     if(hdma->XferAbortCallback != NULL)
 463:Drivers/STM32L0xx_HAL_Driver/Src/stm32l0xx_hal_dma.c ****     {
 464:Drivers/STM32L0xx_HAL_Driver/Src/stm32l0xx_hal_dma.c ****       hdma->XferAbortCallback(hdma);
 465:Drivers/STM32L0xx_HAL_Driver/Src/stm32l0xx_hal_dma.c ****     }
 466:Drivers/STM32L0xx_HAL_Driver/Src/stm32l0xx_hal_dma.c ****   }
 467:Drivers/STM32L0xx_HAL_Driver/Src/stm32l0xx_hal_dma.c ****   return status;
 468:Drivers/STM32L0xx_HAL_Driver/Src/stm32l0xx_hal_dma.c **** }
 469:Drivers/STM32L0xx_HAL_Driver/Src/stm32l0xx_hal_dma.c **** 
 470:Drivers/STM32L0xx_HAL_Driver/Src/stm32l0xx_hal_dma.c **** /**
 471:Drivers/STM32L0xx_HAL_Driver/Src/stm32l0xx_hal_dma.c ****   * @brief  Polling for transfer complete.
 472:Drivers/STM32L0xx_HAL_Driver/Src/stm32l0xx_hal_dma.c ****   * @param  hdma pointer to a DMA_HandleTypeDef structure that contains
 473:Drivers/STM32L0xx_HAL_Driver/Src/stm32l0xx_hal_dma.c ****   *                  the configuration information for the specified DMA Channel.
 474:Drivers/STM32L0xx_HAL_Driver/Src/stm32l0xx_hal_dma.c ****   * @param  CompleteLevel Specifies the DMA level complete.
 475:Drivers/STM32L0xx_HAL_Driver/Src/stm32l0xx_hal_dma.c ****   * @param  Timeout       Timeout duration.
 476:Drivers/STM32L0xx_HAL_Driver/Src/stm32l0xx_hal_dma.c ****   * @retval HAL status
 477:Drivers/STM32L0xx_HAL_Driver/Src/stm32l0xx_hal_dma.c ****   */
 478:Drivers/STM32L0xx_HAL_Driver/Src/stm32l0xx_hal_dma.c **** HAL_StatusTypeDef HAL_DMA_PollForTransfer(DMA_HandleTypeDef *hdma, HAL_DMA_LevelCompleteTypeDef Com
 479:Drivers/STM32L0xx_HAL_Driver/Src/stm32l0xx_hal_dma.c **** {
 480:Drivers/STM32L0xx_HAL_Driver/Src/stm32l0xx_hal_dma.c ****   uint32_t temp;
 481:Drivers/STM32L0xx_HAL_Driver/Src/stm32l0xx_hal_dma.c ****   uint32_t tickstart;
 482:Drivers/STM32L0xx_HAL_Driver/Src/stm32l0xx_hal_dma.c **** 
 483:Drivers/STM32L0xx_HAL_Driver/Src/stm32l0xx_hal_dma.c ****   if(HAL_DMA_STATE_BUSY != hdma->State)
 484:Drivers/STM32L0xx_HAL_Driver/Src/stm32l0xx_hal_dma.c ****   {
 485:Drivers/STM32L0xx_HAL_Driver/Src/stm32l0xx_hal_dma.c ****     /* no transfer ongoing */
 486:Drivers/STM32L0xx_HAL_Driver/Src/stm32l0xx_hal_dma.c ****     hdma->ErrorCode = HAL_DMA_ERROR_NO_XFER;
 487:Drivers/STM32L0xx_HAL_Driver/Src/stm32l0xx_hal_dma.c ****     __HAL_UNLOCK(hdma);
 488:Drivers/STM32L0xx_HAL_Driver/Src/stm32l0xx_hal_dma.c ****     return HAL_ERROR;
 489:Drivers/STM32L0xx_HAL_Driver/Src/stm32l0xx_hal_dma.c ****   }
 490:Drivers/STM32L0xx_HAL_Driver/Src/stm32l0xx_hal_dma.c **** 
 491:Drivers/STM32L0xx_HAL_Driver/Src/stm32l0xx_hal_dma.c ****   /* Polling mode not supported in circular mode */
 492:Drivers/STM32L0xx_HAL_Driver/Src/stm32l0xx_hal_dma.c ****   if (0U != (hdma->Instance->CCR & DMA_CCR_CIRC))
 493:Drivers/STM32L0xx_HAL_Driver/Src/stm32l0xx_hal_dma.c ****   {
 494:Drivers/STM32L0xx_HAL_Driver/Src/stm32l0xx_hal_dma.c ****     hdma->ErrorCode = HAL_DMA_ERROR_NOT_SUPPORTED;
 495:Drivers/STM32L0xx_HAL_Driver/Src/stm32l0xx_hal_dma.c ****     return HAL_ERROR;
 496:Drivers/STM32L0xx_HAL_Driver/Src/stm32l0xx_hal_dma.c ****   }
 497:Drivers/STM32L0xx_HAL_Driver/Src/stm32l0xx_hal_dma.c **** 
 498:Drivers/STM32L0xx_HAL_Driver/Src/stm32l0xx_hal_dma.c ****   /* Get the level transfer complete flag */
 499:Drivers/STM32L0xx_HAL_Driver/Src/stm32l0xx_hal_dma.c ****   if (HAL_DMA_FULL_TRANSFER == CompleteLevel)
 500:Drivers/STM32L0xx_HAL_Driver/Src/stm32l0xx_hal_dma.c ****   {
 501:Drivers/STM32L0xx_HAL_Driver/Src/stm32l0xx_hal_dma.c ****     /* Transfer Complete flag */
 502:Drivers/STM32L0xx_HAL_Driver/Src/stm32l0xx_hal_dma.c ****     temp = DMA_FLAG_TC1 << (hdma->ChannelIndex & 0x1cU);
 503:Drivers/STM32L0xx_HAL_Driver/Src/stm32l0xx_hal_dma.c ****   }
 504:Drivers/STM32L0xx_HAL_Driver/Src/stm32l0xx_hal_dma.c ****   else
 505:Drivers/STM32L0xx_HAL_Driver/Src/stm32l0xx_hal_dma.c ****   {
 506:Drivers/STM32L0xx_HAL_Driver/Src/stm32l0xx_hal_dma.c ****     /* Half Transfer Complete flag */
 507:Drivers/STM32L0xx_HAL_Driver/Src/stm32l0xx_hal_dma.c ****     temp = DMA_FLAG_HT1 << (hdma->ChannelIndex & 0x1cU);
 508:Drivers/STM32L0xx_HAL_Driver/Src/stm32l0xx_hal_dma.c ****   }
 509:Drivers/STM32L0xx_HAL_Driver/Src/stm32l0xx_hal_dma.c **** 
 510:Drivers/STM32L0xx_HAL_Driver/Src/stm32l0xx_hal_dma.c ****   /* Get tick */
ARM GAS  /tmp/ccI53EIM.s 			page 18


 511:Drivers/STM32L0xx_HAL_Driver/Src/stm32l0xx_hal_dma.c ****   tickstart = HAL_GetTick();
 512:Drivers/STM32L0xx_HAL_Driver/Src/stm32l0xx_hal_dma.c **** 
 513:Drivers/STM32L0xx_HAL_Driver/Src/stm32l0xx_hal_dma.c ****   while(0U == (hdma->DmaBaseAddress->ISR & temp))
 514:Drivers/STM32L0xx_HAL_Driver/Src/stm32l0xx_hal_dma.c ****   {
 515:Drivers/STM32L0xx_HAL_Driver/Src/stm32l0xx_hal_dma.c ****     if((0U != (hdma->DmaBaseAddress->ISR & (DMA_FLAG_TE1 << (hdma->ChannelIndex& 0x1cU)))))
 516:Drivers/STM32L0xx_HAL_Driver/Src/stm32l0xx_hal_dma.c ****     {
 517:Drivers/STM32L0xx_HAL_Driver/Src/stm32l0xx_hal_dma.c ****       /* When a DMA transfer error occurs */
 518:Drivers/STM32L0xx_HAL_Driver/Src/stm32l0xx_hal_dma.c ****       /* A hardware clear of its EN bits is performed */
 519:Drivers/STM32L0xx_HAL_Driver/Src/stm32l0xx_hal_dma.c ****       /* Clear all flags */
 520:Drivers/STM32L0xx_HAL_Driver/Src/stm32l0xx_hal_dma.c ****       hdma->DmaBaseAddress->IFCR = (DMA_ISR_GIF1 << (hdma->ChannelIndex & 0x1cU));
 521:Drivers/STM32L0xx_HAL_Driver/Src/stm32l0xx_hal_dma.c **** 
 522:Drivers/STM32L0xx_HAL_Driver/Src/stm32l0xx_hal_dma.c ****       /* Update error code */
 523:Drivers/STM32L0xx_HAL_Driver/Src/stm32l0xx_hal_dma.c ****       hdma->ErrorCode = HAL_DMA_ERROR_TE;
 524:Drivers/STM32L0xx_HAL_Driver/Src/stm32l0xx_hal_dma.c **** 
 525:Drivers/STM32L0xx_HAL_Driver/Src/stm32l0xx_hal_dma.c ****       /* Change the DMA state */
 526:Drivers/STM32L0xx_HAL_Driver/Src/stm32l0xx_hal_dma.c ****       hdma->State= HAL_DMA_STATE_READY;
 527:Drivers/STM32L0xx_HAL_Driver/Src/stm32l0xx_hal_dma.c **** 
 528:Drivers/STM32L0xx_HAL_Driver/Src/stm32l0xx_hal_dma.c ****       /* Process Unlocked */
 529:Drivers/STM32L0xx_HAL_Driver/Src/stm32l0xx_hal_dma.c ****       __HAL_UNLOCK(hdma);
 530:Drivers/STM32L0xx_HAL_Driver/Src/stm32l0xx_hal_dma.c **** 
 531:Drivers/STM32L0xx_HAL_Driver/Src/stm32l0xx_hal_dma.c ****       return HAL_ERROR;
 532:Drivers/STM32L0xx_HAL_Driver/Src/stm32l0xx_hal_dma.c ****     }
 533:Drivers/STM32L0xx_HAL_Driver/Src/stm32l0xx_hal_dma.c ****     /* Check for the Timeout */
 534:Drivers/STM32L0xx_HAL_Driver/Src/stm32l0xx_hal_dma.c ****     if(Timeout != HAL_MAX_DELAY)
 535:Drivers/STM32L0xx_HAL_Driver/Src/stm32l0xx_hal_dma.c ****     {
 536:Drivers/STM32L0xx_HAL_Driver/Src/stm32l0xx_hal_dma.c ****       if(((HAL_GetTick() - tickstart) > Timeout) ||  (Timeout == 0U))
 537:Drivers/STM32L0xx_HAL_Driver/Src/stm32l0xx_hal_dma.c ****       {
 538:Drivers/STM32L0xx_HAL_Driver/Src/stm32l0xx_hal_dma.c ****         /* Update error code */
 539:Drivers/STM32L0xx_HAL_Driver/Src/stm32l0xx_hal_dma.c ****         hdma->ErrorCode = HAL_DMA_ERROR_TIMEOUT;
 540:Drivers/STM32L0xx_HAL_Driver/Src/stm32l0xx_hal_dma.c **** 
 541:Drivers/STM32L0xx_HAL_Driver/Src/stm32l0xx_hal_dma.c ****         /* Change the DMA state */
 542:Drivers/STM32L0xx_HAL_Driver/Src/stm32l0xx_hal_dma.c ****         hdma->State = HAL_DMA_STATE_READY;
 543:Drivers/STM32L0xx_HAL_Driver/Src/stm32l0xx_hal_dma.c **** 
 544:Drivers/STM32L0xx_HAL_Driver/Src/stm32l0xx_hal_dma.c ****         /* Process Unlocked */
 545:Drivers/STM32L0xx_HAL_Driver/Src/stm32l0xx_hal_dma.c ****         __HAL_UNLOCK(hdma);
 546:Drivers/STM32L0xx_HAL_Driver/Src/stm32l0xx_hal_dma.c **** 
 547:Drivers/STM32L0xx_HAL_Driver/Src/stm32l0xx_hal_dma.c ****         return HAL_ERROR;
 548:Drivers/STM32L0xx_HAL_Driver/Src/stm32l0xx_hal_dma.c ****       }
 549:Drivers/STM32L0xx_HAL_Driver/Src/stm32l0xx_hal_dma.c ****     }
 550:Drivers/STM32L0xx_HAL_Driver/Src/stm32l0xx_hal_dma.c ****   }
 551:Drivers/STM32L0xx_HAL_Driver/Src/stm32l0xx_hal_dma.c **** 
 552:Drivers/STM32L0xx_HAL_Driver/Src/stm32l0xx_hal_dma.c ****   if(HAL_DMA_FULL_TRANSFER == CompleteLevel)
 553:Drivers/STM32L0xx_HAL_Driver/Src/stm32l0xx_hal_dma.c ****   {
 554:Drivers/STM32L0xx_HAL_Driver/Src/stm32l0xx_hal_dma.c ****     /* Clear the transfer complete flag */
 555:Drivers/STM32L0xx_HAL_Driver/Src/stm32l0xx_hal_dma.c ****     hdma->DmaBaseAddress->IFCR = (DMA_FLAG_TC1 << (hdma->ChannelIndex& 0x1cU));
 556:Drivers/STM32L0xx_HAL_Driver/Src/stm32l0xx_hal_dma.c **** 
 557:Drivers/STM32L0xx_HAL_Driver/Src/stm32l0xx_hal_dma.c ****     /* The selected Channelx EN bit is cleared (DMA is disabled and
 558:Drivers/STM32L0xx_HAL_Driver/Src/stm32l0xx_hal_dma.c ****     all transfers are complete) */
 559:Drivers/STM32L0xx_HAL_Driver/Src/stm32l0xx_hal_dma.c ****     hdma->State = HAL_DMA_STATE_READY;
 560:Drivers/STM32L0xx_HAL_Driver/Src/stm32l0xx_hal_dma.c ****   }
 561:Drivers/STM32L0xx_HAL_Driver/Src/stm32l0xx_hal_dma.c ****   else
 562:Drivers/STM32L0xx_HAL_Driver/Src/stm32l0xx_hal_dma.c ****   {
 563:Drivers/STM32L0xx_HAL_Driver/Src/stm32l0xx_hal_dma.c ****     /* Clear the half transfer complete flag */
 564:Drivers/STM32L0xx_HAL_Driver/Src/stm32l0xx_hal_dma.c ****     hdma->DmaBaseAddress->IFCR = (DMA_FLAG_HT1 << (hdma->ChannelIndex & 0x1cU));
 565:Drivers/STM32L0xx_HAL_Driver/Src/stm32l0xx_hal_dma.c ****   }
 566:Drivers/STM32L0xx_HAL_Driver/Src/stm32l0xx_hal_dma.c **** 
 567:Drivers/STM32L0xx_HAL_Driver/Src/stm32l0xx_hal_dma.c ****   /* Process unlocked */
ARM GAS  /tmp/ccI53EIM.s 			page 19


 568:Drivers/STM32L0xx_HAL_Driver/Src/stm32l0xx_hal_dma.c ****   __HAL_UNLOCK(hdma);
 569:Drivers/STM32L0xx_HAL_Driver/Src/stm32l0xx_hal_dma.c **** 
 570:Drivers/STM32L0xx_HAL_Driver/Src/stm32l0xx_hal_dma.c ****   return HAL_OK;
 571:Drivers/STM32L0xx_HAL_Driver/Src/stm32l0xx_hal_dma.c **** }
 572:Drivers/STM32L0xx_HAL_Driver/Src/stm32l0xx_hal_dma.c **** 
 573:Drivers/STM32L0xx_HAL_Driver/Src/stm32l0xx_hal_dma.c **** /**
 574:Drivers/STM32L0xx_HAL_Driver/Src/stm32l0xx_hal_dma.c ****   * @brief  Handle DMA interrupt request.
 575:Drivers/STM32L0xx_HAL_Driver/Src/stm32l0xx_hal_dma.c ****   * @param  hdma pointer to a DMA_HandleTypeDef structure that contains
 576:Drivers/STM32L0xx_HAL_Driver/Src/stm32l0xx_hal_dma.c ****   *               the configuration information for the specified DMA Channel.
 577:Drivers/STM32L0xx_HAL_Driver/Src/stm32l0xx_hal_dma.c ****   * @retval None
 578:Drivers/STM32L0xx_HAL_Driver/Src/stm32l0xx_hal_dma.c ****   */
 579:Drivers/STM32L0xx_HAL_Driver/Src/stm32l0xx_hal_dma.c **** void HAL_DMA_IRQHandler(DMA_HandleTypeDef *hdma)
 580:Drivers/STM32L0xx_HAL_Driver/Src/stm32l0xx_hal_dma.c **** {
 581:Drivers/STM32L0xx_HAL_Driver/Src/stm32l0xx_hal_dma.c ****   uint32_t flag_it = hdma->DmaBaseAddress->ISR;
 582:Drivers/STM32L0xx_HAL_Driver/Src/stm32l0xx_hal_dma.c ****   uint32_t source_it = hdma->Instance->CCR;
 583:Drivers/STM32L0xx_HAL_Driver/Src/stm32l0xx_hal_dma.c **** 
 584:Drivers/STM32L0xx_HAL_Driver/Src/stm32l0xx_hal_dma.c ****   /* Half Transfer Complete Interrupt management ******************************/
 585:Drivers/STM32L0xx_HAL_Driver/Src/stm32l0xx_hal_dma.c ****   if ((0U != (flag_it & (DMA_FLAG_HT1 << (hdma->ChannelIndex & 0x1cU)))) && (0U != (source_it & DMA
 586:Drivers/STM32L0xx_HAL_Driver/Src/stm32l0xx_hal_dma.c ****   {
 587:Drivers/STM32L0xx_HAL_Driver/Src/stm32l0xx_hal_dma.c ****       /* Disable the half transfer interrupt if the DMA mode is not CIRCULAR */
 588:Drivers/STM32L0xx_HAL_Driver/Src/stm32l0xx_hal_dma.c ****       if((hdma->Instance->CCR & DMA_CCR_CIRC) == 0U)
 589:Drivers/STM32L0xx_HAL_Driver/Src/stm32l0xx_hal_dma.c ****       {
 590:Drivers/STM32L0xx_HAL_Driver/Src/stm32l0xx_hal_dma.c ****         /* Disable the half transfer interrupt */
 591:Drivers/STM32L0xx_HAL_Driver/Src/stm32l0xx_hal_dma.c ****         __HAL_DMA_DISABLE_IT(hdma, DMA_IT_HT);
 592:Drivers/STM32L0xx_HAL_Driver/Src/stm32l0xx_hal_dma.c ****       }
 593:Drivers/STM32L0xx_HAL_Driver/Src/stm32l0xx_hal_dma.c ****       /* Clear the half transfer complete flag */
 594:Drivers/STM32L0xx_HAL_Driver/Src/stm32l0xx_hal_dma.c ****       hdma->DmaBaseAddress->IFCR = DMA_ISR_HTIF1 << (hdma->ChannelIndex & 0x1cU);
 595:Drivers/STM32L0xx_HAL_Driver/Src/stm32l0xx_hal_dma.c **** 
 596:Drivers/STM32L0xx_HAL_Driver/Src/stm32l0xx_hal_dma.c ****       /* DMA peripheral state is not updated in Half Transfer */
 597:Drivers/STM32L0xx_HAL_Driver/Src/stm32l0xx_hal_dma.c ****       /* but in Transfer Complete case */
 598:Drivers/STM32L0xx_HAL_Driver/Src/stm32l0xx_hal_dma.c **** 
 599:Drivers/STM32L0xx_HAL_Driver/Src/stm32l0xx_hal_dma.c ****      if(hdma->XferHalfCpltCallback != NULL)
 600:Drivers/STM32L0xx_HAL_Driver/Src/stm32l0xx_hal_dma.c ****       {
 601:Drivers/STM32L0xx_HAL_Driver/Src/stm32l0xx_hal_dma.c ****         /* Half transfer callback */
 602:Drivers/STM32L0xx_HAL_Driver/Src/stm32l0xx_hal_dma.c ****         hdma->XferHalfCpltCallback(hdma);
 603:Drivers/STM32L0xx_HAL_Driver/Src/stm32l0xx_hal_dma.c ****       }
 604:Drivers/STM32L0xx_HAL_Driver/Src/stm32l0xx_hal_dma.c ****   }
 605:Drivers/STM32L0xx_HAL_Driver/Src/stm32l0xx_hal_dma.c **** 
 606:Drivers/STM32L0xx_HAL_Driver/Src/stm32l0xx_hal_dma.c ****   /* Transfer Complete Interrupt management ***********************************/
 607:Drivers/STM32L0xx_HAL_Driver/Src/stm32l0xx_hal_dma.c ****   else if ((0U != (flag_it & (DMA_FLAG_TC1 << (hdma->ChannelIndex & 0x1cU)))) && (0U != (source_it 
 608:Drivers/STM32L0xx_HAL_Driver/Src/stm32l0xx_hal_dma.c ****   {
 609:Drivers/STM32L0xx_HAL_Driver/Src/stm32l0xx_hal_dma.c ****     if((hdma->Instance->CCR & DMA_CCR_CIRC) == 0U)
 610:Drivers/STM32L0xx_HAL_Driver/Src/stm32l0xx_hal_dma.c ****     {
 611:Drivers/STM32L0xx_HAL_Driver/Src/stm32l0xx_hal_dma.c ****       /* Disable the transfer complete and error interrupt */
 612:Drivers/STM32L0xx_HAL_Driver/Src/stm32l0xx_hal_dma.c ****       __HAL_DMA_DISABLE_IT(hdma, DMA_IT_TE | DMA_IT_TC);
 613:Drivers/STM32L0xx_HAL_Driver/Src/stm32l0xx_hal_dma.c **** 
 614:Drivers/STM32L0xx_HAL_Driver/Src/stm32l0xx_hal_dma.c ****       /* Change the DMA state */
 615:Drivers/STM32L0xx_HAL_Driver/Src/stm32l0xx_hal_dma.c ****       hdma->State = HAL_DMA_STATE_READY;
 616:Drivers/STM32L0xx_HAL_Driver/Src/stm32l0xx_hal_dma.c ****     }
 617:Drivers/STM32L0xx_HAL_Driver/Src/stm32l0xx_hal_dma.c ****     /* Clear the transfer complete flag */
 618:Drivers/STM32L0xx_HAL_Driver/Src/stm32l0xx_hal_dma.c ****     hdma->DmaBaseAddress->IFCR = (DMA_ISR_TCIF1 << (hdma->ChannelIndex & 0x1cU));
 619:Drivers/STM32L0xx_HAL_Driver/Src/stm32l0xx_hal_dma.c **** 
 620:Drivers/STM32L0xx_HAL_Driver/Src/stm32l0xx_hal_dma.c ****     /* Process Unlocked */
 621:Drivers/STM32L0xx_HAL_Driver/Src/stm32l0xx_hal_dma.c ****     __HAL_UNLOCK(hdma);
 622:Drivers/STM32L0xx_HAL_Driver/Src/stm32l0xx_hal_dma.c **** 
 623:Drivers/STM32L0xx_HAL_Driver/Src/stm32l0xx_hal_dma.c ****     if(hdma->XferCpltCallback != NULL)
 624:Drivers/STM32L0xx_HAL_Driver/Src/stm32l0xx_hal_dma.c ****     {
ARM GAS  /tmp/ccI53EIM.s 			page 20


 625:Drivers/STM32L0xx_HAL_Driver/Src/stm32l0xx_hal_dma.c ****       /* Transfer complete callback */
 626:Drivers/STM32L0xx_HAL_Driver/Src/stm32l0xx_hal_dma.c ****       hdma->XferCpltCallback(hdma);
 627:Drivers/STM32L0xx_HAL_Driver/Src/stm32l0xx_hal_dma.c ****     }
 628:Drivers/STM32L0xx_HAL_Driver/Src/stm32l0xx_hal_dma.c ****   }
 629:Drivers/STM32L0xx_HAL_Driver/Src/stm32l0xx_hal_dma.c **** 
 630:Drivers/STM32L0xx_HAL_Driver/Src/stm32l0xx_hal_dma.c ****   /* Transfer Error Interrupt management **************************************/
 631:Drivers/STM32L0xx_HAL_Driver/Src/stm32l0xx_hal_dma.c ****   else if ((0U != (flag_it & (DMA_FLAG_TE1 << (hdma->ChannelIndex & 0x1cU)))) && (0U != (source_it 
 632:Drivers/STM32L0xx_HAL_Driver/Src/stm32l0xx_hal_dma.c ****   {
 633:Drivers/STM32L0xx_HAL_Driver/Src/stm32l0xx_hal_dma.c ****     /* When a DMA transfer error occurs */
 634:Drivers/STM32L0xx_HAL_Driver/Src/stm32l0xx_hal_dma.c ****     /* A hardware clear of its EN bits is performed */
 635:Drivers/STM32L0xx_HAL_Driver/Src/stm32l0xx_hal_dma.c ****     /* Disable ALL DMA IT */
 636:Drivers/STM32L0xx_HAL_Driver/Src/stm32l0xx_hal_dma.c ****     __HAL_DMA_DISABLE_IT(hdma, (DMA_IT_TC | DMA_IT_HT | DMA_IT_TE));
 637:Drivers/STM32L0xx_HAL_Driver/Src/stm32l0xx_hal_dma.c **** 
 638:Drivers/STM32L0xx_HAL_Driver/Src/stm32l0xx_hal_dma.c ****     /* Clear all flags */
 639:Drivers/STM32L0xx_HAL_Driver/Src/stm32l0xx_hal_dma.c ****     hdma->DmaBaseAddress->IFCR = (DMA_ISR_GIF1 << (hdma->ChannelIndex & 0x1cU));
 640:Drivers/STM32L0xx_HAL_Driver/Src/stm32l0xx_hal_dma.c **** 
 641:Drivers/STM32L0xx_HAL_Driver/Src/stm32l0xx_hal_dma.c ****     /* Update error code */
 642:Drivers/STM32L0xx_HAL_Driver/Src/stm32l0xx_hal_dma.c ****     hdma->ErrorCode = HAL_DMA_ERROR_TE;
 643:Drivers/STM32L0xx_HAL_Driver/Src/stm32l0xx_hal_dma.c **** 
 644:Drivers/STM32L0xx_HAL_Driver/Src/stm32l0xx_hal_dma.c ****     /* Change the DMA state */
 645:Drivers/STM32L0xx_HAL_Driver/Src/stm32l0xx_hal_dma.c ****     hdma->State = HAL_DMA_STATE_READY;
 646:Drivers/STM32L0xx_HAL_Driver/Src/stm32l0xx_hal_dma.c **** 
 647:Drivers/STM32L0xx_HAL_Driver/Src/stm32l0xx_hal_dma.c ****     /* Process Unlocked */
 648:Drivers/STM32L0xx_HAL_Driver/Src/stm32l0xx_hal_dma.c ****     __HAL_UNLOCK(hdma);
 649:Drivers/STM32L0xx_HAL_Driver/Src/stm32l0xx_hal_dma.c **** 
 650:Drivers/STM32L0xx_HAL_Driver/Src/stm32l0xx_hal_dma.c ****     if (hdma->XferErrorCallback != NULL)
 651:Drivers/STM32L0xx_HAL_Driver/Src/stm32l0xx_hal_dma.c ****     {
 652:Drivers/STM32L0xx_HAL_Driver/Src/stm32l0xx_hal_dma.c ****       /* Transfer error callback */
 653:Drivers/STM32L0xx_HAL_Driver/Src/stm32l0xx_hal_dma.c ****       hdma->XferErrorCallback(hdma);
 654:Drivers/STM32L0xx_HAL_Driver/Src/stm32l0xx_hal_dma.c ****     }
 655:Drivers/STM32L0xx_HAL_Driver/Src/stm32l0xx_hal_dma.c ****   }
 656:Drivers/STM32L0xx_HAL_Driver/Src/stm32l0xx_hal_dma.c ****   else
 657:Drivers/STM32L0xx_HAL_Driver/Src/stm32l0xx_hal_dma.c ****   {
 658:Drivers/STM32L0xx_HAL_Driver/Src/stm32l0xx_hal_dma.c ****     /* Nothing To Do */
 659:Drivers/STM32L0xx_HAL_Driver/Src/stm32l0xx_hal_dma.c ****   }
 660:Drivers/STM32L0xx_HAL_Driver/Src/stm32l0xx_hal_dma.c ****   return;
 661:Drivers/STM32L0xx_HAL_Driver/Src/stm32l0xx_hal_dma.c **** }
 662:Drivers/STM32L0xx_HAL_Driver/Src/stm32l0xx_hal_dma.c **** 
 663:Drivers/STM32L0xx_HAL_Driver/Src/stm32l0xx_hal_dma.c **** /**
 664:Drivers/STM32L0xx_HAL_Driver/Src/stm32l0xx_hal_dma.c ****   * @brief  Register callbacks
 665:Drivers/STM32L0xx_HAL_Driver/Src/stm32l0xx_hal_dma.c ****   * @param  hdma                 pointer to a DMA_HandleTypeDef structure that contains
 666:Drivers/STM32L0xx_HAL_Driver/Src/stm32l0xx_hal_dma.c ****   *                               the configuration information for the specified DMA Channel.
 667:Drivers/STM32L0xx_HAL_Driver/Src/stm32l0xx_hal_dma.c ****   * @param  CallbackID           User Callback identifer
 668:Drivers/STM32L0xx_HAL_Driver/Src/stm32l0xx_hal_dma.c ****   *                               a HAL_DMA_CallbackIDTypeDef ENUM as parameter.
 669:Drivers/STM32L0xx_HAL_Driver/Src/stm32l0xx_hal_dma.c ****   * @param  pCallback            pointer to private callbacsk function which has pointer to
 670:Drivers/STM32L0xx_HAL_Driver/Src/stm32l0xx_hal_dma.c ****   *                               a DMA_HandleTypeDef structure as parameter.
 671:Drivers/STM32L0xx_HAL_Driver/Src/stm32l0xx_hal_dma.c ****   * @retval HAL status
 672:Drivers/STM32L0xx_HAL_Driver/Src/stm32l0xx_hal_dma.c ****   */
 673:Drivers/STM32L0xx_HAL_Driver/Src/stm32l0xx_hal_dma.c **** HAL_StatusTypeDef HAL_DMA_RegisterCallback(DMA_HandleTypeDef *hdma, HAL_DMA_CallbackIDTypeDef Callb
 674:Drivers/STM32L0xx_HAL_Driver/Src/stm32l0xx_hal_dma.c **** {
 675:Drivers/STM32L0xx_HAL_Driver/Src/stm32l0xx_hal_dma.c ****   HAL_StatusTypeDef status = HAL_OK;
 676:Drivers/STM32L0xx_HAL_Driver/Src/stm32l0xx_hal_dma.c **** 
 677:Drivers/STM32L0xx_HAL_Driver/Src/stm32l0xx_hal_dma.c ****   /* Process locked */
 678:Drivers/STM32L0xx_HAL_Driver/Src/stm32l0xx_hal_dma.c ****   __HAL_LOCK(hdma);
 679:Drivers/STM32L0xx_HAL_Driver/Src/stm32l0xx_hal_dma.c **** 
 680:Drivers/STM32L0xx_HAL_Driver/Src/stm32l0xx_hal_dma.c ****   if(HAL_DMA_STATE_READY == hdma->State)
 681:Drivers/STM32L0xx_HAL_Driver/Src/stm32l0xx_hal_dma.c ****   {
ARM GAS  /tmp/ccI53EIM.s 			page 21


 682:Drivers/STM32L0xx_HAL_Driver/Src/stm32l0xx_hal_dma.c ****     switch (CallbackID)
 683:Drivers/STM32L0xx_HAL_Driver/Src/stm32l0xx_hal_dma.c ****     {
 684:Drivers/STM32L0xx_HAL_Driver/Src/stm32l0xx_hal_dma.c ****      case  HAL_DMA_XFER_CPLT_CB_ID:
 685:Drivers/STM32L0xx_HAL_Driver/Src/stm32l0xx_hal_dma.c ****            hdma->XferCpltCallback = pCallback;
 686:Drivers/STM32L0xx_HAL_Driver/Src/stm32l0xx_hal_dma.c ****            break;
 687:Drivers/STM32L0xx_HAL_Driver/Src/stm32l0xx_hal_dma.c **** 
 688:Drivers/STM32L0xx_HAL_Driver/Src/stm32l0xx_hal_dma.c ****      case  HAL_DMA_XFER_HALFCPLT_CB_ID:
 689:Drivers/STM32L0xx_HAL_Driver/Src/stm32l0xx_hal_dma.c ****            hdma->XferHalfCpltCallback = pCallback;
 690:Drivers/STM32L0xx_HAL_Driver/Src/stm32l0xx_hal_dma.c ****            break;
 691:Drivers/STM32L0xx_HAL_Driver/Src/stm32l0xx_hal_dma.c **** 
 692:Drivers/STM32L0xx_HAL_Driver/Src/stm32l0xx_hal_dma.c ****      case  HAL_DMA_XFER_ERROR_CB_ID:
 693:Drivers/STM32L0xx_HAL_Driver/Src/stm32l0xx_hal_dma.c ****            hdma->XferErrorCallback = pCallback;
 694:Drivers/STM32L0xx_HAL_Driver/Src/stm32l0xx_hal_dma.c ****            break;
 695:Drivers/STM32L0xx_HAL_Driver/Src/stm32l0xx_hal_dma.c **** 
 696:Drivers/STM32L0xx_HAL_Driver/Src/stm32l0xx_hal_dma.c ****      case  HAL_DMA_XFER_ABORT_CB_ID:
 697:Drivers/STM32L0xx_HAL_Driver/Src/stm32l0xx_hal_dma.c ****            hdma->XferAbortCallback = pCallback;
 698:Drivers/STM32L0xx_HAL_Driver/Src/stm32l0xx_hal_dma.c ****            break;
 699:Drivers/STM32L0xx_HAL_Driver/Src/stm32l0xx_hal_dma.c **** 
 700:Drivers/STM32L0xx_HAL_Driver/Src/stm32l0xx_hal_dma.c ****      default:
 701:Drivers/STM32L0xx_HAL_Driver/Src/stm32l0xx_hal_dma.c ****            status = HAL_ERROR;
 702:Drivers/STM32L0xx_HAL_Driver/Src/stm32l0xx_hal_dma.c ****            break;
 703:Drivers/STM32L0xx_HAL_Driver/Src/stm32l0xx_hal_dma.c ****     }
 704:Drivers/STM32L0xx_HAL_Driver/Src/stm32l0xx_hal_dma.c ****   }
 705:Drivers/STM32L0xx_HAL_Driver/Src/stm32l0xx_hal_dma.c ****   else
 706:Drivers/STM32L0xx_HAL_Driver/Src/stm32l0xx_hal_dma.c ****   {
 707:Drivers/STM32L0xx_HAL_Driver/Src/stm32l0xx_hal_dma.c ****     status = HAL_ERROR;
 708:Drivers/STM32L0xx_HAL_Driver/Src/stm32l0xx_hal_dma.c ****   }
 709:Drivers/STM32L0xx_HAL_Driver/Src/stm32l0xx_hal_dma.c **** 
 710:Drivers/STM32L0xx_HAL_Driver/Src/stm32l0xx_hal_dma.c ****   /* Release Lock */
 711:Drivers/STM32L0xx_HAL_Driver/Src/stm32l0xx_hal_dma.c ****   __HAL_UNLOCK(hdma);
 712:Drivers/STM32L0xx_HAL_Driver/Src/stm32l0xx_hal_dma.c **** 
 713:Drivers/STM32L0xx_HAL_Driver/Src/stm32l0xx_hal_dma.c ****   return status;
 714:Drivers/STM32L0xx_HAL_Driver/Src/stm32l0xx_hal_dma.c **** }
 715:Drivers/STM32L0xx_HAL_Driver/Src/stm32l0xx_hal_dma.c **** 
 716:Drivers/STM32L0xx_HAL_Driver/Src/stm32l0xx_hal_dma.c **** /**
 717:Drivers/STM32L0xx_HAL_Driver/Src/stm32l0xx_hal_dma.c ****   * @brief  UnRegister callbacks
 718:Drivers/STM32L0xx_HAL_Driver/Src/stm32l0xx_hal_dma.c ****   * @param  hdma                 pointer to a DMA_HandleTypeDef structure that contains
 719:Drivers/STM32L0xx_HAL_Driver/Src/stm32l0xx_hal_dma.c ****   *                               the configuration information for the specified DMA Channel.
 720:Drivers/STM32L0xx_HAL_Driver/Src/stm32l0xx_hal_dma.c ****   * @param  CallbackID           User Callback identifer
 721:Drivers/STM32L0xx_HAL_Driver/Src/stm32l0xx_hal_dma.c ****   *                               a HAL_DMA_CallbackIDTypeDef ENUM as parameter.
 722:Drivers/STM32L0xx_HAL_Driver/Src/stm32l0xx_hal_dma.c ****   * @retval HAL status
 723:Drivers/STM32L0xx_HAL_Driver/Src/stm32l0xx_hal_dma.c ****   */
 724:Drivers/STM32L0xx_HAL_Driver/Src/stm32l0xx_hal_dma.c **** HAL_StatusTypeDef HAL_DMA_UnRegisterCallback(DMA_HandleTypeDef *hdma, HAL_DMA_CallbackIDTypeDef Cal
 725:Drivers/STM32L0xx_HAL_Driver/Src/stm32l0xx_hal_dma.c **** {
 726:Drivers/STM32L0xx_HAL_Driver/Src/stm32l0xx_hal_dma.c ****   HAL_StatusTypeDef status = HAL_OK;
 727:Drivers/STM32L0xx_HAL_Driver/Src/stm32l0xx_hal_dma.c **** 
 728:Drivers/STM32L0xx_HAL_Driver/Src/stm32l0xx_hal_dma.c ****     /* Process locked */
 729:Drivers/STM32L0xx_HAL_Driver/Src/stm32l0xx_hal_dma.c ****   __HAL_LOCK(hdma);
 730:Drivers/STM32L0xx_HAL_Driver/Src/stm32l0xx_hal_dma.c **** 
 731:Drivers/STM32L0xx_HAL_Driver/Src/stm32l0xx_hal_dma.c ****   if(HAL_DMA_STATE_READY == hdma->State)
 732:Drivers/STM32L0xx_HAL_Driver/Src/stm32l0xx_hal_dma.c ****   {
 733:Drivers/STM32L0xx_HAL_Driver/Src/stm32l0xx_hal_dma.c ****     switch (CallbackID)
 734:Drivers/STM32L0xx_HAL_Driver/Src/stm32l0xx_hal_dma.c ****     {
 735:Drivers/STM32L0xx_HAL_Driver/Src/stm32l0xx_hal_dma.c ****      case  HAL_DMA_XFER_CPLT_CB_ID:
 736:Drivers/STM32L0xx_HAL_Driver/Src/stm32l0xx_hal_dma.c ****            hdma->XferCpltCallback = NULL;
 737:Drivers/STM32L0xx_HAL_Driver/Src/stm32l0xx_hal_dma.c ****            break;
 738:Drivers/STM32L0xx_HAL_Driver/Src/stm32l0xx_hal_dma.c **** 
ARM GAS  /tmp/ccI53EIM.s 			page 22


 739:Drivers/STM32L0xx_HAL_Driver/Src/stm32l0xx_hal_dma.c ****      case  HAL_DMA_XFER_HALFCPLT_CB_ID:
 740:Drivers/STM32L0xx_HAL_Driver/Src/stm32l0xx_hal_dma.c ****            hdma->XferHalfCpltCallback = NULL;
 741:Drivers/STM32L0xx_HAL_Driver/Src/stm32l0xx_hal_dma.c ****            break;
 742:Drivers/STM32L0xx_HAL_Driver/Src/stm32l0xx_hal_dma.c **** 
 743:Drivers/STM32L0xx_HAL_Driver/Src/stm32l0xx_hal_dma.c ****      case  HAL_DMA_XFER_ERROR_CB_ID:
 744:Drivers/STM32L0xx_HAL_Driver/Src/stm32l0xx_hal_dma.c ****            hdma->XferErrorCallback = NULL;
 745:Drivers/STM32L0xx_HAL_Driver/Src/stm32l0xx_hal_dma.c ****            break;
 746:Drivers/STM32L0xx_HAL_Driver/Src/stm32l0xx_hal_dma.c **** 
 747:Drivers/STM32L0xx_HAL_Driver/Src/stm32l0xx_hal_dma.c ****      case  HAL_DMA_XFER_ABORT_CB_ID:
 748:Drivers/STM32L0xx_HAL_Driver/Src/stm32l0xx_hal_dma.c ****            hdma->XferAbortCallback = NULL;
 749:Drivers/STM32L0xx_HAL_Driver/Src/stm32l0xx_hal_dma.c ****            break;
 750:Drivers/STM32L0xx_HAL_Driver/Src/stm32l0xx_hal_dma.c **** 
 751:Drivers/STM32L0xx_HAL_Driver/Src/stm32l0xx_hal_dma.c ****     case   HAL_DMA_XFER_ALL_CB_ID:
 752:Drivers/STM32L0xx_HAL_Driver/Src/stm32l0xx_hal_dma.c ****            hdma->XferCpltCallback = NULL;
 753:Drivers/STM32L0xx_HAL_Driver/Src/stm32l0xx_hal_dma.c ****            hdma->XferHalfCpltCallback = NULL;
 754:Drivers/STM32L0xx_HAL_Driver/Src/stm32l0xx_hal_dma.c ****            hdma->XferErrorCallback = NULL;
 755:Drivers/STM32L0xx_HAL_Driver/Src/stm32l0xx_hal_dma.c ****            hdma->XferAbortCallback = NULL;
 756:Drivers/STM32L0xx_HAL_Driver/Src/stm32l0xx_hal_dma.c ****            break;
 757:Drivers/STM32L0xx_HAL_Driver/Src/stm32l0xx_hal_dma.c **** 
 758:Drivers/STM32L0xx_HAL_Driver/Src/stm32l0xx_hal_dma.c ****     default:
 759:Drivers/STM32L0xx_HAL_Driver/Src/stm32l0xx_hal_dma.c ****            status = HAL_ERROR;
 760:Drivers/STM32L0xx_HAL_Driver/Src/stm32l0xx_hal_dma.c ****            break;
 761:Drivers/STM32L0xx_HAL_Driver/Src/stm32l0xx_hal_dma.c ****     }
 762:Drivers/STM32L0xx_HAL_Driver/Src/stm32l0xx_hal_dma.c ****   }
 763:Drivers/STM32L0xx_HAL_Driver/Src/stm32l0xx_hal_dma.c ****   else
 764:Drivers/STM32L0xx_HAL_Driver/Src/stm32l0xx_hal_dma.c ****   {
 765:Drivers/STM32L0xx_HAL_Driver/Src/stm32l0xx_hal_dma.c ****     status = HAL_ERROR;
 766:Drivers/STM32L0xx_HAL_Driver/Src/stm32l0xx_hal_dma.c ****   }
 767:Drivers/STM32L0xx_HAL_Driver/Src/stm32l0xx_hal_dma.c **** 
 768:Drivers/STM32L0xx_HAL_Driver/Src/stm32l0xx_hal_dma.c ****   /* Release Lock */
 769:Drivers/STM32L0xx_HAL_Driver/Src/stm32l0xx_hal_dma.c ****   __HAL_UNLOCK(hdma);
 770:Drivers/STM32L0xx_HAL_Driver/Src/stm32l0xx_hal_dma.c **** 
 771:Drivers/STM32L0xx_HAL_Driver/Src/stm32l0xx_hal_dma.c ****   return status;
 772:Drivers/STM32L0xx_HAL_Driver/Src/stm32l0xx_hal_dma.c **** }
 773:Drivers/STM32L0xx_HAL_Driver/Src/stm32l0xx_hal_dma.c **** 
 774:Drivers/STM32L0xx_HAL_Driver/Src/stm32l0xx_hal_dma.c **** /**
 775:Drivers/STM32L0xx_HAL_Driver/Src/stm32l0xx_hal_dma.c ****   * @}
 776:Drivers/STM32L0xx_HAL_Driver/Src/stm32l0xx_hal_dma.c ****   */
 777:Drivers/STM32L0xx_HAL_Driver/Src/stm32l0xx_hal_dma.c **** 
 778:Drivers/STM32L0xx_HAL_Driver/Src/stm32l0xx_hal_dma.c **** 
 779:Drivers/STM32L0xx_HAL_Driver/Src/stm32l0xx_hal_dma.c **** 
 780:Drivers/STM32L0xx_HAL_Driver/Src/stm32l0xx_hal_dma.c **** /** @defgroup DMA_Exported_Functions_Group3 Peripheral State and Errors functions
 781:Drivers/STM32L0xx_HAL_Driver/Src/stm32l0xx_hal_dma.c ****  *  @brief    Peripheral State and Errors functions
 782:Drivers/STM32L0xx_HAL_Driver/Src/stm32l0xx_hal_dma.c ****  *
 783:Drivers/STM32L0xx_HAL_Driver/Src/stm32l0xx_hal_dma.c **** @verbatim
 784:Drivers/STM32L0xx_HAL_Driver/Src/stm32l0xx_hal_dma.c ****  ===============================================================================
 785:Drivers/STM32L0xx_HAL_Driver/Src/stm32l0xx_hal_dma.c ****             ##### Peripheral State and Errors functions #####
 786:Drivers/STM32L0xx_HAL_Driver/Src/stm32l0xx_hal_dma.c ****  ===============================================================================
 787:Drivers/STM32L0xx_HAL_Driver/Src/stm32l0xx_hal_dma.c ****     [..]
 788:Drivers/STM32L0xx_HAL_Driver/Src/stm32l0xx_hal_dma.c ****     This subsection provides functions allowing to
 789:Drivers/STM32L0xx_HAL_Driver/Src/stm32l0xx_hal_dma.c ****       (+) Check the DMA state
 790:Drivers/STM32L0xx_HAL_Driver/Src/stm32l0xx_hal_dma.c ****       (+) Get error code
 791:Drivers/STM32L0xx_HAL_Driver/Src/stm32l0xx_hal_dma.c **** 
 792:Drivers/STM32L0xx_HAL_Driver/Src/stm32l0xx_hal_dma.c **** @endverbatim
 793:Drivers/STM32L0xx_HAL_Driver/Src/stm32l0xx_hal_dma.c ****   * @{
 794:Drivers/STM32L0xx_HAL_Driver/Src/stm32l0xx_hal_dma.c ****   */
 795:Drivers/STM32L0xx_HAL_Driver/Src/stm32l0xx_hal_dma.c **** 
ARM GAS  /tmp/ccI53EIM.s 			page 23


 796:Drivers/STM32L0xx_HAL_Driver/Src/stm32l0xx_hal_dma.c **** /**
 797:Drivers/STM32L0xx_HAL_Driver/Src/stm32l0xx_hal_dma.c ****   * @brief  Return the DMA handle state.
 798:Drivers/STM32L0xx_HAL_Driver/Src/stm32l0xx_hal_dma.c ****   * @param  hdma pointer to a DMA_HandleTypeDef structure that contains
 799:Drivers/STM32L0xx_HAL_Driver/Src/stm32l0xx_hal_dma.c ****   *               the configuration information for the specified DMA Channel.
 800:Drivers/STM32L0xx_HAL_Driver/Src/stm32l0xx_hal_dma.c ****   * @retval HAL state
 801:Drivers/STM32L0xx_HAL_Driver/Src/stm32l0xx_hal_dma.c ****   */
 802:Drivers/STM32L0xx_HAL_Driver/Src/stm32l0xx_hal_dma.c **** HAL_DMA_StateTypeDef HAL_DMA_GetState(DMA_HandleTypeDef *hdma)
 803:Drivers/STM32L0xx_HAL_Driver/Src/stm32l0xx_hal_dma.c **** {
 804:Drivers/STM32L0xx_HAL_Driver/Src/stm32l0xx_hal_dma.c ****   /* Return DMA handle state */
 805:Drivers/STM32L0xx_HAL_Driver/Src/stm32l0xx_hal_dma.c ****   return hdma->State;
 806:Drivers/STM32L0xx_HAL_Driver/Src/stm32l0xx_hal_dma.c **** }
 807:Drivers/STM32L0xx_HAL_Driver/Src/stm32l0xx_hal_dma.c **** 
 808:Drivers/STM32L0xx_HAL_Driver/Src/stm32l0xx_hal_dma.c **** /**
 809:Drivers/STM32L0xx_HAL_Driver/Src/stm32l0xx_hal_dma.c ****   * @brief  Return the DMA error code.
 810:Drivers/STM32L0xx_HAL_Driver/Src/stm32l0xx_hal_dma.c ****   * @param  hdma : pointer to a DMA_HandleTypeDef structure that contains
 811:Drivers/STM32L0xx_HAL_Driver/Src/stm32l0xx_hal_dma.c ****   *              the configuration information for the specified DMA Channel.
 812:Drivers/STM32L0xx_HAL_Driver/Src/stm32l0xx_hal_dma.c ****   * @retval DMA Error Code
 813:Drivers/STM32L0xx_HAL_Driver/Src/stm32l0xx_hal_dma.c ****   */
 814:Drivers/STM32L0xx_HAL_Driver/Src/stm32l0xx_hal_dma.c **** uint32_t HAL_DMA_GetError(DMA_HandleTypeDef *hdma)
 815:Drivers/STM32L0xx_HAL_Driver/Src/stm32l0xx_hal_dma.c **** {
 816:Drivers/STM32L0xx_HAL_Driver/Src/stm32l0xx_hal_dma.c ****   return hdma->ErrorCode;
 817:Drivers/STM32L0xx_HAL_Driver/Src/stm32l0xx_hal_dma.c **** }
 818:Drivers/STM32L0xx_HAL_Driver/Src/stm32l0xx_hal_dma.c **** 
 819:Drivers/STM32L0xx_HAL_Driver/Src/stm32l0xx_hal_dma.c **** /**
 820:Drivers/STM32L0xx_HAL_Driver/Src/stm32l0xx_hal_dma.c ****   * @}
 821:Drivers/STM32L0xx_HAL_Driver/Src/stm32l0xx_hal_dma.c ****   */
 822:Drivers/STM32L0xx_HAL_Driver/Src/stm32l0xx_hal_dma.c **** 
 823:Drivers/STM32L0xx_HAL_Driver/Src/stm32l0xx_hal_dma.c **** /**
 824:Drivers/STM32L0xx_HAL_Driver/Src/stm32l0xx_hal_dma.c ****   * @}
 825:Drivers/STM32L0xx_HAL_Driver/Src/stm32l0xx_hal_dma.c ****   */
 826:Drivers/STM32L0xx_HAL_Driver/Src/stm32l0xx_hal_dma.c **** 
 827:Drivers/STM32L0xx_HAL_Driver/Src/stm32l0xx_hal_dma.c **** /** @addtogroup DMA_Private_Functions
 828:Drivers/STM32L0xx_HAL_Driver/Src/stm32l0xx_hal_dma.c ****   * @{
 829:Drivers/STM32L0xx_HAL_Driver/Src/stm32l0xx_hal_dma.c ****   */
 830:Drivers/STM32L0xx_HAL_Driver/Src/stm32l0xx_hal_dma.c **** 
 831:Drivers/STM32L0xx_HAL_Driver/Src/stm32l0xx_hal_dma.c **** /**
 832:Drivers/STM32L0xx_HAL_Driver/Src/stm32l0xx_hal_dma.c ****   * @brief  Sets the DMA Transfer parameter.
 833:Drivers/STM32L0xx_HAL_Driver/Src/stm32l0xx_hal_dma.c ****   * @param  hdma       pointer to a DMA_HandleTypeDef structure that contains
 834:Drivers/STM32L0xx_HAL_Driver/Src/stm32l0xx_hal_dma.c ****   *                     the configuration information for the specified DMA Channel.
 835:Drivers/STM32L0xx_HAL_Driver/Src/stm32l0xx_hal_dma.c ****   * @param  SrcAddress The source memory Buffer address
 836:Drivers/STM32L0xx_HAL_Driver/Src/stm32l0xx_hal_dma.c ****   * @param  DstAddress The destination memory Buffer address
 837:Drivers/STM32L0xx_HAL_Driver/Src/stm32l0xx_hal_dma.c ****   * @param  DataLength The length of data to be transferred from source to destination
 838:Drivers/STM32L0xx_HAL_Driver/Src/stm32l0xx_hal_dma.c ****   * @retval HAL status
 839:Drivers/STM32L0xx_HAL_Driver/Src/stm32l0xx_hal_dma.c ****   */
 840:Drivers/STM32L0xx_HAL_Driver/Src/stm32l0xx_hal_dma.c **** static void DMA_SetConfig(DMA_HandleTypeDef *hdma, uint32_t SrcAddress, uint32_t DstAddress, uint32
 841:Drivers/STM32L0xx_HAL_Driver/Src/stm32l0xx_hal_dma.c **** {
 842:Drivers/STM32L0xx_HAL_Driver/Src/stm32l0xx_hal_dma.c ****   /* Clear all flags */
 843:Drivers/STM32L0xx_HAL_Driver/Src/stm32l0xx_hal_dma.c ****   hdma->DmaBaseAddress->IFCR = (DMA_ISR_GIF1 << (hdma->ChannelIndex & 0x1cU));
 411              		.loc 1 843 69 is_stmt 0 view .LVU152
 412 002e 093F     		subs	r7, r7, #9
 413              	.LBE7:
 414              	.LBE6:
 311:Drivers/STM32L0xx_HAL_Driver/Src/stm32l0xx_hal_dma.c **** 
 415              		.loc 1 311 5 view .LVU153
 416 0030 2568     		ldr	r5, [r4]
 417 0032 B543     		bics	r5, r6
 418 0034 2560     		str	r5, [r4]
ARM GAS  /tmp/ccI53EIM.s 			page 24


 314:Drivers/STM32L0xx_HAL_Driver/Src/stm32l0xx_hal_dma.c **** 
 419              		.loc 1 314 5 is_stmt 1 view .LVU154
 420              	.LVL22:
 421              	.LBB10:
 422              	.LBI6:
 840:Drivers/STM32L0xx_HAL_Driver/Src/stm32l0xx_hal_dma.c **** {
 423              		.loc 1 840 13 view .LVU155
 424              	.LBB8:
 425              		.loc 1 843 3 view .LVU156
 426              		.loc 1 843 7 is_stmt 0 view .LVU157
 427 0036 056C     		ldr	r5, [r0, #64]
 428 0038 0195     		str	r5, [sp, #4]
 429              		.loc 1 843 69 view .LVU158
 430 003a 456C     		ldr	r5, [r0, #68]
 431 003c 2F40     		ands	r7, r5
 432              		.loc 1 843 46 view .LVU159
 433 003e BE40     		lsls	r6, r6, r7
 434              		.loc 1 843 30 view .LVU160
 435 0040 019D     		ldr	r5, [sp, #4]
 436 0042 6E60     		str	r6, [r5, #4]
 844:Drivers/STM32L0xx_HAL_Driver/Src/stm32l0xx_hal_dma.c **** 
 845:Drivers/STM32L0xx_HAL_Driver/Src/stm32l0xx_hal_dma.c ****   /* Configure DMA Channel data length */
 846:Drivers/STM32L0xx_HAL_Driver/Src/stm32l0xx_hal_dma.c ****   hdma->Instance->CNDTR = DataLength;
 437              		.loc 1 846 3 is_stmt 1 view .LVU161
 438              		.loc 1 846 25 is_stmt 0 view .LVU162
 439 0044 6360     		str	r3, [r4, #4]
 847:Drivers/STM32L0xx_HAL_Driver/Src/stm32l0xx_hal_dma.c **** 
 848:Drivers/STM32L0xx_HAL_Driver/Src/stm32l0xx_hal_dma.c ****   /* Memory to Peripheral */
 849:Drivers/STM32L0xx_HAL_Driver/Src/stm32l0xx_hal_dma.c ****   if((hdma->Init.Direction) == DMA_MEMORY_TO_PERIPH)
 440              		.loc 1 849 3 is_stmt 1 view .LVU163
 441              		.loc 1 849 5 is_stmt 0 view .LVU164
 442 0046 8368     		ldr	r3, [r0, #8]
 443              	.LVL23:
 444              		.loc 1 849 5 view .LVU165
 445 0048 102B     		cmp	r3, #16
 446 004a 07D0     		beq	.L20
 850:Drivers/STM32L0xx_HAL_Driver/Src/stm32l0xx_hal_dma.c ****   {
 851:Drivers/STM32L0xx_HAL_Driver/Src/stm32l0xx_hal_dma.c ****     /* Configure DMA Channel destination address */
 852:Drivers/STM32L0xx_HAL_Driver/Src/stm32l0xx_hal_dma.c ****     hdma->Instance->CPAR = DstAddress;
 853:Drivers/STM32L0xx_HAL_Driver/Src/stm32l0xx_hal_dma.c **** 
 854:Drivers/STM32L0xx_HAL_Driver/Src/stm32l0xx_hal_dma.c ****     /* Configure DMA Channel source address */
 855:Drivers/STM32L0xx_HAL_Driver/Src/stm32l0xx_hal_dma.c ****     hdma->Instance->CMAR = SrcAddress;
 856:Drivers/STM32L0xx_HAL_Driver/Src/stm32l0xx_hal_dma.c ****   }
 857:Drivers/STM32L0xx_HAL_Driver/Src/stm32l0xx_hal_dma.c ****   /* Peripheral to Memory */
 858:Drivers/STM32L0xx_HAL_Driver/Src/stm32l0xx_hal_dma.c ****   else
 859:Drivers/STM32L0xx_HAL_Driver/Src/stm32l0xx_hal_dma.c ****   {
 860:Drivers/STM32L0xx_HAL_Driver/Src/stm32l0xx_hal_dma.c ****     /* Configure DMA Channel source address */
 861:Drivers/STM32L0xx_HAL_Driver/Src/stm32l0xx_hal_dma.c ****     hdma->Instance->CPAR = SrcAddress;
 447              		.loc 1 861 5 is_stmt 1 view .LVU166
 448              		.loc 1 861 26 is_stmt 0 view .LVU167
 449 004c A160     		str	r1, [r4, #8]
 450              	.LVL24:
 862:Drivers/STM32L0xx_HAL_Driver/Src/stm32l0xx_hal_dma.c **** 
 863:Drivers/STM32L0xx_HAL_Driver/Src/stm32l0xx_hal_dma.c ****     /* Configure DMA Channel destination address */
 864:Drivers/STM32L0xx_HAL_Driver/Src/stm32l0xx_hal_dma.c ****     hdma->Instance->CMAR = DstAddress;
 451              		.loc 1 864 5 is_stmt 1 view .LVU168
 452              		.loc 1 864 26 is_stmt 0 view .LVU169
ARM GAS  /tmp/ccI53EIM.s 			page 25


 453 004e E260     		str	r2, [r4, #12]
 454              	.L17:
 455              	.LVL25:
 456              		.loc 1 864 26 view .LVU170
 457              	.LBE8:
 458              	.LBE10:
 317:Drivers/STM32L0xx_HAL_Driver/Src/stm32l0xx_hal_dma.c ****   }
 459              		.loc 1 317 5 is_stmt 1 view .LVU171
 460 0050 0122     		movs	r2, #1
 461              	.LVL26:
 317:Drivers/STM32L0xx_HAL_Driver/Src/stm32l0xx_hal_dma.c ****   }
 462              		.loc 1 317 5 is_stmt 0 view .LVU172
 463 0052 2368     		ldr	r3, [r4]
 296:Drivers/STM32L0xx_HAL_Driver/Src/stm32l0xx_hal_dma.c **** 
 464              		.loc 1 296 21 view .LVU173
 465 0054 0020     		movs	r0, #0
 466              	.LVL27:
 317:Drivers/STM32L0xx_HAL_Driver/Src/stm32l0xx_hal_dma.c ****   }
 467              		.loc 1 317 5 view .LVU174
 468 0056 1343     		orrs	r3, r2
 469 0058 2360     		str	r3, [r4]
 470 005a E1E7     		b	.L14
 471              	.LVL28:
 472              	.L20:
 473              	.LBB11:
 474              	.LBB9:
 852:Drivers/STM32L0xx_HAL_Driver/Src/stm32l0xx_hal_dma.c **** 
 475              		.loc 1 852 5 is_stmt 1 view .LVU175
 852:Drivers/STM32L0xx_HAL_Driver/Src/stm32l0xx_hal_dma.c **** 
 476              		.loc 1 852 26 is_stmt 0 view .LVU176
 477 005c A260     		str	r2, [r4, #8]
 478              	.LVL29:
 855:Drivers/STM32L0xx_HAL_Driver/Src/stm32l0xx_hal_dma.c ****   }
 479              		.loc 1 855 5 is_stmt 1 view .LVU177
 855:Drivers/STM32L0xx_HAL_Driver/Src/stm32l0xx_hal_dma.c ****   }
 480              		.loc 1 855 26 is_stmt 0 view .LVU178
 481 005e E160     		str	r1, [r4, #12]
 482 0060 F6E7     		b	.L17
 483              	.LVL30:
 484              	.L18:
 855:Drivers/STM32L0xx_HAL_Driver/Src/stm32l0xx_hal_dma.c ****   }
 485              		.loc 1 855 26 view .LVU179
 486              	.LBE9:
 487              	.LBE11:
 302:Drivers/STM32L0xx_HAL_Driver/Src/stm32l0xx_hal_dma.c **** 
 488              		.loc 1 302 3 view .LVU180
 489 0062 0220     		movs	r0, #2
 490              	.LVL31:
 302:Drivers/STM32L0xx_HAL_Driver/Src/stm32l0xx_hal_dma.c **** 
 491              		.loc 1 302 3 view .LVU181
 492 0064 DCE7     		b	.L14
 493              		.cfi_endproc
 494              	.LFE36:
 496 0066 C046     		.section	.text.HAL_DMA_Start_IT,"ax",%progbits
 497              		.align	1
 498              		.p2align 2,,3
 499              		.global	HAL_DMA_Start_IT
ARM GAS  /tmp/ccI53EIM.s 			page 26


 500              		.syntax unified
 501              		.code	16
 502              		.thumb_func
 503              		.fpu softvfp
 505              	HAL_DMA_Start_IT:
 506              	.LVL32:
 507              	.LFB37:
 338:Drivers/STM32L0xx_HAL_Driver/Src/stm32l0xx_hal_dma.c ****   HAL_StatusTypeDef status = HAL_OK;
 508              		.loc 1 338 1 is_stmt 1 view -0
 509              		.cfi_startproc
 510              		@ args = 0, pretend = 0, frame = 8
 511              		@ frame_needed = 0, uses_anonymous_args = 0
 339:Drivers/STM32L0xx_HAL_Driver/Src/stm32l0xx_hal_dma.c **** 
 512              		.loc 1 339 3 view .LVU183
 342:Drivers/STM32L0xx_HAL_Driver/Src/stm32l0xx_hal_dma.c **** 
 513              		.loc 1 342 3 view .LVU184
 345:Drivers/STM32L0xx_HAL_Driver/Src/stm32l0xx_hal_dma.c **** 
 514              		.loc 1 345 3 view .LVU185
 345:Drivers/STM32L0xx_HAL_Driver/Src/stm32l0xx_hal_dma.c **** 
 515              		.loc 1 345 3 view .LVU186
 338:Drivers/STM32L0xx_HAL_Driver/Src/stm32l0xx_hal_dma.c ****   HAL_StatusTypeDef status = HAL_OK;
 516              		.loc 1 338 1 is_stmt 0 view .LVU187
 517 0000 F0B5     		push	{r4, r5, r6, r7, lr}
 518              	.LCFI4:
 519              		.cfi_def_cfa_offset 20
 520              		.cfi_offset 4, -20
 521              		.cfi_offset 5, -16
 522              		.cfi_offset 6, -12
 523              		.cfi_offset 7, -8
 524              		.cfi_offset 14, -4
 345:Drivers/STM32L0xx_HAL_Driver/Src/stm32l0xx_hal_dma.c **** 
 525              		.loc 1 345 3 view .LVU188
 526 0002 2424     		movs	r4, #36
 527 0004 055D     		ldrb	r5, [r0, r4]
 338:Drivers/STM32L0xx_HAL_Driver/Src/stm32l0xx_hal_dma.c ****   HAL_StatusTypeDef status = HAL_OK;
 528              		.loc 1 338 1 view .LVU189
 529 0006 83B0     		sub	sp, sp, #12
 530              	.LCFI5:
 531              		.cfi_def_cfa_offset 32
 345:Drivers/STM32L0xx_HAL_Driver/Src/stm32l0xx_hal_dma.c **** 
 532              		.loc 1 345 3 view .LVU190
 533 0008 012D     		cmp	r5, #1
 534 000a 3CD0     		beq	.L28
 345:Drivers/STM32L0xx_HAL_Driver/Src/stm32l0xx_hal_dma.c **** 
 535              		.loc 1 345 3 is_stmt 1 discriminator 2 view .LVU191
 536 000c 0125     		movs	r5, #1
 347:Drivers/STM32L0xx_HAL_Driver/Src/stm32l0xx_hal_dma.c ****   {
 537              		.loc 1 347 33 is_stmt 0 discriminator 2 view .LVU192
 538 000e 2527     		movs	r7, #37
 345:Drivers/STM32L0xx_HAL_Driver/Src/stm32l0xx_hal_dma.c **** 
 539              		.loc 1 345 3 discriminator 2 view .LVU193
 540 0010 0555     		strb	r5, [r0, r4]
 345:Drivers/STM32L0xx_HAL_Driver/Src/stm32l0xx_hal_dma.c **** 
 541              		.loc 1 345 3 is_stmt 1 discriminator 2 view .LVU194
 347:Drivers/STM32L0xx_HAL_Driver/Src/stm32l0xx_hal_dma.c ****   {
 542              		.loc 1 347 3 discriminator 2 view .LVU195
 347:Drivers/STM32L0xx_HAL_Driver/Src/stm32l0xx_hal_dma.c ****   {
ARM GAS  /tmp/ccI53EIM.s 			page 27


 543              		.loc 1 347 33 is_stmt 0 discriminator 2 view .LVU196
 544 0012 C55D     		ldrb	r5, [r0, r7]
 545 0014 EEB2     		uxtb	r6, r5
 347:Drivers/STM32L0xx_HAL_Driver/Src/stm32l0xx_hal_dma.c ****   {
 546              		.loc 1 347 5 discriminator 2 view .LVU197
 547 0016 012D     		cmp	r5, #1
 548 0018 04D0     		beq	.L29
 378:Drivers/STM32L0xx_HAL_Driver/Src/stm32l0xx_hal_dma.c **** 
 549              		.loc 1 378 5 is_stmt 1 view .LVU198
 378:Drivers/STM32L0xx_HAL_Driver/Src/stm32l0xx_hal_dma.c **** 
 550              		.loc 1 378 5 view .LVU199
 551 001a 0023     		movs	r3, #0
 552              	.LVL33:
 378:Drivers/STM32L0xx_HAL_Driver/Src/stm32l0xx_hal_dma.c **** 
 553              		.loc 1 378 5 is_stmt 0 view .LVU200
 554 001c 0355     		strb	r3, [r0, r4]
 378:Drivers/STM32L0xx_HAL_Driver/Src/stm32l0xx_hal_dma.c **** 
 555              		.loc 1 378 5 is_stmt 1 view .LVU201
 381:Drivers/STM32L0xx_HAL_Driver/Src/stm32l0xx_hal_dma.c ****   }
 556              		.loc 1 381 5 view .LVU202
 557              	.LVL34:
 381:Drivers/STM32L0xx_HAL_Driver/Src/stm32l0xx_hal_dma.c ****   }
 558              		.loc 1 381 12 is_stmt 0 view .LVU203
 559 001e 0220     		movs	r0, #2
 560              	.LVL35:
 561              	.L22:
 384:Drivers/STM32L0xx_HAL_Driver/Src/stm32l0xx_hal_dma.c **** 
 562              		.loc 1 384 1 view .LVU204
 563 0020 03B0     		add	sp, sp, #12
 564              		@ sp needed
 565 0022 F0BD     		pop	{r4, r5, r6, r7, pc}
 566              	.LVL36:
 567              	.L29:
 350:Drivers/STM32L0xx_HAL_Driver/Src/stm32l0xx_hal_dma.c ****     hdma->ErrorCode = HAL_DMA_ERROR_NONE;
 568              		.loc 1 350 5 is_stmt 1 view .LVU205
 350:Drivers/STM32L0xx_HAL_Driver/Src/stm32l0xx_hal_dma.c ****     hdma->ErrorCode = HAL_DMA_ERROR_NONE;
 569              		.loc 1 350 17 is_stmt 0 view .LVU206
 570 0024 223C     		subs	r4, r4, #34
 571 0026 C455     		strb	r4, [r0, r7]
 351:Drivers/STM32L0xx_HAL_Driver/Src/stm32l0xx_hal_dma.c **** 
 572              		.loc 1 351 5 is_stmt 1 view .LVU207
 351:Drivers/STM32L0xx_HAL_Driver/Src/stm32l0xx_hal_dma.c **** 
 573              		.loc 1 351 21 is_stmt 0 view .LVU208
 574 0028 0024     		movs	r4, #0
 575 002a C463     		str	r4, [r0, #60]
 354:Drivers/STM32L0xx_HAL_Driver/Src/stm32l0xx_hal_dma.c **** 
 576              		.loc 1 354 5 is_stmt 1 view .LVU209
 577 002c 0468     		ldr	r4, [r0]
 578              	.LBB12:
 579              	.LBB13:
 843:Drivers/STM32L0xx_HAL_Driver/Src/stm32l0xx_hal_dma.c **** 
 580              		.loc 1 843 69 is_stmt 0 view .LVU210
 581 002e 093F     		subs	r7, r7, #9
 582              	.LBE13:
 583              	.LBE12:
 354:Drivers/STM32L0xx_HAL_Driver/Src/stm32l0xx_hal_dma.c **** 
 584              		.loc 1 354 5 view .LVU211
ARM GAS  /tmp/ccI53EIM.s 			page 28


 585 0030 2568     		ldr	r5, [r4]
 586 0032 B543     		bics	r5, r6
 587 0034 2560     		str	r5, [r4]
 357:Drivers/STM32L0xx_HAL_Driver/Src/stm32l0xx_hal_dma.c **** 
 588              		.loc 1 357 5 is_stmt 1 view .LVU212
 589              	.LVL37:
 590              	.LBB18:
 591              	.LBI12:
 840:Drivers/STM32L0xx_HAL_Driver/Src/stm32l0xx_hal_dma.c **** {
 592              		.loc 1 840 13 view .LVU213
 593              	.LBB14:
 843:Drivers/STM32L0xx_HAL_Driver/Src/stm32l0xx_hal_dma.c **** 
 594              		.loc 1 843 3 view .LVU214
 843:Drivers/STM32L0xx_HAL_Driver/Src/stm32l0xx_hal_dma.c **** 
 595              		.loc 1 843 7 is_stmt 0 view .LVU215
 596 0036 056C     		ldr	r5, [r0, #64]
 597 0038 0195     		str	r5, [sp, #4]
 843:Drivers/STM32L0xx_HAL_Driver/Src/stm32l0xx_hal_dma.c **** 
 598              		.loc 1 843 69 view .LVU216
 599 003a 456C     		ldr	r5, [r0, #68]
 600 003c 2F40     		ands	r7, r5
 843:Drivers/STM32L0xx_HAL_Driver/Src/stm32l0xx_hal_dma.c **** 
 601              		.loc 1 843 46 view .LVU217
 602 003e BE40     		lsls	r6, r6, r7
 843:Drivers/STM32L0xx_HAL_Driver/Src/stm32l0xx_hal_dma.c **** 
 603              		.loc 1 843 30 view .LVU218
 604 0040 019D     		ldr	r5, [sp, #4]
 605 0042 6E60     		str	r6, [r5, #4]
 846:Drivers/STM32L0xx_HAL_Driver/Src/stm32l0xx_hal_dma.c **** 
 606              		.loc 1 846 3 is_stmt 1 view .LVU219
 846:Drivers/STM32L0xx_HAL_Driver/Src/stm32l0xx_hal_dma.c **** 
 607              		.loc 1 846 25 is_stmt 0 view .LVU220
 608 0044 6360     		str	r3, [r4, #4]
 849:Drivers/STM32L0xx_HAL_Driver/Src/stm32l0xx_hal_dma.c ****   {
 609              		.loc 1 849 3 is_stmt 1 view .LVU221
 849:Drivers/STM32L0xx_HAL_Driver/Src/stm32l0xx_hal_dma.c ****   {
 610              		.loc 1 849 5 is_stmt 0 view .LVU222
 611 0046 8368     		ldr	r3, [r0, #8]
 612              	.LVL38:
 849:Drivers/STM32L0xx_HAL_Driver/Src/stm32l0xx_hal_dma.c ****   {
 613              		.loc 1 849 5 view .LVU223
 614 0048 102B     		cmp	r3, #16
 615 004a 0ED0     		beq	.L30
 861:Drivers/STM32L0xx_HAL_Driver/Src/stm32l0xx_hal_dma.c **** 
 616              		.loc 1 861 5 is_stmt 1 view .LVU224
 617              	.LBE14:
 618              	.LBE18:
 361:Drivers/STM32L0xx_HAL_Driver/Src/stm32l0xx_hal_dma.c ****     {
 619              		.loc 1 361 7 is_stmt 0 view .LVU225
 620 004c 036B     		ldr	r3, [r0, #48]
 621              	.LBB19:
 622              	.LBB15:
 861:Drivers/STM32L0xx_HAL_Driver/Src/stm32l0xx_hal_dma.c **** 
 623              		.loc 1 861 26 view .LVU226
 624 004e A160     		str	r1, [r4, #8]
 625              	.LVL39:
 626              		.loc 1 864 5 is_stmt 1 view .LVU227
ARM GAS  /tmp/ccI53EIM.s 			page 29


 627              		.loc 1 864 26 is_stmt 0 view .LVU228
 628 0050 E260     		str	r2, [r4, #12]
 629              	.LVL40:
 630              		.loc 1 864 26 view .LVU229
 631              	.LBE15:
 632              	.LBE19:
 361:Drivers/STM32L0xx_HAL_Driver/Src/stm32l0xx_hal_dma.c ****     {
 633              		.loc 1 361 5 is_stmt 1 view .LVU230
 361:Drivers/STM32L0xx_HAL_Driver/Src/stm32l0xx_hal_dma.c ****     {
 634              		.loc 1 361 7 is_stmt 0 view .LVU231
 635 0052 002B     		cmp	r3, #0
 636 0054 0ED0     		beq	.L26
 637              	.L31:
 364:Drivers/STM32L0xx_HAL_Driver/Src/stm32l0xx_hal_dma.c ****     }
 638              		.loc 1 364 7 is_stmt 1 view .LVU232
 639 0056 0E22     		movs	r2, #14
 640              	.LVL41:
 364:Drivers/STM32L0xx_HAL_Driver/Src/stm32l0xx_hal_dma.c ****     }
 641              		.loc 1 364 7 is_stmt 0 view .LVU233
 642 0058 2368     		ldr	r3, [r4]
 643 005a 1343     		orrs	r3, r2
 644 005c 2360     		str	r3, [r4]
 645              	.L27:
 373:Drivers/STM32L0xx_HAL_Driver/Src/stm32l0xx_hal_dma.c ****   }
 646              		.loc 1 373 5 is_stmt 1 view .LVU234
 647 005e 0122     		movs	r2, #1
 648 0060 2368     		ldr	r3, [r4]
 339:Drivers/STM32L0xx_HAL_Driver/Src/stm32l0xx_hal_dma.c **** 
 649              		.loc 1 339 21 is_stmt 0 view .LVU235
 650 0062 0020     		movs	r0, #0
 651              	.LVL42:
 373:Drivers/STM32L0xx_HAL_Driver/Src/stm32l0xx_hal_dma.c ****   }
 652              		.loc 1 373 5 view .LVU236
 653 0064 1343     		orrs	r3, r2
 654 0066 2360     		str	r3, [r4]
 655 0068 DAE7     		b	.L22
 656              	.LVL43:
 657              	.L30:
 658              	.LBB20:
 659              	.LBB16:
 852:Drivers/STM32L0xx_HAL_Driver/Src/stm32l0xx_hal_dma.c **** 
 660              		.loc 1 852 5 is_stmt 1 view .LVU237
 661              	.LBE16:
 662              	.LBE20:
 361:Drivers/STM32L0xx_HAL_Driver/Src/stm32l0xx_hal_dma.c ****     {
 663              		.loc 1 361 7 is_stmt 0 view .LVU238
 664 006a 036B     		ldr	r3, [r0, #48]
 665              	.LBB21:
 666              	.LBB17:
 852:Drivers/STM32L0xx_HAL_Driver/Src/stm32l0xx_hal_dma.c **** 
 667              		.loc 1 852 26 view .LVU239
 668 006c A260     		str	r2, [r4, #8]
 669              	.LVL44:
 855:Drivers/STM32L0xx_HAL_Driver/Src/stm32l0xx_hal_dma.c ****   }
 670              		.loc 1 855 5 is_stmt 1 view .LVU240
 855:Drivers/STM32L0xx_HAL_Driver/Src/stm32l0xx_hal_dma.c ****   }
 671              		.loc 1 855 26 is_stmt 0 view .LVU241
ARM GAS  /tmp/ccI53EIM.s 			page 30


 672 006e E160     		str	r1, [r4, #12]
 673              	.LVL45:
 855:Drivers/STM32L0xx_HAL_Driver/Src/stm32l0xx_hal_dma.c ****   }
 674              		.loc 1 855 26 view .LVU242
 675              	.LBE17:
 676              	.LBE21:
 361:Drivers/STM32L0xx_HAL_Driver/Src/stm32l0xx_hal_dma.c ****     {
 677              		.loc 1 361 5 is_stmt 1 view .LVU243
 361:Drivers/STM32L0xx_HAL_Driver/Src/stm32l0xx_hal_dma.c ****     {
 678              		.loc 1 361 7 is_stmt 0 view .LVU244
 679 0070 002B     		cmp	r3, #0
 680 0072 F0D1     		bne	.L31
 681              	.L26:
 368:Drivers/STM32L0xx_HAL_Driver/Src/stm32l0xx_hal_dma.c ****       __HAL_DMA_ENABLE_IT(hdma, (DMA_IT_TC | DMA_IT_TE));
 682              		.loc 1 368 7 is_stmt 1 view .LVU245
 683 0074 0422     		movs	r2, #4
 684              	.LVL46:
 368:Drivers/STM32L0xx_HAL_Driver/Src/stm32l0xx_hal_dma.c ****       __HAL_DMA_ENABLE_IT(hdma, (DMA_IT_TC | DMA_IT_TE));
 685              		.loc 1 368 7 is_stmt 0 view .LVU246
 686 0076 2368     		ldr	r3, [r4]
 687 0078 9343     		bics	r3, r2
 688 007a 2360     		str	r3, [r4]
 369:Drivers/STM32L0xx_HAL_Driver/Src/stm32l0xx_hal_dma.c ****     }
 689              		.loc 1 369 7 is_stmt 1 view .LVU247
 690 007c 2368     		ldr	r3, [r4]
 691 007e 0632     		adds	r2, r2, #6
 692 0080 1343     		orrs	r3, r2
 693 0082 2360     		str	r3, [r4]
 694 0084 EBE7     		b	.L27
 695              	.LVL47:
 696              	.L28:
 345:Drivers/STM32L0xx_HAL_Driver/Src/stm32l0xx_hal_dma.c **** 
 697              		.loc 1 345 3 is_stmt 0 view .LVU248
 698 0086 0220     		movs	r0, #2
 699              	.LVL48:
 345:Drivers/STM32L0xx_HAL_Driver/Src/stm32l0xx_hal_dma.c **** 
 700              		.loc 1 345 3 view .LVU249
 701 0088 CAE7     		b	.L22
 702              		.cfi_endproc
 703              	.LFE37:
 705              		.section	.text.HAL_DMA_Abort,"ax",%progbits
 706              		.align	1
 707              		.p2align 2,,3
 708              		.global	HAL_DMA_Abort
 709              		.syntax unified
 710              		.code	16
 711              		.thumb_func
 712              		.fpu softvfp
 714              	HAL_DMA_Abort:
 715              	.LVL49:
 716              	.LFB38:
 393:Drivers/STM32L0xx_HAL_Driver/Src/stm32l0xx_hal_dma.c ****   HAL_StatusTypeDef status = HAL_OK;
 717              		.loc 1 393 1 is_stmt 1 view -0
 718              		.cfi_startproc
 719              		@ args = 0, pretend = 0, frame = 0
 720              		@ frame_needed = 0, uses_anonymous_args = 0
 394:Drivers/STM32L0xx_HAL_Driver/Src/stm32l0xx_hal_dma.c **** 
ARM GAS  /tmp/ccI53EIM.s 			page 31


 721              		.loc 1 394 3 view .LVU251
 397:Drivers/STM32L0xx_HAL_Driver/Src/stm32l0xx_hal_dma.c ****   {
 722              		.loc 1 397 3 view .LVU252
 397:Drivers/STM32L0xx_HAL_Driver/Src/stm32l0xx_hal_dma.c ****   {
 723              		.loc 1 397 10 is_stmt 0 view .LVU253
 724 0000 2523     		movs	r3, #37
 393:Drivers/STM32L0xx_HAL_Driver/Src/stm32l0xx_hal_dma.c ****   HAL_StatusTypeDef status = HAL_OK;
 725              		.loc 1 393 1 view .LVU254
 726 0002 30B5     		push	{r4, r5, lr}
 727              	.LCFI6:
 728              		.cfi_def_cfa_offset 12
 729              		.cfi_offset 4, -12
 730              		.cfi_offset 5, -8
 731              		.cfi_offset 14, -4
 397:Drivers/STM32L0xx_HAL_Driver/Src/stm32l0xx_hal_dma.c ****   {
 732              		.loc 1 397 10 view .LVU255
 733 0004 C25C     		ldrb	r2, [r0, r3]
 397:Drivers/STM32L0xx_HAL_Driver/Src/stm32l0xx_hal_dma.c ****   {
 734              		.loc 1 397 5 view .LVU256
 735 0006 022A     		cmp	r2, #2
 736 0008 06D0     		beq	.L33
 399:Drivers/STM32L0xx_HAL_Driver/Src/stm32l0xx_hal_dma.c **** 
 737              		.loc 1 399 5 is_stmt 1 view .LVU257
 402:Drivers/STM32L0xx_HAL_Driver/Src/stm32l0xx_hal_dma.c **** 
 738              		.loc 1 402 5 is_stmt 0 view .LVU258
 739 000a 0022     		movs	r2, #0
 399:Drivers/STM32L0xx_HAL_Driver/Src/stm32l0xx_hal_dma.c **** 
 740              		.loc 1 399 21 view .LVU259
 741 000c 213B     		subs	r3, r3, #33
 742 000e C363     		str	r3, [r0, #60]
 402:Drivers/STM32L0xx_HAL_Driver/Src/stm32l0xx_hal_dma.c **** 
 743              		.loc 1 402 5 is_stmt 1 view .LVU260
 402:Drivers/STM32L0xx_HAL_Driver/Src/stm32l0xx_hal_dma.c **** 
 744              		.loc 1 402 5 view .LVU261
 745 0010 2033     		adds	r3, r3, #32
 746 0012 C254     		strb	r2, [r0, r3]
 402:Drivers/STM32L0xx_HAL_Driver/Src/stm32l0xx_hal_dma.c **** 
 747              		.loc 1 402 5 view .LVU262
 404:Drivers/STM32L0xx_HAL_Driver/Src/stm32l0xx_hal_dma.c ****   }
 748              		.loc 1 404 5 view .LVU263
 404:Drivers/STM32L0xx_HAL_Driver/Src/stm32l0xx_hal_dma.c ****   }
 749              		.loc 1 404 12 is_stmt 0 view .LVU264
 750 0014 0120     		movs	r0, #1
 751              	.LVL50:
 752              	.L34:
 425:Drivers/STM32L0xx_HAL_Driver/Src/stm32l0xx_hal_dma.c **** 
 753              		.loc 1 425 1 view .LVU265
 754              		@ sp needed
 755 0016 30BD     		pop	{r4, r5, pc}
 756              	.LVL51:
 757              	.L33:
 409:Drivers/STM32L0xx_HAL_Driver/Src/stm32l0xx_hal_dma.c **** 
 758              		.loc 1 409 5 is_stmt 1 view .LVU266
 759 0018 0E24     		movs	r4, #14
 760 001a 0268     		ldr	r2, [r0]
 415:Drivers/STM32L0xx_HAL_Driver/Src/stm32l0xx_hal_dma.c **** 
 761              		.loc 1 415 71 is_stmt 0 view .LVU267
ARM GAS  /tmp/ccI53EIM.s 			page 32


 762 001c 456C     		ldr	r5, [r0, #68]
 409:Drivers/STM32L0xx_HAL_Driver/Src/stm32l0xx_hal_dma.c **** 
 763              		.loc 1 409 5 view .LVU268
 764 001e 1168     		ldr	r1, [r2]
 765 0020 A143     		bics	r1, r4
 766 0022 1160     		str	r1, [r2]
 412:Drivers/STM32L0xx_HAL_Driver/Src/stm32l0xx_hal_dma.c **** 
 767              		.loc 1 412 5 is_stmt 1 view .LVU269
 768 0024 0121     		movs	r1, #1
 769 0026 1468     		ldr	r4, [r2]
 770 0028 8C43     		bics	r4, r1
 771 002a 1460     		str	r4, [r2]
 415:Drivers/STM32L0xx_HAL_Driver/Src/stm32l0xx_hal_dma.c **** 
 772              		.loc 1 415 5 view .LVU270
 415:Drivers/STM32L0xx_HAL_Driver/Src/stm32l0xx_hal_dma.c **** 
 773              		.loc 1 415 71 is_stmt 0 view .LVU271
 774 002c 1C22     		movs	r2, #28
 775 002e 2A40     		ands	r2, r5
 415:Drivers/STM32L0xx_HAL_Driver/Src/stm32l0xx_hal_dma.c **** 
 776              		.loc 1 415 48 view .LVU272
 777 0030 0D00     		movs	r5, r1
 778 0032 9540     		lsls	r5, r5, r2
 415:Drivers/STM32L0xx_HAL_Driver/Src/stm32l0xx_hal_dma.c **** 
 779              		.loc 1 415 9 view .LVU273
 780 0034 046C     		ldr	r4, [r0, #64]
 421:Drivers/STM32L0xx_HAL_Driver/Src/stm32l0xx_hal_dma.c **** 
 781              		.loc 1 421 5 view .LVU274
 782 0036 0022     		movs	r2, #0
 415:Drivers/STM32L0xx_HAL_Driver/Src/stm32l0xx_hal_dma.c **** 
 783              		.loc 1 415 32 view .LVU275
 784 0038 6560     		str	r5, [r4, #4]
 418:Drivers/STM32L0xx_HAL_Driver/Src/stm32l0xx_hal_dma.c **** 
 785              		.loc 1 418 5 is_stmt 1 view .LVU276
 418:Drivers/STM32L0xx_HAL_Driver/Src/stm32l0xx_hal_dma.c **** 
 786              		.loc 1 418 17 is_stmt 0 view .LVU277
 787 003a C154     		strb	r1, [r0, r3]
 421:Drivers/STM32L0xx_HAL_Driver/Src/stm32l0xx_hal_dma.c **** 
 788              		.loc 1 421 5 is_stmt 1 view .LVU278
 421:Drivers/STM32L0xx_HAL_Driver/Src/stm32l0xx_hal_dma.c **** 
 789              		.loc 1 421 5 view .LVU279
 790 003c 2423     		movs	r3, #36
 791 003e C254     		strb	r2, [r0, r3]
 421:Drivers/STM32L0xx_HAL_Driver/Src/stm32l0xx_hal_dma.c **** 
 792              		.loc 1 421 5 view .LVU280
 423:Drivers/STM32L0xx_HAL_Driver/Src/stm32l0xx_hal_dma.c ****   }
 793              		.loc 1 423 5 view .LVU281
 423:Drivers/STM32L0xx_HAL_Driver/Src/stm32l0xx_hal_dma.c ****   }
 794              		.loc 1 423 12 is_stmt 0 view .LVU282
 795 0040 0020     		movs	r0, #0
 796              	.LVL52:
 423:Drivers/STM32L0xx_HAL_Driver/Src/stm32l0xx_hal_dma.c ****   }
 797              		.loc 1 423 12 view .LVU283
 798 0042 E8E7     		b	.L34
 799              		.cfi_endproc
 800              	.LFE38:
 802              		.section	.text.HAL_DMA_Abort_IT,"ax",%progbits
 803              		.align	1
ARM GAS  /tmp/ccI53EIM.s 			page 33


 804              		.p2align 2,,3
 805              		.global	HAL_DMA_Abort_IT
 806              		.syntax unified
 807              		.code	16
 808              		.thumb_func
 809              		.fpu softvfp
 811              	HAL_DMA_Abort_IT:
 812              	.LVL53:
 813              	.LFB39:
 434:Drivers/STM32L0xx_HAL_Driver/Src/stm32l0xx_hal_dma.c ****   HAL_StatusTypeDef status = HAL_OK;
 814              		.loc 1 434 1 is_stmt 1 view -0
 815              		.cfi_startproc
 816              		@ args = 0, pretend = 0, frame = 0
 817              		@ frame_needed = 0, uses_anonymous_args = 0
 435:Drivers/STM32L0xx_HAL_Driver/Src/stm32l0xx_hal_dma.c **** 
 818              		.loc 1 435 3 view .LVU285
 437:Drivers/STM32L0xx_HAL_Driver/Src/stm32l0xx_hal_dma.c ****   {
 819              		.loc 1 437 3 view .LVU286
 437:Drivers/STM32L0xx_HAL_Driver/Src/stm32l0xx_hal_dma.c ****   {
 820              		.loc 1 437 32 is_stmt 0 view .LVU287
 821 0000 2523     		movs	r3, #37
 434:Drivers/STM32L0xx_HAL_Driver/Src/stm32l0xx_hal_dma.c ****   HAL_StatusTypeDef status = HAL_OK;
 822              		.loc 1 434 1 view .LVU288
 823 0002 70B5     		push	{r4, r5, r6, lr}
 824              	.LCFI7:
 825              		.cfi_def_cfa_offset 16
 826              		.cfi_offset 4, -16
 827              		.cfi_offset 5, -12
 828              		.cfi_offset 6, -8
 829              		.cfi_offset 14, -4
 437:Drivers/STM32L0xx_HAL_Driver/Src/stm32l0xx_hal_dma.c ****   {
 830              		.loc 1 437 32 view .LVU289
 831 0004 C25C     		ldrb	r2, [r0, r3]
 437:Drivers/STM32L0xx_HAL_Driver/Src/stm32l0xx_hal_dma.c ****   {
 832              		.loc 1 437 5 view .LVU290
 833 0006 022A     		cmp	r2, #2
 834 0008 03D0     		beq	.L36
 440:Drivers/STM32L0xx_HAL_Driver/Src/stm32l0xx_hal_dma.c **** 
 835              		.loc 1 440 5 is_stmt 1 view .LVU291
 440:Drivers/STM32L0xx_HAL_Driver/Src/stm32l0xx_hal_dma.c **** 
 836              		.loc 1 440 21 is_stmt 0 view .LVU292
 837 000a 213B     		subs	r3, r3, #33
 838 000c C363     		str	r3, [r0, #60]
 442:Drivers/STM32L0xx_HAL_Driver/Src/stm32l0xx_hal_dma.c ****   }
 839              		.loc 1 442 5 is_stmt 1 view .LVU293
 840              	.LVL54:
 442:Drivers/STM32L0xx_HAL_Driver/Src/stm32l0xx_hal_dma.c ****   }
 841              		.loc 1 442 12 is_stmt 0 view .LVU294
 842 000e 0120     		movs	r0, #1
 843              	.LVL55:
 844              	.L37:
 467:Drivers/STM32L0xx_HAL_Driver/Src/stm32l0xx_hal_dma.c **** }
 845              		.loc 1 467 3 is_stmt 1 view .LVU295
 468:Drivers/STM32L0xx_HAL_Driver/Src/stm32l0xx_hal_dma.c **** 
 846              		.loc 1 468 1 is_stmt 0 view .LVU296
 847              		@ sp needed
 848 0010 70BD     		pop	{r4, r5, r6, pc}
ARM GAS  /tmp/ccI53EIM.s 			page 34


 849              	.LVL56:
 850              	.L36:
 447:Drivers/STM32L0xx_HAL_Driver/Src/stm32l0xx_hal_dma.c **** 
 851              		.loc 1 447 5 is_stmt 1 view .LVU297
 852 0012 0E24     		movs	r4, #14
 853 0014 0268     		ldr	r2, [r0]
 453:Drivers/STM32L0xx_HAL_Driver/Src/stm32l0xx_hal_dma.c **** 
 854              		.loc 1 453 71 is_stmt 0 view .LVU298
 855 0016 456C     		ldr	r5, [r0, #68]
 447:Drivers/STM32L0xx_HAL_Driver/Src/stm32l0xx_hal_dma.c **** 
 856              		.loc 1 447 5 view .LVU299
 857 0018 1168     		ldr	r1, [r2]
 858 001a A143     		bics	r1, r4
 859 001c 1160     		str	r1, [r2]
 450:Drivers/STM32L0xx_HAL_Driver/Src/stm32l0xx_hal_dma.c **** 
 860              		.loc 1 450 5 is_stmt 1 view .LVU300
 861 001e 0121     		movs	r1, #1
 862 0020 1468     		ldr	r4, [r2]
 863 0022 8C43     		bics	r4, r1
 864 0024 1460     		str	r4, [r2]
 453:Drivers/STM32L0xx_HAL_Driver/Src/stm32l0xx_hal_dma.c **** 
 865              		.loc 1 453 5 view .LVU301
 453:Drivers/STM32L0xx_HAL_Driver/Src/stm32l0xx_hal_dma.c **** 
 866              		.loc 1 453 71 is_stmt 0 view .LVU302
 867 0026 1C22     		movs	r2, #28
 868 0028 2A40     		ands	r2, r5
 453:Drivers/STM32L0xx_HAL_Driver/Src/stm32l0xx_hal_dma.c **** 
 869              		.loc 1 453 48 view .LVU303
 870 002a 0D00     		movs	r5, r1
 871 002c 9540     		lsls	r5, r5, r2
 453:Drivers/STM32L0xx_HAL_Driver/Src/stm32l0xx_hal_dma.c **** 
 872              		.loc 1 453 9 view .LVU304
 873 002e 046C     		ldr	r4, [r0, #64]
 459:Drivers/STM32L0xx_HAL_Driver/Src/stm32l0xx_hal_dma.c **** 
 874              		.loc 1 459 5 view .LVU305
 875 0030 0022     		movs	r2, #0
 453:Drivers/STM32L0xx_HAL_Driver/Src/stm32l0xx_hal_dma.c **** 
 876              		.loc 1 453 32 view .LVU306
 877 0032 6560     		str	r5, [r4, #4]
 456:Drivers/STM32L0xx_HAL_Driver/Src/stm32l0xx_hal_dma.c **** 
 878              		.loc 1 456 5 is_stmt 1 view .LVU307
 456:Drivers/STM32L0xx_HAL_Driver/Src/stm32l0xx_hal_dma.c **** 
 879              		.loc 1 456 17 is_stmt 0 view .LVU308
 880 0034 C154     		strb	r1, [r0, r3]
 459:Drivers/STM32L0xx_HAL_Driver/Src/stm32l0xx_hal_dma.c **** 
 881              		.loc 1 459 5 is_stmt 1 view .LVU309
 459:Drivers/STM32L0xx_HAL_Driver/Src/stm32l0xx_hal_dma.c **** 
 882              		.loc 1 459 5 view .LVU310
 883 0036 2423     		movs	r3, #36
 884 0038 C254     		strb	r2, [r0, r3]
 459:Drivers/STM32L0xx_HAL_Driver/Src/stm32l0xx_hal_dma.c **** 
 885              		.loc 1 459 5 view .LVU311
 462:Drivers/STM32L0xx_HAL_Driver/Src/stm32l0xx_hal_dma.c ****     {
 886              		.loc 1 462 5 view .LVU312
 462:Drivers/STM32L0xx_HAL_Driver/Src/stm32l0xx_hal_dma.c ****     {
 887              		.loc 1 462 12 is_stmt 0 view .LVU313
 888 003a 836B     		ldr	r3, [r0, #56]
ARM GAS  /tmp/ccI53EIM.s 			page 35


 462:Drivers/STM32L0xx_HAL_Driver/Src/stm32l0xx_hal_dma.c ****     {
 889              		.loc 1 462 7 view .LVU314
 890 003c 002B     		cmp	r3, #0
 891 003e 02D0     		beq	.L38
 464:Drivers/STM32L0xx_HAL_Driver/Src/stm32l0xx_hal_dma.c ****     }
 892              		.loc 1 464 7 is_stmt 1 view .LVU315
 893 0040 9847     		blx	r3
 894              	.LVL57:
 435:Drivers/STM32L0xx_HAL_Driver/Src/stm32l0xx_hal_dma.c **** 
 895              		.loc 1 435 21 is_stmt 0 view .LVU316
 896 0042 0020     		movs	r0, #0
 897 0044 E4E7     		b	.L37
 898              	.LVL58:
 899              	.L38:
 435:Drivers/STM32L0xx_HAL_Driver/Src/stm32l0xx_hal_dma.c **** 
 900              		.loc 1 435 21 view .LVU317
 901 0046 0020     		movs	r0, #0
 902              	.LVL59:
 435:Drivers/STM32L0xx_HAL_Driver/Src/stm32l0xx_hal_dma.c **** 
 903              		.loc 1 435 21 view .LVU318
 904 0048 E2E7     		b	.L37
 905              		.cfi_endproc
 906              	.LFE39:
 908 004a C046     		.section	.text.HAL_DMA_PollForTransfer,"ax",%progbits
 909              		.align	1
 910              		.p2align 2,,3
 911              		.global	HAL_DMA_PollForTransfer
 912              		.syntax unified
 913              		.code	16
 914              		.thumb_func
 915              		.fpu softvfp
 917              	HAL_DMA_PollForTransfer:
 918              	.LVL60:
 919              	.LFB40:
 479:Drivers/STM32L0xx_HAL_Driver/Src/stm32l0xx_hal_dma.c ****   uint32_t temp;
 920              		.loc 1 479 1 is_stmt 1 view -0
 921              		.cfi_startproc
 922              		@ args = 0, pretend = 0, frame = 0
 923              		@ frame_needed = 0, uses_anonymous_args = 0
 480:Drivers/STM32L0xx_HAL_Driver/Src/stm32l0xx_hal_dma.c ****   uint32_t tickstart;
 924              		.loc 1 480 3 view .LVU320
 481:Drivers/STM32L0xx_HAL_Driver/Src/stm32l0xx_hal_dma.c **** 
 925              		.loc 1 481 3 view .LVU321
 483:Drivers/STM32L0xx_HAL_Driver/Src/stm32l0xx_hal_dma.c ****   {
 926              		.loc 1 483 3 view .LVU322
 479:Drivers/STM32L0xx_HAL_Driver/Src/stm32l0xx_hal_dma.c ****   uint32_t temp;
 927              		.loc 1 479 1 is_stmt 0 view .LVU323
 928 0000 F0B5     		push	{r4, r5, r6, r7, lr}
 929              	.LCFI8:
 930              		.cfi_def_cfa_offset 20
 931              		.cfi_offset 4, -20
 932              		.cfi_offset 5, -16
 933              		.cfi_offset 6, -12
 934              		.cfi_offset 7, -8
 935              		.cfi_offset 14, -4
 936 0002 4F46     		mov	r7, r9
 937 0004 4646     		mov	r6, r8
ARM GAS  /tmp/ccI53EIM.s 			page 36


 938 0006 D646     		mov	lr, r10
 483:Drivers/STM32L0xx_HAL_Driver/Src/stm32l0xx_hal_dma.c ****   {
 939              		.loc 1 483 32 view .LVU324
 940 0008 2523     		movs	r3, #37
 479:Drivers/STM32L0xx_HAL_Driver/Src/stm32l0xx_hal_dma.c ****   uint32_t temp;
 941              		.loc 1 479 1 view .LVU325
 942 000a C0B5     		push	{r6, r7, lr}
 943              	.LCFI9:
 944              		.cfi_def_cfa_offset 32
 945              		.cfi_offset 8, -32
 946              		.cfi_offset 9, -28
 947              		.cfi_offset 10, -24
 483:Drivers/STM32L0xx_HAL_Driver/Src/stm32l0xx_hal_dma.c ****   {
 948              		.loc 1 483 32 view .LVU326
 949 000c C35C     		ldrb	r3, [r0, r3]
 479:Drivers/STM32L0xx_HAL_Driver/Src/stm32l0xx_hal_dma.c ****   uint32_t temp;
 950              		.loc 1 479 1 view .LVU327
 951 000e 0500     		movs	r5, r0
 952 0010 0F00     		movs	r7, r1
 953 0012 1600     		movs	r6, r2
 483:Drivers/STM32L0xx_HAL_Driver/Src/stm32l0xx_hal_dma.c ****   {
 954              		.loc 1 483 32 view .LVU328
 955 0014 DCB2     		uxtb	r4, r3
 483:Drivers/STM32L0xx_HAL_Driver/Src/stm32l0xx_hal_dma.c ****   {
 956              		.loc 1 483 5 view .LVU329
 957 0016 022B     		cmp	r3, #2
 958 0018 0AD0     		beq	.L40
 486:Drivers/STM32L0xx_HAL_Driver/Src/stm32l0xx_hal_dma.c ****     __HAL_UNLOCK(hdma);
 959              		.loc 1 486 5 is_stmt 1 view .LVU330
 486:Drivers/STM32L0xx_HAL_Driver/Src/stm32l0xx_hal_dma.c ****     __HAL_UNLOCK(hdma);
 960              		.loc 1 486 21 is_stmt 0 view .LVU331
 961 001a 0423     		movs	r3, #4
 487:Drivers/STM32L0xx_HAL_Driver/Src/stm32l0xx_hal_dma.c ****     return HAL_ERROR;
 962              		.loc 1 487 5 view .LVU332
 963 001c 0022     		movs	r2, #0
 964              	.LVL61:
 486:Drivers/STM32L0xx_HAL_Driver/Src/stm32l0xx_hal_dma.c ****     __HAL_UNLOCK(hdma);
 965              		.loc 1 486 21 view .LVU333
 966 001e C363     		str	r3, [r0, #60]
 487:Drivers/STM32L0xx_HAL_Driver/Src/stm32l0xx_hal_dma.c ****     return HAL_ERROR;
 967              		.loc 1 487 5 is_stmt 1 view .LVU334
 487:Drivers/STM32L0xx_HAL_Driver/Src/stm32l0xx_hal_dma.c ****     return HAL_ERROR;
 968              		.loc 1 487 5 view .LVU335
 969 0020 2033     		adds	r3, r3, #32
 970 0022 C254     		strb	r2, [r0, r3]
 487:Drivers/STM32L0xx_HAL_Driver/Src/stm32l0xx_hal_dma.c ****     return HAL_ERROR;
 971              		.loc 1 487 5 view .LVU336
 488:Drivers/STM32L0xx_HAL_Driver/Src/stm32l0xx_hal_dma.c ****   }
 972              		.loc 1 488 5 view .LVU337
 488:Drivers/STM32L0xx_HAL_Driver/Src/stm32l0xx_hal_dma.c ****   }
 973              		.loc 1 488 12 is_stmt 0 view .LVU338
 974 0024 0120     		movs	r0, #1
 975              	.LVL62:
 976              	.L41:
 571:Drivers/STM32L0xx_HAL_Driver/Src/stm32l0xx_hal_dma.c **** 
 977              		.loc 1 571 1 view .LVU339
 978              		@ sp needed
ARM GAS  /tmp/ccI53EIM.s 			page 37


 979              	.LVL63:
 980              	.LVL64:
 571:Drivers/STM32L0xx_HAL_Driver/Src/stm32l0xx_hal_dma.c **** 
 981              		.loc 1 571 1 view .LVU340
 982 0026 1CBC     		pop	{r2, r3, r4}
 983 0028 9046     		mov	r8, r2
 984 002a 9946     		mov	r9, r3
 985 002c A246     		mov	r10, r4
 986 002e F0BD     		pop	{r4, r5, r6, r7, pc}
 987              	.LVL65:
 988              	.L40:
 492:Drivers/STM32L0xx_HAL_Driver/Src/stm32l0xx_hal_dma.c ****   {
 989              		.loc 1 492 3 is_stmt 1 view .LVU341
 492:Drivers/STM32L0xx_HAL_Driver/Src/stm32l0xx_hal_dma.c ****   {
 990              		.loc 1 492 18 is_stmt 0 view .LVU342
 991 0030 0368     		ldr	r3, [r0]
 492:Drivers/STM32L0xx_HAL_Driver/Src/stm32l0xx_hal_dma.c ****   {
 992              		.loc 1 492 28 view .LVU343
 993 0032 1B68     		ldr	r3, [r3]
 492:Drivers/STM32L0xx_HAL_Driver/Src/stm32l0xx_hal_dma.c ****   {
 994              		.loc 1 492 6 view .LVU344
 995 0034 9B06     		lsls	r3, r3, #26
 996 0036 2CD4     		bmi	.L56
 499:Drivers/STM32L0xx_HAL_Driver/Src/stm32l0xx_hal_dma.c ****   {
 997              		.loc 1 499 3 is_stmt 1 view .LVU345
 502:Drivers/STM32L0xx_HAL_Driver/Src/stm32l0xx_hal_dma.c ****   }
 998              		.loc 1 502 48 is_stmt 0 view .LVU346
 999 0038 1C23     		movs	r3, #28
 1000 003a 426C     		ldr	r2, [r0, #68]
 1001              	.LVL66:
 502:Drivers/STM32L0xx_HAL_Driver/Src/stm32l0xx_hal_dma.c ****   }
 1002              		.loc 1 502 48 view .LVU347
 1003 003c 1340     		ands	r3, r2
 499:Drivers/STM32L0xx_HAL_Driver/Src/stm32l0xx_hal_dma.c ****   {
 1004              		.loc 1 499 6 view .LVU348
 1005 003e 0029     		cmp	r1, #0
 1006 0040 2CD1     		bne	.L43
 1007              	.L55:
 507:Drivers/STM32L0xx_HAL_Driver/Src/stm32l0xx_hal_dma.c ****   }
 1008              		.loc 1 507 10 view .LVU349
 1009 0042 9C40     		lsls	r4, r4, r3
 1010              	.LVL67:
 511:Drivers/STM32L0xx_HAL_Driver/Src/stm32l0xx_hal_dma.c **** 
 1011              		.loc 1 511 3 is_stmt 1 view .LVU350
 511:Drivers/STM32L0xx_HAL_Driver/Src/stm32l0xx_hal_dma.c **** 
 1012              		.loc 1 511 15 is_stmt 0 view .LVU351
 1013 0044 FFF7FEFF 		bl	HAL_GetTick
 1014              	.LVL68:
 511:Drivers/STM32L0xx_HAL_Driver/Src/stm32l0xx_hal_dma.c **** 
 1015              		.loc 1 511 15 view .LVU352
 1016 0048 1C23     		movs	r3, #28
 1017 004a 9A46     		mov	r10, r3
 515:Drivers/STM32L0xx_HAL_Driver/Src/stm32l0xx_hal_dma.c ****     {
 1018              		.loc 1 515 58 view .LVU353
 1019 004c 143B     		subs	r3, r3, #20
 511:Drivers/STM32L0xx_HAL_Driver/Src/stm32l0xx_hal_dma.c **** 
 1020              		.loc 1 511 15 view .LVU354
ARM GAS  /tmp/ccI53EIM.s 			page 38


 1021 004e 8046     		mov	r8, r0
 1022              	.LVL69:
 513:Drivers/STM32L0xx_HAL_Driver/Src/stm32l0xx_hal_dma.c ****   {
 1023              		.loc 1 513 3 is_stmt 1 view .LVU355
 515:Drivers/STM32L0xx_HAL_Driver/Src/stm32l0xx_hal_dma.c ****     {
 1024              		.loc 1 515 58 is_stmt 0 view .LVU356
 1025 0050 9946     		mov	r9, r3
 1026              	.LVL70:
 1027              	.L45:
 515:Drivers/STM32L0xx_HAL_Driver/Src/stm32l0xx_hal_dma.c ****     {
 1028              		.loc 1 515 58 view .LVU357
 1029 0052 5146     		mov	r1, r10
 1030 0054 6B6C     		ldr	r3, [r5, #68]
 513:Drivers/STM32L0xx_HAL_Driver/Src/stm32l0xx_hal_dma.c ****   {
 1031              		.loc 1 513 20 view .LVU358
 1032 0056 2A6C     		ldr	r2, [r5, #64]
 1033 0058 0B40     		ands	r3, r1
 515:Drivers/STM32L0xx_HAL_Driver/Src/stm32l0xx_hal_dma.c ****     {
 1034              		.loc 1 515 58 view .LVU359
 1035 005a 4946     		mov	r1, r9
 1036 005c 9C46     		mov	ip, r3
 1037 005e 9940     		lsls	r1, r1, r3
 1038 0060 04E0     		b	.L47
 1039              	.L49:
 515:Drivers/STM32L0xx_HAL_Driver/Src/stm32l0xx_hal_dma.c ****     {
 1040              		.loc 1 515 5 is_stmt 1 view .LVU360
 515:Drivers/STM32L0xx_HAL_Driver/Src/stm32l0xx_hal_dma.c ****     {
 1041              		.loc 1 515 36 is_stmt 0 view .LVU361
 1042 0062 1368     		ldr	r3, [r2]
 515:Drivers/STM32L0xx_HAL_Driver/Src/stm32l0xx_hal_dma.c ****     {
 1043              		.loc 1 515 7 view .LVU362
 1044 0064 1942     		tst	r1, r3
 1045 0066 1BD1     		bne	.L57
 534:Drivers/STM32L0xx_HAL_Driver/Src/stm32l0xx_hal_dma.c ****     {
 1046              		.loc 1 534 5 is_stmt 1 view .LVU363
 534:Drivers/STM32L0xx_HAL_Driver/Src/stm32l0xx_hal_dma.c ****     {
 1047              		.loc 1 534 7 is_stmt 0 view .LVU364
 1048 0068 731C     		adds	r3, r6, #1
 1049 006a 25D1     		bne	.L58
 1050              	.L47:
 513:Drivers/STM32L0xx_HAL_Driver/Src/stm32l0xx_hal_dma.c ****   {
 1051              		.loc 1 513 8 is_stmt 1 view .LVU365
 513:Drivers/STM32L0xx_HAL_Driver/Src/stm32l0xx_hal_dma.c ****   {
 1052              		.loc 1 513 42 is_stmt 0 view .LVU366
 1053 006c 2000     		movs	r0, r4
 513:Drivers/STM32L0xx_HAL_Driver/Src/stm32l0xx_hal_dma.c ****   {
 1054              		.loc 1 513 36 view .LVU367
 1055 006e 1368     		ldr	r3, [r2]
 513:Drivers/STM32L0xx_HAL_Driver/Src/stm32l0xx_hal_dma.c ****   {
 1056              		.loc 1 513 42 view .LVU368
 1057 0070 1840     		ands	r0, r3
 513:Drivers/STM32L0xx_HAL_Driver/Src/stm32l0xx_hal_dma.c ****   {
 1058              		.loc 1 513 8 view .LVU369
 1059 0072 1C42     		tst	r4, r3
 1060 0074 F5D0     		beq	.L49
 552:Drivers/STM32L0xx_HAL_Driver/Src/stm32l0xx_hal_dma.c ****   {
 1061              		.loc 1 552 3 is_stmt 1 view .LVU370
ARM GAS  /tmp/ccI53EIM.s 			page 39


 552:Drivers/STM32L0xx_HAL_Driver/Src/stm32l0xx_hal_dma.c ****   {
 1062              		.loc 1 552 5 is_stmt 0 view .LVU371
 1063 0076 002F     		cmp	r7, #0
 1064 0078 30D1     		bne	.L50
 555:Drivers/STM32L0xx_HAL_Driver/Src/stm32l0xx_hal_dma.c **** 
 1065              		.loc 1 555 5 is_stmt 1 view .LVU372
 555:Drivers/STM32L0xx_HAL_Driver/Src/stm32l0xx_hal_dma.c **** 
 1066              		.loc 1 555 48 is_stmt 0 view .LVU373
 1067 007a 0223     		movs	r3, #2
 1068 007c 6146     		mov	r1, ip
 1069 007e 8B40     		lsls	r3, r3, r1
 555:Drivers/STM32L0xx_HAL_Driver/Src/stm32l0xx_hal_dma.c **** 
 1070              		.loc 1 555 32 view .LVU374
 1071 0080 5360     		str	r3, [r2, #4]
 559:Drivers/STM32L0xx_HAL_Driver/Src/stm32l0xx_hal_dma.c ****   }
 1072              		.loc 1 559 5 is_stmt 1 view .LVU375
 559:Drivers/STM32L0xx_HAL_Driver/Src/stm32l0xx_hal_dma.c ****   }
 1073              		.loc 1 559 17 is_stmt 0 view .LVU376
 1074 0082 2523     		movs	r3, #37
 1075 0084 0122     		movs	r2, #1
 1076 0086 EA54     		strb	r2, [r5, r3]
 1077              	.L51:
 568:Drivers/STM32L0xx_HAL_Driver/Src/stm32l0xx_hal_dma.c **** 
 1078              		.loc 1 568 3 is_stmt 1 view .LVU377
 568:Drivers/STM32L0xx_HAL_Driver/Src/stm32l0xx_hal_dma.c **** 
 1079              		.loc 1 568 3 view .LVU378
 1080 0088 2423     		movs	r3, #36
 1081 008a 0022     		movs	r2, #0
 570:Drivers/STM32L0xx_HAL_Driver/Src/stm32l0xx_hal_dma.c **** }
 1082              		.loc 1 570 10 is_stmt 0 view .LVU379
 1083 008c 0020     		movs	r0, #0
 568:Drivers/STM32L0xx_HAL_Driver/Src/stm32l0xx_hal_dma.c **** 
 1084              		.loc 1 568 3 view .LVU380
 1085 008e EA54     		strb	r2, [r5, r3]
 568:Drivers/STM32L0xx_HAL_Driver/Src/stm32l0xx_hal_dma.c **** 
 1086              		.loc 1 568 3 is_stmt 1 view .LVU381
 570:Drivers/STM32L0xx_HAL_Driver/Src/stm32l0xx_hal_dma.c **** }
 1087              		.loc 1 570 3 view .LVU382
 570:Drivers/STM32L0xx_HAL_Driver/Src/stm32l0xx_hal_dma.c **** }
 1088              		.loc 1 570 10 is_stmt 0 view .LVU383
 1089 0090 C9E7     		b	.L41
 1090              	.LVL71:
 1091              	.L56:
 494:Drivers/STM32L0xx_HAL_Driver/Src/stm32l0xx_hal_dma.c ****     return HAL_ERROR;
 1092              		.loc 1 494 5 is_stmt 1 view .LVU384
 494:Drivers/STM32L0xx_HAL_Driver/Src/stm32l0xx_hal_dma.c ****     return HAL_ERROR;
 1093              		.loc 1 494 21 is_stmt 0 view .LVU385
 1094 0092 8023     		movs	r3, #128
 1095 0094 5B00     		lsls	r3, r3, #1
 1096 0096 C363     		str	r3, [r0, #60]
 495:Drivers/STM32L0xx_HAL_Driver/Src/stm32l0xx_hal_dma.c ****   }
 1097              		.loc 1 495 5 is_stmt 1 view .LVU386
 495:Drivers/STM32L0xx_HAL_Driver/Src/stm32l0xx_hal_dma.c ****   }
 1098              		.loc 1 495 12 is_stmt 0 view .LVU387
 1099 0098 0120     		movs	r0, #1
 1100              	.LVL72:
 495:Drivers/STM32L0xx_HAL_Driver/Src/stm32l0xx_hal_dma.c ****   }
ARM GAS  /tmp/ccI53EIM.s 			page 40


 1101              		.loc 1 495 12 view .LVU388
 1102 009a C4E7     		b	.L41
 1103              	.LVL73:
 1104              	.L43:
 507:Drivers/STM32L0xx_HAL_Driver/Src/stm32l0xx_hal_dma.c ****   }
 1105              		.loc 1 507 5 is_stmt 1 view .LVU389
 507:Drivers/STM32L0xx_HAL_Driver/Src/stm32l0xx_hal_dma.c ****   }
 1106              		.loc 1 507 10 is_stmt 0 view .LVU390
 1107 009c 0424     		movs	r4, #4
 1108 009e D0E7     		b	.L55
 1109              	.LVL74:
 1110              	.L57:
 520:Drivers/STM32L0xx_HAL_Driver/Src/stm32l0xx_hal_dma.c **** 
 1111              		.loc 1 520 7 is_stmt 1 view .LVU391
 520:Drivers/STM32L0xx_HAL_Driver/Src/stm32l0xx_hal_dma.c **** 
 1112              		.loc 1 520 50 is_stmt 0 view .LVU392
 1113 00a0 0123     		movs	r3, #1
 1114 00a2 6446     		mov	r4, ip
 1115              	.LVL75:
 520:Drivers/STM32L0xx_HAL_Driver/Src/stm32l0xx_hal_dma.c **** 
 1116              		.loc 1 520 50 view .LVU393
 1117 00a4 1900     		movs	r1, r3
 1118 00a6 A140     		lsls	r1, r1, r4
 520:Drivers/STM32L0xx_HAL_Driver/Src/stm32l0xx_hal_dma.c **** 
 1119              		.loc 1 520 34 view .LVU394
 1120 00a8 5160     		str	r1, [r2, #4]
 523:Drivers/STM32L0xx_HAL_Driver/Src/stm32l0xx_hal_dma.c **** 
 1121              		.loc 1 523 7 is_stmt 1 view .LVU395
 526:Drivers/STM32L0xx_HAL_Driver/Src/stm32l0xx_hal_dma.c **** 
 1122              		.loc 1 526 18 is_stmt 0 view .LVU396
 1123 00aa 2522     		movs	r2, #37
 523:Drivers/STM32L0xx_HAL_Driver/Src/stm32l0xx_hal_dma.c **** 
 1124              		.loc 1 523 23 view .LVU397
 1125 00ac EB63     		str	r3, [r5, #60]
 526:Drivers/STM32L0xx_HAL_Driver/Src/stm32l0xx_hal_dma.c **** 
 1126              		.loc 1 526 7 is_stmt 1 view .LVU398
 526:Drivers/STM32L0xx_HAL_Driver/Src/stm32l0xx_hal_dma.c **** 
 1127              		.loc 1 526 18 is_stmt 0 view .LVU399
 1128 00ae AB54     		strb	r3, [r5, r2]
 529:Drivers/STM32L0xx_HAL_Driver/Src/stm32l0xx_hal_dma.c **** 
 1129              		.loc 1 529 7 is_stmt 1 view .LVU400
 529:Drivers/STM32L0xx_HAL_Driver/Src/stm32l0xx_hal_dma.c **** 
 1130              		.loc 1 529 7 view .LVU401
 1131 00b0 2333     		adds	r3, r3, #35
 1132 00b2 E854     		strb	r0, [r5, r3]
 529:Drivers/STM32L0xx_HAL_Driver/Src/stm32l0xx_hal_dma.c **** 
 1133              		.loc 1 529 7 view .LVU402
 531:Drivers/STM32L0xx_HAL_Driver/Src/stm32l0xx_hal_dma.c ****     }
 1134              		.loc 1 531 7 view .LVU403
 531:Drivers/STM32L0xx_HAL_Driver/Src/stm32l0xx_hal_dma.c ****     }
 1135              		.loc 1 531 14 is_stmt 0 view .LVU404
 1136 00b4 0120     		movs	r0, #1
 1137 00b6 B6E7     		b	.L41
 1138              	.LVL76:
 1139              	.L58:
 536:Drivers/STM32L0xx_HAL_Driver/Src/stm32l0xx_hal_dma.c ****       {
 1140              		.loc 1 536 7 is_stmt 1 view .LVU405
ARM GAS  /tmp/ccI53EIM.s 			page 41


 536:Drivers/STM32L0xx_HAL_Driver/Src/stm32l0xx_hal_dma.c ****       {
 1141              		.loc 1 536 12 is_stmt 0 view .LVU406
 1142 00b8 FFF7FEFF 		bl	HAL_GetTick
 1143              	.LVL77:
 536:Drivers/STM32L0xx_HAL_Driver/Src/stm32l0xx_hal_dma.c ****       {
 1144              		.loc 1 536 26 view .LVU407
 1145 00bc 4346     		mov	r3, r8
 1146 00be C01A     		subs	r0, r0, r3
 536:Drivers/STM32L0xx_HAL_Driver/Src/stm32l0xx_hal_dma.c ****       {
 1147              		.loc 1 536 9 view .LVU408
 1148 00c0 B042     		cmp	r0, r6
 1149 00c2 01D8     		bhi	.L48
 1150              	.LVL78:
 536:Drivers/STM32L0xx_HAL_Driver/Src/stm32l0xx_hal_dma.c ****       {
 1151              		.loc 1 536 50 discriminator 1 view .LVU409
 1152 00c4 002E     		cmp	r6, #0
 1153 00c6 C4D1     		bne	.L45
 1154              	.L48:
 539:Drivers/STM32L0xx_HAL_Driver/Src/stm32l0xx_hal_dma.c **** 
 1155              		.loc 1 539 9 is_stmt 1 view .LVU410
 539:Drivers/STM32L0xx_HAL_Driver/Src/stm32l0xx_hal_dma.c **** 
 1156              		.loc 1 539 25 is_stmt 0 view .LVU411
 1157 00c8 2023     		movs	r3, #32
 1158              	.LVL79:
 542:Drivers/STM32L0xx_HAL_Driver/Src/stm32l0xx_hal_dma.c **** 
 1159              		.loc 1 542 21 view .LVU412
 1160 00ca 0122     		movs	r2, #1
 539:Drivers/STM32L0xx_HAL_Driver/Src/stm32l0xx_hal_dma.c **** 
 1161              		.loc 1 539 25 view .LVU413
 1162 00cc EB63     		str	r3, [r5, #60]
 542:Drivers/STM32L0xx_HAL_Driver/Src/stm32l0xx_hal_dma.c **** 
 1163              		.loc 1 542 9 is_stmt 1 view .LVU414
 542:Drivers/STM32L0xx_HAL_Driver/Src/stm32l0xx_hal_dma.c **** 
 1164              		.loc 1 542 21 is_stmt 0 view .LVU415
 1165 00ce 0533     		adds	r3, r3, #5
 1166 00d0 EA54     		strb	r2, [r5, r3]
 545:Drivers/STM32L0xx_HAL_Driver/Src/stm32l0xx_hal_dma.c **** 
 1167              		.loc 1 545 9 is_stmt 1 view .LVU416
 545:Drivers/STM32L0xx_HAL_Driver/Src/stm32l0xx_hal_dma.c **** 
 1168              		.loc 1 545 9 view .LVU417
 1169 00d2 0022     		movs	r2, #0
 1170 00d4 013B     		subs	r3, r3, #1
 547:Drivers/STM32L0xx_HAL_Driver/Src/stm32l0xx_hal_dma.c ****       }
 1171              		.loc 1 547 16 is_stmt 0 view .LVU418
 1172 00d6 0120     		movs	r0, #1
 545:Drivers/STM32L0xx_HAL_Driver/Src/stm32l0xx_hal_dma.c **** 
 1173              		.loc 1 545 9 view .LVU419
 1174 00d8 EA54     		strb	r2, [r5, r3]
 545:Drivers/STM32L0xx_HAL_Driver/Src/stm32l0xx_hal_dma.c **** 
 1175              		.loc 1 545 9 is_stmt 1 view .LVU420
 547:Drivers/STM32L0xx_HAL_Driver/Src/stm32l0xx_hal_dma.c ****       }
 1176              		.loc 1 547 9 view .LVU421
 547:Drivers/STM32L0xx_HAL_Driver/Src/stm32l0xx_hal_dma.c ****       }
 1177              		.loc 1 547 16 is_stmt 0 view .LVU422
 1178 00da A4E7     		b	.L41
 1179              	.L50:
 564:Drivers/STM32L0xx_HAL_Driver/Src/stm32l0xx_hal_dma.c ****   }
ARM GAS  /tmp/ccI53EIM.s 			page 42


 1180              		.loc 1 564 5 is_stmt 1 view .LVU423
 564:Drivers/STM32L0xx_HAL_Driver/Src/stm32l0xx_hal_dma.c ****   }
 1181              		.loc 1 564 48 is_stmt 0 view .LVU424
 1182 00dc 0423     		movs	r3, #4
 1183 00de 6146     		mov	r1, ip
 1184 00e0 8B40     		lsls	r3, r3, r1
 564:Drivers/STM32L0xx_HAL_Driver/Src/stm32l0xx_hal_dma.c ****   }
 1185              		.loc 1 564 32 view .LVU425
 1186 00e2 5360     		str	r3, [r2, #4]
 1187 00e4 D0E7     		b	.L51
 1188              		.cfi_endproc
 1189              	.LFE40:
 1191 00e6 C046     		.section	.text.HAL_DMA_IRQHandler,"ax",%progbits
 1192              		.align	1
 1193              		.p2align 2,,3
 1194              		.global	HAL_DMA_IRQHandler
 1195              		.syntax unified
 1196              		.code	16
 1197              		.thumb_func
 1198              		.fpu softvfp
 1200              	HAL_DMA_IRQHandler:
 1201              	.LVL80:
 1202              	.LFB41:
 580:Drivers/STM32L0xx_HAL_Driver/Src/stm32l0xx_hal_dma.c ****   uint32_t flag_it = hdma->DmaBaseAddress->ISR;
 1203              		.loc 1 580 1 is_stmt 1 view -0
 1204              		.cfi_startproc
 1205              		@ args = 0, pretend = 0, frame = 0
 1206              		@ frame_needed = 0, uses_anonymous_args = 0
 581:Drivers/STM32L0xx_HAL_Driver/Src/stm32l0xx_hal_dma.c ****   uint32_t source_it = hdma->Instance->CCR;
 1207              		.loc 1 581 3 view .LVU427
 580:Drivers/STM32L0xx_HAL_Driver/Src/stm32l0xx_hal_dma.c ****   uint32_t flag_it = hdma->DmaBaseAddress->ISR;
 1208              		.loc 1 580 1 is_stmt 0 view .LVU428
 1209 0000 F8B5     		push	{r3, r4, r5, r6, r7, lr}
 1210              	.LCFI10:
 1211              		.cfi_def_cfa_offset 24
 1212              		.cfi_offset 3, -24
 1213              		.cfi_offset 4, -20
 1214              		.cfi_offset 5, -16
 1215              		.cfi_offset 6, -12
 1216              		.cfi_offset 7, -8
 1217              		.cfi_offset 14, -4
 585:Drivers/STM32L0xx_HAL_Driver/Src/stm32l0xx_hal_dma.c ****   {
 1218              		.loc 1 585 62 view .LVU429
 1219 0002 1C23     		movs	r3, #28
 1220 0004 446C     		ldr	r4, [r0, #68]
 581:Drivers/STM32L0xx_HAL_Driver/Src/stm32l0xx_hal_dma.c ****   uint32_t source_it = hdma->Instance->CCR;
 1221              		.loc 1 581 26 view .LVU430
 1222 0006 056C     		ldr	r5, [r0, #64]
 585:Drivers/STM32L0xx_HAL_Driver/Src/stm32l0xx_hal_dma.c ****   {
 1223              		.loc 1 585 62 view .LVU431
 1224 0008 2340     		ands	r3, r4
 585:Drivers/STM32L0xx_HAL_Driver/Src/stm32l0xx_hal_dma.c ****   {
 1225              		.loc 1 585 39 view .LVU432
 1226 000a 0424     		movs	r4, #4
 1227 000c 2600     		movs	r6, r4
 1228 000e 9E40     		lsls	r6, r6, r3
 581:Drivers/STM32L0xx_HAL_Driver/Src/stm32l0xx_hal_dma.c ****   uint32_t source_it = hdma->Instance->CCR;
ARM GAS  /tmp/ccI53EIM.s 			page 43


 1229              		.loc 1 581 12 view .LVU433
 1230 0010 2A68     		ldr	r2, [r5]
 1231              	.LVL81:
 582:Drivers/STM32L0xx_HAL_Driver/Src/stm32l0xx_hal_dma.c **** 
 1232              		.loc 1 582 3 is_stmt 1 view .LVU434
 582:Drivers/STM32L0xx_HAL_Driver/Src/stm32l0xx_hal_dma.c **** 
 1233              		.loc 1 582 28 is_stmt 0 view .LVU435
 1234 0012 0168     		ldr	r1, [r0]
 582:Drivers/STM32L0xx_HAL_Driver/Src/stm32l0xx_hal_dma.c **** 
 1235              		.loc 1 582 12 view .LVU436
 1236 0014 0F68     		ldr	r7, [r1]
 1237              	.LVL82:
 585:Drivers/STM32L0xx_HAL_Driver/Src/stm32l0xx_hal_dma.c ****   {
 1238              		.loc 1 585 3 is_stmt 1 view .LVU437
 585:Drivers/STM32L0xx_HAL_Driver/Src/stm32l0xx_hal_dma.c ****   {
 1239              		.loc 1 585 6 is_stmt 0 view .LVU438
 1240 0016 3242     		tst	r2, r6
 1241 0018 0DD0     		beq	.L60
 585:Drivers/STM32L0xx_HAL_Driver/Src/stm32l0xx_hal_dma.c ****   {
 1242              		.loc 1 585 74 discriminator 1 view .LVU439
 1243 001a 3C42     		tst	r4, r7
 1244 001c 0BD0     		beq	.L60
 588:Drivers/STM32L0xx_HAL_Driver/Src/stm32l0xx_hal_dma.c ****       {
 1245              		.loc 1 588 7 is_stmt 1 view .LVU440
 588:Drivers/STM32L0xx_HAL_Driver/Src/stm32l0xx_hal_dma.c ****       {
 1246              		.loc 1 588 25 is_stmt 0 view .LVU441
 1247 001e 0B68     		ldr	r3, [r1]
 588:Drivers/STM32L0xx_HAL_Driver/Src/stm32l0xx_hal_dma.c ****       {
 1248              		.loc 1 588 9 view .LVU442
 1249 0020 9B06     		lsls	r3, r3, #26
 1250 0022 02D4     		bmi	.L61
 591:Drivers/STM32L0xx_HAL_Driver/Src/stm32l0xx_hal_dma.c ****       }
 1251              		.loc 1 591 9 is_stmt 1 view .LVU443
 1252 0024 0B68     		ldr	r3, [r1]
 1253 0026 A343     		bics	r3, r4
 1254 0028 0B60     		str	r3, [r1]
 1255              	.L61:
 594:Drivers/STM32L0xx_HAL_Driver/Src/stm32l0xx_hal_dma.c **** 
 1256              		.loc 1 594 7 view .LVU444
 599:Drivers/STM32L0xx_HAL_Driver/Src/stm32l0xx_hal_dma.c ****       {
 1257              		.loc 1 599 13 is_stmt 0 view .LVU445
 1258 002a 036B     		ldr	r3, [r0, #48]
 594:Drivers/STM32L0xx_HAL_Driver/Src/stm32l0xx_hal_dma.c **** 
 1259              		.loc 1 594 34 view .LVU446
 1260 002c 6E60     		str	r6, [r5, #4]
 599:Drivers/STM32L0xx_HAL_Driver/Src/stm32l0xx_hal_dma.c ****       {
 1261              		.loc 1 599 6 is_stmt 1 view .LVU447
 599:Drivers/STM32L0xx_HAL_Driver/Src/stm32l0xx_hal_dma.c ****       {
 1262              		.loc 1 599 8 is_stmt 0 view .LVU448
 1263 002e 002B     		cmp	r3, #0
 1264 0030 00D0     		beq	.L59
 653:Drivers/STM32L0xx_HAL_Driver/Src/stm32l0xx_hal_dma.c ****     }
 1265              		.loc 1 653 7 is_stmt 1 view .LVU449
 1266 0032 9847     		blx	r3
 1267              	.LVL83:
 659:Drivers/STM32L0xx_HAL_Driver/Src/stm32l0xx_hal_dma.c ****   return;
 1268              		.loc 1 659 3 view .LVU450
ARM GAS  /tmp/ccI53EIM.s 			page 44


 660:Drivers/STM32L0xx_HAL_Driver/Src/stm32l0xx_hal_dma.c **** }
 1269              		.loc 1 660 3 view .LVU451
 1270              	.L59:
 661:Drivers/STM32L0xx_HAL_Driver/Src/stm32l0xx_hal_dma.c **** 
 1271              		.loc 1 661 1 is_stmt 0 view .LVU452
 1272              		@ sp needed
 1273              	.LVL84:
 661:Drivers/STM32L0xx_HAL_Driver/Src/stm32l0xx_hal_dma.c **** 
 1274              		.loc 1 661 1 view .LVU453
 1275 0034 F8BD     		pop	{r3, r4, r5, r6, r7, pc}
 1276              	.LVL85:
 1277              	.L60:
 607:Drivers/STM32L0xx_HAL_Driver/Src/stm32l0xx_hal_dma.c ****   {
 1278              		.loc 1 607 8 is_stmt 1 view .LVU454
 607:Drivers/STM32L0xx_HAL_Driver/Src/stm32l0xx_hal_dma.c ****   {
 1279              		.loc 1 607 44 is_stmt 0 view .LVU455
 1280 0036 0224     		movs	r4, #2
 1281 0038 2600     		movs	r6, r4
 1282 003a 9E40     		lsls	r6, r6, r3
 607:Drivers/STM32L0xx_HAL_Driver/Src/stm32l0xx_hal_dma.c ****   {
 1283              		.loc 1 607 11 view .LVU456
 1284 003c 3242     		tst	r2, r6
 1285 003e 14D0     		beq	.L64
 607:Drivers/STM32L0xx_HAL_Driver/Src/stm32l0xx_hal_dma.c ****   {
 1286              		.loc 1 607 79 discriminator 1 view .LVU457
 1287 0040 3C42     		tst	r4, r7
 1288 0042 12D0     		beq	.L64
 609:Drivers/STM32L0xx_HAL_Driver/Src/stm32l0xx_hal_dma.c ****     {
 1289              		.loc 1 609 5 is_stmt 1 view .LVU458
 609:Drivers/STM32L0xx_HAL_Driver/Src/stm32l0xx_hal_dma.c ****     {
 1290              		.loc 1 609 23 is_stmt 0 view .LVU459
 1291 0044 0B68     		ldr	r3, [r1]
 609:Drivers/STM32L0xx_HAL_Driver/Src/stm32l0xx_hal_dma.c ****     {
 1292              		.loc 1 609 7 view .LVU460
 1293 0046 9B06     		lsls	r3, r3, #26
 1294 0048 06D4     		bmi	.L65
 612:Drivers/STM32L0xx_HAL_Driver/Src/stm32l0xx_hal_dma.c **** 
 1295              		.loc 1 612 7 is_stmt 1 view .LVU461
 1296 004a 0A22     		movs	r2, #10
 1297              	.LVL86:
 612:Drivers/STM32L0xx_HAL_Driver/Src/stm32l0xx_hal_dma.c **** 
 1298              		.loc 1 612 7 is_stmt 0 view .LVU462
 1299 004c 0B68     		ldr	r3, [r1]
 1300 004e 9343     		bics	r3, r2
 1301 0050 0B60     		str	r3, [r1]
 615:Drivers/STM32L0xx_HAL_Driver/Src/stm32l0xx_hal_dma.c ****     }
 1302              		.loc 1 615 7 is_stmt 1 view .LVU463
 615:Drivers/STM32L0xx_HAL_Driver/Src/stm32l0xx_hal_dma.c ****     }
 1303              		.loc 1 615 19 is_stmt 0 view .LVU464
 1304 0052 2523     		movs	r3, #37
 1305 0054 093A     		subs	r2, r2, #9
 1306 0056 C254     		strb	r2, [r0, r3]
 1307              	.L65:
 618:Drivers/STM32L0xx_HAL_Driver/Src/stm32l0xx_hal_dma.c **** 
 1308              		.loc 1 618 5 is_stmt 1 view .LVU465
 621:Drivers/STM32L0xx_HAL_Driver/Src/stm32l0xx_hal_dma.c **** 
 1309              		.loc 1 621 5 is_stmt 0 view .LVU466
ARM GAS  /tmp/ccI53EIM.s 			page 45


 1310 0058 2423     		movs	r3, #36
 1311 005a 0022     		movs	r2, #0
 618:Drivers/STM32L0xx_HAL_Driver/Src/stm32l0xx_hal_dma.c **** 
 1312              		.loc 1 618 32 view .LVU467
 1313 005c 6E60     		str	r6, [r5, #4]
 621:Drivers/STM32L0xx_HAL_Driver/Src/stm32l0xx_hal_dma.c **** 
 1314              		.loc 1 621 5 is_stmt 1 view .LVU468
 621:Drivers/STM32L0xx_HAL_Driver/Src/stm32l0xx_hal_dma.c **** 
 1315              		.loc 1 621 5 view .LVU469
 1316 005e C254     		strb	r2, [r0, r3]
 621:Drivers/STM32L0xx_HAL_Driver/Src/stm32l0xx_hal_dma.c **** 
 1317              		.loc 1 621 5 view .LVU470
 623:Drivers/STM32L0xx_HAL_Driver/Src/stm32l0xx_hal_dma.c ****     {
 1318              		.loc 1 623 5 view .LVU471
 623:Drivers/STM32L0xx_HAL_Driver/Src/stm32l0xx_hal_dma.c ****     {
 1319              		.loc 1 623 12 is_stmt 0 view .LVU472
 1320 0060 C36A     		ldr	r3, [r0, #44]
 623:Drivers/STM32L0xx_HAL_Driver/Src/stm32l0xx_hal_dma.c ****     {
 1321              		.loc 1 623 7 view .LVU473
 1322 0062 002B     		cmp	r3, #0
 1323 0064 E6D0     		beq	.L59
 653:Drivers/STM32L0xx_HAL_Driver/Src/stm32l0xx_hal_dma.c ****     }
 1324              		.loc 1 653 7 is_stmt 1 view .LVU474
 1325 0066 9847     		blx	r3
 1326              	.LVL87:
 659:Drivers/STM32L0xx_HAL_Driver/Src/stm32l0xx_hal_dma.c ****   return;
 1327              		.loc 1 659 3 view .LVU475
 660:Drivers/STM32L0xx_HAL_Driver/Src/stm32l0xx_hal_dma.c **** }
 1328              		.loc 1 660 3 view .LVU476
 1329 0068 E4E7     		b	.L59
 1330              	.LVL88:
 1331              	.L64:
 631:Drivers/STM32L0xx_HAL_Driver/Src/stm32l0xx_hal_dma.c ****   {
 1332              		.loc 1 631 8 view .LVU477
 631:Drivers/STM32L0xx_HAL_Driver/Src/stm32l0xx_hal_dma.c ****   {
 1333              		.loc 1 631 44 is_stmt 0 view .LVU478
 1334 006a 0824     		movs	r4, #8
 1335 006c 2600     		movs	r6, r4
 1336 006e 9E40     		lsls	r6, r6, r3
 631:Drivers/STM32L0xx_HAL_Driver/Src/stm32l0xx_hal_dma.c ****   {
 1337              		.loc 1 631 11 view .LVU479
 1338 0070 3242     		tst	r2, r6
 1339 0072 DFD0     		beq	.L59
 631:Drivers/STM32L0xx_HAL_Driver/Src/stm32l0xx_hal_dma.c ****   {
 1340              		.loc 1 631 79 discriminator 1 view .LVU480
 1341 0074 3C42     		tst	r4, r7
 1342 0076 DDD0     		beq	.L59
 636:Drivers/STM32L0xx_HAL_Driver/Src/stm32l0xx_hal_dma.c **** 
 1343              		.loc 1 636 5 is_stmt 1 view .LVU481
 1344 0078 0A68     		ldr	r2, [r1]
 1345              	.LVL89:
 636:Drivers/STM32L0xx_HAL_Driver/Src/stm32l0xx_hal_dma.c **** 
 1346              		.loc 1 636 5 is_stmt 0 view .LVU482
 1347 007a 0634     		adds	r4, r4, #6
 1348 007c A243     		bics	r2, r4
 1349 007e 0A60     		str	r2, [r1]
 639:Drivers/STM32L0xx_HAL_Driver/Src/stm32l0xx_hal_dma.c **** 
ARM GAS  /tmp/ccI53EIM.s 			page 46


 1350              		.loc 1 639 5 is_stmt 1 view .LVU483
 639:Drivers/STM32L0xx_HAL_Driver/Src/stm32l0xx_hal_dma.c **** 
 1351              		.loc 1 639 48 is_stmt 0 view .LVU484
 1352 0080 0122     		movs	r2, #1
 1353 0082 1100     		movs	r1, r2
 1354 0084 9940     		lsls	r1, r1, r3
 645:Drivers/STM32L0xx_HAL_Driver/Src/stm32l0xx_hal_dma.c **** 
 1355              		.loc 1 645 17 view .LVU485
 1356 0086 2523     		movs	r3, #37
 639:Drivers/STM32L0xx_HAL_Driver/Src/stm32l0xx_hal_dma.c **** 
 1357              		.loc 1 639 32 view .LVU486
 1358 0088 6960     		str	r1, [r5, #4]
 642:Drivers/STM32L0xx_HAL_Driver/Src/stm32l0xx_hal_dma.c **** 
 1359              		.loc 1 642 5 is_stmt 1 view .LVU487
 642:Drivers/STM32L0xx_HAL_Driver/Src/stm32l0xx_hal_dma.c **** 
 1360              		.loc 1 642 21 is_stmt 0 view .LVU488
 1361 008a C263     		str	r2, [r0, #60]
 645:Drivers/STM32L0xx_HAL_Driver/Src/stm32l0xx_hal_dma.c **** 
 1362              		.loc 1 645 5 is_stmt 1 view .LVU489
 645:Drivers/STM32L0xx_HAL_Driver/Src/stm32l0xx_hal_dma.c **** 
 1363              		.loc 1 645 17 is_stmt 0 view .LVU490
 1364 008c C254     		strb	r2, [r0, r3]
 648:Drivers/STM32L0xx_HAL_Driver/Src/stm32l0xx_hal_dma.c **** 
 1365              		.loc 1 648 5 is_stmt 1 view .LVU491
 648:Drivers/STM32L0xx_HAL_Driver/Src/stm32l0xx_hal_dma.c **** 
 1366              		.loc 1 648 5 view .LVU492
 1367 008e 0022     		movs	r2, #0
 1368 0090 013B     		subs	r3, r3, #1
 1369 0092 C254     		strb	r2, [r0, r3]
 648:Drivers/STM32L0xx_HAL_Driver/Src/stm32l0xx_hal_dma.c **** 
 1370              		.loc 1 648 5 view .LVU493
 650:Drivers/STM32L0xx_HAL_Driver/Src/stm32l0xx_hal_dma.c ****     {
 1371              		.loc 1 650 5 view .LVU494
 650:Drivers/STM32L0xx_HAL_Driver/Src/stm32l0xx_hal_dma.c ****     {
 1372              		.loc 1 650 13 is_stmt 0 view .LVU495
 1373 0094 436B     		ldr	r3, [r0, #52]
 650:Drivers/STM32L0xx_HAL_Driver/Src/stm32l0xx_hal_dma.c ****     {
 1374              		.loc 1 650 8 view .LVU496
 1375 0096 002B     		cmp	r3, #0
 1376 0098 CCD0     		beq	.L59
 653:Drivers/STM32L0xx_HAL_Driver/Src/stm32l0xx_hal_dma.c ****     }
 1377              		.loc 1 653 7 is_stmt 1 view .LVU497
 1378 009a 9847     		blx	r3
 1379              	.LVL90:
 659:Drivers/STM32L0xx_HAL_Driver/Src/stm32l0xx_hal_dma.c ****   return;
 1380              		.loc 1 659 3 view .LVU498
 660:Drivers/STM32L0xx_HAL_Driver/Src/stm32l0xx_hal_dma.c **** }
 1381              		.loc 1 660 3 view .LVU499
 1382 009c CAE7     		b	.L59
 1383              		.cfi_endproc
 1384              	.LFE41:
 1386 009e C046     		.section	.text.HAL_DMA_RegisterCallback,"ax",%progbits
 1387              		.align	1
 1388              		.p2align 2,,3
 1389              		.global	HAL_DMA_RegisterCallback
 1390              		.syntax unified
 1391              		.code	16
ARM GAS  /tmp/ccI53EIM.s 			page 47


 1392              		.thumb_func
 1393              		.fpu softvfp
 1395              	HAL_DMA_RegisterCallback:
 1396              	.LVL91:
 1397              	.LFB42:
 674:Drivers/STM32L0xx_HAL_Driver/Src/stm32l0xx_hal_dma.c ****   HAL_StatusTypeDef status = HAL_OK;
 1398              		.loc 1 674 1 view -0
 1399              		.cfi_startproc
 1400              		@ args = 0, pretend = 0, frame = 0
 1401              		@ frame_needed = 0, uses_anonymous_args = 0
 675:Drivers/STM32L0xx_HAL_Driver/Src/stm32l0xx_hal_dma.c **** 
 1402              		.loc 1 675 3 view .LVU501
 678:Drivers/STM32L0xx_HAL_Driver/Src/stm32l0xx_hal_dma.c **** 
 1403              		.loc 1 678 3 view .LVU502
 678:Drivers/STM32L0xx_HAL_Driver/Src/stm32l0xx_hal_dma.c **** 
 1404              		.loc 1 678 3 view .LVU503
 674:Drivers/STM32L0xx_HAL_Driver/Src/stm32l0xx_hal_dma.c ****   HAL_StatusTypeDef status = HAL_OK;
 1405              		.loc 1 674 1 is_stmt 0 view .LVU504
 1406 0000 0300     		movs	r3, r0
 678:Drivers/STM32L0xx_HAL_Driver/Src/stm32l0xx_hal_dma.c **** 
 1407              		.loc 1 678 3 view .LVU505
 1408 0002 2420     		movs	r0, #36
 1409              	.LVL92:
 678:Drivers/STM32L0xx_HAL_Driver/Src/stm32l0xx_hal_dma.c **** 
 1410              		.loc 1 678 3 view .LVU506
 1411 0004 185C     		ldrb	r0, [r3, r0]
 674:Drivers/STM32L0xx_HAL_Driver/Src/stm32l0xx_hal_dma.c ****   HAL_StatusTypeDef status = HAL_OK;
 1412              		.loc 1 674 1 view .LVU507
 1413 0006 10B5     		push	{r4, lr}
 1414              	.LCFI11:
 1415              		.cfi_def_cfa_offset 8
 1416              		.cfi_offset 4, -8
 1417              		.cfi_offset 14, -4
 678:Drivers/STM32L0xx_HAL_Driver/Src/stm32l0xx_hal_dma.c **** 
 1418              		.loc 1 678 3 view .LVU508
 1419 0008 0128     		cmp	r0, #1
 1420 000a 19D0     		beq	.L100
 678:Drivers/STM32L0xx_HAL_Driver/Src/stm32l0xx_hal_dma.c **** 
 1421              		.loc 1 678 3 is_stmt 1 discriminator 2 view .LVU509
 678:Drivers/STM32L0xx_HAL_Driver/Src/stm32l0xx_hal_dma.c **** 
 1422              		.loc 1 678 3 discriminator 2 view .LVU510
 680:Drivers/STM32L0xx_HAL_Driver/Src/stm32l0xx_hal_dma.c ****   {
 1423              		.loc 1 680 3 discriminator 2 view .LVU511
 680:Drivers/STM32L0xx_HAL_Driver/Src/stm32l0xx_hal_dma.c ****   {
 1424              		.loc 1 680 33 is_stmt 0 discriminator 2 view .LVU512
 1425 000c 2520     		movs	r0, #37
 1426 000e 1C5C     		ldrb	r4, [r3, r0]
 1427 0010 E0B2     		uxtb	r0, r4
 680:Drivers/STM32L0xx_HAL_Driver/Src/stm32l0xx_hal_dma.c ****   {
 1428              		.loc 1 680 5 discriminator 2 view .LVU513
 1429 0012 012C     		cmp	r4, #1
 1430 0014 04D0     		beq	.L103
 707:Drivers/STM32L0xx_HAL_Driver/Src/stm32l0xx_hal_dma.c ****   }
 1431              		.loc 1 707 12 view .LVU514
 1432 0016 0120     		movs	r0, #1
 1433              	.L94:
 1434              	.LVL93:
ARM GAS  /tmp/ccI53EIM.s 			page 48


 711:Drivers/STM32L0xx_HAL_Driver/Src/stm32l0xx_hal_dma.c **** 
 1435              		.loc 1 711 3 is_stmt 1 view .LVU515
 711:Drivers/STM32L0xx_HAL_Driver/Src/stm32l0xx_hal_dma.c **** 
 1436              		.loc 1 711 3 view .LVU516
 1437 0018 2422     		movs	r2, #36
 1438              	.LVL94:
 711:Drivers/STM32L0xx_HAL_Driver/Src/stm32l0xx_hal_dma.c **** 
 1439              		.loc 1 711 3 is_stmt 0 view .LVU517
 1440 001a 0021     		movs	r1, #0
 1441              	.LVL95:
 711:Drivers/STM32L0xx_HAL_Driver/Src/stm32l0xx_hal_dma.c **** 
 1442              		.loc 1 711 3 view .LVU518
 1443 001c 9954     		strb	r1, [r3, r2]
 711:Drivers/STM32L0xx_HAL_Driver/Src/stm32l0xx_hal_dma.c **** 
 1444              		.loc 1 711 3 is_stmt 1 view .LVU519
 713:Drivers/STM32L0xx_HAL_Driver/Src/stm32l0xx_hal_dma.c **** }
 1445              		.loc 1 713 3 view .LVU520
 1446              	.LVL96:
 1447              	.L93:
 714:Drivers/STM32L0xx_HAL_Driver/Src/stm32l0xx_hal_dma.c **** 
 1448              		.loc 1 714 1 is_stmt 0 view .LVU521
 1449              		@ sp needed
 1450 001e 10BD     		pop	{r4, pc}
 1451              	.LVL97:
 1452              	.L103:
 682:Drivers/STM32L0xx_HAL_Driver/Src/stm32l0xx_hal_dma.c ****     {
 1453              		.loc 1 682 5 is_stmt 1 view .LVU522
 1454 0020 0229     		cmp	r1, #2
 1455 0022 0FD0     		beq	.L95
 1456 0024 04D8     		bhi	.L96
 1457 0026 0029     		cmp	r1, #0
 1458 0028 07D0     		beq	.L104
 689:Drivers/STM32L0xx_HAL_Driver/Src/stm32l0xx_hal_dma.c ****            break;
 1459              		.loc 1 689 12 view .LVU523
 675:Drivers/STM32L0xx_HAL_Driver/Src/stm32l0xx_hal_dma.c **** 
 1460              		.loc 1 675 21 is_stmt 0 view .LVU524
 1461 002a 0020     		movs	r0, #0
 689:Drivers/STM32L0xx_HAL_Driver/Src/stm32l0xx_hal_dma.c ****            break;
 1462              		.loc 1 689 39 view .LVU525
 1463 002c 1A63     		str	r2, [r3, #48]
 690:Drivers/STM32L0xx_HAL_Driver/Src/stm32l0xx_hal_dma.c **** 
 1464              		.loc 1 690 12 is_stmt 1 view .LVU526
 1465 002e F3E7     		b	.L94
 1466              	.L96:
 682:Drivers/STM32L0xx_HAL_Driver/Src/stm32l0xx_hal_dma.c ****     {
 1467              		.loc 1 682 5 is_stmt 0 view .LVU527
 1468 0030 0329     		cmp	r1, #3
 1469 0032 F1D1     		bne	.L94
 697:Drivers/STM32L0xx_HAL_Driver/Src/stm32l0xx_hal_dma.c ****            break;
 1470              		.loc 1 697 12 is_stmt 1 view .LVU528
 675:Drivers/STM32L0xx_HAL_Driver/Src/stm32l0xx_hal_dma.c **** 
 1471              		.loc 1 675 21 is_stmt 0 view .LVU529
 1472 0034 0020     		movs	r0, #0
 697:Drivers/STM32L0xx_HAL_Driver/Src/stm32l0xx_hal_dma.c ****            break;
 1473              		.loc 1 697 36 view .LVU530
 1474 0036 9A63     		str	r2, [r3, #56]
 698:Drivers/STM32L0xx_HAL_Driver/Src/stm32l0xx_hal_dma.c **** 
ARM GAS  /tmp/ccI53EIM.s 			page 49


 1475              		.loc 1 698 12 is_stmt 1 view .LVU531
 1476 0038 EEE7     		b	.L94
 1477              	.L104:
 685:Drivers/STM32L0xx_HAL_Driver/Src/stm32l0xx_hal_dma.c ****            break;
 1478              		.loc 1 685 12 view .LVU532
 675:Drivers/STM32L0xx_HAL_Driver/Src/stm32l0xx_hal_dma.c **** 
 1479              		.loc 1 675 21 is_stmt 0 view .LVU533
 1480 003a 0020     		movs	r0, #0
 685:Drivers/STM32L0xx_HAL_Driver/Src/stm32l0xx_hal_dma.c ****            break;
 1481              		.loc 1 685 35 view .LVU534
 1482 003c DA62     		str	r2, [r3, #44]
 686:Drivers/STM32L0xx_HAL_Driver/Src/stm32l0xx_hal_dma.c **** 
 1483              		.loc 1 686 12 is_stmt 1 view .LVU535
 1484 003e EBE7     		b	.L94
 1485              	.L100:
 678:Drivers/STM32L0xx_HAL_Driver/Src/stm32l0xx_hal_dma.c **** 
 1486              		.loc 1 678 3 is_stmt 0 view .LVU536
 1487 0040 0220     		movs	r0, #2
 1488 0042 ECE7     		b	.L93
 1489              	.L95:
 693:Drivers/STM32L0xx_HAL_Driver/Src/stm32l0xx_hal_dma.c ****            break;
 1490              		.loc 1 693 12 is_stmt 1 view .LVU537
 675:Drivers/STM32L0xx_HAL_Driver/Src/stm32l0xx_hal_dma.c **** 
 1491              		.loc 1 675 21 is_stmt 0 view .LVU538
 1492 0044 0020     		movs	r0, #0
 693:Drivers/STM32L0xx_HAL_Driver/Src/stm32l0xx_hal_dma.c ****            break;
 1493              		.loc 1 693 36 view .LVU539
 1494 0046 5A63     		str	r2, [r3, #52]
 694:Drivers/STM32L0xx_HAL_Driver/Src/stm32l0xx_hal_dma.c **** 
 1495              		.loc 1 694 12 is_stmt 1 view .LVU540
 1496 0048 E6E7     		b	.L94
 1497              		.cfi_endproc
 1498              	.LFE42:
 1500 004a C046     		.section	.text.HAL_DMA_UnRegisterCallback,"ax",%progbits
 1501              		.align	1
 1502              		.p2align 2,,3
 1503              		.global	HAL_DMA_UnRegisterCallback
 1504              		.syntax unified
 1505              		.code	16
 1506              		.thumb_func
 1507              		.fpu softvfp
 1509              	HAL_DMA_UnRegisterCallback:
 1510              	.LVL98:
 1511              	.LFB43:
 725:Drivers/STM32L0xx_HAL_Driver/Src/stm32l0xx_hal_dma.c ****   HAL_StatusTypeDef status = HAL_OK;
 1512              		.loc 1 725 1 view -0
 1513              		.cfi_startproc
 1514              		@ args = 0, pretend = 0, frame = 0
 1515              		@ frame_needed = 0, uses_anonymous_args = 0
 1516              		@ link register save eliminated.
 726:Drivers/STM32L0xx_HAL_Driver/Src/stm32l0xx_hal_dma.c **** 
 1517              		.loc 1 726 3 view .LVU542
 729:Drivers/STM32L0xx_HAL_Driver/Src/stm32l0xx_hal_dma.c **** 
 1518              		.loc 1 729 3 view .LVU543
 729:Drivers/STM32L0xx_HAL_Driver/Src/stm32l0xx_hal_dma.c **** 
 1519              		.loc 1 729 3 view .LVU544
 1520 0000 2422     		movs	r2, #36
ARM GAS  /tmp/ccI53EIM.s 			page 50


 725:Drivers/STM32L0xx_HAL_Driver/Src/stm32l0xx_hal_dma.c ****   HAL_StatusTypeDef status = HAL_OK;
 1521              		.loc 1 725 1 is_stmt 0 view .LVU545
 1522 0002 0300     		movs	r3, r0
 729:Drivers/STM32L0xx_HAL_Driver/Src/stm32l0xx_hal_dma.c **** 
 1523              		.loc 1 729 3 view .LVU546
 1524 0004 805C     		ldrb	r0, [r0, r2]
 1525              	.LVL99:
 729:Drivers/STM32L0xx_HAL_Driver/Src/stm32l0xx_hal_dma.c **** 
 1526              		.loc 1 729 3 view .LVU547
 1527 0006 0128     		cmp	r0, #1
 1528 0008 11D0     		beq	.L114
 729:Drivers/STM32L0xx_HAL_Driver/Src/stm32l0xx_hal_dma.c **** 
 1529              		.loc 1 729 3 is_stmt 1 discriminator 2 view .LVU548
 1530 000a 0120     		movs	r0, #1
 1531 000c 9854     		strb	r0, [r3, r2]
 729:Drivers/STM32L0xx_HAL_Driver/Src/stm32l0xx_hal_dma.c **** 
 1532              		.loc 1 729 3 discriminator 2 view .LVU549
 731:Drivers/STM32L0xx_HAL_Driver/Src/stm32l0xx_hal_dma.c ****   {
 1533              		.loc 1 731 3 discriminator 2 view .LVU550
 731:Drivers/STM32L0xx_HAL_Driver/Src/stm32l0xx_hal_dma.c ****   {
 1534              		.loc 1 731 33 is_stmt 0 discriminator 2 view .LVU551
 1535 000e 0132     		adds	r2, r2, #1
 1536 0010 9A5C     		ldrb	r2, [r3, r2]
 1537 0012 D0B2     		uxtb	r0, r2
 731:Drivers/STM32L0xx_HAL_Driver/Src/stm32l0xx_hal_dma.c ****   {
 1538              		.loc 1 731 5 discriminator 2 view .LVU552
 1539 0014 012A     		cmp	r2, #1
 1540 0016 04D0     		beq	.L116
 765:Drivers/STM32L0xx_HAL_Driver/Src/stm32l0xx_hal_dma.c ****   }
 1541              		.loc 1 765 12 view .LVU553
 1542 0018 0120     		movs	r0, #1
 1543              	.L107:
 1544              	.LVL100:
 769:Drivers/STM32L0xx_HAL_Driver/Src/stm32l0xx_hal_dma.c **** 
 1545              		.loc 1 769 3 is_stmt 1 view .LVU554
 769:Drivers/STM32L0xx_HAL_Driver/Src/stm32l0xx_hal_dma.c **** 
 1546              		.loc 1 769 3 view .LVU555
 1547 001a 2422     		movs	r2, #36
 1548 001c 0021     		movs	r1, #0
 1549              	.LVL101:
 769:Drivers/STM32L0xx_HAL_Driver/Src/stm32l0xx_hal_dma.c **** 
 1550              		.loc 1 769 3 is_stmt 0 view .LVU556
 1551 001e 9954     		strb	r1, [r3, r2]
 769:Drivers/STM32L0xx_HAL_Driver/Src/stm32l0xx_hal_dma.c **** 
 1552              		.loc 1 769 3 is_stmt 1 view .LVU557
 771:Drivers/STM32L0xx_HAL_Driver/Src/stm32l0xx_hal_dma.c **** }
 1553              		.loc 1 771 3 view .LVU558
 1554              	.LVL102:
 1555              	.L106:
 772:Drivers/STM32L0xx_HAL_Driver/Src/stm32l0xx_hal_dma.c **** 
 1556              		.loc 1 772 1 is_stmt 0 view .LVU559
 1557              		@ sp needed
 1558 0020 7047     		bx	lr
 1559              	.LVL103:
 1560              	.L116:
 733:Drivers/STM32L0xx_HAL_Driver/Src/stm32l0xx_hal_dma.c ****     {
 1561              		.loc 1 733 5 is_stmt 1 view .LVU560
ARM GAS  /tmp/ccI53EIM.s 			page 51


 1562 0022 0429     		cmp	r1, #4
 1563 0024 F9D8     		bhi	.L107
 1564 0026 0E48     		ldr	r0, .L117
 1565 0028 8A00     		lsls	r2, r1, #2
 1566 002a 8258     		ldr	r2, [r0, r2]
 1567 002c 9746     		mov	pc, r2
 1568              		.section	.rodata.HAL_DMA_UnRegisterCallback,"a",%progbits
 1569              		.align	2
 1570              	.L109:
 1571 0000 4A000000 		.word	.L113
 1572 0004 42000000 		.word	.L112
 1573 0008 3A000000 		.word	.L111
 1574 000c 32000000 		.word	.L110
 1575 0010 52000000 		.word	.L108
 1576              		.section	.text.HAL_DMA_UnRegisterCallback
 1577              	.L114:
 729:Drivers/STM32L0xx_HAL_Driver/Src/stm32l0xx_hal_dma.c **** 
 1578              		.loc 1 729 3 is_stmt 0 view .LVU561
 1579 002e 0220     		movs	r0, #2
 1580 0030 F6E7     		b	.L106
 1581              	.L110:
 748:Drivers/STM32L0xx_HAL_Driver/Src/stm32l0xx_hal_dma.c ****            break;
 1582              		.loc 1 748 12 is_stmt 1 view .LVU562
 748:Drivers/STM32L0xx_HAL_Driver/Src/stm32l0xx_hal_dma.c ****            break;
 1583              		.loc 1 748 36 is_stmt 0 view .LVU563
 1584 0032 0022     		movs	r2, #0
 726:Drivers/STM32L0xx_HAL_Driver/Src/stm32l0xx_hal_dma.c **** 
 1585              		.loc 1 726 21 view .LVU564
 1586 0034 0020     		movs	r0, #0
 748:Drivers/STM32L0xx_HAL_Driver/Src/stm32l0xx_hal_dma.c ****            break;
 1587              		.loc 1 748 36 view .LVU565
 1588 0036 9A63     		str	r2, [r3, #56]
 749:Drivers/STM32L0xx_HAL_Driver/Src/stm32l0xx_hal_dma.c **** 
 1589              		.loc 1 749 12 is_stmt 1 view .LVU566
 1590 0038 EFE7     		b	.L107
 1591              	.L111:
 744:Drivers/STM32L0xx_HAL_Driver/Src/stm32l0xx_hal_dma.c ****            break;
 1592              		.loc 1 744 12 view .LVU567
 744:Drivers/STM32L0xx_HAL_Driver/Src/stm32l0xx_hal_dma.c ****            break;
 1593              		.loc 1 744 36 is_stmt 0 view .LVU568
 1594 003a 0022     		movs	r2, #0
 726:Drivers/STM32L0xx_HAL_Driver/Src/stm32l0xx_hal_dma.c **** 
 1595              		.loc 1 726 21 view .LVU569
 1596 003c 0020     		movs	r0, #0
 744:Drivers/STM32L0xx_HAL_Driver/Src/stm32l0xx_hal_dma.c ****            break;
 1597              		.loc 1 744 36 view .LVU570
 1598 003e 5A63     		str	r2, [r3, #52]
 745:Drivers/STM32L0xx_HAL_Driver/Src/stm32l0xx_hal_dma.c **** 
 1599              		.loc 1 745 12 is_stmt 1 view .LVU571
 1600 0040 EBE7     		b	.L107
 1601              	.L112:
 740:Drivers/STM32L0xx_HAL_Driver/Src/stm32l0xx_hal_dma.c ****            break;
 1602              		.loc 1 740 12 view .LVU572
 740:Drivers/STM32L0xx_HAL_Driver/Src/stm32l0xx_hal_dma.c ****            break;
 1603              		.loc 1 740 39 is_stmt 0 view .LVU573
 1604 0042 0022     		movs	r2, #0
 726:Drivers/STM32L0xx_HAL_Driver/Src/stm32l0xx_hal_dma.c **** 
ARM GAS  /tmp/ccI53EIM.s 			page 52


 1605              		.loc 1 726 21 view .LVU574
 1606 0044 0020     		movs	r0, #0
 740:Drivers/STM32L0xx_HAL_Driver/Src/stm32l0xx_hal_dma.c ****            break;
 1607              		.loc 1 740 39 view .LVU575
 1608 0046 1A63     		str	r2, [r3, #48]
 741:Drivers/STM32L0xx_HAL_Driver/Src/stm32l0xx_hal_dma.c **** 
 1609              		.loc 1 741 12 is_stmt 1 view .LVU576
 1610 0048 E7E7     		b	.L107
 1611              	.L113:
 736:Drivers/STM32L0xx_HAL_Driver/Src/stm32l0xx_hal_dma.c ****            break;
 1612              		.loc 1 736 12 view .LVU577
 736:Drivers/STM32L0xx_HAL_Driver/Src/stm32l0xx_hal_dma.c ****            break;
 1613              		.loc 1 736 35 is_stmt 0 view .LVU578
 1614 004a 0022     		movs	r2, #0
 726:Drivers/STM32L0xx_HAL_Driver/Src/stm32l0xx_hal_dma.c **** 
 1615              		.loc 1 726 21 view .LVU579
 1616 004c 0800     		movs	r0, r1
 736:Drivers/STM32L0xx_HAL_Driver/Src/stm32l0xx_hal_dma.c ****            break;
 1617              		.loc 1 736 35 view .LVU580
 1618 004e DA62     		str	r2, [r3, #44]
 737:Drivers/STM32L0xx_HAL_Driver/Src/stm32l0xx_hal_dma.c **** 
 1619              		.loc 1 737 12 is_stmt 1 view .LVU581
 1620 0050 E3E7     		b	.L107
 1621              	.L108:
 752:Drivers/STM32L0xx_HAL_Driver/Src/stm32l0xx_hal_dma.c ****            hdma->XferHalfCpltCallback = NULL;
 1622              		.loc 1 752 12 view .LVU582
 752:Drivers/STM32L0xx_HAL_Driver/Src/stm32l0xx_hal_dma.c ****            hdma->XferHalfCpltCallback = NULL;
 1623              		.loc 1 752 35 is_stmt 0 view .LVU583
 1624 0052 0022     		movs	r2, #0
 726:Drivers/STM32L0xx_HAL_Driver/Src/stm32l0xx_hal_dma.c **** 
 1625              		.loc 1 726 21 view .LVU584
 1626 0054 0020     		movs	r0, #0
 752:Drivers/STM32L0xx_HAL_Driver/Src/stm32l0xx_hal_dma.c ****            hdma->XferHalfCpltCallback = NULL;
 1627              		.loc 1 752 35 view .LVU585
 1628 0056 DA62     		str	r2, [r3, #44]
 753:Drivers/STM32L0xx_HAL_Driver/Src/stm32l0xx_hal_dma.c ****            hdma->XferErrorCallback = NULL;
 1629              		.loc 1 753 12 is_stmt 1 view .LVU586
 753:Drivers/STM32L0xx_HAL_Driver/Src/stm32l0xx_hal_dma.c ****            hdma->XferErrorCallback = NULL;
 1630              		.loc 1 753 39 is_stmt 0 view .LVU587
 1631 0058 1A63     		str	r2, [r3, #48]
 754:Drivers/STM32L0xx_HAL_Driver/Src/stm32l0xx_hal_dma.c ****            hdma->XferAbortCallback = NULL;
 1632              		.loc 1 754 12 is_stmt 1 view .LVU588
 754:Drivers/STM32L0xx_HAL_Driver/Src/stm32l0xx_hal_dma.c ****            hdma->XferAbortCallback = NULL;
 1633              		.loc 1 754 36 is_stmt 0 view .LVU589
 1634 005a 5A63     		str	r2, [r3, #52]
 755:Drivers/STM32L0xx_HAL_Driver/Src/stm32l0xx_hal_dma.c ****            break;
 1635              		.loc 1 755 12 is_stmt 1 view .LVU590
 755:Drivers/STM32L0xx_HAL_Driver/Src/stm32l0xx_hal_dma.c ****            break;
 1636              		.loc 1 755 36 is_stmt 0 view .LVU591
 1637 005c 9A63     		str	r2, [r3, #56]
 756:Drivers/STM32L0xx_HAL_Driver/Src/stm32l0xx_hal_dma.c **** 
 1638              		.loc 1 756 12 is_stmt 1 view .LVU592
 1639 005e DCE7     		b	.L107
 1640              	.L118:
 1641              		.align	2
 1642              	.L117:
 1643 0060 00000000 		.word	.L109
ARM GAS  /tmp/ccI53EIM.s 			page 53


 1644              		.cfi_endproc
 1645              	.LFE43:
 1647              		.section	.text.HAL_DMA_GetState,"ax",%progbits
 1648              		.align	1
 1649              		.p2align 2,,3
 1650              		.global	HAL_DMA_GetState
 1651              		.syntax unified
 1652              		.code	16
 1653              		.thumb_func
 1654              		.fpu softvfp
 1656              	HAL_DMA_GetState:
 1657              	.LVL104:
 1658              	.LFB44:
 803:Drivers/STM32L0xx_HAL_Driver/Src/stm32l0xx_hal_dma.c ****   /* Return DMA handle state */
 1659              		.loc 1 803 1 view -0
 1660              		.cfi_startproc
 1661              		@ args = 0, pretend = 0, frame = 0
 1662              		@ frame_needed = 0, uses_anonymous_args = 0
 1663              		@ link register save eliminated.
 805:Drivers/STM32L0xx_HAL_Driver/Src/stm32l0xx_hal_dma.c **** }
 1664              		.loc 1 805 3 view .LVU594
 805:Drivers/STM32L0xx_HAL_Driver/Src/stm32l0xx_hal_dma.c **** }
 1665              		.loc 1 805 14 is_stmt 0 view .LVU595
 1666 0000 2523     		movs	r3, #37
 1667 0002 C05C     		ldrb	r0, [r0, r3]
 1668              	.LVL105:
 806:Drivers/STM32L0xx_HAL_Driver/Src/stm32l0xx_hal_dma.c **** 
 1669              		.loc 1 806 1 view .LVU596
 1670              		@ sp needed
 805:Drivers/STM32L0xx_HAL_Driver/Src/stm32l0xx_hal_dma.c **** }
 1671              		.loc 1 805 14 view .LVU597
 1672 0004 C0B2     		uxtb	r0, r0
 806:Drivers/STM32L0xx_HAL_Driver/Src/stm32l0xx_hal_dma.c **** 
 1673              		.loc 1 806 1 view .LVU598
 1674 0006 7047     		bx	lr
 1675              		.cfi_endproc
 1676              	.LFE44:
 1678              		.section	.text.HAL_DMA_GetError,"ax",%progbits
 1679              		.align	1
 1680              		.p2align 2,,3
 1681              		.global	HAL_DMA_GetError
 1682              		.syntax unified
 1683              		.code	16
 1684              		.thumb_func
 1685              		.fpu softvfp
 1687              	HAL_DMA_GetError:
 1688              	.LVL106:
 1689              	.LFB45:
 815:Drivers/STM32L0xx_HAL_Driver/Src/stm32l0xx_hal_dma.c ****   return hdma->ErrorCode;
 1690              		.loc 1 815 1 is_stmt 1 view -0
 1691              		.cfi_startproc
 1692              		@ args = 0, pretend = 0, frame = 0
 1693              		@ frame_needed = 0, uses_anonymous_args = 0
 1694              		@ link register save eliminated.
 816:Drivers/STM32L0xx_HAL_Driver/Src/stm32l0xx_hal_dma.c **** }
 1695              		.loc 1 816 3 view .LVU600
 816:Drivers/STM32L0xx_HAL_Driver/Src/stm32l0xx_hal_dma.c **** }
ARM GAS  /tmp/ccI53EIM.s 			page 54


 1696              		.loc 1 816 14 is_stmt 0 view .LVU601
 1697 0000 C06B     		ldr	r0, [r0, #60]
 1698              	.LVL107:
 817:Drivers/STM32L0xx_HAL_Driver/Src/stm32l0xx_hal_dma.c **** 
 1699              		.loc 1 817 1 view .LVU602
 1700              		@ sp needed
 1701 0002 7047     		bx	lr
 1702              		.cfi_endproc
 1703              	.LFE45:
 1705              		.text
 1706              	.Letext0:
 1707              		.file 2 "/usr/lib/gcc/arm-none-eabi/9.2.1/include/stdint.h"
 1708              		.file 3 "Drivers/CMSIS/Device/ST/STM32L0xx/Include/system_stm32l0xx.h"
 1709              		.file 4 "Drivers/CMSIS/Device/ST/STM32L0xx/Include/stm32l031xx.h"
 1710              		.file 5 "Drivers/STM32L0xx_HAL_Driver/Inc/stm32l0xx_hal_def.h"
 1711              		.file 6 "Drivers/STM32L0xx_HAL_Driver/Inc/stm32l0xx_hal_dma.h"
 1712              		.file 7 "Drivers/STM32L0xx_HAL_Driver/Inc/stm32l0xx_hal.h"
ARM GAS  /tmp/ccI53EIM.s 			page 55

