ARM GAS  /tmp/ccEz0nOp.s 			page 1


   1              		.cpu cortex-m0plus
   2              		.eabi_attribute 20, 1
   3              		.eabi_attribute 21, 1
   4              		.eabi_attribute 23, 3
   5              		.eabi_attribute 24, 1
   6              		.eabi_attribute 25, 1
   7              		.eabi_attribute 26, 1
   8              		.eabi_attribute 30, 1
   9              		.eabi_attribute 34, 0
  10              		.eabi_attribute 18, 4
  11              		.file	"bme280.c"
  12              		.text
  13              	.Ltext0:
  14              		.cfi_sections	.debug_frame
  15              		.section	.text.bme280_parse_sensor_data,"ax",%progbits
  16              		.align	1
  17              		.syntax unified
  18              		.code	16
  19              		.thumb_func
  20              		.fpu softvfp
  22              	bme280_parse_sensor_data:
  23              	.LFB34:
  24              		.file 1 "Core/Src/bme280.c"
   1:Core/Src/bme280.c **** #include "main.h"
   2:Core/Src/bme280.c **** #include "bme280_defs.h"
   3:Core/Src/bme280.c **** #include "bme280.h"
   4:Core/Src/bme280.c **** 
   5:Core/Src/bme280.c **** static int32_t compensate_temperature(struct bme280_dev *dev);
   6:Core/Src/bme280.c **** 
   7:Core/Src/bme280.c **** static uint32_t compensate_pressure(struct bme280_dev *dev);
   8:Core/Src/bme280.c **** 
   9:Core/Src/bme280.c **** static uint32_t compensate_humidity(struct bme280_dev *dev);
  10:Core/Src/bme280.c **** static void bme280_parse_sensor_data(const uint8_t *reg_data, struct bme280_dev *dev);
  11:Core/Src/bme280.c **** 
  12:Core/Src/bme280.c **** static void parse_temp_press_calib_data(const uint8_t *reg_data, struct bme280_dev *dev);
  13:Core/Src/bme280.c **** 
  14:Core/Src/bme280.c **** static void parse_humidity_calib_data(const uint8_t *reg_data, struct bme280_dev *dev);
  15:Core/Src/bme280.c **** 
  16:Core/Src/bme280.c **** static int8_t bme280_compensate_data(struct bme280_dev *dev);
  17:Core/Src/bme280.c **** 
  18:Core/Src/bme280.c **** 
  19:Core/Src/bme280.c **** void bme280_parse_sensor_data(const uint8_t *reg_data, struct bme280_dev *dev)
  20:Core/Src/bme280.c **** {
  25              		.loc 1 20 0
  26              		.cfi_startproc
  27              		@ args = 0, pretend = 0, frame = 0
  28              		@ frame_needed = 0, uses_anonymous_args = 0
  29              	.LVL0:
  30 0000 10B5     		push	{r4, lr}
  31              	.LCFI0:
  32              		.cfi_def_cfa_offset 8
  33              		.cfi_offset 4, -8
  34              		.cfi_offset 14, -4
  21:Core/Src/bme280.c ****     /* Variables to store the sensor data */
  22:Core/Src/bme280.c ****     uint32_t data_xlsb;
  23:Core/Src/bme280.c ****     uint32_t data_lsb;
  24:Core/Src/bme280.c ****     uint32_t data_msb;
ARM GAS  /tmp/ccEz0nOp.s 			page 2


  25:Core/Src/bme280.c **** 
  26:Core/Src/bme280.c ****     /* Store the parsed register values for pressure data */
  27:Core/Src/bme280.c ****     data_msb = (uint32_t)reg_data[0] << 12;
  35              		.loc 1 27 0
  36 0002 0378     		ldrb	r3, [r0]
  37 0004 1B03     		lsls	r3, r3, #12
  38              	.LVL1:
  28:Core/Src/bme280.c ****     data_lsb = (uint32_t)reg_data[1] << 4;
  39              		.loc 1 28 0
  40 0006 4478     		ldrb	r4, [r0, #1]
  41 0008 2401     		lsls	r4, r4, #4
  42              	.LVL2:
  29:Core/Src/bme280.c ****     data_xlsb = (uint32_t)reg_data[2] >> 4;
  43              		.loc 1 29 0
  44 000a 8278     		ldrb	r2, [r0, #2]
  45 000c 1209     		lsrs	r2, r2, #4
  46              	.LVL3:
  30:Core/Src/bme280.c ****     dev->uncomp_dat.pressure = data_msb | data_lsb | data_xlsb;
  47              		.loc 1 30 0
  48 000e 2343     		orrs	r3, r4
  49              	.LVL4:
  50 0010 1343     		orrs	r3, r2
  51 0012 8B65     		str	r3, [r1, #88]
  52              	.LVL5:
  31:Core/Src/bme280.c **** 		data_msb = data_lsb = data_xlsb =0;
  32:Core/Src/bme280.c ****     /* Store the parsed register values for temperature data */
  33:Core/Src/bme280.c ****     data_msb = (uint32_t)reg_data[3] << 12;
  53              		.loc 1 33 0
  54 0014 C378     		ldrb	r3, [r0, #3]
  55 0016 1B03     		lsls	r3, r3, #12
  56              	.LVL6:
  34:Core/Src/bme280.c ****     data_lsb = (uint32_t)reg_data[4] << 4;
  57              		.loc 1 34 0
  58 0018 0479     		ldrb	r4, [r0, #4]
  59 001a 2401     		lsls	r4, r4, #4
  60              	.LVL7:
  35:Core/Src/bme280.c ****     data_xlsb = (uint32_t)reg_data[5] >> 4;
  61              		.loc 1 35 0
  62 001c 4279     		ldrb	r2, [r0, #5]
  63 001e 1209     		lsrs	r2, r2, #4
  64              	.LVL8:
  36:Core/Src/bme280.c ****     dev->uncomp_dat.temperature = data_msb | data_lsb | data_xlsb;
  65              		.loc 1 36 0
  66 0020 2343     		orrs	r3, r4
  67              	.LVL9:
  68 0022 1343     		orrs	r3, r2
  69 0024 CB65     		str	r3, [r1, #92]
  70              	.LVL10:
  37:Core/Src/bme280.c **** 		data_msb = data_lsb = data_xlsb =0;
  38:Core/Src/bme280.c ****     /* Store the parsed register values for temperature data */
  39:Core/Src/bme280.c ****     data_lsb = (uint32_t)reg_data[6] << 8;
  71              		.loc 1 39 0
  72 0026 8379     		ldrb	r3, [r0, #6]
  73 0028 1B02     		lsls	r3, r3, #8
  74              	.LVL11:
  40:Core/Src/bme280.c ****     data_msb = (uint32_t)reg_data[7];
  75              		.loc 1 40 0
ARM GAS  /tmp/ccEz0nOp.s 			page 3


  76 002a C279     		ldrb	r2, [r0, #7]
  77              	.LVL12:
  41:Core/Src/bme280.c ****     dev->uncomp_dat.humidity = data_msb | data_lsb;
  78              		.loc 1 41 0
  79 002c 1343     		orrs	r3, r2
  80              	.LVL13:
  81 002e 0B66     		str	r3, [r1, #96]
  82              	.LVL14:
  42:Core/Src/bme280.c **** }
  83              		.loc 1 42 0
  84              		@ sp needed
  85 0030 10BD     		pop	{r4, pc}
  86              		.cfi_endproc
  87              	.LFE34:
  89              		.section	.text.compensate_temperature,"ax",%progbits
  90              		.align	1
  91              		.syntax unified
  92              		.code	16
  93              		.thumb_func
  94              		.fpu softvfp
  96              	compensate_temperature:
  97              	.LFB36:
  43:Core/Src/bme280.c **** 
  44:Core/Src/bme280.c **** int8_t bme280_compensate_data(struct bme280_dev *dev)
  45:Core/Src/bme280.c **** {
  46:Core/Src/bme280.c ****     int8_t rslt = 1;
  47:Core/Src/bme280.c **** 
  48:Core/Src/bme280.c ****         /* Initialize to zero */
  49:Core/Src/bme280.c **** 	      dev->data.temperature = 0;
  50:Core/Src/bme280.c ****         dev->data.pressure = 0;
  51:Core/Src/bme280.c ****         dev->data.humidity = 0;
  52:Core/Src/bme280.c ****         dev->data.temperature = compensate_temperature(dev);
  53:Core/Src/bme280.c ****         dev->data.pressure = compensate_pressure(dev);
  54:Core/Src/bme280.c ****         dev->data.humidity = compensate_humidity(dev);
  55:Core/Src/bme280.c **** 
  56:Core/Src/bme280.c ****     return rslt;
  57:Core/Src/bme280.c **** }
  58:Core/Src/bme280.c **** 
  59:Core/Src/bme280.c **** static int32_t compensate_temperature(struct bme280_dev *dev)
  60:Core/Src/bme280.c **** {
  98              		.loc 1 60 0
  99              		.cfi_startproc
 100              		@ args = 0, pretend = 0, frame = 0
 101              		@ frame_needed = 0, uses_anonymous_args = 0
 102              	.LVL15:
 103 0000 30B5     		push	{r4, r5, lr}
 104              	.LCFI1:
 105              		.cfi_def_cfa_offset 12
 106              		.cfi_offset 4, -12
 107              		.cfi_offset 5, -8
 108              		.cfi_offset 14, -4
 109              	.LVL16:
  61:Core/Src/bme280.c ****     int32_t var1;
  62:Core/Src/bme280.c ****     int32_t var2;
  63:Core/Src/bme280.c ****     int32_t temperature;
  64:Core/Src/bme280.c ****     int32_t temperature_min = -4000;
  65:Core/Src/bme280.c ****     int32_t temperature_max = 8500;
ARM GAS  /tmp/ccEz0nOp.s 			page 4


  66:Core/Src/bme280.c **** 
  67:Core/Src/bme280.c ****     var1 = (int32_t)((dev->uncomp_dat.temperature / 8) - ((int32_t) dev->calib_data.dig_T1 * 2));
 110              		.loc 1 67 0
 111 0002 C26D     		ldr	r2, [r0, #92]
 112 0004 D308     		lsrs	r3, r2, #3
 113 0006 848D     		ldrh	r4, [r0, #44]
 114 0008 6100     		lsls	r1, r4, #1
 115 000a 5B1A     		subs	r3, r3, r1
 116              	.LVL17:
  68:Core/Src/bme280.c ****     var1 = (var1 * ((int32_t)dev->calib_data.dig_T2)) / 2048;
 117              		.loc 1 68 0
 118 000c 2E25     		movs	r5, #46
 119 000e 415F     		ldrsh	r1, [r0, r5]
 120 0010 5943     		muls	r1, r3
 121 0012 CB17     		asrs	r3, r1, #31
 122              	.LVL18:
 123 0014 5B05     		lsls	r3, r3, #21
 124 0016 5B0D     		lsrs	r3, r3, #21
 125 0018 5B18     		adds	r3, r3, r1
 126 001a DB12     		asrs	r3, r3, #11
 127              	.LVL19:
  69:Core/Src/bme280.c ****     var2 = (int32_t)((dev->uncomp_dat.temperature / 16) - ((int32_t)dev->calib_data.dig_T1));
 128              		.loc 1 69 0
 129 001c 1209     		lsrs	r2, r2, #4
 130 001e 121B     		subs	r2, r2, r4
 131              	.LVL20:
  70:Core/Src/bme280.c ****     var2 = (((var2 * var2) / 4096) * ((int32_t)dev->calib_data.dig_T3)) / 16384;
 132              		.loc 1 70 0
 133 0020 5243     		muls	r2, r2
 134              	.LVL21:
 135 0022 D117     		asrs	r1, r2, #31
 136 0024 0905     		lsls	r1, r1, #20
 137 0026 090D     		lsrs	r1, r1, #20
 138 0028 8A18     		adds	r2, r1, r2
 139 002a 1213     		asrs	r2, r2, #12
 140 002c 3024     		movs	r4, #48
 141 002e 015F     		ldrsh	r1, [r0, r4]
 142              	.LVL22:
 143 0030 5143     		muls	r1, r2
 144 0032 CA17     		asrs	r2, r1, #31
 145 0034 9204     		lsls	r2, r2, #18
 146 0036 920C     		lsrs	r2, r2, #18
 147 0038 5218     		adds	r2, r2, r1
 148 003a 9213     		asrs	r2, r2, #14
 149              	.LVL23:
  71:Core/Src/bme280.c ****     dev->calib_data.t_fine = var1 + var2;
 150              		.loc 1 71 0
 151 003c 9A18     		adds	r2, r3, r2
 152              	.LVL24:
 153 003e 0265     		str	r2, [r0, #80]
  72:Core/Src/bme280.c ****     temperature = (dev->calib_data.t_fine * 5 + 128) / 256;
 154              		.loc 1 72 0
 155 0040 9300     		lsls	r3, r2, #2
 156              	.LVL25:
 157 0042 9B18     		adds	r3, r3, r2
 158 0044 8033     		adds	r3, r3, #128
 159 0046 DA17     		asrs	r2, r3, #31
ARM GAS  /tmp/ccEz0nOp.s 			page 5


 160 0048 FF20     		movs	r0, #255
 161              	.LVL26:
 162 004a 1040     		ands	r0, r2
 163 004c C018     		adds	r0, r0, r3
 164 004e 0012     		asrs	r0, r0, #8
 165              	.LVL27:
  73:Core/Src/bme280.c ****     if (temperature < temperature_min)
 166              		.loc 1 73 0
 167 0050 054B     		ldr	r3, .L7
 168 0052 9842     		cmp	r0, r3
 169 0054 03DB     		blt	.L4
  74:Core/Src/bme280.c ****     {
  75:Core/Src/bme280.c ****         temperature = temperature_min;
  76:Core/Src/bme280.c ****     }
  77:Core/Src/bme280.c ****     else if (temperature > temperature_max)
 170              		.loc 1 77 0
 171 0056 054B     		ldr	r3, .L7+4
 172 0058 9842     		cmp	r0, r3
 173 005a 02DC     		bgt	.L6
 174              	.LVL28:
 175              	.L2:
  78:Core/Src/bme280.c ****     {
  79:Core/Src/bme280.c ****         temperature = temperature_max;
  80:Core/Src/bme280.c ****     }
  81:Core/Src/bme280.c **** 
  82:Core/Src/bme280.c ****     return temperature;
  83:Core/Src/bme280.c **** }
 176              		.loc 1 83 0
 177              		@ sp needed
 178 005c 30BD     		pop	{r4, r5, pc}
 179              	.LVL29:
 180              	.L4:
  75:Core/Src/bme280.c ****     }
 181              		.loc 1 75 0
 182 005e 0248     		ldr	r0, .L7
 183              	.LVL30:
 184 0060 FCE7     		b	.L2
 185              	.LVL31:
 186              	.L6:
  79:Core/Src/bme280.c ****     }
 187              		.loc 1 79 0
 188 0062 0248     		ldr	r0, .L7+4
 189              	.LVL32:
  82:Core/Src/bme280.c **** }
 190              		.loc 1 82 0
 191 0064 FAE7     		b	.L2
 192              	.L8:
 193 0066 C046     		.align	2
 194              	.L7:
 195 0068 60F0FFFF 		.word	-4000
 196 006c 34210000 		.word	8500
 197              		.cfi_endproc
 198              	.LFE36:
 200              		.global	__aeabi_uidiv
 201              		.section	.text.compensate_pressure,"ax",%progbits
 202              		.align	1
 203              		.syntax unified
ARM GAS  /tmp/ccEz0nOp.s 			page 6


 204              		.code	16
 205              		.thumb_func
 206              		.fpu softvfp
 208              	compensate_pressure:
 209              	.LFB37:
  84:Core/Src/bme280.c **** static uint32_t compensate_pressure(struct bme280_dev *dev)
  85:Core/Src/bme280.c **** {
 210              		.loc 1 85 0
 211              		.cfi_startproc
 212              		@ args = 0, pretend = 0, frame = 0
 213              		@ frame_needed = 0, uses_anonymous_args = 0
 214              	.LVL33:
 215 0000 F8B5     		push	{r3, r4, r5, r6, r7, lr}
 216              	.LCFI2:
 217              		.cfi_def_cfa_offset 24
 218              		.cfi_offset 3, -24
 219              		.cfi_offset 4, -20
 220              		.cfi_offset 5, -16
 221              		.cfi_offset 6, -12
 222              		.cfi_offset 7, -8
 223              		.cfi_offset 14, -4
 224 0002 0400     		movs	r4, r0
 225              	.LVL34:
  86:Core/Src/bme280.c ****     int32_t var1;
  87:Core/Src/bme280.c ****     int32_t var2;
  88:Core/Src/bme280.c ****     int32_t var3;
  89:Core/Src/bme280.c ****     int32_t var4;
  90:Core/Src/bme280.c ****     uint32_t var5;
  91:Core/Src/bme280.c ****     uint32_t pressure;
  92:Core/Src/bme280.c ****     uint32_t pressure_min = 30000;
  93:Core/Src/bme280.c ****     uint32_t pressure_max = 110000;
  94:Core/Src/bme280.c **** 
  95:Core/Src/bme280.c ****     var1 = (((int32_t)dev->calib_data.t_fine) / 2) - (int32_t)64000;
 226              		.loc 1 95 0
 227 0004 026D     		ldr	r2, [r0, #80]
 228 0006 D30F     		lsrs	r3, r2, #31
 229 0008 9B18     		adds	r3, r3, r2
 230 000a 5B10     		asrs	r3, r3, #1
 231 000c 404A     		ldr	r2, .L17
 232 000e 9446     		mov	ip, r2
 233 0010 6344     		add	r3, r3, ip
 234              	.LVL35:
  96:Core/Src/bme280.c ****     var2 = (((var1 / 4) * (var1 / 4)) / 2048) * ((int32_t)dev->calib_data.dig_P6);
 235              		.loc 1 96 0
 236 0012 DA17     		asrs	r2, r3, #31
 237 0014 0326     		movs	r6, #3
 238 0016 3240     		ands	r2, r6
 239 0018 D218     		adds	r2, r2, r3
 240 001a 9510     		asrs	r5, r2, #2
 241 001c 6D43     		muls	r5, r5
 242 001e E917     		asrs	r1, r5, #31
 243 0020 4A05     		lsls	r2, r1, #21
 244 0022 520D     		lsrs	r2, r2, #21
 245 0024 5219     		adds	r2, r2, r5
 246 0026 D212     		asrs	r2, r2, #11
 247 0028 3C27     		movs	r7, #60
 248 002a C05F     		ldrsh	r0, [r0, r7]
ARM GAS  /tmp/ccEz0nOp.s 			page 7


 249              	.LVL36:
 250 002c 5043     		muls	r0, r2
 251              	.LVL37:
  97:Core/Src/bme280.c ****     var2 = var2 + ((var1 * ((int32_t)dev->calib_data.dig_P5)) * 2);
 252              		.loc 1 97 0
 253 002e 3A27     		movs	r7, #58
 254 0030 E25F     		ldrsh	r2, [r4, r7]
 255 0032 5A43     		muls	r2, r3
 256 0034 5200     		lsls	r2, r2, #1
 257 0036 1218     		adds	r2, r2, r0
 258              	.LVL38:
  98:Core/Src/bme280.c ****     var2 = (var2 / 4) + (((int32_t)dev->calib_data.dig_P4) * 65536);
 259              		.loc 1 98 0
 260 0038 D017     		asrs	r0, r2, #31
 261 003a 0640     		ands	r6, r0
 262 003c B618     		adds	r6, r6, r2
 263 003e B610     		asrs	r6, r6, #2
 264 0040 3822     		movs	r2, #56
 265 0042 A05E     		ldrsh	r0, [r4, r2]
 266              	.LVL39:
 267 0044 0004     		lsls	r0, r0, #16
 268 0046 3618     		adds	r6, r6, r0
 269              	.LVL40:
  99:Core/Src/bme280.c ****     var3 = (dev->calib_data.dig_P3 * (((var1 / 4) * (var1 / 4)) / 8192)) / 8;
 270              		.loc 1 99 0
 271 0048 3622     		movs	r2, #54
 272 004a A05E     		ldrsh	r0, [r4, r2]
 273 004c CA04     		lsls	r2, r1, #19
 274 004e D20C     		lsrs	r2, r2, #19
 275 0050 5219     		adds	r2, r2, r5
 276 0052 5213     		asrs	r2, r2, #13
 277 0054 4243     		muls	r2, r0
 278 0056 D017     		asrs	r0, r2, #31
 279 0058 0721     		movs	r1, #7
 280 005a 0140     		ands	r1, r0
 281 005c 8918     		adds	r1, r1, r2
 282 005e C910     		asrs	r1, r1, #3
 283              	.LVL41:
 100:Core/Src/bme280.c ****     var4 = (((int32_t)dev->calib_data.dig_P2) * var1) / 2;
 284              		.loc 1 100 0
 285 0060 3420     		movs	r0, #52
 286 0062 225E     		ldrsh	r2, [r4, r0]
 287 0064 5343     		muls	r3, r2
 288              	.LVL42:
 289 0066 DA0F     		lsrs	r2, r3, #31
 290 0068 D218     		adds	r2, r2, r3
 291 006a 5210     		asrs	r2, r2, #1
 292              	.LVL43:
 101:Core/Src/bme280.c ****     var1 = (var3 + var4) / 262144;
 293              		.loc 1 101 0
 294 006c 8A18     		adds	r2, r1, r2
 295              	.LVL44:
 296 006e D117     		asrs	r1, r2, #31
 297              	.LVL45:
 298 0070 8903     		lsls	r1, r1, #14
 299 0072 890B     		lsrs	r1, r1, #14
 300 0074 8918     		adds	r1, r1, r2
ARM GAS  /tmp/ccEz0nOp.s 			page 8


 301 0076 8914     		asrs	r1, r1, #18
 302              	.LVL46:
 102:Core/Src/bme280.c ****     var1 = (((32768 + var1)) * ((int32_t)dev->calib_data.dig_P1)) / 32768;
 303              		.loc 1 102 0
 304 0078 8023     		movs	r3, #128
 305              	.LVL47:
 306 007a 1B02     		lsls	r3, r3, #8
 307 007c 9C46     		mov	ip, r3
 308              	.LVL48:
 309 007e 6144     		add	r1, r1, ip
 310              	.LVL49:
 311 0080 628E     		ldrh	r2, [r4, #50]
 312 0082 4A43     		muls	r2, r1
 313 0084 D117     		asrs	r1, r2, #31
 314              	.LVL50:
 315 0086 4904     		lsls	r1, r1, #17
 316 0088 490C     		lsrs	r1, r1, #17
 317 008a 8918     		adds	r1, r1, r2
 318 008c C913     		asrs	r1, r1, #15
 319              	.LVL51:
 103:Core/Src/bme280.c **** 
 104:Core/Src/bme280.c ****     /* avoid exception caused by division by zero */
 105:Core/Src/bme280.c ****     if (var1)
 320              		.loc 1 105 0
 321 008e 39D0     		beq	.L13
 106:Core/Src/bme280.c ****     {
 107:Core/Src/bme280.c ****         var5 = (uint32_t)((uint32_t)1048576) - dev->uncomp_dat.pressure;
 322              		.loc 1 107 0
 323 0090 8020     		movs	r0, #128
 324 0092 4003     		lsls	r0, r0, #13
 325 0094 A36D     		ldr	r3, [r4, #88]
 326 0096 C01A     		subs	r0, r0, r3
 327              	.LVL52:
 108:Core/Src/bme280.c ****         pressure = ((uint32_t)(var5 - (uint32_t)(var2 / 4096))) * 3125;
 328              		.loc 1 108 0
 329 0098 F317     		asrs	r3, r6, #31
 330 009a 1B05     		lsls	r3, r3, #20
 331 009c 1B0D     		lsrs	r3, r3, #20
 332 009e 9E19     		adds	r6, r3, r6
 333              	.LVL53:
 334 00a0 3613     		asrs	r6, r6, #12
 335 00a2 861B     		subs	r6, r0, r6
 336 00a4 1B48     		ldr	r0, .L17+4
 337              	.LVL54:
 338 00a6 7043     		muls	r0, r6
 339              	.LVL55:
 109:Core/Src/bme280.c ****         if (pressure < 0x80000000)
 340              		.loc 1 109 0
 341 00a8 0028     		cmp	r0, #0
 342 00aa 27DB     		blt	.L11
 110:Core/Src/bme280.c ****         {
 111:Core/Src/bme280.c ****             pressure = (pressure << 1) / ((uint32_t)var1);
 343              		.loc 1 111 0
 344 00ac 4000     		lsls	r0, r0, #1
 345              	.LVL56:
 346 00ae FFF7FEFF 		bl	__aeabi_uidiv
 347              	.LVL57:
ARM GAS  /tmp/ccEz0nOp.s 			page 9


 348              	.L12:
 112:Core/Src/bme280.c ****         }
 113:Core/Src/bme280.c ****         else
 114:Core/Src/bme280.c ****         {
 115:Core/Src/bme280.c ****             pressure = (pressure / (uint32_t)var1) * 2;
 116:Core/Src/bme280.c ****         }
 117:Core/Src/bme280.c ****         var1 = (((int32_t)dev->calib_data.dig_P9) * ((int32_t)(((pressure / 8) * (pressure / 8)) / 
 349              		.loc 1 117 0
 350 00b2 4223     		movs	r3, #66
 351 00b4 E25E     		ldrsh	r2, [r4, r3]
 352 00b6 C108     		lsrs	r1, r0, #3
 353 00b8 4943     		muls	r1, r1
 354 00ba 490B     		lsrs	r1, r1, #13
 355 00bc 4A43     		muls	r2, r1
 356 00be D317     		asrs	r3, r2, #31
 357 00c0 1B05     		lsls	r3, r3, #20
 358 00c2 1B0D     		lsrs	r3, r3, #20
 359 00c4 9B18     		adds	r3, r3, r2
 360 00c6 1B13     		asrs	r3, r3, #12
 361              	.LVL58:
 118:Core/Src/bme280.c ****         var2 = (((int32_t)(pressure / 4)) * ((int32_t)dev->calib_data.dig_P8)) / 8192;
 362              		.loc 1 118 0
 363 00c8 8108     		lsrs	r1, r0, #2
 364 00ca 4022     		movs	r2, #64
 365 00cc A25E     		ldrsh	r2, [r4, r2]
 366 00ce 5143     		muls	r1, r2
 367 00d0 CA17     		asrs	r2, r1, #31
 368 00d2 D204     		lsls	r2, r2, #19
 369 00d4 D20C     		lsrs	r2, r2, #19
 370 00d6 5218     		adds	r2, r2, r1
 371 00d8 5213     		asrs	r2, r2, #13
 372              	.LVL59:
 119:Core/Src/bme280.c ****         pressure = (uint32_t)((int32_t)pressure + ((var1 + var2 + dev->calib_data.dig_P7) / 16));
 373              		.loc 1 119 0
 374 00da 9B18     		adds	r3, r3, r2
 375              	.LVL60:
 376 00dc 3E21     		movs	r1, #62
 377 00de 625E     		ldrsh	r2, [r4, r1]
 378              	.LVL61:
 379 00e0 9B18     		adds	r3, r3, r2
 380 00e2 D917     		asrs	r1, r3, #31
 381 00e4 0F22     		movs	r2, #15
 382 00e6 0A40     		ands	r2, r1
 383 00e8 D318     		adds	r3, r2, r3
 384 00ea 1B11     		asrs	r3, r3, #4
 385 00ec 1818     		adds	r0, r3, r0
 386              	.LVL62:
 120:Core/Src/bme280.c ****         if (pressure < pressure_min)
 387              		.loc 1 120 0
 388 00ee 0A4B     		ldr	r3, .L17+8
 389 00f0 9842     		cmp	r0, r3
 390 00f2 09D9     		bls	.L14
 121:Core/Src/bme280.c ****         {
 122:Core/Src/bme280.c ****             pressure = pressure_min;
 123:Core/Src/bme280.c ****         }
 124:Core/Src/bme280.c ****         else if (pressure > pressure_max)
 391              		.loc 1 124 0
ARM GAS  /tmp/ccEz0nOp.s 			page 10


 392 00f4 094B     		ldr	r3, .L17+12
 393 00f6 9842     		cmp	r0, r3
 394 00f8 08D8     		bhi	.L16
 395              	.LVL63:
 396              	.L9:
 125:Core/Src/bme280.c ****         {
 126:Core/Src/bme280.c ****             pressure = pressure_max;
 127:Core/Src/bme280.c ****         }
 128:Core/Src/bme280.c ****     }
 129:Core/Src/bme280.c ****     else
 130:Core/Src/bme280.c ****     {
 131:Core/Src/bme280.c ****         pressure = pressure_min;
 132:Core/Src/bme280.c ****     }
 133:Core/Src/bme280.c **** 
 134:Core/Src/bme280.c ****     return pressure;
 135:Core/Src/bme280.c **** }
 397              		.loc 1 135 0
 398              		@ sp needed
 399              	.LVL64:
 400 00fa F8BD     		pop	{r3, r4, r5, r6, r7, pc}
 401              	.LVL65:
 402              	.L11:
 115:Core/Src/bme280.c ****         }
 403              		.loc 1 115 0
 404 00fc FFF7FEFF 		bl	__aeabi_uidiv
 405              	.LVL66:
 406 0100 4000     		lsls	r0, r0, #1
 407              	.LVL67:
 408 0102 D6E7     		b	.L12
 409              	.LVL68:
 410              	.L13:
 131:Core/Src/bme280.c ****     }
 411              		.loc 1 131 0
 412 0104 0648     		ldr	r0, .L17+16
 413 0106 F8E7     		b	.L9
 414              	.LVL69:
 415              	.L14:
 122:Core/Src/bme280.c ****         }
 416              		.loc 1 122 0
 417 0108 0548     		ldr	r0, .L17+16
 418              	.LVL70:
 419 010a F6E7     		b	.L9
 420              	.LVL71:
 421              	.L16:
 126:Core/Src/bme280.c ****         }
 422              		.loc 1 126 0
 423 010c 0348     		ldr	r0, .L17+12
 424              	.LVL72:
 134:Core/Src/bme280.c **** }
 425              		.loc 1 134 0
 426 010e F4E7     		b	.L9
 427              	.L18:
 428              		.align	2
 429              	.L17:
 430 0110 0006FFFF 		.word	-64000
 431 0114 350C0000 		.word	3125
 432 0118 2F750000 		.word	29999
ARM GAS  /tmp/ccEz0nOp.s 			page 11


 433 011c B0AD0100 		.word	110000
 434 0120 30750000 		.word	30000
 435              		.cfi_endproc
 436              	.LFE37:
 438              		.section	.text.compensate_humidity,"ax",%progbits
 439              		.align	1
 440              		.syntax unified
 441              		.code	16
 442              		.thumb_func
 443              		.fpu softvfp
 445              	compensate_humidity:
 446              	.LFB38:
 136:Core/Src/bme280.c **** static uint32_t compensate_humidity(struct bme280_dev *dev)
 137:Core/Src/bme280.c **** {
 447              		.loc 1 137 0
 448              		.cfi_startproc
 449              		@ args = 0, pretend = 0, frame = 0
 450              		@ frame_needed = 0, uses_anonymous_args = 0
 451              	.LVL73:
 452 0000 30B5     		push	{r4, r5, lr}
 453              	.LCFI3:
 454              		.cfi_def_cfa_offset 12
 455              		.cfi_offset 4, -12
 456              		.cfi_offset 5, -8
 457              		.cfi_offset 14, -4
 458              	.LVL74:
 138:Core/Src/bme280.c ****     int32_t var1;
 139:Core/Src/bme280.c ****     int32_t var2;
 140:Core/Src/bme280.c ****     int32_t var3;
 141:Core/Src/bme280.c ****     int32_t var4;
 142:Core/Src/bme280.c ****     int32_t var5;
 143:Core/Src/bme280.c ****     uint32_t humidity;
 144:Core/Src/bme280.c ****     uint32_t humidity_max = 102400;
 145:Core/Src/bme280.c **** 
 146:Core/Src/bme280.c ****     var1 = dev->calib_data.t_fine - ((int32_t)76800);
 459              		.loc 1 146 0
 460 0002 036D     		ldr	r3, [r0, #80]
 461 0004 3449     		ldr	r1, .L26
 462 0006 8C46     		mov	ip, r1
 463 0008 6344     		add	r3, r3, ip
 464 000a 1A00     		movs	r2, r3
 465              	.LVL75:
 147:Core/Src/bme280.c ****     var2 = (int32_t)(dev->uncomp_dat.humidity * 16384);
 466              		.loc 1 147 0
 467 000c 036E     		ldr	r3, [r0, #96]
 468 000e 9D03     		lsls	r5, r3, #14
 469              	.LVL76:
 148:Core/Src/bme280.c ****     var3 = (int32_t)(((int32_t)dev->calib_data.dig_H4) * 1048576);
 470              		.loc 1 148 0
 471 0010 4A23     		movs	r3, #74
 472 0012 C35E     		ldrsh	r3, [r0, r3]
 473 0014 1B05     		lsls	r3, r3, #20
 474              	.LVL77:
 149:Core/Src/bme280.c ****     var4 = ((int32_t)dev->calib_data.dig_H5) * var1;
 475              		.loc 1 149 0
 476 0016 4C21     		movs	r1, #76
 477 0018 415E     		ldrsh	r1, [r0, r1]
ARM GAS  /tmp/ccEz0nOp.s 			page 12


 478 001a 5143     		muls	r1, r2
 479              	.LVL78:
 150:Core/Src/bme280.c ****     var5 = (((var2 - var3) - var4) + (int32_t)16384) / 32768;
 480              		.loc 1 150 0
 481 001c EC1A     		subs	r4, r5, r3
 482 001e 641A     		subs	r4, r4, r1
 483 0020 8023     		movs	r3, #128
 484              	.LVL79:
 485 0022 DB01     		lsls	r3, r3, #7
 486 0024 9C46     		mov	ip, r3
 487 0026 6444     		add	r4, r4, ip
 488 0028 E117     		asrs	r1, r4, #31
 489              	.LVL80:
 490 002a 4904     		lsls	r1, r1, #17
 491 002c 490C     		lsrs	r1, r1, #17
 492 002e 0919     		adds	r1, r1, r4
 493 0030 C913     		asrs	r1, r1, #15
 494              	.LVL81:
 151:Core/Src/bme280.c ****     var2 = (var1 * ((int32_t)dev->calib_data.dig_H6)) / 1024;
 495              		.loc 1 151 0
 496 0032 4E23     		movs	r3, #78
 497 0034 C456     		ldrsb	r4, [r0, r3]
 498 0036 5443     		muls	r4, r2
 499 0038 E317     		asrs	r3, r4, #31
 500 003a 9B05     		lsls	r3, r3, #22
 501 003c 9B0D     		lsrs	r3, r3, #22
 502 003e 1B19     		adds	r3, r3, r4
 503 0040 9B12     		asrs	r3, r3, #10
 504              	.LVL82:
 152:Core/Src/bme280.c ****     var3 = (var1 * ((int32_t)dev->calib_data.dig_H3)) / 2048;
 505              		.loc 1 152 0
 506 0042 4824     		movs	r4, #72
 507 0044 045D     		ldrb	r4, [r0, r4]
 508 0046 5443     		muls	r4, r2
 509 0048 E217     		asrs	r2, r4, #31
 510              	.LVL83:
 511 004a 5205     		lsls	r2, r2, #21
 512 004c 520D     		lsrs	r2, r2, #21
 513 004e 1219     		adds	r2, r2, r4
 514 0050 D212     		asrs	r2, r2, #11
 515              	.LVL84:
 153:Core/Src/bme280.c ****     var4 = ((var2 * (var3 + (int32_t)32768)) / 1024) + (int32_t)2097152;
 516              		.loc 1 153 0
 517 0052 8024     		movs	r4, #128
 518 0054 2402     		lsls	r4, r4, #8
 519 0056 A446     		mov	ip, r4
 520 0058 6244     		add	r2, r2, ip
 521              	.LVL85:
 522 005a 5A43     		muls	r2, r3
 523              	.LVL86:
 524 005c D317     		asrs	r3, r2, #31
 525              	.LVL87:
 526 005e 9B05     		lsls	r3, r3, #22
 527 0060 9B0D     		lsrs	r3, r3, #22
 528 0062 9B18     		adds	r3, r3, r2
 529 0064 9B12     		asrs	r3, r3, #10
 530 0066 8022     		movs	r2, #128
ARM GAS  /tmp/ccEz0nOp.s 			page 13


 531 0068 9203     		lsls	r2, r2, #14
 532 006a 9446     		mov	ip, r2
 533 006c 6344     		add	r3, r3, ip
 534              	.LVL88:
 154:Core/Src/bme280.c ****     var2 = ((var4 * ((int32_t)dev->calib_data.dig_H2)) + 8192) / 16384;
 535              		.loc 1 154 0
 536 006e 4622     		movs	r2, #70
 537 0070 825E     		ldrsh	r2, [r0, r2]
 538 0072 5343     		muls	r3, r2
 539              	.LVL89:
 540 0074 8022     		movs	r2, #128
 541              	.LVL90:
 542 0076 9201     		lsls	r2, r2, #6
 543              	.LVL91:
 544 0078 9446     		mov	ip, r2
 545              	.LVL92:
 546 007a 6344     		add	r3, r3, ip
 547 007c DA17     		asrs	r2, r3, #31
 548 007e 9204     		lsls	r2, r2, #18
 549 0080 920C     		lsrs	r2, r2, #18
 550 0082 D318     		adds	r3, r2, r3
 551 0084 9B13     		asrs	r3, r3, #14
 552              	.LVL93:
 155:Core/Src/bme280.c ****     var3 = var5 * var2;
 553              		.loc 1 155 0
 554 0086 5943     		muls	r1, r3
 555              	.LVL94:
 156:Core/Src/bme280.c ****     var4 = ((var3 / 32768) * (var3 / 32768)) / 128;
 556              		.loc 1 156 0
 557 0088 CA17     		asrs	r2, r1, #31
 558 008a 5204     		lsls	r2, r2, #17
 559 008c 520C     		lsrs	r2, r2, #17
 560 008e 5218     		adds	r2, r2, r1
 561 0090 D213     		asrs	r2, r2, #15
 562 0092 5243     		muls	r2, r2
 563 0094 D417     		asrs	r4, r2, #31
 564 0096 7F23     		movs	r3, #127
 565              	.LVL95:
 566 0098 2340     		ands	r3, r4
 567 009a 9A18     		adds	r2, r3, r2
 568 009c D211     		asrs	r2, r2, #7
 569              	.LVL96:
 157:Core/Src/bme280.c ****     var5 = var3 - ((var4 * ((int32_t)dev->calib_data.dig_H1)) / 16);
 570              		.loc 1 157 0
 571 009e 4423     		movs	r3, #68
 572 00a0 C35C     		ldrb	r3, [r0, r3]
 573 00a2 5A43     		muls	r2, r3
 574              	.LVL97:
 575 00a4 D017     		asrs	r0, r2, #31
 576              	.LVL98:
 577 00a6 0F23     		movs	r3, #15
 578 00a8 0340     		ands	r3, r0
 579 00aa 9A18     		adds	r2, r3, r2
 580 00ac 1211     		asrs	r2, r2, #4
 581 00ae 891A     		subs	r1, r1, r2
 582              	.LVL99:
 158:Core/Src/bme280.c ****     var5 = (var5 < 0 ? 0 : var5);
ARM GAS  /tmp/ccEz0nOp.s 			page 14


 583              		.loc 1 158 0
 584 00b0 0ED4     		bmi	.L24
 585              	.L20:
 586              	.LVL100:
 159:Core/Src/bme280.c ****     var5 = (var5 > 419430400 ? 419430400 : var5);
 587              		.loc 1 159 0
 588 00b2 C823     		movs	r3, #200
 589 00b4 5B05     		lsls	r3, r3, #21
 590 00b6 9942     		cmp	r1, r3
 591 00b8 00DD     		ble	.L21
 592 00ba 1900     		movs	r1, r3
 593              	.LVL101:
 594              	.L21:
 160:Core/Src/bme280.c ****     humidity = (uint32_t)(var5 / 4096);
 595              		.loc 1 160 0
 596 00bc C817     		asrs	r0, r1, #31
 597 00be 0005     		lsls	r0, r0, #20
 598 00c0 000D     		lsrs	r0, r0, #20
 599 00c2 4018     		adds	r0, r0, r1
 600 00c4 0013     		asrs	r0, r0, #12
 601              	.LVL102:
 161:Core/Src/bme280.c ****     if (humidity > humidity_max)
 602              		.loc 1 161 0
 603 00c6 C823     		movs	r3, #200
 604 00c8 5B02     		lsls	r3, r3, #9
 605 00ca 9842     		cmp	r0, r3
 606 00cc 02D8     		bhi	.L25
 607              	.LVL103:
 608              	.L19:
 162:Core/Src/bme280.c ****     {
 163:Core/Src/bme280.c ****         humidity = humidity_max;
 164:Core/Src/bme280.c ****     }
 165:Core/Src/bme280.c **** 
 166:Core/Src/bme280.c ****     return humidity;
 167:Core/Src/bme280.c **** }
 609              		.loc 1 167 0
 610              		@ sp needed
 611              	.LVL104:
 612 00ce 30BD     		pop	{r4, r5, pc}
 613              	.LVL105:
 614              	.L24:
 158:Core/Src/bme280.c ****     var5 = (var5 > 419430400 ? 419430400 : var5);
 615              		.loc 1 158 0
 616 00d0 0021     		movs	r1, #0
 617 00d2 EEE7     		b	.L20
 618              	.LVL106:
 619              	.L25:
 163:Core/Src/bme280.c ****     }
 620              		.loc 1 163 0
 621 00d4 1800     		movs	r0, r3
 622              	.LVL107:
 166:Core/Src/bme280.c **** }
 623              		.loc 1 166 0
 624 00d6 FAE7     		b	.L19
 625              	.L27:
 626              		.align	2
 627              	.L26:
ARM GAS  /tmp/ccEz0nOp.s 			page 15


 628 00d8 00D4FEFF 		.word	-76800
 629              		.cfi_endproc
 630              	.LFE38:
 632              		.section	.text.bme280_compensate_data,"ax",%progbits
 633              		.align	1
 634              		.syntax unified
 635              		.code	16
 636              		.thumb_func
 637              		.fpu softvfp
 639              	bme280_compensate_data:
 640              	.LFB35:
  45:Core/Src/bme280.c ****     int8_t rslt = 1;
 641              		.loc 1 45 0
 642              		.cfi_startproc
 643              		@ args = 0, pretend = 0, frame = 0
 644              		@ frame_needed = 0, uses_anonymous_args = 0
 645              	.LVL108:
 646 0000 10B5     		push	{r4, lr}
 647              	.LCFI4:
 648              		.cfi_def_cfa_offset 8
 649              		.cfi_offset 4, -8
 650              		.cfi_offset 14, -4
 651 0002 0400     		movs	r4, r0
 652              	.LVL109:
  49:Core/Src/bme280.c ****         dev->data.pressure = 0;
 653              		.loc 1 49 0
 654 0004 0023     		movs	r3, #0
 655 0006 8366     		str	r3, [r0, #104]
  50:Core/Src/bme280.c ****         dev->data.humidity = 0;
 656              		.loc 1 50 0
 657 0008 4366     		str	r3, [r0, #100]
  51:Core/Src/bme280.c ****         dev->data.temperature = compensate_temperature(dev);
 658              		.loc 1 51 0
 659 000a C366     		str	r3, [r0, #108]
  52:Core/Src/bme280.c ****         dev->data.pressure = compensate_pressure(dev);
 660              		.loc 1 52 0
 661 000c FFF7FEFF 		bl	compensate_temperature
 662              	.LVL110:
 663 0010 A066     		str	r0, [r4, #104]
  53:Core/Src/bme280.c ****         dev->data.humidity = compensate_humidity(dev);
 664              		.loc 1 53 0
 665 0012 2000     		movs	r0, r4
 666 0014 FFF7FEFF 		bl	compensate_pressure
 667              	.LVL111:
 668 0018 6066     		str	r0, [r4, #100]
  54:Core/Src/bme280.c **** 
 669              		.loc 1 54 0
 670 001a 2000     		movs	r0, r4
 671 001c FFF7FEFF 		bl	compensate_humidity
 672              	.LVL112:
 673 0020 E066     		str	r0, [r4, #108]
  57:Core/Src/bme280.c **** 
 674              		.loc 1 57 0
 675 0022 0120     		movs	r0, #1
 676              		@ sp needed
 677              	.LVL113:
 678 0024 10BD     		pop	{r4, pc}
ARM GAS  /tmp/ccEz0nOp.s 			page 16


 679              		.cfi_endproc
 680              	.LFE35:
 682              		.section	.text.parse_temp_press_calib_data,"ax",%progbits
 683              		.align	1
 684              		.syntax unified
 685              		.code	16
 686              		.thumb_func
 687              		.fpu softvfp
 689              	parse_temp_press_calib_data:
 690              	.LFB39:
 168:Core/Src/bme280.c **** void parse_temp_press_calib_data(const uint8_t *reg_data, struct bme280_dev *dev)
 169:Core/Src/bme280.c **** {
 691              		.loc 1 169 0
 692              		.cfi_startproc
 693              		@ args = 0, pretend = 0, frame = 0
 694              		@ frame_needed = 0, uses_anonymous_args = 0
 695              		@ link register save eliminated.
 696              	.LVL114:
 170:Core/Src/bme280.c ****     struct bme280_calib_data *calib_data = &dev->calib_data;
 171:Core/Src/bme280.c **** 
 172:Core/Src/bme280.c ****     calib_data->dig_T1 = BME280_CONCAT_BYTES(reg_data[1], reg_data[0]);
 697              		.loc 1 172 0
 698 0000 4278     		ldrb	r2, [r0, #1]
 699 0002 1202     		lsls	r2, r2, #8
 700 0004 0378     		ldrb	r3, [r0]
 701 0006 1343     		orrs	r3, r2
 702 0008 8B85     		strh	r3, [r1, #44]
 173:Core/Src/bme280.c ****     calib_data->dig_T2 = (int16_t)BME280_CONCAT_BYTES(reg_data[3], reg_data[2]);
 703              		.loc 1 173 0
 704 000a C278     		ldrb	r2, [r0, #3]
 705 000c 1202     		lsls	r2, r2, #8
 706 000e 8378     		ldrb	r3, [r0, #2]
 707 0010 1343     		orrs	r3, r2
 708 0012 CB85     		strh	r3, [r1, #46]
 174:Core/Src/bme280.c ****     calib_data->dig_T3 = (int16_t)BME280_CONCAT_BYTES(reg_data[5], reg_data[4]);
 709              		.loc 1 174 0
 710 0014 4279     		ldrb	r2, [r0, #5]
 711 0016 1202     		lsls	r2, r2, #8
 712 0018 0379     		ldrb	r3, [r0, #4]
 713 001a 1343     		orrs	r3, r2
 714 001c 0B86     		strh	r3, [r1, #48]
 175:Core/Src/bme280.c ****     calib_data->dig_P1 = BME280_CONCAT_BYTES(reg_data[7], reg_data[6]);
 715              		.loc 1 175 0
 716 001e C279     		ldrb	r2, [r0, #7]
 717 0020 1202     		lsls	r2, r2, #8
 718 0022 8379     		ldrb	r3, [r0, #6]
 719 0024 1343     		orrs	r3, r2
 720 0026 4B86     		strh	r3, [r1, #50]
 176:Core/Src/bme280.c ****     calib_data->dig_P2 = (int16_t)BME280_CONCAT_BYTES(reg_data[9], reg_data[8]);
 721              		.loc 1 176 0
 722 0028 427A     		ldrb	r2, [r0, #9]
 723 002a 1202     		lsls	r2, r2, #8
 724 002c 037A     		ldrb	r3, [r0, #8]
 725 002e 1343     		orrs	r3, r2
 726 0030 8B86     		strh	r3, [r1, #52]
 177:Core/Src/bme280.c ****     calib_data->dig_P3 = (int16_t)BME280_CONCAT_BYTES(reg_data[11], reg_data[10]);
 727              		.loc 1 177 0
ARM GAS  /tmp/ccEz0nOp.s 			page 17


 728 0032 C27A     		ldrb	r2, [r0, #11]
 729 0034 1202     		lsls	r2, r2, #8
 730 0036 837A     		ldrb	r3, [r0, #10]
 731 0038 1343     		orrs	r3, r2
 732 003a CB86     		strh	r3, [r1, #54]
 178:Core/Src/bme280.c ****     calib_data->dig_P4 = (int16_t)BME280_CONCAT_BYTES(reg_data[13], reg_data[12]);
 733              		.loc 1 178 0
 734 003c 427B     		ldrb	r2, [r0, #13]
 735 003e 1202     		lsls	r2, r2, #8
 736 0040 037B     		ldrb	r3, [r0, #12]
 737 0042 1343     		orrs	r3, r2
 738 0044 0B87     		strh	r3, [r1, #56]
 179:Core/Src/bme280.c ****     calib_data->dig_P5 = (int16_t)BME280_CONCAT_BYTES(reg_data[15], reg_data[14]);
 739              		.loc 1 179 0
 740 0046 C27B     		ldrb	r2, [r0, #15]
 741 0048 1202     		lsls	r2, r2, #8
 742 004a 837B     		ldrb	r3, [r0, #14]
 743 004c 1343     		orrs	r3, r2
 744 004e 4B87     		strh	r3, [r1, #58]
 180:Core/Src/bme280.c ****     calib_data->dig_P6 = (int16_t)BME280_CONCAT_BYTES(reg_data[17], reg_data[16]);
 745              		.loc 1 180 0
 746 0050 427C     		ldrb	r2, [r0, #17]
 747 0052 1202     		lsls	r2, r2, #8
 748 0054 037C     		ldrb	r3, [r0, #16]
 749 0056 1343     		orrs	r3, r2
 750 0058 8B87     		strh	r3, [r1, #60]
 181:Core/Src/bme280.c ****     calib_data->dig_P7 = (int16_t)BME280_CONCAT_BYTES(reg_data[19], reg_data[18]);
 751              		.loc 1 181 0
 752 005a C27C     		ldrb	r2, [r0, #19]
 753 005c 1202     		lsls	r2, r2, #8
 754 005e 837C     		ldrb	r3, [r0, #18]
 755 0060 1343     		orrs	r3, r2
 756 0062 CB87     		strh	r3, [r1, #62]
 182:Core/Src/bme280.c ****     calib_data->dig_P8 = (int16_t)BME280_CONCAT_BYTES(reg_data[21], reg_data[20]);
 757              		.loc 1 182 0
 758 0064 427D     		ldrb	r2, [r0, #21]
 759 0066 1202     		lsls	r2, r2, #8
 760 0068 037D     		ldrb	r3, [r0, #20]
 761 006a 1343     		orrs	r3, r2
 762 006c 4022     		movs	r2, #64
 763 006e 8B52     		strh	r3, [r1, r2]
 183:Core/Src/bme280.c ****     calib_data->dig_P9 = (int16_t)BME280_CONCAT_BYTES(reg_data[23], reg_data[22]);
 764              		.loc 1 183 0
 765 0070 C27D     		ldrb	r2, [r0, #23]
 766 0072 1202     		lsls	r2, r2, #8
 767 0074 837D     		ldrb	r3, [r0, #22]
 768 0076 1343     		orrs	r3, r2
 769 0078 4222     		movs	r2, #66
 770 007a 8B52     		strh	r3, [r1, r2]
 184:Core/Src/bme280.c ****     calib_data->dig_H1 = reg_data[25];
 771              		.loc 1 184 0
 772 007c 437E     		ldrb	r3, [r0, #25]
 773 007e 2C31     		adds	r1, r1, #44
 774              	.LVL115:
 775 0080 0B76     		strb	r3, [r1, #24]
 185:Core/Src/bme280.c **** }
 776              		.loc 1 185 0
ARM GAS  /tmp/ccEz0nOp.s 			page 18


 777              		@ sp needed
 778 0082 7047     		bx	lr
 779              		.cfi_endproc
 780              	.LFE39:
 782              		.section	.text.parse_humidity_calib_data,"ax",%progbits
 783              		.align	1
 784              		.syntax unified
 785              		.code	16
 786              		.thumb_func
 787              		.fpu softvfp
 789              	parse_humidity_calib_data:
 790              	.LFB40:
 186:Core/Src/bme280.c ****  void parse_humidity_calib_data(const uint8_t *reg_data, struct bme280_dev *dev)
 187:Core/Src/bme280.c **** {
 791              		.loc 1 187 0
 792              		.cfi_startproc
 793              		@ args = 0, pretend = 0, frame = 0
 794              		@ frame_needed = 0, uses_anonymous_args = 0
 795              	.LVL116:
 796 0000 10B5     		push	{r4, lr}
 797              	.LCFI5:
 798              		.cfi_def_cfa_offset 8
 799              		.cfi_offset 4, -8
 800              		.cfi_offset 14, -4
 801              	.LVL117:
 188:Core/Src/bme280.c ****     struct bme280_calib_data *calib_data = &dev->calib_data;
 189:Core/Src/bme280.c ****     int16_t dig_H4_lsb;
 190:Core/Src/bme280.c ****     int16_t dig_H4_msb;
 191:Core/Src/bme280.c ****     int16_t dig_H5_lsb;
 192:Core/Src/bme280.c ****     int16_t dig_H5_msb;
 193:Core/Src/bme280.c **** 
 194:Core/Src/bme280.c ****     calib_data->dig_H2 = (int16_t)BME280_CONCAT_BYTES(reg_data[1], reg_data[0]);
 802              		.loc 1 194 0
 803 0002 4278     		ldrb	r2, [r0, #1]
 804 0004 1202     		lsls	r2, r2, #8
 805 0006 0378     		ldrb	r3, [r0]
 806 0008 1343     		orrs	r3, r2
 807 000a 4622     		movs	r2, #70
 808 000c 8B52     		strh	r3, [r1, r2]
 195:Core/Src/bme280.c ****     calib_data->dig_H3 = reg_data[2];
 809              		.loc 1 195 0
 810 000e 8278     		ldrb	r2, [r0, #2]
 811 0010 0B00     		movs	r3, r1
 812 0012 2C33     		adds	r3, r3, #44
 813              	.LVL118:
 814 0014 1A77     		strb	r2, [r3, #28]
 196:Core/Src/bme280.c ****     dig_H4_msb = (int16_t)(int8_t)reg_data[3] * 16;
 815              		.loc 1 196 0
 816 0016 0323     		movs	r3, #3
 817              	.LVL119:
 818 0018 C356     		ldrsb	r3, [r0, r3]
 819 001a 9BB2     		uxth	r3, r3
 820 001c 1B01     		lsls	r3, r3, #4
 821 001e 1BB2     		sxth	r3, r3
 822              	.LVL120:
 197:Core/Src/bme280.c ****     dig_H4_lsb = (int16_t)(reg_data[4] & 0x0F);
 823              		.loc 1 197 0
ARM GAS  /tmp/ccEz0nOp.s 			page 19


 824 0020 0479     		ldrb	r4, [r0, #4]
 825 0022 0F22     		movs	r2, #15
 826 0024 2240     		ands	r2, r4
 827              	.LVL121:
 198:Core/Src/bme280.c ****     calib_data->dig_H4 = dig_H4_msb | dig_H4_lsb;
 828              		.loc 1 198 0
 829 0026 1343     		orrs	r3, r2
 830              	.LVL122:
 831 0028 4A22     		movs	r2, #74
 832              	.LVL123:
 833 002a 8B52     		strh	r3, [r1, r2]
 834              	.LVL124:
 199:Core/Src/bme280.c ****     dig_H5_msb = (int16_t)(int8_t)reg_data[5] * 16;
 835              		.loc 1 199 0
 836 002c 0523     		movs	r3, #5
 837 002e C356     		ldrsb	r3, [r0, r3]
 838 0030 9BB2     		uxth	r3, r3
 839 0032 1B01     		lsls	r3, r3, #4
 840 0034 1BB2     		sxth	r3, r3
 841              	.LVL125:
 200:Core/Src/bme280.c ****     dig_H5_lsb = (int16_t)(reg_data[4] >> 4);
 842              		.loc 1 200 0
 843 0036 0279     		ldrb	r2, [r0, #4]
 844 0038 1209     		lsrs	r2, r2, #4
 845              	.LVL126:
 201:Core/Src/bme280.c ****     calib_data->dig_H5 = dig_H5_msb | dig_H5_lsb;
 846              		.loc 1 201 0
 847 003a 1343     		orrs	r3, r2
 848              	.LVL127:
 849 003c 4C22     		movs	r2, #76
 850              	.LVL128:
 851 003e 8B52     		strh	r3, [r1, r2]
 852              	.LVL129:
 202:Core/Src/bme280.c ****     calib_data->dig_H6 = (int8_t)reg_data[6];
 853              		.loc 1 202 0
 854 0040 0623     		movs	r3, #6
 855 0042 C356     		ldrsb	r3, [r0, r3]
 856 0044 4E31     		adds	r1, r1, #78
 857              	.LVL130:
 858 0046 0B70     		strb	r3, [r1]
 203:Core/Src/bme280.c **** }
 859              		.loc 1 203 0
 860              		@ sp needed
 861              	.LVL131:
 862 0048 10BD     		pop	{r4, pc}
 863              		.cfi_endproc
 864              	.LFE40:
 866              		.section	.text.GetCalibData_BME280,"ax",%progbits
 867              		.align	1
 868              		.global	GetCalibData_BME280
 869              		.syntax unified
 870              		.code	16
 871              		.thumb_func
 872              		.fpu softvfp
 874              	GetCalibData_BME280:
 875              	.LFB41:
 204:Core/Src/bme280.c **** void GetCalibData_BME280(struct bme280_dev *dev)
ARM GAS  /tmp/ccEz0nOp.s 			page 20


 205:Core/Src/bme280.c **** {	
 876              		.loc 1 205 0
 877              		.cfi_startproc
 878              		@ args = 0, pretend = 0, frame = 8
 879              		@ frame_needed = 0, uses_anonymous_args = 0
 880              	.LVL132:
 881 0000 70B5     		push	{r4, r5, r6, lr}
 882              	.LCFI6:
 883              		.cfi_def_cfa_offset 16
 884              		.cfi_offset 4, -16
 885              		.cfi_offset 5, -12
 886              		.cfi_offset 6, -8
 887              		.cfi_offset 14, -4
 888 0002 82B0     		sub	sp, sp, #8
 889              	.LCFI7:
 890              		.cfi_def_cfa_offset 24
 891 0004 0600     		movs	r6, r0
 892              	.LVL133:
 206:Core/Src/bme280.c **** 		uint8_t index_i,index_j;
 207:Core/Src/bme280.c **** 	
 208:Core/Src/bme280.c **** 		index_i = 0;
 209:Core/Src/bme280.c **** 		index_j = 0;
 210:Core/Src/bme280.c **** 		
 211:Core/Src/bme280.c **** 		for (index_i=BME280_TEMP_PRESS_CALIB_DATA_ADDR; index_i<BME280_TEMP_PRESS_CALIB_DATA_ADDR+BME280_
 893              		.loc 1 211 0
 894 0006 6B46     		mov	r3, sp
 895 0008 8822     		movs	r2, #136
 896 000a DA71     		strb	r2, [r3, #7]
 209:Core/Src/bme280.c **** 		
 897              		.loc 1 209 0
 898 000c 0024     		movs	r4, #0
 899              		.loc 1 211 0
 900 000e 0AE0     		b	.L32
 901              	.LVL134:
 902              	.L33:
 212:Core/Src/bme280.c **** 			{
 213:Core/Src/bme280.c **** 				SPI_GET_DAT(&index_i, &dev->calib_0_25[index_j]);
 903              		.loc 1 213 0 discriminator 3
 904 0010 3119     		adds	r1, r6, r4
 905 0012 6B46     		mov	r3, sp
 906 0014 DD1D     		adds	r5, r3, #7
 907 0016 2800     		movs	r0, r5
 908 0018 FFF7FEFF 		bl	SPI_GET_DAT
 909              	.LVL135:
 214:Core/Src/bme280.c **** 				index_j++;
 910              		.loc 1 214 0 discriminator 3
 911 001c 0134     		adds	r4, r4, #1
 912              	.LVL136:
 913 001e E4B2     		uxtb	r4, r4
 914              	.LVL137:
 211:Core/Src/bme280.c **** 			{
 915              		.loc 1 211 0 discriminator 3
 916 0020 2B78     		ldrb	r3, [r5]
 917 0022 0133     		adds	r3, r3, #1
 918 0024 2B70     		strb	r3, [r5]
 919              	.LVL138:
 920              	.L32:
ARM GAS  /tmp/ccEz0nOp.s 			page 21


 211:Core/Src/bme280.c **** 			{
 921              		.loc 1 211 0 is_stmt 0 discriminator 1
 922 0026 6B46     		mov	r3, sp
 923 0028 0733     		adds	r3, r3, #7
 924 002a 1B78     		ldrb	r3, [r3]
 925 002c A12B     		cmp	r3, #161
 926 002e EFD9     		bls	.L33
 927              	.LVL139:
 215:Core/Src/bme280.c **** 			}
 216:Core/Src/bme280.c **** 		
 217:Core/Src/bme280.c **** 		
 218:Core/Src/bme280.c **** 		index_j=0;
 219:Core/Src/bme280.c **** 		for (index_i=BME280_HUMIDITY_CALIB_DATA_ADDR; index_i<BME280_HUMIDITY_CALIB_DATA_ADDR+BME280_HUMI
 928              		.loc 1 219 0 is_stmt 1
 929 0030 6B46     		mov	r3, sp
 930 0032 E122     		movs	r2, #225
 931 0034 DA71     		strb	r2, [r3, #7]
 218:Core/Src/bme280.c **** 		for (index_i=BME280_HUMIDITY_CALIB_DATA_ADDR; index_i<BME280_HUMIDITY_CALIB_DATA_ADDR+BME280_HUMI
 932              		.loc 1 218 0
 933 0036 0024     		movs	r4, #0
 934              		.loc 1 219 0
 935 0038 0DE0     		b	.L34
 936              	.LVL140:
 937              	.L35:
 220:Core/Src/bme280.c **** 			{
 221:Core/Src/bme280.c **** 				SPI_GET_DAT(&index_i, &dev->calib_26_41[index_j]);
 938              		.loc 1 221 0 discriminator 3
 939 003a 2100     		movs	r1, r4
 940 003c 1831     		adds	r1, r1, #24
 941 003e 7118     		adds	r1, r6, r1
 942 0040 0231     		adds	r1, r1, #2
 943 0042 6B46     		mov	r3, sp
 944 0044 DD1D     		adds	r5, r3, #7
 945 0046 2800     		movs	r0, r5
 946 0048 FFF7FEFF 		bl	SPI_GET_DAT
 947              	.LVL141:
 222:Core/Src/bme280.c **** 				index_j++;
 948              		.loc 1 222 0 discriminator 3
 949 004c 0134     		adds	r4, r4, #1
 950              	.LVL142:
 951 004e E4B2     		uxtb	r4, r4
 952              	.LVL143:
 219:Core/Src/bme280.c **** 			{
 953              		.loc 1 219 0 discriminator 3
 954 0050 2B78     		ldrb	r3, [r5]
 955 0052 0133     		adds	r3, r3, #1
 956 0054 2B70     		strb	r3, [r5]
 957              	.LVL144:
 958              	.L34:
 219:Core/Src/bme280.c **** 			{
 959              		.loc 1 219 0 is_stmt 0 discriminator 1
 960 0056 6B46     		mov	r3, sp
 961 0058 0733     		adds	r3, r3, #7
 962 005a 1B78     		ldrb	r3, [r3]
 963 005c E72B     		cmp	r3, #231
 964 005e ECD9     		bls	.L35
 223:Core/Src/bme280.c **** 			}
ARM GAS  /tmp/ccEz0nOp.s 			page 22


 224:Core/Src/bme280.c **** }
 965              		.loc 1 224 0 is_stmt 1
 966 0060 02B0     		add	sp, sp, #8
 967              		@ sp needed
 968              	.LVL145:
 969              	.LVL146:
 970 0062 70BD     		pop	{r4, r5, r6, pc}
 971              		.cfi_endproc
 972              	.LFE41:
 974              		.section	.text.GetData_BME280,"ax",%progbits
 975              		.align	1
 976              		.global	GetData_BME280
 977              		.syntax unified
 978              		.code	16
 979              		.thumb_func
 980              		.fpu softvfp
 982              	GetData_BME280:
 983              	.LFB42:
 225:Core/Src/bme280.c **** void GetData_BME280(struct bme280_dev *dev)
 226:Core/Src/bme280.c **** {
 984              		.loc 1 226 0
 985              		.cfi_startproc
 986              		@ args = 0, pretend = 0, frame = 8
 987              		@ frame_needed = 0, uses_anonymous_args = 0
 988              	.LVL147:
 989 0000 70B5     		push	{r4, r5, r6, lr}
 990              	.LCFI8:
 991              		.cfi_def_cfa_offset 16
 992              		.cfi_offset 4, -16
 993              		.cfi_offset 5, -12
 994              		.cfi_offset 6, -8
 995              		.cfi_offset 14, -4
 996 0002 82B0     		sub	sp, sp, #8
 997              	.LCFI9:
 998              		.cfi_def_cfa_offset 24
 999 0004 0600     		movs	r6, r0
 1000              	.LVL148:
 227:Core/Src/bme280.c **** 	uint8_t index_i,index_j;
 228:Core/Src/bme280.c **** 	
 229:Core/Src/bme280.c **** 	index_i = 0;
 230:Core/Src/bme280.c **** 	index_j = 0;
 231:Core/Src/bme280.c **** 	
 232:Core/Src/bme280.c **** 		for (index_i=BME280_DATA_ADDR; index_i<BME280_DATA_ADDR+BME280_P_T_H_DATA_LEN; index_i++)
 1001              		.loc 1 232 0
 1002 0006 6B46     		mov	r3, sp
 1003 0008 F722     		movs	r2, #247
 1004 000a DA71     		strb	r2, [r3, #7]
 230:Core/Src/bme280.c **** 	
 1005              		.loc 1 230 0
 1006 000c 0024     		movs	r4, #0
 1007              		.loc 1 232 0
 1008 000e 0DE0     		b	.L37
 1009              	.LVL149:
 1010              	.L38:
 233:Core/Src/bme280.c **** 			{
 234:Core/Src/bme280.c **** 				SPI_GET_DAT(&index_i, &dev->raw_data[index_j]);
 1011              		.loc 1 234 0 discriminator 3
ARM GAS  /tmp/ccEz0nOp.s 			page 23


 1012 0010 2100     		movs	r1, r4
 1013 0012 2031     		adds	r1, r1, #32
 1014 0014 7118     		adds	r1, r6, r1
 1015 0016 0131     		adds	r1, r1, #1
 1016 0018 6B46     		mov	r3, sp
 1017 001a DD1D     		adds	r5, r3, #7
 1018 001c 2800     		movs	r0, r5
 1019 001e FFF7FEFF 		bl	SPI_GET_DAT
 1020              	.LVL150:
 235:Core/Src/bme280.c **** 				index_j++;
 1021              		.loc 1 235 0 discriminator 3
 1022 0022 0134     		adds	r4, r4, #1
 1023              	.LVL151:
 1024 0024 E4B2     		uxtb	r4, r4
 1025              	.LVL152:
 232:Core/Src/bme280.c **** 			{
 1026              		.loc 1 232 0 discriminator 3
 1027 0026 2B78     		ldrb	r3, [r5]
 1028 0028 0133     		adds	r3, r3, #1
 1029 002a 2B70     		strb	r3, [r5]
 1030              	.LVL153:
 1031              	.L37:
 232:Core/Src/bme280.c **** 			{
 1032              		.loc 1 232 0 is_stmt 0 discriminator 1
 1033 002c 6B46     		mov	r3, sp
 1034 002e 0733     		adds	r3, r3, #7
 1035 0030 1B78     		ldrb	r3, [r3]
 1036 0032 FF2B     		cmp	r3, #255
 1037 0034 ECD1     		bne	.L38
 236:Core/Src/bme280.c **** 			}	
 237:Core/Src/bme280.c **** 		bme280_parse_sensor_data(dev->raw_data, dev);
 1038              		.loc 1 237 0 is_stmt 1
 1039 0036 3000     		movs	r0, r6
 1040 0038 2130     		adds	r0, r0, #33
 1041 003a 3100     		movs	r1, r6
 1042 003c FFF7FEFF 		bl	bme280_parse_sensor_data
 1043              	.LVL154:
 238:Core/Src/bme280.c **** 		parse_temp_press_calib_data(dev->calib_0_25, dev);
 1044              		.loc 1 238 0
 1045 0040 3100     		movs	r1, r6
 1046 0042 3000     		movs	r0, r6
 1047 0044 FFF7FEFF 		bl	parse_temp_press_calib_data
 1048              	.LVL155:
 239:Core/Src/bme280.c **** 		parse_humidity_calib_data(dev->calib_26_41, dev);
 1049              		.loc 1 239 0
 1050 0048 3000     		movs	r0, r6
 1051 004a 1A30     		adds	r0, r0, #26
 1052 004c 3100     		movs	r1, r6
 1053 004e FFF7FEFF 		bl	parse_humidity_calib_data
 1054              	.LVL156:
 240:Core/Src/bme280.c **** 		bme280_compensate_data(dev);
 1055              		.loc 1 240 0
 1056 0052 3000     		movs	r0, r6
 1057 0054 FFF7FEFF 		bl	bme280_compensate_data
 1058              	.LVL157:
 241:Core/Src/bme280.c **** }
 1059              		.loc 1 241 0
ARM GAS  /tmp/ccEz0nOp.s 			page 24


 1060 0058 02B0     		add	sp, sp, #8
 1061              		@ sp needed
 1062              	.LVL158:
 1063              	.LVL159:
 1064 005a 70BD     		pop	{r4, r5, r6, pc}
 1065              		.cfi_endproc
 1066              	.LFE42:
 1068              		.section	.text.initBME280,"ax",%progbits
 1069              		.align	1
 1070              		.global	initBME280
 1071              		.syntax unified
 1072              		.code	16
 1073              		.thumb_func
 1074              		.fpu softvfp
 1076              	initBME280:
 1077              	.LFB43:
 242:Core/Src/bme280.c **** uint8_t initBME280(struct bme280_dev *dev)
 243:Core/Src/bme280.c **** {
 1078              		.loc 1 243 0
 1079              		.cfi_startproc
 1080              		@ args = 0, pretend = 0, frame = 8
 1081              		@ frame_needed = 0, uses_anonymous_args = 0
 1082              	.LVL160:
 1083 0000 70B5     		push	{r4, r5, r6, lr}
 1084              	.LCFI10:
 1085              		.cfi_def_cfa_offset 16
 1086              		.cfi_offset 4, -16
 1087              		.cfi_offset 5, -12
 1088              		.cfi_offset 6, -8
 1089              		.cfi_offset 14, -4
 1090 0002 82B0     		sub	sp, sp, #8
 1091              	.LCFI11:
 1092              		.cfi_def_cfa_offset 24
 1093 0004 0600     		movs	r6, r0
 244:Core/Src/bme280.c **** 	uint8_t result, addr;
 245:Core/Src/bme280.c **** 	
 246:Core/Src/bme280.c **** 	result = 0;
 247:Core/Src/bme280.c **** 	addr = BME280_RESET_ADDR;
 1094              		.loc 1 247 0
 1095 0006 6B46     		mov	r3, sp
 1096 0008 9D1D     		adds	r5, r3, #6
 1097 000a E023     		movs	r3, #224
 1098 000c 2B70     		strb	r3, [r5]
 248:Core/Src/bme280.c **** 	result = RESET_CMD;
 1099              		.loc 1 248 0
 1100 000e 6B46     		mov	r3, sp
 1101 0010 DC1D     		adds	r4, r3, #7
 1102 0012 B623     		movs	r3, #182
 1103 0014 2370     		strb	r3, [r4]
 249:Core/Src/bme280.c **** 	SPI_SET_DAT(&addr, &result);
 1104              		.loc 1 249 0
 1105 0016 2100     		movs	r1, r4
 1106 0018 2800     		movs	r0, r5
 1107              	.LVL161:
 1108 001a FFF7FEFF 		bl	SPI_SET_DAT
 1109              	.LVL162:
 250:Core/Src/bme280.c **** 	result = 0;
ARM GAS  /tmp/ccEz0nOp.s 			page 25


 1110              		.loc 1 250 0
 1111 001e 0023     		movs	r3, #0
 1112 0020 2370     		strb	r3, [r4]
 251:Core/Src/bme280.c **** 	addr = BME280_CHIP_ID_ADDR;
 1113              		.loc 1 251 0
 1114 0022 D033     		adds	r3, r3, #208
 1115 0024 2B70     		strb	r3, [r5]
 252:Core/Src/bme280.c **** 	SPI_GET_DAT(&addr, &result);
 1116              		.loc 1 252 0
 1117 0026 2100     		movs	r1, r4
 1118 0028 2800     		movs	r0, r5
 1119 002a FFF7FEFF 		bl	SPI_GET_DAT
 1120              	.LVL163:
 253:Core/Src/bme280.c **** 	if (result != 0x060) { return 0;}
 1121              		.loc 1 253 0
 1122 002e 2378     		ldrb	r3, [r4]
 1123 0030 602B     		cmp	r3, #96
 1124 0032 02D0     		beq	.L42
 1125 0034 0020     		movs	r0, #0
 1126              	.L40:
 254:Core/Src/bme280.c **** 	
 255:Core/Src/bme280.c **** 	dev->settings.config = 0;
 256:Core/Src/bme280.c **** 	dev->settings.config |= BME280_STANDBY_TIME_1000_MS | BME280_FILTER_COEFF_OFF;
 257:Core/Src/bme280.c **** 	dev->settings.ctrl_hum = 0;
 258:Core/Src/bme280.c **** 	dev->settings.ctrl_hum |= BME280_OSRS_H_OVERSAMPLING_1X;
 259:Core/Src/bme280.c **** 	dev->settings.ctrl_meas = 0;
 260:Core/Src/bme280.c **** 	dev->settings.ctrl_meas |= BME280_OSRS_T_OVERSAMPLING_1X | BME280_OSRS_P_OVERSAMPLING_1X | BME280_
 261:Core/Src/bme280.c **** 	addr = BME280_CONFIG_ADDR; 
 262:Core/Src/bme280.c **** 	SPI_SET_DAT(&addr, &dev->settings.config);
 263:Core/Src/bme280.c **** 	addr = BME280_CTRL_HUM_ADDR; 
 264:Core/Src/bme280.c **** 	SPI_SET_DAT(&addr, &dev->settings.ctrl_hum);
 265:Core/Src/bme280.c **** 	addr = BME280_CTRL_MEAS_ADDR; 
 266:Core/Src/bme280.c **** 	SPI_SET_DAT(&addr, &dev->settings.ctrl_meas);
 267:Core/Src/bme280.c **** 	
 268:Core/Src/bme280.c **** 
 269:Core/Src/bme280.c **** 	
 270:Core/Src/bme280.c **** 	return 1;
 271:Core/Src/bme280.c **** }
 1127              		.loc 1 271 0
 1128 0036 02B0     		add	sp, sp, #8
 1129              		@ sp needed
 1130              	.LVL164:
 1131 0038 70BD     		pop	{r4, r5, r6, pc}
 1132              	.LVL165:
 1133              	.L42:
 256:Core/Src/bme280.c **** 	dev->settings.ctrl_hum = 0;
 1134              		.loc 1 256 0
 1135 003a 0C3B     		subs	r3, r3, #12
 1136 003c A022     		movs	r2, #160
 1137 003e F254     		strb	r2, [r6, r3]
 258:Core/Src/bme280.c **** 	dev->settings.ctrl_meas = 0;
 1138              		.loc 1 258 0
 1139 0040 0233     		adds	r3, r3, #2
 1140 0042 9F3A     		subs	r2, r2, #159
 1141 0044 F254     		strb	r2, [r6, r3]
 260:Core/Src/bme280.c **** 	addr = BME280_CONFIG_ADDR; 
 1142              		.loc 1 260 0
ARM GAS  /tmp/ccEz0nOp.s 			page 26


 1143 0046 013B     		subs	r3, r3, #1
 1144 0048 2432     		adds	r2, r2, #36
 1145 004a F254     		strb	r2, [r6, r3]
 261:Core/Src/bme280.c **** 	SPI_SET_DAT(&addr, &dev->settings.config);
 1146              		.loc 1 261 0
 1147 004c 6B46     		mov	r3, sp
 1148 004e 9C1D     		adds	r4, r3, #6
 1149 0050 F523     		movs	r3, #245
 1150 0052 2370     		strb	r3, [r4]
 262:Core/Src/bme280.c **** 	addr = BME280_CTRL_HUM_ADDR; 
 1151              		.loc 1 262 0
 1152 0054 3100     		movs	r1, r6
 1153 0056 5431     		adds	r1, r1, #84
 1154 0058 2000     		movs	r0, r4
 1155 005a FFF7FEFF 		bl	SPI_SET_DAT
 1156              	.LVL166:
 263:Core/Src/bme280.c **** 	SPI_SET_DAT(&addr, &dev->settings.ctrl_hum);
 1157              		.loc 1 263 0
 1158 005e F223     		movs	r3, #242
 1159 0060 2370     		strb	r3, [r4]
 264:Core/Src/bme280.c **** 	addr = BME280_CTRL_MEAS_ADDR; 
 1160              		.loc 1 264 0
 1161 0062 3100     		movs	r1, r6
 1162 0064 5631     		adds	r1, r1, #86
 1163 0066 2000     		movs	r0, r4
 1164 0068 FFF7FEFF 		bl	SPI_SET_DAT
 1165              	.LVL167:
 265:Core/Src/bme280.c **** 	SPI_SET_DAT(&addr, &dev->settings.ctrl_meas);
 1166              		.loc 1 265 0
 1167 006c F423     		movs	r3, #244
 1168 006e 2370     		strb	r3, [r4]
 266:Core/Src/bme280.c **** 	
 1169              		.loc 1 266 0
 1170 0070 3100     		movs	r1, r6
 1171 0072 5531     		adds	r1, r1, #85
 1172 0074 2000     		movs	r0, r4
 1173 0076 FFF7FEFF 		bl	SPI_SET_DAT
 1174              	.LVL168:
 270:Core/Src/bme280.c **** }
 1175              		.loc 1 270 0
 1176 007a 0120     		movs	r0, #1
 1177 007c DBE7     		b	.L40
 1178              		.cfi_endproc
 1179              	.LFE43:
 1181              		.section	.text.FORCEMode,"ax",%progbits
 1182              		.align	1
 1183              		.global	FORCEMode
 1184              		.syntax unified
 1185              		.code	16
 1186              		.thumb_func
 1187              		.fpu softvfp
 1189              	FORCEMode:
 1190              	.LFB44:
 272:Core/Src/bme280.c **** void FORCEMode (struct bme280_dev *dev)
 273:Core/Src/bme280.c **** {
 1191              		.loc 1 273 0
 1192              		.cfi_startproc
ARM GAS  /tmp/ccEz0nOp.s 			page 27


 1193              		@ args = 0, pretend = 0, frame = 8
 1194              		@ frame_needed = 0, uses_anonymous_args = 0
 1195              	.LVL169:
 1196 0000 00B5     		push	{lr}
 1197              	.LCFI12:
 1198              		.cfi_def_cfa_offset 4
 1199              		.cfi_offset 14, -4
 1200 0002 83B0     		sub	sp, sp, #12
 1201              	.LCFI13:
 1202              		.cfi_def_cfa_offset 16
 1203 0004 0100     		movs	r1, r0
 274:Core/Src/bme280.c **** 	uint8_t addr;
 275:Core/Src/bme280.c **** 	addr = BME280_CTRL_MEAS_ADDR; 
 1204              		.loc 1 275 0
 1205 0006 6B46     		mov	r3, sp
 1206 0008 D81D     		adds	r0, r3, #7
 1207              	.LVL170:
 1208 000a F423     		movs	r3, #244
 1209 000c 0370     		strb	r3, [r0]
 276:Core/Src/bme280.c **** 	SPI_SET_DAT(&addr, &dev->settings.ctrl_meas);
 1210              		.loc 1 276 0
 1211 000e 5531     		adds	r1, r1, #85
 1212              	.LVL171:
 1213 0010 FFF7FEFF 		bl	SPI_SET_DAT
 1214              	.LVL172:
 277:Core/Src/bme280.c **** }
 1215              		.loc 1 277 0
 1216 0014 03B0     		add	sp, sp, #12
 1217              		@ sp needed
 1218 0016 00BD     		pop	{pc}
 1219              		.cfi_endproc
 1220              	.LFE44:
 1222              		.text
 1223              	.Letext0:
 1224              		.file 2 "/home/maxx/develop/gcc-arm-none-eabi-7-2018-q2-update/arm-none-eabi/include/machine/_defa
 1225              		.file 3 "/home/maxx/develop/gcc-arm-none-eabi-7-2018-q2-update/arm-none-eabi/include/sys/_stdint.h
 1226              		.file 4 "/home/maxx/STM32Cube/Repository/STM32Cube_FW_L0_V1.11.2/Drivers/CMSIS/Device/ST/STM32L0xx
 1227              		.file 5 "/home/maxx/STM32Cube/Repository/STM32Cube_FW_L0_V1.11.2/Drivers/STM32L0xx_HAL_Driver/Inc/
 1228              		.file 6 "Core/Inc/bme280_defs.h"
 1229              		.file 7 "Core/Inc/bme280.h"
ARM GAS  /tmp/ccEz0nOp.s 			page 28

