ARM GAS  /tmp/ccd53DOt.s 			page 1


   1              		.cpu cortex-m0plus
   2              		.eabi_attribute 20, 1
   3              		.eabi_attribute 21, 1
   4              		.eabi_attribute 23, 3
   5              		.eabi_attribute 24, 1
   6              		.eabi_attribute 25, 1
   7              		.eabi_attribute 26, 1
   8              		.eabi_attribute 30, 1
   9              		.eabi_attribute 34, 0
  10              		.eabi_attribute 18, 4
  11              		.file	"stm32l0xx_hal_pwr.c"
  12              		.text
  13              	.Ltext0:
  14              		.cfi_sections	.debug_frame
  15              		.section	.text.HAL_PWR_DeInit,"ax",%progbits
  16              		.align	1
  17              		.global	HAL_PWR_DeInit
  18              		.syntax unified
  19              		.code	16
  20              		.thumb_func
  21              		.fpu softvfp
  23              	HAL_PWR_DeInit:
  24              	.LFB34:
  25              		.file 1 "/home/maxx/STM32Cube/Repository/STM32Cube_FW_L0_V1.11.2/Drivers/STM32L0xx_HAL_Driver/Src/
   1:/home/maxx/STM32Cube/Repository/STM32Cube_FW_L0_V1.11.2/Drivers/STM32L0xx_HAL_Driver/Src/stm32l0xx_hal_pwr.c **** /**
   2:/home/maxx/STM32Cube/Repository/STM32Cube_FW_L0_V1.11.2/Drivers/STM32L0xx_HAL_Driver/Src/stm32l0xx_hal_pwr.c ****   ******************************************************************************
   3:/home/maxx/STM32Cube/Repository/STM32Cube_FW_L0_V1.11.2/Drivers/STM32L0xx_HAL_Driver/Src/stm32l0xx_hal_pwr.c ****   * @file    stm32l0xx_hal_pwr.c
   4:/home/maxx/STM32Cube/Repository/STM32Cube_FW_L0_V1.11.2/Drivers/STM32L0xx_HAL_Driver/Src/stm32l0xx_hal_pwr.c ****   * @author  MCD Application Team
   5:/home/maxx/STM32Cube/Repository/STM32Cube_FW_L0_V1.11.2/Drivers/STM32L0xx_HAL_Driver/Src/stm32l0xx_hal_pwr.c ****   * @brief   PWR HAL module driver.
   6:/home/maxx/STM32Cube/Repository/STM32Cube_FW_L0_V1.11.2/Drivers/STM32L0xx_HAL_Driver/Src/stm32l0xx_hal_pwr.c ****   *
   7:/home/maxx/STM32Cube/Repository/STM32Cube_FW_L0_V1.11.2/Drivers/STM32L0xx_HAL_Driver/Src/stm32l0xx_hal_pwr.c ****   *          This file provides firmware functions to manage the following
   8:/home/maxx/STM32Cube/Repository/STM32Cube_FW_L0_V1.11.2/Drivers/STM32L0xx_HAL_Driver/Src/stm32l0xx_hal_pwr.c ****   *          functionalities of the Power Controller (PWR) peripheral:
   9:/home/maxx/STM32Cube/Repository/STM32Cube_FW_L0_V1.11.2/Drivers/STM32L0xx_HAL_Driver/Src/stm32l0xx_hal_pwr.c ****   *           + Initialization/de-initialization functions
  10:/home/maxx/STM32Cube/Repository/STM32Cube_FW_L0_V1.11.2/Drivers/STM32L0xx_HAL_Driver/Src/stm32l0xx_hal_pwr.c ****   *           + Peripheral Control functions 
  11:/home/maxx/STM32Cube/Repository/STM32Cube_FW_L0_V1.11.2/Drivers/STM32L0xx_HAL_Driver/Src/stm32l0xx_hal_pwr.c ****   *
  12:/home/maxx/STM32Cube/Repository/STM32Cube_FW_L0_V1.11.2/Drivers/STM32L0xx_HAL_Driver/Src/stm32l0xx_hal_pwr.c ****   ******************************************************************************
  13:/home/maxx/STM32Cube/Repository/STM32Cube_FW_L0_V1.11.2/Drivers/STM32L0xx_HAL_Driver/Src/stm32l0xx_hal_pwr.c ****   * @attention
  14:/home/maxx/STM32Cube/Repository/STM32Cube_FW_L0_V1.11.2/Drivers/STM32L0xx_HAL_Driver/Src/stm32l0xx_hal_pwr.c ****   *
  15:/home/maxx/STM32Cube/Repository/STM32Cube_FW_L0_V1.11.2/Drivers/STM32L0xx_HAL_Driver/Src/stm32l0xx_hal_pwr.c ****   * <h2><center>&copy; Copyright(c) 2016 STMicroelectronics.
  16:/home/maxx/STM32Cube/Repository/STM32Cube_FW_L0_V1.11.2/Drivers/STM32L0xx_HAL_Driver/Src/stm32l0xx_hal_pwr.c ****   * All rights reserved.</center></h2>
  17:/home/maxx/STM32Cube/Repository/STM32Cube_FW_L0_V1.11.2/Drivers/STM32L0xx_HAL_Driver/Src/stm32l0xx_hal_pwr.c ****   *
  18:/home/maxx/STM32Cube/Repository/STM32Cube_FW_L0_V1.11.2/Drivers/STM32L0xx_HAL_Driver/Src/stm32l0xx_hal_pwr.c ****   * This software component is licensed by ST under BSD 3-Clause license,
  19:/home/maxx/STM32Cube/Repository/STM32Cube_FW_L0_V1.11.2/Drivers/STM32L0xx_HAL_Driver/Src/stm32l0xx_hal_pwr.c ****   * the "License"; You may not use this file except in compliance with the
  20:/home/maxx/STM32Cube/Repository/STM32Cube_FW_L0_V1.11.2/Drivers/STM32L0xx_HAL_Driver/Src/stm32l0xx_hal_pwr.c ****   * License. You may obtain a copy of the License at:
  21:/home/maxx/STM32Cube/Repository/STM32Cube_FW_L0_V1.11.2/Drivers/STM32L0xx_HAL_Driver/Src/stm32l0xx_hal_pwr.c ****   *                        opensource.org/licenses/BSD-3-Clause
  22:/home/maxx/STM32Cube/Repository/STM32Cube_FW_L0_V1.11.2/Drivers/STM32L0xx_HAL_Driver/Src/stm32l0xx_hal_pwr.c ****   *
  23:/home/maxx/STM32Cube/Repository/STM32Cube_FW_L0_V1.11.2/Drivers/STM32L0xx_HAL_Driver/Src/stm32l0xx_hal_pwr.c ****   ******************************************************************************
  24:/home/maxx/STM32Cube/Repository/STM32Cube_FW_L0_V1.11.2/Drivers/STM32L0xx_HAL_Driver/Src/stm32l0xx_hal_pwr.c ****   */
  25:/home/maxx/STM32Cube/Repository/STM32Cube_FW_L0_V1.11.2/Drivers/STM32L0xx_HAL_Driver/Src/stm32l0xx_hal_pwr.c **** 
  26:/home/maxx/STM32Cube/Repository/STM32Cube_FW_L0_V1.11.2/Drivers/STM32L0xx_HAL_Driver/Src/stm32l0xx_hal_pwr.c **** /* Includes ------------------------------------------------------------------*/
  27:/home/maxx/STM32Cube/Repository/STM32Cube_FW_L0_V1.11.2/Drivers/STM32L0xx_HAL_Driver/Src/stm32l0xx_hal_pwr.c **** #include "stm32l0xx_hal.h"
  28:/home/maxx/STM32Cube/Repository/STM32Cube_FW_L0_V1.11.2/Drivers/STM32L0xx_HAL_Driver/Src/stm32l0xx_hal_pwr.c **** 
  29:/home/maxx/STM32Cube/Repository/STM32Cube_FW_L0_V1.11.2/Drivers/STM32L0xx_HAL_Driver/Src/stm32l0xx_hal_pwr.c **** #ifdef HAL_PWR_MODULE_ENABLED
  30:/home/maxx/STM32Cube/Repository/STM32Cube_FW_L0_V1.11.2/Drivers/STM32L0xx_HAL_Driver/Src/stm32l0xx_hal_pwr.c **** /** @addtogroup STM32L0xx_HAL_Driver
  31:/home/maxx/STM32Cube/Repository/STM32Cube_FW_L0_V1.11.2/Drivers/STM32L0xx_HAL_Driver/Src/stm32l0xx_hal_pwr.c ****   * @{
  32:/home/maxx/STM32Cube/Repository/STM32Cube_FW_L0_V1.11.2/Drivers/STM32L0xx_HAL_Driver/Src/stm32l0xx_hal_pwr.c ****   */
  33:/home/maxx/STM32Cube/Repository/STM32Cube_FW_L0_V1.11.2/Drivers/STM32L0xx_HAL_Driver/Src/stm32l0xx_hal_pwr.c **** 
ARM GAS  /tmp/ccd53DOt.s 			page 2


  34:/home/maxx/STM32Cube/Repository/STM32Cube_FW_L0_V1.11.2/Drivers/STM32L0xx_HAL_Driver/Src/stm32l0xx_hal_pwr.c **** /** @addtogroup PWR
  35:/home/maxx/STM32Cube/Repository/STM32Cube_FW_L0_V1.11.2/Drivers/STM32L0xx_HAL_Driver/Src/stm32l0xx_hal_pwr.c ****   * @{
  36:/home/maxx/STM32Cube/Repository/STM32Cube_FW_L0_V1.11.2/Drivers/STM32L0xx_HAL_Driver/Src/stm32l0xx_hal_pwr.c ****   */
  37:/home/maxx/STM32Cube/Repository/STM32Cube_FW_L0_V1.11.2/Drivers/STM32L0xx_HAL_Driver/Src/stm32l0xx_hal_pwr.c **** 
  38:/home/maxx/STM32Cube/Repository/STM32Cube_FW_L0_V1.11.2/Drivers/STM32L0xx_HAL_Driver/Src/stm32l0xx_hal_pwr.c **** /** @addtogroup PWR_Private
  39:/home/maxx/STM32Cube/Repository/STM32Cube_FW_L0_V1.11.2/Drivers/STM32L0xx_HAL_Driver/Src/stm32l0xx_hal_pwr.c ****   * @{
  40:/home/maxx/STM32Cube/Repository/STM32Cube_FW_L0_V1.11.2/Drivers/STM32L0xx_HAL_Driver/Src/stm32l0xx_hal_pwr.c ****   */
  41:/home/maxx/STM32Cube/Repository/STM32Cube_FW_L0_V1.11.2/Drivers/STM32L0xx_HAL_Driver/Src/stm32l0xx_hal_pwr.c ****   
  42:/home/maxx/STM32Cube/Repository/STM32Cube_FW_L0_V1.11.2/Drivers/STM32L0xx_HAL_Driver/Src/stm32l0xx_hal_pwr.c **** #if defined(PWR_PVD_SUPPORT)
  43:/home/maxx/STM32Cube/Repository/STM32Cube_FW_L0_V1.11.2/Drivers/STM32L0xx_HAL_Driver/Src/stm32l0xx_hal_pwr.c **** /** @defgroup PWR_PVD_Mode_Mask PWR PVD Mode Mask
  44:/home/maxx/STM32Cube/Repository/STM32Cube_FW_L0_V1.11.2/Drivers/STM32L0xx_HAL_Driver/Src/stm32l0xx_hal_pwr.c ****   * @{
  45:/home/maxx/STM32Cube/Repository/STM32Cube_FW_L0_V1.11.2/Drivers/STM32L0xx_HAL_Driver/Src/stm32l0xx_hal_pwr.c ****   */ 
  46:/home/maxx/STM32Cube/Repository/STM32Cube_FW_L0_V1.11.2/Drivers/STM32L0xx_HAL_Driver/Src/stm32l0xx_hal_pwr.c **** #define PVD_MODE_IT               ((uint32_t)0x00010000U)
  47:/home/maxx/STM32Cube/Repository/STM32Cube_FW_L0_V1.11.2/Drivers/STM32L0xx_HAL_Driver/Src/stm32l0xx_hal_pwr.c **** #define PVD_MODE_EVT              ((uint32_t)0x00020000U)
  48:/home/maxx/STM32Cube/Repository/STM32Cube_FW_L0_V1.11.2/Drivers/STM32L0xx_HAL_Driver/Src/stm32l0xx_hal_pwr.c **** #define PVD_RISING_EDGE           ((uint32_t)0x00000001U)
  49:/home/maxx/STM32Cube/Repository/STM32Cube_FW_L0_V1.11.2/Drivers/STM32L0xx_HAL_Driver/Src/stm32l0xx_hal_pwr.c **** #define PVD_FALLING_EDGE          ((uint32_t)0x00000002U)
  50:/home/maxx/STM32Cube/Repository/STM32Cube_FW_L0_V1.11.2/Drivers/STM32L0xx_HAL_Driver/Src/stm32l0xx_hal_pwr.c **** /**
  51:/home/maxx/STM32Cube/Repository/STM32Cube_FW_L0_V1.11.2/Drivers/STM32L0xx_HAL_Driver/Src/stm32l0xx_hal_pwr.c ****   * @}
  52:/home/maxx/STM32Cube/Repository/STM32Cube_FW_L0_V1.11.2/Drivers/STM32L0xx_HAL_Driver/Src/stm32l0xx_hal_pwr.c ****   */
  53:/home/maxx/STM32Cube/Repository/STM32Cube_FW_L0_V1.11.2/Drivers/STM32L0xx_HAL_Driver/Src/stm32l0xx_hal_pwr.c **** #endif
  54:/home/maxx/STM32Cube/Repository/STM32Cube_FW_L0_V1.11.2/Drivers/STM32L0xx_HAL_Driver/Src/stm32l0xx_hal_pwr.c **** 
  55:/home/maxx/STM32Cube/Repository/STM32Cube_FW_L0_V1.11.2/Drivers/STM32L0xx_HAL_Driver/Src/stm32l0xx_hal_pwr.c **** /**
  56:/home/maxx/STM32Cube/Repository/STM32Cube_FW_L0_V1.11.2/Drivers/STM32L0xx_HAL_Driver/Src/stm32l0xx_hal_pwr.c ****   * @}
  57:/home/maxx/STM32Cube/Repository/STM32Cube_FW_L0_V1.11.2/Drivers/STM32L0xx_HAL_Driver/Src/stm32l0xx_hal_pwr.c ****   */  
  58:/home/maxx/STM32Cube/Repository/STM32Cube_FW_L0_V1.11.2/Drivers/STM32L0xx_HAL_Driver/Src/stm32l0xx_hal_pwr.c ****   
  59:/home/maxx/STM32Cube/Repository/STM32Cube_FW_L0_V1.11.2/Drivers/STM32L0xx_HAL_Driver/Src/stm32l0xx_hal_pwr.c **** 
  60:/home/maxx/STM32Cube/Repository/STM32Cube_FW_L0_V1.11.2/Drivers/STM32L0xx_HAL_Driver/Src/stm32l0xx_hal_pwr.c **** /** @addtogroup PWR_Exported_Functions
  61:/home/maxx/STM32Cube/Repository/STM32Cube_FW_L0_V1.11.2/Drivers/STM32L0xx_HAL_Driver/Src/stm32l0xx_hal_pwr.c ****   * @{
  62:/home/maxx/STM32Cube/Repository/STM32Cube_FW_L0_V1.11.2/Drivers/STM32L0xx_HAL_Driver/Src/stm32l0xx_hal_pwr.c ****   */
  63:/home/maxx/STM32Cube/Repository/STM32Cube_FW_L0_V1.11.2/Drivers/STM32L0xx_HAL_Driver/Src/stm32l0xx_hal_pwr.c **** 
  64:/home/maxx/STM32Cube/Repository/STM32Cube_FW_L0_V1.11.2/Drivers/STM32L0xx_HAL_Driver/Src/stm32l0xx_hal_pwr.c **** /** @addtogroup PWR_Exported_Functions_Group1
  65:/home/maxx/STM32Cube/Repository/STM32Cube_FW_L0_V1.11.2/Drivers/STM32L0xx_HAL_Driver/Src/stm32l0xx_hal_pwr.c ****   * @brief      Initialization and de-initialization functions
  66:/home/maxx/STM32Cube/Repository/STM32Cube_FW_L0_V1.11.2/Drivers/STM32L0xx_HAL_Driver/Src/stm32l0xx_hal_pwr.c ****   *
  67:/home/maxx/STM32Cube/Repository/STM32Cube_FW_L0_V1.11.2/Drivers/STM32L0xx_HAL_Driver/Src/stm32l0xx_hal_pwr.c **** @verbatim
  68:/home/maxx/STM32Cube/Repository/STM32Cube_FW_L0_V1.11.2/Drivers/STM32L0xx_HAL_Driver/Src/stm32l0xx_hal_pwr.c ****  ===============================================================================
  69:/home/maxx/STM32Cube/Repository/STM32Cube_FW_L0_V1.11.2/Drivers/STM32L0xx_HAL_Driver/Src/stm32l0xx_hal_pwr.c ****               ##### Initialization and de-initialization functions #####
  70:/home/maxx/STM32Cube/Repository/STM32Cube_FW_L0_V1.11.2/Drivers/STM32L0xx_HAL_Driver/Src/stm32l0xx_hal_pwr.c ****  ===============================================================================
  71:/home/maxx/STM32Cube/Repository/STM32Cube_FW_L0_V1.11.2/Drivers/STM32L0xx_HAL_Driver/Src/stm32l0xx_hal_pwr.c **** 
  72:/home/maxx/STM32Cube/Repository/STM32Cube_FW_L0_V1.11.2/Drivers/STM32L0xx_HAL_Driver/Src/stm32l0xx_hal_pwr.c **** @endverbatim
  73:/home/maxx/STM32Cube/Repository/STM32Cube_FW_L0_V1.11.2/Drivers/STM32L0xx_HAL_Driver/Src/stm32l0xx_hal_pwr.c ****   * @{
  74:/home/maxx/STM32Cube/Repository/STM32Cube_FW_L0_V1.11.2/Drivers/STM32L0xx_HAL_Driver/Src/stm32l0xx_hal_pwr.c ****   */
  75:/home/maxx/STM32Cube/Repository/STM32Cube_FW_L0_V1.11.2/Drivers/STM32L0xx_HAL_Driver/Src/stm32l0xx_hal_pwr.c **** 
  76:/home/maxx/STM32Cube/Repository/STM32Cube_FW_L0_V1.11.2/Drivers/STM32L0xx_HAL_Driver/Src/stm32l0xx_hal_pwr.c **** /**
  77:/home/maxx/STM32Cube/Repository/STM32Cube_FW_L0_V1.11.2/Drivers/STM32L0xx_HAL_Driver/Src/stm32l0xx_hal_pwr.c ****   * @brief Deinitializes the HAL PWR peripheral registers to their default reset values.
  78:/home/maxx/STM32Cube/Repository/STM32Cube_FW_L0_V1.11.2/Drivers/STM32L0xx_HAL_Driver/Src/stm32l0xx_hal_pwr.c ****   * @retval None
  79:/home/maxx/STM32Cube/Repository/STM32Cube_FW_L0_V1.11.2/Drivers/STM32L0xx_HAL_Driver/Src/stm32l0xx_hal_pwr.c ****   */
  80:/home/maxx/STM32Cube/Repository/STM32Cube_FW_L0_V1.11.2/Drivers/STM32L0xx_HAL_Driver/Src/stm32l0xx_hal_pwr.c **** void HAL_PWR_DeInit(void)
  81:/home/maxx/STM32Cube/Repository/STM32Cube_FW_L0_V1.11.2/Drivers/STM32L0xx_HAL_Driver/Src/stm32l0xx_hal_pwr.c **** {
  26              		.loc 1 81 0
  27              		.cfi_startproc
  28              		@ args = 0, pretend = 0, frame = 0
  29              		@ frame_needed = 0, uses_anonymous_args = 0
  30              		@ link register save eliminated.
  82:/home/maxx/STM32Cube/Repository/STM32Cube_FW_L0_V1.11.2/Drivers/STM32L0xx_HAL_Driver/Src/stm32l0xx_hal_pwr.c ****   __HAL_RCC_PWR_FORCE_RESET();
  31              		.loc 1 82 0
  32 0000 054B     		ldr	r3, .L2
  33 0002 996A     		ldr	r1, [r3, #40]
ARM GAS  /tmp/ccd53DOt.s 			page 3


  34 0004 8022     		movs	r2, #128
  35 0006 5205     		lsls	r2, r2, #21
  36 0008 0A43     		orrs	r2, r1
  37 000a 9A62     		str	r2, [r3, #40]
  83:/home/maxx/STM32Cube/Repository/STM32Cube_FW_L0_V1.11.2/Drivers/STM32L0xx_HAL_Driver/Src/stm32l0xx_hal_pwr.c ****   __HAL_RCC_PWR_RELEASE_RESET();
  38              		.loc 1 83 0
  39 000c 9A6A     		ldr	r2, [r3, #40]
  40 000e 0349     		ldr	r1, .L2+4
  41 0010 0A40     		ands	r2, r1
  42 0012 9A62     		str	r2, [r3, #40]
  84:/home/maxx/STM32Cube/Repository/STM32Cube_FW_L0_V1.11.2/Drivers/STM32L0xx_HAL_Driver/Src/stm32l0xx_hal_pwr.c **** }
  43              		.loc 1 84 0
  44              		@ sp needed
  45 0014 7047     		bx	lr
  46              	.L3:
  47 0016 C046     		.align	2
  48              	.L2:
  49 0018 00100240 		.word	1073876992
  50 001c FFFFFFEF 		.word	-268435457
  51              		.cfi_endproc
  52              	.LFE34:
  54              		.section	.text.HAL_PWR_EnableBkUpAccess,"ax",%progbits
  55              		.align	1
  56              		.global	HAL_PWR_EnableBkUpAccess
  57              		.syntax unified
  58              		.code	16
  59              		.thumb_func
  60              		.fpu softvfp
  62              	HAL_PWR_EnableBkUpAccess:
  63              	.LFB35:
  85:/home/maxx/STM32Cube/Repository/STM32Cube_FW_L0_V1.11.2/Drivers/STM32L0xx_HAL_Driver/Src/stm32l0xx_hal_pwr.c **** 
  86:/home/maxx/STM32Cube/Repository/STM32Cube_FW_L0_V1.11.2/Drivers/STM32L0xx_HAL_Driver/Src/stm32l0xx_hal_pwr.c **** /**
  87:/home/maxx/STM32Cube/Repository/STM32Cube_FW_L0_V1.11.2/Drivers/STM32L0xx_HAL_Driver/Src/stm32l0xx_hal_pwr.c ****   * @}
  88:/home/maxx/STM32Cube/Repository/STM32Cube_FW_L0_V1.11.2/Drivers/STM32L0xx_HAL_Driver/Src/stm32l0xx_hal_pwr.c ****   */
  89:/home/maxx/STM32Cube/Repository/STM32Cube_FW_L0_V1.11.2/Drivers/STM32L0xx_HAL_Driver/Src/stm32l0xx_hal_pwr.c **** 
  90:/home/maxx/STM32Cube/Repository/STM32Cube_FW_L0_V1.11.2/Drivers/STM32L0xx_HAL_Driver/Src/stm32l0xx_hal_pwr.c **** /** @addtogroup PWR_Exported_Functions_Group2
  91:/home/maxx/STM32Cube/Repository/STM32Cube_FW_L0_V1.11.2/Drivers/STM32L0xx_HAL_Driver/Src/stm32l0xx_hal_pwr.c ****   * @brief      Low Power modes configuration functions
  92:/home/maxx/STM32Cube/Repository/STM32Cube_FW_L0_V1.11.2/Drivers/STM32L0xx_HAL_Driver/Src/stm32l0xx_hal_pwr.c ****   *
  93:/home/maxx/STM32Cube/Repository/STM32Cube_FW_L0_V1.11.2/Drivers/STM32L0xx_HAL_Driver/Src/stm32l0xx_hal_pwr.c **** @verbatim
  94:/home/maxx/STM32Cube/Repository/STM32Cube_FW_L0_V1.11.2/Drivers/STM32L0xx_HAL_Driver/Src/stm32l0xx_hal_pwr.c **** 
  95:/home/maxx/STM32Cube/Repository/STM32Cube_FW_L0_V1.11.2/Drivers/STM32L0xx_HAL_Driver/Src/stm32l0xx_hal_pwr.c ****  ===============================================================================
  96:/home/maxx/STM32Cube/Repository/STM32Cube_FW_L0_V1.11.2/Drivers/STM32L0xx_HAL_Driver/Src/stm32l0xx_hal_pwr.c ****                  ##### Peripheral Control functions #####
  97:/home/maxx/STM32Cube/Repository/STM32Cube_FW_L0_V1.11.2/Drivers/STM32L0xx_HAL_Driver/Src/stm32l0xx_hal_pwr.c ****  ===============================================================================
  98:/home/maxx/STM32Cube/Repository/STM32Cube_FW_L0_V1.11.2/Drivers/STM32L0xx_HAL_Driver/Src/stm32l0xx_hal_pwr.c ****      
  99:/home/maxx/STM32Cube/Repository/STM32Cube_FW_L0_V1.11.2/Drivers/STM32L0xx_HAL_Driver/Src/stm32l0xx_hal_pwr.c ****     *** Backup domain ***
 100:/home/maxx/STM32Cube/Repository/STM32Cube_FW_L0_V1.11.2/Drivers/STM32L0xx_HAL_Driver/Src/stm32l0xx_hal_pwr.c ****     =========================
 101:/home/maxx/STM32Cube/Repository/STM32Cube_FW_L0_V1.11.2/Drivers/STM32L0xx_HAL_Driver/Src/stm32l0xx_hal_pwr.c ****     [..]
 102:/home/maxx/STM32Cube/Repository/STM32Cube_FW_L0_V1.11.2/Drivers/STM32L0xx_HAL_Driver/Src/stm32l0xx_hal_pwr.c ****       After reset, the backup domain (RTC registers, RTC backup data
 103:/home/maxx/STM32Cube/Repository/STM32Cube_FW_L0_V1.11.2/Drivers/STM32L0xx_HAL_Driver/Src/stm32l0xx_hal_pwr.c ****       registers) is protected against possible unwanted
 104:/home/maxx/STM32Cube/Repository/STM32Cube_FW_L0_V1.11.2/Drivers/STM32L0xx_HAL_Driver/Src/stm32l0xx_hal_pwr.c ****       write accesses.
 105:/home/maxx/STM32Cube/Repository/STM32Cube_FW_L0_V1.11.2/Drivers/STM32L0xx_HAL_Driver/Src/stm32l0xx_hal_pwr.c ****       To enable access to the RTC Domain and RTC registers, proceed as follows:
 106:/home/maxx/STM32Cube/Repository/STM32Cube_FW_L0_V1.11.2/Drivers/STM32L0xx_HAL_Driver/Src/stm32l0xx_hal_pwr.c ****         (+) Enable the Power Controller (PWR) APB1 interface clock using the
 107:/home/maxx/STM32Cube/Repository/STM32Cube_FW_L0_V1.11.2/Drivers/STM32L0xx_HAL_Driver/Src/stm32l0xx_hal_pwr.c ****             __HAL_RCC_PWR_CLK_ENABLE() macro.
 108:/home/maxx/STM32Cube/Repository/STM32Cube_FW_L0_V1.11.2/Drivers/STM32L0xx_HAL_Driver/Src/stm32l0xx_hal_pwr.c ****         (+) Enable access to RTC domain using the HAL_PWR_EnableBkUpAccess() function.
 109:/home/maxx/STM32Cube/Repository/STM32Cube_FW_L0_V1.11.2/Drivers/STM32L0xx_HAL_Driver/Src/stm32l0xx_hal_pwr.c **** 
 110:/home/maxx/STM32Cube/Repository/STM32Cube_FW_L0_V1.11.2/Drivers/STM32L0xx_HAL_Driver/Src/stm32l0xx_hal_pwr.c ****     *** PVD configuration ***
 111:/home/maxx/STM32Cube/Repository/STM32Cube_FW_L0_V1.11.2/Drivers/STM32L0xx_HAL_Driver/Src/stm32l0xx_hal_pwr.c ****     =========================
ARM GAS  /tmp/ccd53DOt.s 			page 4


 112:/home/maxx/STM32Cube/Repository/STM32Cube_FW_L0_V1.11.2/Drivers/STM32L0xx_HAL_Driver/Src/stm32l0xx_hal_pwr.c ****     [..]
 113:/home/maxx/STM32Cube/Repository/STM32Cube_FW_L0_V1.11.2/Drivers/STM32L0xx_HAL_Driver/Src/stm32l0xx_hal_pwr.c ****       (+) The PVD is used to monitor the VDD power supply by comparing it to a
 114:/home/maxx/STM32Cube/Repository/STM32Cube_FW_L0_V1.11.2/Drivers/STM32L0xx_HAL_Driver/Src/stm32l0xx_hal_pwr.c ****           threshold selected by the PVD Level (PLS[2:0] bits in the PWR_CR).
 115:/home/maxx/STM32Cube/Repository/STM32Cube_FW_L0_V1.11.2/Drivers/STM32L0xx_HAL_Driver/Src/stm32l0xx_hal_pwr.c ****       (+) The PVD can use an external input analog voltage (PVD_IN) which is compared 
 116:/home/maxx/STM32Cube/Repository/STM32Cube_FW_L0_V1.11.2/Drivers/STM32L0xx_HAL_Driver/Src/stm32l0xx_hal_pwr.c ****       internally to VREFINT. The PVD_IN (PB7) has to be configured in Analog mode 
 117:/home/maxx/STM32Cube/Repository/STM32Cube_FW_L0_V1.11.2/Drivers/STM32L0xx_HAL_Driver/Src/stm32l0xx_hal_pwr.c ****       when PWR_PVDLevel_7 is selected (PLS[2:0] = 111).
 118:/home/maxx/STM32Cube/Repository/STM32Cube_FW_L0_V1.11.2/Drivers/STM32L0xx_HAL_Driver/Src/stm32l0xx_hal_pwr.c **** 
 119:/home/maxx/STM32Cube/Repository/STM32Cube_FW_L0_V1.11.2/Drivers/STM32L0xx_HAL_Driver/Src/stm32l0xx_hal_pwr.c ****       (+) A PVDO flag is available to indicate if VDD/VDDA is higher or lower
 120:/home/maxx/STM32Cube/Repository/STM32Cube_FW_L0_V1.11.2/Drivers/STM32L0xx_HAL_Driver/Src/stm32l0xx_hal_pwr.c ****           than the PVD threshold. This event is internally connected to the EXTI
 121:/home/maxx/STM32Cube/Repository/STM32Cube_FW_L0_V1.11.2/Drivers/STM32L0xx_HAL_Driver/Src/stm32l0xx_hal_pwr.c ****           line16 and can generate an interrupt if enabled. This is done through
 122:/home/maxx/STM32Cube/Repository/STM32Cube_FW_L0_V1.11.2/Drivers/STM32L0xx_HAL_Driver/Src/stm32l0xx_hal_pwr.c ****           __HAL_PWR_PVD_EXTI_ENABLE_IT() macro.
 123:/home/maxx/STM32Cube/Repository/STM32Cube_FW_L0_V1.11.2/Drivers/STM32L0xx_HAL_Driver/Src/stm32l0xx_hal_pwr.c ****       (+) The PVD is stopped in Standby mode.
 124:/home/maxx/STM32Cube/Repository/STM32Cube_FW_L0_V1.11.2/Drivers/STM32L0xx_HAL_Driver/Src/stm32l0xx_hal_pwr.c ****       (+) The PVD feature is not supported on L0 Value line.
 125:/home/maxx/STM32Cube/Repository/STM32Cube_FW_L0_V1.11.2/Drivers/STM32L0xx_HAL_Driver/Src/stm32l0xx_hal_pwr.c **** 
 126:/home/maxx/STM32Cube/Repository/STM32Cube_FW_L0_V1.11.2/Drivers/STM32L0xx_HAL_Driver/Src/stm32l0xx_hal_pwr.c ****     *** WakeUp pin configuration ***
 127:/home/maxx/STM32Cube/Repository/STM32Cube_FW_L0_V1.11.2/Drivers/STM32L0xx_HAL_Driver/Src/stm32l0xx_hal_pwr.c ****     ================================
 128:/home/maxx/STM32Cube/Repository/STM32Cube_FW_L0_V1.11.2/Drivers/STM32L0xx_HAL_Driver/Src/stm32l0xx_hal_pwr.c ****     [..]
 129:/home/maxx/STM32Cube/Repository/STM32Cube_FW_L0_V1.11.2/Drivers/STM32L0xx_HAL_Driver/Src/stm32l0xx_hal_pwr.c ****       (+) WakeUp pin is used to wake up the system from Standby mode. This pin is
 130:/home/maxx/STM32Cube/Repository/STM32Cube_FW_L0_V1.11.2/Drivers/STM32L0xx_HAL_Driver/Src/stm32l0xx_hal_pwr.c ****           forced in input pull-down configuration and is active on rising edges.
 131:/home/maxx/STM32Cube/Repository/STM32Cube_FW_L0_V1.11.2/Drivers/STM32L0xx_HAL_Driver/Src/stm32l0xx_hal_pwr.c ****       (+) There are two WakeUp pins:
 132:/home/maxx/STM32Cube/Repository/STM32Cube_FW_L0_V1.11.2/Drivers/STM32L0xx_HAL_Driver/Src/stm32l0xx_hal_pwr.c ****           WakeUp Pin 1 on PA.00.
 133:/home/maxx/STM32Cube/Repository/STM32Cube_FW_L0_V1.11.2/Drivers/STM32L0xx_HAL_Driver/Src/stm32l0xx_hal_pwr.c ****           WakeUp Pin 2 on PC.13.
 134:/home/maxx/STM32Cube/Repository/STM32Cube_FW_L0_V1.11.2/Drivers/STM32L0xx_HAL_Driver/Src/stm32l0xx_hal_pwr.c ****           WakeUp Pin 3 on PE.06 .
 135:/home/maxx/STM32Cube/Repository/STM32Cube_FW_L0_V1.11.2/Drivers/STM32L0xx_HAL_Driver/Src/stm32l0xx_hal_pwr.c ****           
 136:/home/maxx/STM32Cube/Repository/STM32Cube_FW_L0_V1.11.2/Drivers/STM32L0xx_HAL_Driver/Src/stm32l0xx_hal_pwr.c **** 
 137:/home/maxx/STM32Cube/Repository/STM32Cube_FW_L0_V1.11.2/Drivers/STM32L0xx_HAL_Driver/Src/stm32l0xx_hal_pwr.c ****     [..]
 138:/home/maxx/STM32Cube/Repository/STM32Cube_FW_L0_V1.11.2/Drivers/STM32L0xx_HAL_Driver/Src/stm32l0xx_hal_pwr.c ****     *** Main and Backup Regulators configuration ***
 139:/home/maxx/STM32Cube/Repository/STM32Cube_FW_L0_V1.11.2/Drivers/STM32L0xx_HAL_Driver/Src/stm32l0xx_hal_pwr.c ****     ================================================
 140:/home/maxx/STM32Cube/Repository/STM32Cube_FW_L0_V1.11.2/Drivers/STM32L0xx_HAL_Driver/Src/stm32l0xx_hal_pwr.c **** 
 141:/home/maxx/STM32Cube/Repository/STM32Cube_FW_L0_V1.11.2/Drivers/STM32L0xx_HAL_Driver/Src/stm32l0xx_hal_pwr.c ****       (+) The main internal regulator can be configured to have a tradeoff between
 142:/home/maxx/STM32Cube/Repository/STM32Cube_FW_L0_V1.11.2/Drivers/STM32L0xx_HAL_Driver/Src/stm32l0xx_hal_pwr.c ****           performance and power consumption when the device does not operate at
 143:/home/maxx/STM32Cube/Repository/STM32Cube_FW_L0_V1.11.2/Drivers/STM32L0xx_HAL_Driver/Src/stm32l0xx_hal_pwr.c ****           the maximum frequency. This is done through __HAL_PWR_VOLTAGESCALING_CONFIG()
 144:/home/maxx/STM32Cube/Repository/STM32Cube_FW_L0_V1.11.2/Drivers/STM32L0xx_HAL_Driver/Src/stm32l0xx_hal_pwr.c ****           macro which configures the two VOS bits in PWR_CR register:
 145:/home/maxx/STM32Cube/Repository/STM32Cube_FW_L0_V1.11.2/Drivers/STM32L0xx_HAL_Driver/Src/stm32l0xx_hal_pwr.c ****         (++) PWR_REGULATOR_VOLTAGE_SCALE1 (VOS bits = 01), the regulator voltage output Scale 1 mod
 146:/home/maxx/STM32Cube/Repository/STM32Cube_FW_L0_V1.11.2/Drivers/STM32L0xx_HAL_Driver/Src/stm32l0xx_hal_pwr.c ****              the System frequency can go up to 32 MHz.
 147:/home/maxx/STM32Cube/Repository/STM32Cube_FW_L0_V1.11.2/Drivers/STM32L0xx_HAL_Driver/Src/stm32l0xx_hal_pwr.c ****         (++) PWR_REGULATOR_VOLTAGE_SCALE2 (VOS bits = 10), the regulator voltage output Scale 2 mod
 148:/home/maxx/STM32Cube/Repository/STM32Cube_FW_L0_V1.11.2/Drivers/STM32L0xx_HAL_Driver/Src/stm32l0xx_hal_pwr.c ****              the System frequency can go up to 16 MHz.
 149:/home/maxx/STM32Cube/Repository/STM32Cube_FW_L0_V1.11.2/Drivers/STM32L0xx_HAL_Driver/Src/stm32l0xx_hal_pwr.c ****         (++) PWR_REGULATOR_VOLTAGE_SCALE3 (VOS bits = 11), the regulator voltage output Scale 3 mod
 150:/home/maxx/STM32Cube/Repository/STM32Cube_FW_L0_V1.11.2/Drivers/STM32L0xx_HAL_Driver/Src/stm32l0xx_hal_pwr.c ****              the System frequency can go up to 4.2 MHz.
 151:/home/maxx/STM32Cube/Repository/STM32Cube_FW_L0_V1.11.2/Drivers/STM32L0xx_HAL_Driver/Src/stm32l0xx_hal_pwr.c ****               
 152:/home/maxx/STM32Cube/Repository/STM32Cube_FW_L0_V1.11.2/Drivers/STM32L0xx_HAL_Driver/Src/stm32l0xx_hal_pwr.c ****         Refer to the datasheets for more details.
 153:/home/maxx/STM32Cube/Repository/STM32Cube_FW_L0_V1.11.2/Drivers/STM32L0xx_HAL_Driver/Src/stm32l0xx_hal_pwr.c **** 
 154:/home/maxx/STM32Cube/Repository/STM32Cube_FW_L0_V1.11.2/Drivers/STM32L0xx_HAL_Driver/Src/stm32l0xx_hal_pwr.c ****     *** Low Power modes configuration ***
 155:/home/maxx/STM32Cube/Repository/STM32Cube_FW_L0_V1.11.2/Drivers/STM32L0xx_HAL_Driver/Src/stm32l0xx_hal_pwr.c ****     =====================================
 156:/home/maxx/STM32Cube/Repository/STM32Cube_FW_L0_V1.11.2/Drivers/STM32L0xx_HAL_Driver/Src/stm32l0xx_hal_pwr.c ****      [..]
 157:/home/maxx/STM32Cube/Repository/STM32Cube_FW_L0_V1.11.2/Drivers/STM32L0xx_HAL_Driver/Src/stm32l0xx_hal_pwr.c ****       The device features 5 low-power modes:
 158:/home/maxx/STM32Cube/Repository/STM32Cube_FW_L0_V1.11.2/Drivers/STM32L0xx_HAL_Driver/Src/stm32l0xx_hal_pwr.c ****       (+) Low power run mode: regulator in low power mode, limited clock frequency, 
 159:/home/maxx/STM32Cube/Repository/STM32Cube_FW_L0_V1.11.2/Drivers/STM32L0xx_HAL_Driver/Src/stm32l0xx_hal_pwr.c ****         limited number of peripherals running.
 160:/home/maxx/STM32Cube/Repository/STM32Cube_FW_L0_V1.11.2/Drivers/STM32L0xx_HAL_Driver/Src/stm32l0xx_hal_pwr.c ****       (+) Sleep mode: Cortex-M0+ core stopped, peripherals kept running.
 161:/home/maxx/STM32Cube/Repository/STM32Cube_FW_L0_V1.11.2/Drivers/STM32L0xx_HAL_Driver/Src/stm32l0xx_hal_pwr.c ****       (+) Low power sleep mode: Cortex-M0+ core stopped, limited clock frequency, 
 162:/home/maxx/STM32Cube/Repository/STM32Cube_FW_L0_V1.11.2/Drivers/STM32L0xx_HAL_Driver/Src/stm32l0xx_hal_pwr.c ****          limited number of peripherals running, regulator in low power mode.
 163:/home/maxx/STM32Cube/Repository/STM32Cube_FW_L0_V1.11.2/Drivers/STM32L0xx_HAL_Driver/Src/stm32l0xx_hal_pwr.c ****       (+) Stop mode: All clocks are stopped, regulator running, regulator in low power mode.
 164:/home/maxx/STM32Cube/Repository/STM32Cube_FW_L0_V1.11.2/Drivers/STM32L0xx_HAL_Driver/Src/stm32l0xx_hal_pwr.c ****       (+) Standby mode: VCORE domain powered off
 165:/home/maxx/STM32Cube/Repository/STM32Cube_FW_L0_V1.11.2/Drivers/STM32L0xx_HAL_Driver/Src/stm32l0xx_hal_pwr.c ****   
 166:/home/maxx/STM32Cube/Repository/STM32Cube_FW_L0_V1.11.2/Drivers/STM32L0xx_HAL_Driver/Src/stm32l0xx_hal_pwr.c ****    *** Low power run mode ***
 167:/home/maxx/STM32Cube/Repository/STM32Cube_FW_L0_V1.11.2/Drivers/STM32L0xx_HAL_Driver/Src/stm32l0xx_hal_pwr.c ****    =========================
 168:/home/maxx/STM32Cube/Repository/STM32Cube_FW_L0_V1.11.2/Drivers/STM32L0xx_HAL_Driver/Src/stm32l0xx_hal_pwr.c ****     [..]
ARM GAS  /tmp/ccd53DOt.s 			page 5


 169:/home/maxx/STM32Cube/Repository/STM32Cube_FW_L0_V1.11.2/Drivers/STM32L0xx_HAL_Driver/Src/stm32l0xx_hal_pwr.c ****        To further reduce the consumption when the system is in Run mode, the regulator can be
 170:/home/maxx/STM32Cube/Repository/STM32Cube_FW_L0_V1.11.2/Drivers/STM32L0xx_HAL_Driver/Src/stm32l0xx_hal_pwr.c ****         configured in low power mode. In this mode, the system frequency should not exceed
 171:/home/maxx/STM32Cube/Repository/STM32Cube_FW_L0_V1.11.2/Drivers/STM32L0xx_HAL_Driver/Src/stm32l0xx_hal_pwr.c ****         MSI frequency range1.
 172:/home/maxx/STM32Cube/Repository/STM32Cube_FW_L0_V1.11.2/Drivers/STM32L0xx_HAL_Driver/Src/stm32l0xx_hal_pwr.c ****         In Low power run mode, all I/O pins keep the same state as in Run mode.
 173:/home/maxx/STM32Cube/Repository/STM32Cube_FW_L0_V1.11.2/Drivers/STM32L0xx_HAL_Driver/Src/stm32l0xx_hal_pwr.c ****   
 174:/home/maxx/STM32Cube/Repository/STM32Cube_FW_L0_V1.11.2/Drivers/STM32L0xx_HAL_Driver/Src/stm32l0xx_hal_pwr.c ****       (+) Entry:
 175:/home/maxx/STM32Cube/Repository/STM32Cube_FW_L0_V1.11.2/Drivers/STM32L0xx_HAL_Driver/Src/stm32l0xx_hal_pwr.c ****         (++) VCORE in range2
 176:/home/maxx/STM32Cube/Repository/STM32Cube_FW_L0_V1.11.2/Drivers/STM32L0xx_HAL_Driver/Src/stm32l0xx_hal_pwr.c ****         (++) Decrease the system frequency not to exceed the frequency of MSI frequency range1.
 177:/home/maxx/STM32Cube/Repository/STM32Cube_FW_L0_V1.11.2/Drivers/STM32L0xx_HAL_Driver/Src/stm32l0xx_hal_pwr.c ****         (++) The regulator is forced in low power mode using the HAL_PWREx_EnableLowPowerRunMode()
 178:/home/maxx/STM32Cube/Repository/STM32Cube_FW_L0_V1.11.2/Drivers/STM32L0xx_HAL_Driver/Src/stm32l0xx_hal_pwr.c ****              function.
 179:/home/maxx/STM32Cube/Repository/STM32Cube_FW_L0_V1.11.2/Drivers/STM32L0xx_HAL_Driver/Src/stm32l0xx_hal_pwr.c ****       (+) Exit:
 180:/home/maxx/STM32Cube/Repository/STM32Cube_FW_L0_V1.11.2/Drivers/STM32L0xx_HAL_Driver/Src/stm32l0xx_hal_pwr.c ****         (++) The regulator is forced in Main regulator mode using the HAL_PWREx_DisableLowPowerRunM
 181:/home/maxx/STM32Cube/Repository/STM32Cube_FW_L0_V1.11.2/Drivers/STM32L0xx_HAL_Driver/Src/stm32l0xx_hal_pwr.c ****               function.
 182:/home/maxx/STM32Cube/Repository/STM32Cube_FW_L0_V1.11.2/Drivers/STM32L0xx_HAL_Driver/Src/stm32l0xx_hal_pwr.c ****         (++) Increase the system frequency if needed.
 183:/home/maxx/STM32Cube/Repository/STM32Cube_FW_L0_V1.11.2/Drivers/STM32L0xx_HAL_Driver/Src/stm32l0xx_hal_pwr.c ****   
 184:/home/maxx/STM32Cube/Repository/STM32Cube_FW_L0_V1.11.2/Drivers/STM32L0xx_HAL_Driver/Src/stm32l0xx_hal_pwr.c ****    *** Sleep mode ***
 185:/home/maxx/STM32Cube/Repository/STM32Cube_FW_L0_V1.11.2/Drivers/STM32L0xx_HAL_Driver/Src/stm32l0xx_hal_pwr.c ****    ==================
 186:/home/maxx/STM32Cube/Repository/STM32Cube_FW_L0_V1.11.2/Drivers/STM32L0xx_HAL_Driver/Src/stm32l0xx_hal_pwr.c ****     [..]
 187:/home/maxx/STM32Cube/Repository/STM32Cube_FW_L0_V1.11.2/Drivers/STM32L0xx_HAL_Driver/Src/stm32l0xx_hal_pwr.c ****       (+) Entry:
 188:/home/maxx/STM32Cube/Repository/STM32Cube_FW_L0_V1.11.2/Drivers/STM32L0xx_HAL_Driver/Src/stm32l0xx_hal_pwr.c ****           The Sleep mode is entered by using the HAL_PWR_EnterSLEEPMode(PWR_MAINREGULATOR_ON, PWR_S
 189:/home/maxx/STM32Cube/Repository/STM32Cube_FW_L0_V1.11.2/Drivers/STM32L0xx_HAL_Driver/Src/stm32l0xx_hal_pwr.c ****               functions with
 190:/home/maxx/STM32Cube/Repository/STM32Cube_FW_L0_V1.11.2/Drivers/STM32L0xx_HAL_Driver/Src/stm32l0xx_hal_pwr.c ****           (++) PWR_SLEEPENTRY_WFI: enter SLEEP mode with WFI instruction
 191:/home/maxx/STM32Cube/Repository/STM32Cube_FW_L0_V1.11.2/Drivers/STM32L0xx_HAL_Driver/Src/stm32l0xx_hal_pwr.c ****           (++) PWR_SLEEPENTRY_WFE: enter SLEEP mode with WFE instruction
 192:/home/maxx/STM32Cube/Repository/STM32Cube_FW_L0_V1.11.2/Drivers/STM32L0xx_HAL_Driver/Src/stm32l0xx_hal_pwr.c ****      
 193:/home/maxx/STM32Cube/Repository/STM32Cube_FW_L0_V1.11.2/Drivers/STM32L0xx_HAL_Driver/Src/stm32l0xx_hal_pwr.c ****       (+) Exit:
 194:/home/maxx/STM32Cube/Repository/STM32Cube_FW_L0_V1.11.2/Drivers/STM32L0xx_HAL_Driver/Src/stm32l0xx_hal_pwr.c ****         (++) Any peripheral interrupt acknowledged by the nested vectored interrupt
 195:/home/maxx/STM32Cube/Repository/STM32Cube_FW_L0_V1.11.2/Drivers/STM32L0xx_HAL_Driver/Src/stm32l0xx_hal_pwr.c ****               controller (NVIC) can wake up the device from Sleep mode. If the WFE instruction was 
 196:/home/maxx/STM32Cube/Repository/STM32Cube_FW_L0_V1.11.2/Drivers/STM32L0xx_HAL_Driver/Src/stm32l0xx_hal_pwr.c ****               the MCU exits Sleep mode as soon as an event occurs. 
 197:/home/maxx/STM32Cube/Repository/STM32Cube_FW_L0_V1.11.2/Drivers/STM32L0xx_HAL_Driver/Src/stm32l0xx_hal_pwr.c **** 
 198:/home/maxx/STM32Cube/Repository/STM32Cube_FW_L0_V1.11.2/Drivers/STM32L0xx_HAL_Driver/Src/stm32l0xx_hal_pwr.c ****    *** Low power sleep mode ***
 199:/home/maxx/STM32Cube/Repository/STM32Cube_FW_L0_V1.11.2/Drivers/STM32L0xx_HAL_Driver/Src/stm32l0xx_hal_pwr.c ****    ============================
 200:/home/maxx/STM32Cube/Repository/STM32Cube_FW_L0_V1.11.2/Drivers/STM32L0xx_HAL_Driver/Src/stm32l0xx_hal_pwr.c ****     [..]
 201:/home/maxx/STM32Cube/Repository/STM32Cube_FW_L0_V1.11.2/Drivers/STM32L0xx_HAL_Driver/Src/stm32l0xx_hal_pwr.c ****       (+) Entry:
 202:/home/maxx/STM32Cube/Repository/STM32Cube_FW_L0_V1.11.2/Drivers/STM32L0xx_HAL_Driver/Src/stm32l0xx_hal_pwr.c ****           The Low power sleep mode is entered by using the HAL_PWR_EnterSLEEPMode(PWR_LOWPOWERREGUL
 203:/home/maxx/STM32Cube/Repository/STM32Cube_FW_L0_V1.11.2/Drivers/STM32L0xx_HAL_Driver/Src/stm32l0xx_hal_pwr.c ****               functions with
 204:/home/maxx/STM32Cube/Repository/STM32Cube_FW_L0_V1.11.2/Drivers/STM32L0xx_HAL_Driver/Src/stm32l0xx_hal_pwr.c ****           (++) PWR_SLEEPENTRY_WFI: enter SLEEP mode with WFI instruction
 205:/home/maxx/STM32Cube/Repository/STM32Cube_FW_L0_V1.11.2/Drivers/STM32L0xx_HAL_Driver/Src/stm32l0xx_hal_pwr.c ****           (++) PWR_SLEEPENTRY_WFE: enter SLEEP mode with WFE instruction
 206:/home/maxx/STM32Cube/Repository/STM32Cube_FW_L0_V1.11.2/Drivers/STM32L0xx_HAL_Driver/Src/stm32l0xx_hal_pwr.c ****        (+) The Flash memory can be switched off by using the control bits (SLEEP_PD in the FLASH_AC
 207:/home/maxx/STM32Cube/Repository/STM32Cube_FW_L0_V1.11.2/Drivers/STM32L0xx_HAL_Driver/Src/stm32l0xx_hal_pwr.c ****              This reduces power consumption but increases the wake-up time.
 208:/home/maxx/STM32Cube/Repository/STM32Cube_FW_L0_V1.11.2/Drivers/STM32L0xx_HAL_Driver/Src/stm32l0xx_hal_pwr.c ****          
 209:/home/maxx/STM32Cube/Repository/STM32Cube_FW_L0_V1.11.2/Drivers/STM32L0xx_HAL_Driver/Src/stm32l0xx_hal_pwr.c ****       (+) Exit:
 210:/home/maxx/STM32Cube/Repository/STM32Cube_FW_L0_V1.11.2/Drivers/STM32L0xx_HAL_Driver/Src/stm32l0xx_hal_pwr.c ****         (++) If the WFI instruction was used to enter Low power sleep mode, any peripheral interrup
 211:/home/maxx/STM32Cube/Repository/STM32Cube_FW_L0_V1.11.2/Drivers/STM32L0xx_HAL_Driver/Src/stm32l0xx_hal_pwr.c ****               acknowledged by the nested vectored interrupt controller (NVIC) can wake up the devic
 212:/home/maxx/STM32Cube/Repository/STM32Cube_FW_L0_V1.11.2/Drivers/STM32L0xx_HAL_Driver/Src/stm32l0xx_hal_pwr.c ****               from Low power sleep mode. If the WFE instruction was used to enter Low power sleep m
 213:/home/maxx/STM32Cube/Repository/STM32Cube_FW_L0_V1.11.2/Drivers/STM32L0xx_HAL_Driver/Src/stm32l0xx_hal_pwr.c ****               the MCU exits Sleep mode as soon as an event occurs. 
 214:/home/maxx/STM32Cube/Repository/STM32Cube_FW_L0_V1.11.2/Drivers/STM32L0xx_HAL_Driver/Src/stm32l0xx_hal_pwr.c ****                 
 215:/home/maxx/STM32Cube/Repository/STM32Cube_FW_L0_V1.11.2/Drivers/STM32L0xx_HAL_Driver/Src/stm32l0xx_hal_pwr.c ****    *** Stop mode ***
 216:/home/maxx/STM32Cube/Repository/STM32Cube_FW_L0_V1.11.2/Drivers/STM32L0xx_HAL_Driver/Src/stm32l0xx_hal_pwr.c ****    =================
 217:/home/maxx/STM32Cube/Repository/STM32Cube_FW_L0_V1.11.2/Drivers/STM32L0xx_HAL_Driver/Src/stm32l0xx_hal_pwr.c ****     [..]
 218:/home/maxx/STM32Cube/Repository/STM32Cube_FW_L0_V1.11.2/Drivers/STM32L0xx_HAL_Driver/Src/stm32l0xx_hal_pwr.c ****       The Stop mode is based on the Cortex-M0+ deepsleep mode combined with peripheral
 219:/home/maxx/STM32Cube/Repository/STM32Cube_FW_L0_V1.11.2/Drivers/STM32L0xx_HAL_Driver/Src/stm32l0xx_hal_pwr.c ****       clock gating. The voltage regulator can be configured either in normal or low-power mode.
 220:/home/maxx/STM32Cube/Repository/STM32Cube_FW_L0_V1.11.2/Drivers/STM32L0xx_HAL_Driver/Src/stm32l0xx_hal_pwr.c ****       In Stop mode, all clocks in the VCORE domain are stopped, the PLL, the MSI, the HSI and
 221:/home/maxx/STM32Cube/Repository/STM32Cube_FW_L0_V1.11.2/Drivers/STM32L0xx_HAL_Driver/Src/stm32l0xx_hal_pwr.c ****       the HSE RC oscillators are disabled. Internal SRAM and register contents are preserved.
 222:/home/maxx/STM32Cube/Repository/STM32Cube_FW_L0_V1.11.2/Drivers/STM32L0xx_HAL_Driver/Src/stm32l0xx_hal_pwr.c ****       To get the lowest consumption in Stop mode, the internal Flash memory also enters low
 223:/home/maxx/STM32Cube/Repository/STM32Cube_FW_L0_V1.11.2/Drivers/STM32L0xx_HAL_Driver/Src/stm32l0xx_hal_pwr.c ****       power mode. When the Flash memory is in power-down mode, an additional startup delay is
 224:/home/maxx/STM32Cube/Repository/STM32Cube_FW_L0_V1.11.2/Drivers/STM32L0xx_HAL_Driver/Src/stm32l0xx_hal_pwr.c ****       incurred when waking up from Stop mode.
 225:/home/maxx/STM32Cube/Repository/STM32Cube_FW_L0_V1.11.2/Drivers/STM32L0xx_HAL_Driver/Src/stm32l0xx_hal_pwr.c ****       To minimize the consumption In Stop mode, VREFINT, the BOR, PVD, and temperature
ARM GAS  /tmp/ccd53DOt.s 			page 6


 226:/home/maxx/STM32Cube/Repository/STM32Cube_FW_L0_V1.11.2/Drivers/STM32L0xx_HAL_Driver/Src/stm32l0xx_hal_pwr.c ****       sensor can be switched off before entering Stop mode. They can be switched on again by
 227:/home/maxx/STM32Cube/Repository/STM32Cube_FW_L0_V1.11.2/Drivers/STM32L0xx_HAL_Driver/Src/stm32l0xx_hal_pwr.c ****       software after exiting Stop mode using the ULP bit in the PWR_CR register.
 228:/home/maxx/STM32Cube/Repository/STM32Cube_FW_L0_V1.11.2/Drivers/STM32L0xx_HAL_Driver/Src/stm32l0xx_hal_pwr.c ****       In Stop mode, all I/O pins keep the same state as in Run mode.
 229:/home/maxx/STM32Cube/Repository/STM32Cube_FW_L0_V1.11.2/Drivers/STM32L0xx_HAL_Driver/Src/stm32l0xx_hal_pwr.c **** 
 230:/home/maxx/STM32Cube/Repository/STM32Cube_FW_L0_V1.11.2/Drivers/STM32L0xx_HAL_Driver/Src/stm32l0xx_hal_pwr.c ****       (+) Entry:
 231:/home/maxx/STM32Cube/Repository/STM32Cube_FW_L0_V1.11.2/Drivers/STM32L0xx_HAL_Driver/Src/stm32l0xx_hal_pwr.c ****            The Stop mode is entered using the HAL_PWR_EnterSTOPMode
 232:/home/maxx/STM32Cube/Repository/STM32Cube_FW_L0_V1.11.2/Drivers/STM32L0xx_HAL_Driver/Src/stm32l0xx_hal_pwr.c ****              function with:
 233:/home/maxx/STM32Cube/Repository/STM32Cube_FW_L0_V1.11.2/Drivers/STM32L0xx_HAL_Driver/Src/stm32l0xx_hal_pwr.c ****           (++) Main regulator ON.
 234:/home/maxx/STM32Cube/Repository/STM32Cube_FW_L0_V1.11.2/Drivers/STM32L0xx_HAL_Driver/Src/stm32l0xx_hal_pwr.c ****           (++) Low Power regulator ON.
 235:/home/maxx/STM32Cube/Repository/STM32Cube_FW_L0_V1.11.2/Drivers/STM32L0xx_HAL_Driver/Src/stm32l0xx_hal_pwr.c ****           (++) PWR_SLEEPENTRY_WFI: enter SLEEP mode with WFI instruction
 236:/home/maxx/STM32Cube/Repository/STM32Cube_FW_L0_V1.11.2/Drivers/STM32L0xx_HAL_Driver/Src/stm32l0xx_hal_pwr.c ****           (++) PWR_SLEEPENTRY_WFE: enter SLEEP mode with WFE instruction
 237:/home/maxx/STM32Cube/Repository/STM32Cube_FW_L0_V1.11.2/Drivers/STM32L0xx_HAL_Driver/Src/stm32l0xx_hal_pwr.c ****       (+) Exit:
 238:/home/maxx/STM32Cube/Repository/STM32Cube_FW_L0_V1.11.2/Drivers/STM32L0xx_HAL_Driver/Src/stm32l0xx_hal_pwr.c ****         (++) By issuing an interrupt or a wakeup event, the MSI or HSI16 RC
 239:/home/maxx/STM32Cube/Repository/STM32Cube_FW_L0_V1.11.2/Drivers/STM32L0xx_HAL_Driver/Src/stm32l0xx_hal_pwr.c ****              oscillator is selected as system clock depending the bit STOPWUCK in the RCC_CFGR
 240:/home/maxx/STM32Cube/Repository/STM32Cube_FW_L0_V1.11.2/Drivers/STM32L0xx_HAL_Driver/Src/stm32l0xx_hal_pwr.c ****              register
 241:/home/maxx/STM32Cube/Repository/STM32Cube_FW_L0_V1.11.2/Drivers/STM32L0xx_HAL_Driver/Src/stm32l0xx_hal_pwr.c **** 
 242:/home/maxx/STM32Cube/Repository/STM32Cube_FW_L0_V1.11.2/Drivers/STM32L0xx_HAL_Driver/Src/stm32l0xx_hal_pwr.c ****    *** Standby mode ***
 243:/home/maxx/STM32Cube/Repository/STM32Cube_FW_L0_V1.11.2/Drivers/STM32L0xx_HAL_Driver/Src/stm32l0xx_hal_pwr.c ****    ====================
 244:/home/maxx/STM32Cube/Repository/STM32Cube_FW_L0_V1.11.2/Drivers/STM32L0xx_HAL_Driver/Src/stm32l0xx_hal_pwr.c ****      [..]
 245:/home/maxx/STM32Cube/Repository/STM32Cube_FW_L0_V1.11.2/Drivers/STM32L0xx_HAL_Driver/Src/stm32l0xx_hal_pwr.c ****       The Standby mode allows to achieve the lowest power consumption. It is based on the
 246:/home/maxx/STM32Cube/Repository/STM32Cube_FW_L0_V1.11.2/Drivers/STM32L0xx_HAL_Driver/Src/stm32l0xx_hal_pwr.c ****       Cortex-M0+ deepsleep mode, with the voltage regulator disabled. The VCORE domain is
 247:/home/maxx/STM32Cube/Repository/STM32Cube_FW_L0_V1.11.2/Drivers/STM32L0xx_HAL_Driver/Src/stm32l0xx_hal_pwr.c ****       consequently powered off. The PLL, the MSI, the HSI oscillator and the HSE oscillator are
 248:/home/maxx/STM32Cube/Repository/STM32Cube_FW_L0_V1.11.2/Drivers/STM32L0xx_HAL_Driver/Src/stm32l0xx_hal_pwr.c ****       also switched off. SRAM and register contents are lost except for the RTC registers, RTC
 249:/home/maxx/STM32Cube/Repository/STM32Cube_FW_L0_V1.11.2/Drivers/STM32L0xx_HAL_Driver/Src/stm32l0xx_hal_pwr.c ****       backup registers and Standby circuitry.
 250:/home/maxx/STM32Cube/Repository/STM32Cube_FW_L0_V1.11.2/Drivers/STM32L0xx_HAL_Driver/Src/stm32l0xx_hal_pwr.c ****       
 251:/home/maxx/STM32Cube/Repository/STM32Cube_FW_L0_V1.11.2/Drivers/STM32L0xx_HAL_Driver/Src/stm32l0xx_hal_pwr.c ****       To minimize the consumption In Standby mode, VREFINT, the BOR, PVD, and temperature
 252:/home/maxx/STM32Cube/Repository/STM32Cube_FW_L0_V1.11.2/Drivers/STM32L0xx_HAL_Driver/Src/stm32l0xx_hal_pwr.c ****        sensor can be switched off before entering the Standby mode. They can be switched 
 253:/home/maxx/STM32Cube/Repository/STM32Cube_FW_L0_V1.11.2/Drivers/STM32L0xx_HAL_Driver/Src/stm32l0xx_hal_pwr.c ****        on again by software after exiting the Standby mode.
 254:/home/maxx/STM32Cube/Repository/STM32Cube_FW_L0_V1.11.2/Drivers/STM32L0xx_HAL_Driver/Src/stm32l0xx_hal_pwr.c ****        function.
 255:/home/maxx/STM32Cube/Repository/STM32Cube_FW_L0_V1.11.2/Drivers/STM32L0xx_HAL_Driver/Src/stm32l0xx_hal_pwr.c ****       
 256:/home/maxx/STM32Cube/Repository/STM32Cube_FW_L0_V1.11.2/Drivers/STM32L0xx_HAL_Driver/Src/stm32l0xx_hal_pwr.c ****       (+) Entry:
 257:/home/maxx/STM32Cube/Repository/STM32Cube_FW_L0_V1.11.2/Drivers/STM32L0xx_HAL_Driver/Src/stm32l0xx_hal_pwr.c ****         (++) The Standby mode is entered using the HAL_PWR_EnterSTANDBYMode() function.
 258:/home/maxx/STM32Cube/Repository/STM32Cube_FW_L0_V1.11.2/Drivers/STM32L0xx_HAL_Driver/Src/stm32l0xx_hal_pwr.c ****       (+) Exit:
 259:/home/maxx/STM32Cube/Repository/STM32Cube_FW_L0_V1.11.2/Drivers/STM32L0xx_HAL_Driver/Src/stm32l0xx_hal_pwr.c ****         (++) WKUP pin rising edge, RTC alarm (Alarm A and Alarm B), RTC wakeup,
 260:/home/maxx/STM32Cube/Repository/STM32Cube_FW_L0_V1.11.2/Drivers/STM32L0xx_HAL_Driver/Src/stm32l0xx_hal_pwr.c ****              tamper event, time-stamp event, external reset in NRST pin, IWDG reset.
 261:/home/maxx/STM32Cube/Repository/STM32Cube_FW_L0_V1.11.2/Drivers/STM32L0xx_HAL_Driver/Src/stm32l0xx_hal_pwr.c **** 
 262:/home/maxx/STM32Cube/Repository/STM32Cube_FW_L0_V1.11.2/Drivers/STM32L0xx_HAL_Driver/Src/stm32l0xx_hal_pwr.c ****    *** Auto-wakeup (AWU) from low-power mode ***
 263:/home/maxx/STM32Cube/Repository/STM32Cube_FW_L0_V1.11.2/Drivers/STM32L0xx_HAL_Driver/Src/stm32l0xx_hal_pwr.c ****    =============================================
 264:/home/maxx/STM32Cube/Repository/STM32Cube_FW_L0_V1.11.2/Drivers/STM32L0xx_HAL_Driver/Src/stm32l0xx_hal_pwr.c ****     [..]
 265:/home/maxx/STM32Cube/Repository/STM32Cube_FW_L0_V1.11.2/Drivers/STM32L0xx_HAL_Driver/Src/stm32l0xx_hal_pwr.c ****       The MCU can be woken up from low-power mode by an RTC Alarm event, an RTC 
 266:/home/maxx/STM32Cube/Repository/STM32Cube_FW_L0_V1.11.2/Drivers/STM32L0xx_HAL_Driver/Src/stm32l0xx_hal_pwr.c ****       Wakeup event, a tamper event, a time-stamp event, or a comparator event, 
 267:/home/maxx/STM32Cube/Repository/STM32Cube_FW_L0_V1.11.2/Drivers/STM32L0xx_HAL_Driver/Src/stm32l0xx_hal_pwr.c ****       without depending on an external interrupt (Auto-wakeup mode).
 268:/home/maxx/STM32Cube/Repository/STM32Cube_FW_L0_V1.11.2/Drivers/STM32L0xx_HAL_Driver/Src/stm32l0xx_hal_pwr.c **** 
 269:/home/maxx/STM32Cube/Repository/STM32Cube_FW_L0_V1.11.2/Drivers/STM32L0xx_HAL_Driver/Src/stm32l0xx_hal_pwr.c ****     (+) RTC auto-wakeup (AWU) from the Stop mode
 270:/home/maxx/STM32Cube/Repository/STM32Cube_FW_L0_V1.11.2/Drivers/STM32L0xx_HAL_Driver/Src/stm32l0xx_hal_pwr.c ****         (++) To wake up from the Stop mode with an RTC alarm event, it is necessary to:
 271:/home/maxx/STM32Cube/Repository/STM32Cube_FW_L0_V1.11.2/Drivers/STM32L0xx_HAL_Driver/Src/stm32l0xx_hal_pwr.c ****              (+++) Configure the EXTI Line 17 to be sensitive to rising edges (Interrupt 
 272:/home/maxx/STM32Cube/Repository/STM32Cube_FW_L0_V1.11.2/Drivers/STM32L0xx_HAL_Driver/Src/stm32l0xx_hal_pwr.c ****                    or Event modes) using the EXTI_Init() function.
 273:/home/maxx/STM32Cube/Repository/STM32Cube_FW_L0_V1.11.2/Drivers/STM32L0xx_HAL_Driver/Src/stm32l0xx_hal_pwr.c ****              (+++) Enable the RTC Alarm Interrupt using the RTC_ITConfig() function
 274:/home/maxx/STM32Cube/Repository/STM32Cube_FW_L0_V1.11.2/Drivers/STM32L0xx_HAL_Driver/Src/stm32l0xx_hal_pwr.c ****              (+++) Configure the RTC to generate the RTC alarm using the RTC_SetAlarm() 
 275:/home/maxx/STM32Cube/Repository/STM32Cube_FW_L0_V1.11.2/Drivers/STM32L0xx_HAL_Driver/Src/stm32l0xx_hal_pwr.c ****                    and RTC_AlarmCmd() functions.
 276:/home/maxx/STM32Cube/Repository/STM32Cube_FW_L0_V1.11.2/Drivers/STM32L0xx_HAL_Driver/Src/stm32l0xx_hal_pwr.c ****         (++) To wake up from the Stop mode with an RTC Tamper or time stamp event, it 
 277:/home/maxx/STM32Cube/Repository/STM32Cube_FW_L0_V1.11.2/Drivers/STM32L0xx_HAL_Driver/Src/stm32l0xx_hal_pwr.c ****              is necessary to:
 278:/home/maxx/STM32Cube/Repository/STM32Cube_FW_L0_V1.11.2/Drivers/STM32L0xx_HAL_Driver/Src/stm32l0xx_hal_pwr.c ****              (+++) Configure the EXTI Line 19 to be sensitive to rising edges (Interrupt 
 279:/home/maxx/STM32Cube/Repository/STM32Cube_FW_L0_V1.11.2/Drivers/STM32L0xx_HAL_Driver/Src/stm32l0xx_hal_pwr.c ****                    or Event modes) using the EXTI_Init() function.
 280:/home/maxx/STM32Cube/Repository/STM32Cube_FW_L0_V1.11.2/Drivers/STM32L0xx_HAL_Driver/Src/stm32l0xx_hal_pwr.c ****              (+++) Enable the RTC Tamper or time stamp Interrupt using the RTC_ITConfig() 
 281:/home/maxx/STM32Cube/Repository/STM32Cube_FW_L0_V1.11.2/Drivers/STM32L0xx_HAL_Driver/Src/stm32l0xx_hal_pwr.c ****                    function.
 282:/home/maxx/STM32Cube/Repository/STM32Cube_FW_L0_V1.11.2/Drivers/STM32L0xx_HAL_Driver/Src/stm32l0xx_hal_pwr.c ****              (+++) Configure the RTC to detect the tamper or time stamp event using the
ARM GAS  /tmp/ccd53DOt.s 			page 7


 283:/home/maxx/STM32Cube/Repository/STM32Cube_FW_L0_V1.11.2/Drivers/STM32L0xx_HAL_Driver/Src/stm32l0xx_hal_pwr.c ****                    RTC_TimeStampConfig(), RTC_TamperTriggerConfig() and RTC_TamperCmd()
 284:/home/maxx/STM32Cube/Repository/STM32Cube_FW_L0_V1.11.2/Drivers/STM32L0xx_HAL_Driver/Src/stm32l0xx_hal_pwr.c ****                    functions.
 285:/home/maxx/STM32Cube/Repository/STM32Cube_FW_L0_V1.11.2/Drivers/STM32L0xx_HAL_Driver/Src/stm32l0xx_hal_pwr.c ****         (++) To wake up from the Stop mode with an RTC WakeUp event, it is necessary to:
 286:/home/maxx/STM32Cube/Repository/STM32Cube_FW_L0_V1.11.2/Drivers/STM32L0xx_HAL_Driver/Src/stm32l0xx_hal_pwr.c ****              (+++) Configure the EXTI Line 20 to be sensitive to rising edges (Interrupt 
 287:/home/maxx/STM32Cube/Repository/STM32Cube_FW_L0_V1.11.2/Drivers/STM32L0xx_HAL_Driver/Src/stm32l0xx_hal_pwr.c ****                    or Event modes) using the EXTI_Init() function.
 288:/home/maxx/STM32Cube/Repository/STM32Cube_FW_L0_V1.11.2/Drivers/STM32L0xx_HAL_Driver/Src/stm32l0xx_hal_pwr.c ****              (+++) Enable the RTC WakeUp Interrupt using the RTC_ITConfig() function.
 289:/home/maxx/STM32Cube/Repository/STM32Cube_FW_L0_V1.11.2/Drivers/STM32L0xx_HAL_Driver/Src/stm32l0xx_hal_pwr.c ****              (+++) Configure the RTC to generate the RTC WakeUp event using the RTC_WakeUpClockConf
 290:/home/maxx/STM32Cube/Repository/STM32Cube_FW_L0_V1.11.2/Drivers/STM32L0xx_HAL_Driver/Src/stm32l0xx_hal_pwr.c ****                    RTC_SetWakeUpCounter() and RTC_WakeUpCmd() functions.
 291:/home/maxx/STM32Cube/Repository/STM32Cube_FW_L0_V1.11.2/Drivers/STM32L0xx_HAL_Driver/Src/stm32l0xx_hal_pwr.c **** 
 292:/home/maxx/STM32Cube/Repository/STM32Cube_FW_L0_V1.11.2/Drivers/STM32L0xx_HAL_Driver/Src/stm32l0xx_hal_pwr.c ****     (+) RTC auto-wakeup (AWU) from the Standby mode
 293:/home/maxx/STM32Cube/Repository/STM32Cube_FW_L0_V1.11.2/Drivers/STM32L0xx_HAL_Driver/Src/stm32l0xx_hal_pwr.c ****         (++) To wake up from the Standby mode with an RTC alarm event, it is necessary to:
 294:/home/maxx/STM32Cube/Repository/STM32Cube_FW_L0_V1.11.2/Drivers/STM32L0xx_HAL_Driver/Src/stm32l0xx_hal_pwr.c ****              (+++) Enable the RTC Alarm Interrupt using the RTC_ITConfig() function.
 295:/home/maxx/STM32Cube/Repository/STM32Cube_FW_L0_V1.11.2/Drivers/STM32L0xx_HAL_Driver/Src/stm32l0xx_hal_pwr.c ****              (+++) Configure the RTC to generate the RTC alarm using the RTC_SetAlarm() 
 296:/home/maxx/STM32Cube/Repository/STM32Cube_FW_L0_V1.11.2/Drivers/STM32L0xx_HAL_Driver/Src/stm32l0xx_hal_pwr.c ****                    and RTC_AlarmCmd() functions.
 297:/home/maxx/STM32Cube/Repository/STM32Cube_FW_L0_V1.11.2/Drivers/STM32L0xx_HAL_Driver/Src/stm32l0xx_hal_pwr.c ****         (++) To wake up from the Standby mode with an RTC Tamper or time stamp event, it 
 298:/home/maxx/STM32Cube/Repository/STM32Cube_FW_L0_V1.11.2/Drivers/STM32L0xx_HAL_Driver/Src/stm32l0xx_hal_pwr.c ****              is necessary to:
 299:/home/maxx/STM32Cube/Repository/STM32Cube_FW_L0_V1.11.2/Drivers/STM32L0xx_HAL_Driver/Src/stm32l0xx_hal_pwr.c ****              (+++) Enable the RTC Tamper or time stamp Interrupt using the RTC_ITConfig() 
 300:/home/maxx/STM32Cube/Repository/STM32Cube_FW_L0_V1.11.2/Drivers/STM32L0xx_HAL_Driver/Src/stm32l0xx_hal_pwr.c ****                    function.
 301:/home/maxx/STM32Cube/Repository/STM32Cube_FW_L0_V1.11.2/Drivers/STM32L0xx_HAL_Driver/Src/stm32l0xx_hal_pwr.c ****              (+++) Configure the RTC to detect the tamper or time stamp event using the
 302:/home/maxx/STM32Cube/Repository/STM32Cube_FW_L0_V1.11.2/Drivers/STM32L0xx_HAL_Driver/Src/stm32l0xx_hal_pwr.c ****                    RTC_TimeStampConfig(), RTC_TamperTriggerConfig() and RTC_TamperCmd()
 303:/home/maxx/STM32Cube/Repository/STM32Cube_FW_L0_V1.11.2/Drivers/STM32L0xx_HAL_Driver/Src/stm32l0xx_hal_pwr.c ****                    functions.
 304:/home/maxx/STM32Cube/Repository/STM32Cube_FW_L0_V1.11.2/Drivers/STM32L0xx_HAL_Driver/Src/stm32l0xx_hal_pwr.c ****         (++) To wake up from the Standby mode with an RTC WakeUp event, it is necessary to:
 305:/home/maxx/STM32Cube/Repository/STM32Cube_FW_L0_V1.11.2/Drivers/STM32L0xx_HAL_Driver/Src/stm32l0xx_hal_pwr.c ****              (+++) Enable the RTC WakeUp Interrupt using the RTC_ITConfig() function
 306:/home/maxx/STM32Cube/Repository/STM32Cube_FW_L0_V1.11.2/Drivers/STM32L0xx_HAL_Driver/Src/stm32l0xx_hal_pwr.c ****              (+++) Configure the RTC to generate the RTC WakeUp event using the RTC_WakeUpClockConf
 307:/home/maxx/STM32Cube/Repository/STM32Cube_FW_L0_V1.11.2/Drivers/STM32L0xx_HAL_Driver/Src/stm32l0xx_hal_pwr.c ****                    RTC_SetWakeUpCounter() and RTC_WakeUpCmd() functions.
 308:/home/maxx/STM32Cube/Repository/STM32Cube_FW_L0_V1.11.2/Drivers/STM32L0xx_HAL_Driver/Src/stm32l0xx_hal_pwr.c **** 
 309:/home/maxx/STM32Cube/Repository/STM32Cube_FW_L0_V1.11.2/Drivers/STM32L0xx_HAL_Driver/Src/stm32l0xx_hal_pwr.c ****     (+) Comparator auto-wakeup (AWU) from the Stop mode
 310:/home/maxx/STM32Cube/Repository/STM32Cube_FW_L0_V1.11.2/Drivers/STM32L0xx_HAL_Driver/Src/stm32l0xx_hal_pwr.c ****         (++) To wake up from the Stop mode with an comparator 1 or comparator 2 wakeup
 311:/home/maxx/STM32Cube/Repository/STM32Cube_FW_L0_V1.11.2/Drivers/STM32L0xx_HAL_Driver/Src/stm32l0xx_hal_pwr.c ****              event, it is necessary to:
 312:/home/maxx/STM32Cube/Repository/STM32Cube_FW_L0_V1.11.2/Drivers/STM32L0xx_HAL_Driver/Src/stm32l0xx_hal_pwr.c ****              (+++) Configure the EXTI Line 21 for comparator 1 or EXTI Line 22 for comparator 2 
 313:/home/maxx/STM32Cube/Repository/STM32Cube_FW_L0_V1.11.2/Drivers/STM32L0xx_HAL_Driver/Src/stm32l0xx_hal_pwr.c ****                    to be sensitive to to the selected edges (falling, rising or falling 
 314:/home/maxx/STM32Cube/Repository/STM32Cube_FW_L0_V1.11.2/Drivers/STM32L0xx_HAL_Driver/Src/stm32l0xx_hal_pwr.c ****                    and rising) (Interrupt or Event modes) using the EXTI_Init() function.
 315:/home/maxx/STM32Cube/Repository/STM32Cube_FW_L0_V1.11.2/Drivers/STM32L0xx_HAL_Driver/Src/stm32l0xx_hal_pwr.c ****              (+++) Configure the comparator to generate the event.      
 316:/home/maxx/STM32Cube/Repository/STM32Cube_FW_L0_V1.11.2/Drivers/STM32L0xx_HAL_Driver/Src/stm32l0xx_hal_pwr.c **** @endverbatim
 317:/home/maxx/STM32Cube/Repository/STM32Cube_FW_L0_V1.11.2/Drivers/STM32L0xx_HAL_Driver/Src/stm32l0xx_hal_pwr.c ****   * @{
 318:/home/maxx/STM32Cube/Repository/STM32Cube_FW_L0_V1.11.2/Drivers/STM32L0xx_HAL_Driver/Src/stm32l0xx_hal_pwr.c ****   */
 319:/home/maxx/STM32Cube/Repository/STM32Cube_FW_L0_V1.11.2/Drivers/STM32L0xx_HAL_Driver/Src/stm32l0xx_hal_pwr.c **** 
 320:/home/maxx/STM32Cube/Repository/STM32Cube_FW_L0_V1.11.2/Drivers/STM32L0xx_HAL_Driver/Src/stm32l0xx_hal_pwr.c **** /**
 321:/home/maxx/STM32Cube/Repository/STM32Cube_FW_L0_V1.11.2/Drivers/STM32L0xx_HAL_Driver/Src/stm32l0xx_hal_pwr.c ****   * @brief Enables access to the backup domain (RTC registers, RTC
 322:/home/maxx/STM32Cube/Repository/STM32Cube_FW_L0_V1.11.2/Drivers/STM32L0xx_HAL_Driver/Src/stm32l0xx_hal_pwr.c ****   *         backup data registers ).
 323:/home/maxx/STM32Cube/Repository/STM32Cube_FW_L0_V1.11.2/Drivers/STM32L0xx_HAL_Driver/Src/stm32l0xx_hal_pwr.c ****   * @note   If the HSE divided by 2, 4, 8 or 16 is used as the RTC clock, the
 324:/home/maxx/STM32Cube/Repository/STM32Cube_FW_L0_V1.11.2/Drivers/STM32L0xx_HAL_Driver/Src/stm32l0xx_hal_pwr.c ****   *         Backup Domain Access should be kept enabled.
 325:/home/maxx/STM32Cube/Repository/STM32Cube_FW_L0_V1.11.2/Drivers/STM32L0xx_HAL_Driver/Src/stm32l0xx_hal_pwr.c ****   * @retval None
 326:/home/maxx/STM32Cube/Repository/STM32Cube_FW_L0_V1.11.2/Drivers/STM32L0xx_HAL_Driver/Src/stm32l0xx_hal_pwr.c ****   */
 327:/home/maxx/STM32Cube/Repository/STM32Cube_FW_L0_V1.11.2/Drivers/STM32L0xx_HAL_Driver/Src/stm32l0xx_hal_pwr.c **** void HAL_PWR_EnableBkUpAccess(void)
 328:/home/maxx/STM32Cube/Repository/STM32Cube_FW_L0_V1.11.2/Drivers/STM32L0xx_HAL_Driver/Src/stm32l0xx_hal_pwr.c **** {
  64              		.loc 1 328 0
  65              		.cfi_startproc
  66              		@ args = 0, pretend = 0, frame = 0
  67              		@ frame_needed = 0, uses_anonymous_args = 0
  68              		@ link register save eliminated.
 329:/home/maxx/STM32Cube/Repository/STM32Cube_FW_L0_V1.11.2/Drivers/STM32L0xx_HAL_Driver/Src/stm32l0xx_hal_pwr.c ****   /* Enable access to RTC and backup registers */
 330:/home/maxx/STM32Cube/Repository/STM32Cube_FW_L0_V1.11.2/Drivers/STM32L0xx_HAL_Driver/Src/stm32l0xx_hal_pwr.c ****   SET_BIT(PWR->CR, PWR_CR_DBP);
  69              		.loc 1 330 0
  70 0000 034A     		ldr	r2, .L5
  71 0002 1168     		ldr	r1, [r2]
  72 0004 8023     		movs	r3, #128
ARM GAS  /tmp/ccd53DOt.s 			page 8


  73 0006 5B00     		lsls	r3, r3, #1
  74 0008 0B43     		orrs	r3, r1
  75 000a 1360     		str	r3, [r2]
 331:/home/maxx/STM32Cube/Repository/STM32Cube_FW_L0_V1.11.2/Drivers/STM32L0xx_HAL_Driver/Src/stm32l0xx_hal_pwr.c **** }
  76              		.loc 1 331 0
  77              		@ sp needed
  78 000c 7047     		bx	lr
  79              	.L6:
  80 000e C046     		.align	2
  81              	.L5:
  82 0010 00700040 		.word	1073770496
  83              		.cfi_endproc
  84              	.LFE35:
  86              		.section	.text.HAL_PWR_DisableBkUpAccess,"ax",%progbits
  87              		.align	1
  88              		.global	HAL_PWR_DisableBkUpAccess
  89              		.syntax unified
  90              		.code	16
  91              		.thumb_func
  92              		.fpu softvfp
  94              	HAL_PWR_DisableBkUpAccess:
  95              	.LFB36:
 332:/home/maxx/STM32Cube/Repository/STM32Cube_FW_L0_V1.11.2/Drivers/STM32L0xx_HAL_Driver/Src/stm32l0xx_hal_pwr.c **** 
 333:/home/maxx/STM32Cube/Repository/STM32Cube_FW_L0_V1.11.2/Drivers/STM32L0xx_HAL_Driver/Src/stm32l0xx_hal_pwr.c **** /**
 334:/home/maxx/STM32Cube/Repository/STM32Cube_FW_L0_V1.11.2/Drivers/STM32L0xx_HAL_Driver/Src/stm32l0xx_hal_pwr.c ****   * @brief  Disables access to the backup domain 
 335:/home/maxx/STM32Cube/Repository/STM32Cube_FW_L0_V1.11.2/Drivers/STM32L0xx_HAL_Driver/Src/stm32l0xx_hal_pwr.c ****   * @note   Applies to RTC registers, RTC backup data registers.
 336:/home/maxx/STM32Cube/Repository/STM32Cube_FW_L0_V1.11.2/Drivers/STM32L0xx_HAL_Driver/Src/stm32l0xx_hal_pwr.c ****   * @note   If the HSE divided by 2, 4, 8 or 16 is used as the RTC clock, the
 337:/home/maxx/STM32Cube/Repository/STM32Cube_FW_L0_V1.11.2/Drivers/STM32L0xx_HAL_Driver/Src/stm32l0xx_hal_pwr.c ****   *         Backup Domain Access should be kept enabled.
 338:/home/maxx/STM32Cube/Repository/STM32Cube_FW_L0_V1.11.2/Drivers/STM32L0xx_HAL_Driver/Src/stm32l0xx_hal_pwr.c ****   * @retval None
 339:/home/maxx/STM32Cube/Repository/STM32Cube_FW_L0_V1.11.2/Drivers/STM32L0xx_HAL_Driver/Src/stm32l0xx_hal_pwr.c ****   */
 340:/home/maxx/STM32Cube/Repository/STM32Cube_FW_L0_V1.11.2/Drivers/STM32L0xx_HAL_Driver/Src/stm32l0xx_hal_pwr.c **** void HAL_PWR_DisableBkUpAccess(void)
 341:/home/maxx/STM32Cube/Repository/STM32Cube_FW_L0_V1.11.2/Drivers/STM32L0xx_HAL_Driver/Src/stm32l0xx_hal_pwr.c **** {
  96              		.loc 1 341 0
  97              		.cfi_startproc
  98              		@ args = 0, pretend = 0, frame = 0
  99              		@ frame_needed = 0, uses_anonymous_args = 0
 100              		@ link register save eliminated.
 342:/home/maxx/STM32Cube/Repository/STM32Cube_FW_L0_V1.11.2/Drivers/STM32L0xx_HAL_Driver/Src/stm32l0xx_hal_pwr.c ****   /* Disable access to RTC and backup registers */
 343:/home/maxx/STM32Cube/Repository/STM32Cube_FW_L0_V1.11.2/Drivers/STM32L0xx_HAL_Driver/Src/stm32l0xx_hal_pwr.c ****   CLEAR_BIT(PWR->CR, PWR_CR_DBP);
 101              		.loc 1 343 0
 102 0000 024A     		ldr	r2, .L8
 103 0002 1368     		ldr	r3, [r2]
 104 0004 0249     		ldr	r1, .L8+4
 105 0006 0B40     		ands	r3, r1
 106 0008 1360     		str	r3, [r2]
 344:/home/maxx/STM32Cube/Repository/STM32Cube_FW_L0_V1.11.2/Drivers/STM32L0xx_HAL_Driver/Src/stm32l0xx_hal_pwr.c **** }
 107              		.loc 1 344 0
 108              		@ sp needed
 109 000a 7047     		bx	lr
 110              	.L9:
 111              		.align	2
 112              	.L8:
 113 000c 00700040 		.word	1073770496
 114 0010 FFFEFFFF 		.word	-257
 115              		.cfi_endproc
 116              	.LFE36:
 118              		.section	.text.HAL_PWR_ConfigPVD,"ax",%progbits
ARM GAS  /tmp/ccd53DOt.s 			page 9


 119              		.align	1
 120              		.global	HAL_PWR_ConfigPVD
 121              		.syntax unified
 122              		.code	16
 123              		.thumb_func
 124              		.fpu softvfp
 126              	HAL_PWR_ConfigPVD:
 127              	.LFB37:
 345:/home/maxx/STM32Cube/Repository/STM32Cube_FW_L0_V1.11.2/Drivers/STM32L0xx_HAL_Driver/Src/stm32l0xx_hal_pwr.c **** 
 346:/home/maxx/STM32Cube/Repository/STM32Cube_FW_L0_V1.11.2/Drivers/STM32L0xx_HAL_Driver/Src/stm32l0xx_hal_pwr.c **** #if defined(PWR_PVD_SUPPORT)
 347:/home/maxx/STM32Cube/Repository/STM32Cube_FW_L0_V1.11.2/Drivers/STM32L0xx_HAL_Driver/Src/stm32l0xx_hal_pwr.c **** /**
 348:/home/maxx/STM32Cube/Repository/STM32Cube_FW_L0_V1.11.2/Drivers/STM32L0xx_HAL_Driver/Src/stm32l0xx_hal_pwr.c ****   * @brief  Configures the voltage threshold detected by the Power Voltage Detector(PVD).
 349:/home/maxx/STM32Cube/Repository/STM32Cube_FW_L0_V1.11.2/Drivers/STM32L0xx_HAL_Driver/Src/stm32l0xx_hal_pwr.c ****   * @param  sConfigPVD pointer to an PWR_PVDTypeDef structure that contains the configuration
 350:/home/maxx/STM32Cube/Repository/STM32Cube_FW_L0_V1.11.2/Drivers/STM32L0xx_HAL_Driver/Src/stm32l0xx_hal_pwr.c ****   *         information for the PVD.
 351:/home/maxx/STM32Cube/Repository/STM32Cube_FW_L0_V1.11.2/Drivers/STM32L0xx_HAL_Driver/Src/stm32l0xx_hal_pwr.c ****   * @note   Refer to the electrical characteristics of your device datasheet for
 352:/home/maxx/STM32Cube/Repository/STM32Cube_FW_L0_V1.11.2/Drivers/STM32L0xx_HAL_Driver/Src/stm32l0xx_hal_pwr.c ****   *         more details about the voltage threshold corresponding to each
 353:/home/maxx/STM32Cube/Repository/STM32Cube_FW_L0_V1.11.2/Drivers/STM32L0xx_HAL_Driver/Src/stm32l0xx_hal_pwr.c ****   *         detection level.
 354:/home/maxx/STM32Cube/Repository/STM32Cube_FW_L0_V1.11.2/Drivers/STM32L0xx_HAL_Driver/Src/stm32l0xx_hal_pwr.c ****   * @retval None
 355:/home/maxx/STM32Cube/Repository/STM32Cube_FW_L0_V1.11.2/Drivers/STM32L0xx_HAL_Driver/Src/stm32l0xx_hal_pwr.c ****   */
 356:/home/maxx/STM32Cube/Repository/STM32Cube_FW_L0_V1.11.2/Drivers/STM32L0xx_HAL_Driver/Src/stm32l0xx_hal_pwr.c **** void HAL_PWR_ConfigPVD(PWR_PVDTypeDef *sConfigPVD)
 357:/home/maxx/STM32Cube/Repository/STM32Cube_FW_L0_V1.11.2/Drivers/STM32L0xx_HAL_Driver/Src/stm32l0xx_hal_pwr.c **** {
 128              		.loc 1 357 0
 129              		.cfi_startproc
 130              		@ args = 0, pretend = 0, frame = 0
 131              		@ frame_needed = 0, uses_anonymous_args = 0
 132              		@ link register save eliminated.
 133              	.LVL0:
 358:/home/maxx/STM32Cube/Repository/STM32Cube_FW_L0_V1.11.2/Drivers/STM32L0xx_HAL_Driver/Src/stm32l0xx_hal_pwr.c ****   /* Check the parameters */
 359:/home/maxx/STM32Cube/Repository/STM32Cube_FW_L0_V1.11.2/Drivers/STM32L0xx_HAL_Driver/Src/stm32l0xx_hal_pwr.c ****   assert_param(IS_PWR_PVD_LEVEL(sConfigPVD->PVDLevel));
 360:/home/maxx/STM32Cube/Repository/STM32Cube_FW_L0_V1.11.2/Drivers/STM32L0xx_HAL_Driver/Src/stm32l0xx_hal_pwr.c ****   assert_param(IS_PWR_PVD_MODE(sConfigPVD->Mode));
 361:/home/maxx/STM32Cube/Repository/STM32Cube_FW_L0_V1.11.2/Drivers/STM32L0xx_HAL_Driver/Src/stm32l0xx_hal_pwr.c **** 
 362:/home/maxx/STM32Cube/Repository/STM32Cube_FW_L0_V1.11.2/Drivers/STM32L0xx_HAL_Driver/Src/stm32l0xx_hal_pwr.c ****   /* Set PLS[7:5] bits according to PVDLevel value */
 363:/home/maxx/STM32Cube/Repository/STM32Cube_FW_L0_V1.11.2/Drivers/STM32L0xx_HAL_Driver/Src/stm32l0xx_hal_pwr.c ****   MODIFY_REG(PWR->CR, PWR_CR_PLS, sConfigPVD->PVDLevel);
 134              		.loc 1 363 0
 135 0000 1C4A     		ldr	r2, .L15
 136 0002 1368     		ldr	r3, [r2]
 137 0004 E021     		movs	r1, #224
 138 0006 8B43     		bics	r3, r1
 139 0008 0168     		ldr	r1, [r0]
 140 000a 0B43     		orrs	r3, r1
 141 000c 1360     		str	r3, [r2]
 364:/home/maxx/STM32Cube/Repository/STM32Cube_FW_L0_V1.11.2/Drivers/STM32L0xx_HAL_Driver/Src/stm32l0xx_hal_pwr.c ****   
 365:/home/maxx/STM32Cube/Repository/STM32Cube_FW_L0_V1.11.2/Drivers/STM32L0xx_HAL_Driver/Src/stm32l0xx_hal_pwr.c ****   /* Clear any previous config. Keep it clear if no event or IT mode is selected */
 366:/home/maxx/STM32Cube/Repository/STM32Cube_FW_L0_V1.11.2/Drivers/STM32L0xx_HAL_Driver/Src/stm32l0xx_hal_pwr.c ****   __HAL_PWR_PVD_EXTI_DISABLE_EVENT();
 142              		.loc 1 366 0
 143 000e 1A4B     		ldr	r3, .L15+4
 144 0010 5968     		ldr	r1, [r3, #4]
 145 0012 1A4A     		ldr	r2, .L15+8
 146 0014 1140     		ands	r1, r2
 147 0016 5960     		str	r1, [r3, #4]
 367:/home/maxx/STM32Cube/Repository/STM32Cube_FW_L0_V1.11.2/Drivers/STM32L0xx_HAL_Driver/Src/stm32l0xx_hal_pwr.c ****   __HAL_PWR_PVD_EXTI_DISABLE_IT();
 148              		.loc 1 367 0
 149 0018 1968     		ldr	r1, [r3]
 150 001a 1140     		ands	r1, r2
 151 001c 1960     		str	r1, [r3]
 368:/home/maxx/STM32Cube/Repository/STM32Cube_FW_L0_V1.11.2/Drivers/STM32L0xx_HAL_Driver/Src/stm32l0xx_hal_pwr.c ****   __HAL_PWR_PVD_EXTI_DISABLE_FALLING_EDGE(); 
 152              		.loc 1 368 0
ARM GAS  /tmp/ccd53DOt.s 			page 10


 153 001e D968     		ldr	r1, [r3, #12]
 154 0020 1140     		ands	r1, r2
 155 0022 D960     		str	r1, [r3, #12]
 369:/home/maxx/STM32Cube/Repository/STM32Cube_FW_L0_V1.11.2/Drivers/STM32L0xx_HAL_Driver/Src/stm32l0xx_hal_pwr.c ****   __HAL_PWR_PVD_EXTI_DISABLE_RISING_EDGE();
 156              		.loc 1 369 0
 157 0024 9968     		ldr	r1, [r3, #8]
 158 0026 0A40     		ands	r2, r1
 159 0028 9A60     		str	r2, [r3, #8]
 370:/home/maxx/STM32Cube/Repository/STM32Cube_FW_L0_V1.11.2/Drivers/STM32L0xx_HAL_Driver/Src/stm32l0xx_hal_pwr.c **** 
 371:/home/maxx/STM32Cube/Repository/STM32Cube_FW_L0_V1.11.2/Drivers/STM32L0xx_HAL_Driver/Src/stm32l0xx_hal_pwr.c ****   /* Configure interrupt mode */
 372:/home/maxx/STM32Cube/Repository/STM32Cube_FW_L0_V1.11.2/Drivers/STM32L0xx_HAL_Driver/Src/stm32l0xx_hal_pwr.c ****   if((sConfigPVD->Mode & PVD_MODE_IT) == PVD_MODE_IT)
 160              		.loc 1 372 0
 161 002a 4368     		ldr	r3, [r0, #4]
 162 002c DB03     		lsls	r3, r3, #15
 163 002e 05D5     		bpl	.L11
 373:/home/maxx/STM32Cube/Repository/STM32Cube_FW_L0_V1.11.2/Drivers/STM32L0xx_HAL_Driver/Src/stm32l0xx_hal_pwr.c ****   {
 374:/home/maxx/STM32Cube/Repository/STM32Cube_FW_L0_V1.11.2/Drivers/STM32L0xx_HAL_Driver/Src/stm32l0xx_hal_pwr.c ****     __HAL_PWR_PVD_EXTI_ENABLE_IT();
 164              		.loc 1 374 0
 165 0030 114A     		ldr	r2, .L15+4
 166 0032 1168     		ldr	r1, [r2]
 167 0034 8023     		movs	r3, #128
 168 0036 5B02     		lsls	r3, r3, #9
 169 0038 0B43     		orrs	r3, r1
 170 003a 1360     		str	r3, [r2]
 171              	.L11:
 375:/home/maxx/STM32Cube/Repository/STM32Cube_FW_L0_V1.11.2/Drivers/STM32L0xx_HAL_Driver/Src/stm32l0xx_hal_pwr.c ****   }
 376:/home/maxx/STM32Cube/Repository/STM32Cube_FW_L0_V1.11.2/Drivers/STM32L0xx_HAL_Driver/Src/stm32l0xx_hal_pwr.c ****   
 377:/home/maxx/STM32Cube/Repository/STM32Cube_FW_L0_V1.11.2/Drivers/STM32L0xx_HAL_Driver/Src/stm32l0xx_hal_pwr.c ****   /* Configure event mode */
 378:/home/maxx/STM32Cube/Repository/STM32Cube_FW_L0_V1.11.2/Drivers/STM32L0xx_HAL_Driver/Src/stm32l0xx_hal_pwr.c ****   if((sConfigPVD->Mode & PVD_MODE_EVT) == PVD_MODE_EVT)
 172              		.loc 1 378 0
 173 003c 4368     		ldr	r3, [r0, #4]
 174 003e 9B03     		lsls	r3, r3, #14
 175 0040 05D5     		bpl	.L12
 379:/home/maxx/STM32Cube/Repository/STM32Cube_FW_L0_V1.11.2/Drivers/STM32L0xx_HAL_Driver/Src/stm32l0xx_hal_pwr.c ****   {
 380:/home/maxx/STM32Cube/Repository/STM32Cube_FW_L0_V1.11.2/Drivers/STM32L0xx_HAL_Driver/Src/stm32l0xx_hal_pwr.c ****     __HAL_PWR_PVD_EXTI_ENABLE_EVENT();
 176              		.loc 1 380 0
 177 0042 0D4A     		ldr	r2, .L15+4
 178 0044 5168     		ldr	r1, [r2, #4]
 179 0046 8023     		movs	r3, #128
 180 0048 5B02     		lsls	r3, r3, #9
 181 004a 0B43     		orrs	r3, r1
 182 004c 5360     		str	r3, [r2, #4]
 183              	.L12:
 381:/home/maxx/STM32Cube/Repository/STM32Cube_FW_L0_V1.11.2/Drivers/STM32L0xx_HAL_Driver/Src/stm32l0xx_hal_pwr.c ****   }
 382:/home/maxx/STM32Cube/Repository/STM32Cube_FW_L0_V1.11.2/Drivers/STM32L0xx_HAL_Driver/Src/stm32l0xx_hal_pwr.c ****   
 383:/home/maxx/STM32Cube/Repository/STM32Cube_FW_L0_V1.11.2/Drivers/STM32L0xx_HAL_Driver/Src/stm32l0xx_hal_pwr.c ****   /* Configure the edge */
 384:/home/maxx/STM32Cube/Repository/STM32Cube_FW_L0_V1.11.2/Drivers/STM32L0xx_HAL_Driver/Src/stm32l0xx_hal_pwr.c ****   if((sConfigPVD->Mode & PVD_RISING_EDGE) == PVD_RISING_EDGE)
 184              		.loc 1 384 0
 185 004e 4368     		ldr	r3, [r0, #4]
 186 0050 DB07     		lsls	r3, r3, #31
 187 0052 05D5     		bpl	.L13
 385:/home/maxx/STM32Cube/Repository/STM32Cube_FW_L0_V1.11.2/Drivers/STM32L0xx_HAL_Driver/Src/stm32l0xx_hal_pwr.c ****   {
 386:/home/maxx/STM32Cube/Repository/STM32Cube_FW_L0_V1.11.2/Drivers/STM32L0xx_HAL_Driver/Src/stm32l0xx_hal_pwr.c ****     __HAL_PWR_PVD_EXTI_ENABLE_RISING_EDGE();
 188              		.loc 1 386 0
 189 0054 084A     		ldr	r2, .L15+4
 190 0056 9168     		ldr	r1, [r2, #8]
 191 0058 8023     		movs	r3, #128
ARM GAS  /tmp/ccd53DOt.s 			page 11


 192 005a 5B02     		lsls	r3, r3, #9
 193 005c 0B43     		orrs	r3, r1
 194 005e 9360     		str	r3, [r2, #8]
 195              	.L13:
 387:/home/maxx/STM32Cube/Repository/STM32Cube_FW_L0_V1.11.2/Drivers/STM32L0xx_HAL_Driver/Src/stm32l0xx_hal_pwr.c ****   }
 388:/home/maxx/STM32Cube/Repository/STM32Cube_FW_L0_V1.11.2/Drivers/STM32L0xx_HAL_Driver/Src/stm32l0xx_hal_pwr.c ****   
 389:/home/maxx/STM32Cube/Repository/STM32Cube_FW_L0_V1.11.2/Drivers/STM32L0xx_HAL_Driver/Src/stm32l0xx_hal_pwr.c ****   if((sConfigPVD->Mode & PVD_FALLING_EDGE) == PVD_FALLING_EDGE)
 196              		.loc 1 389 0
 197 0060 4368     		ldr	r3, [r0, #4]
 198 0062 9B07     		lsls	r3, r3, #30
 199 0064 05D5     		bpl	.L10
 390:/home/maxx/STM32Cube/Repository/STM32Cube_FW_L0_V1.11.2/Drivers/STM32L0xx_HAL_Driver/Src/stm32l0xx_hal_pwr.c ****   {
 391:/home/maxx/STM32Cube/Repository/STM32Cube_FW_L0_V1.11.2/Drivers/STM32L0xx_HAL_Driver/Src/stm32l0xx_hal_pwr.c ****     __HAL_PWR_PVD_EXTI_ENABLE_FALLING_EDGE();
 200              		.loc 1 391 0
 201 0066 044A     		ldr	r2, .L15+4
 202 0068 D168     		ldr	r1, [r2, #12]
 203 006a 8023     		movs	r3, #128
 204 006c 5B02     		lsls	r3, r3, #9
 205 006e 0B43     		orrs	r3, r1
 206 0070 D360     		str	r3, [r2, #12]
 207              	.L10:
 392:/home/maxx/STM32Cube/Repository/STM32Cube_FW_L0_V1.11.2/Drivers/STM32L0xx_HAL_Driver/Src/stm32l0xx_hal_pwr.c ****   }
 393:/home/maxx/STM32Cube/Repository/STM32Cube_FW_L0_V1.11.2/Drivers/STM32L0xx_HAL_Driver/Src/stm32l0xx_hal_pwr.c **** }
 208              		.loc 1 393 0
 209              		@ sp needed
 210 0072 7047     		bx	lr
 211              	.L16:
 212              		.align	2
 213              	.L15:
 214 0074 00700040 		.word	1073770496
 215 0078 00040140 		.word	1073808384
 216 007c FFFFFEFF 		.word	-65537
 217              		.cfi_endproc
 218              	.LFE37:
 220              		.section	.text.HAL_PWR_EnablePVD,"ax",%progbits
 221              		.align	1
 222              		.global	HAL_PWR_EnablePVD
 223              		.syntax unified
 224              		.code	16
 225              		.thumb_func
 226              		.fpu softvfp
 228              	HAL_PWR_EnablePVD:
 229              	.LFB38:
 394:/home/maxx/STM32Cube/Repository/STM32Cube_FW_L0_V1.11.2/Drivers/STM32L0xx_HAL_Driver/Src/stm32l0xx_hal_pwr.c **** 
 395:/home/maxx/STM32Cube/Repository/STM32Cube_FW_L0_V1.11.2/Drivers/STM32L0xx_HAL_Driver/Src/stm32l0xx_hal_pwr.c **** /**
 396:/home/maxx/STM32Cube/Repository/STM32Cube_FW_L0_V1.11.2/Drivers/STM32L0xx_HAL_Driver/Src/stm32l0xx_hal_pwr.c ****   * @brief Enables the Power Voltage Detector(PVD).
 397:/home/maxx/STM32Cube/Repository/STM32Cube_FW_L0_V1.11.2/Drivers/STM32L0xx_HAL_Driver/Src/stm32l0xx_hal_pwr.c ****   * @retval None
 398:/home/maxx/STM32Cube/Repository/STM32Cube_FW_L0_V1.11.2/Drivers/STM32L0xx_HAL_Driver/Src/stm32l0xx_hal_pwr.c ****   */
 399:/home/maxx/STM32Cube/Repository/STM32Cube_FW_L0_V1.11.2/Drivers/STM32L0xx_HAL_Driver/Src/stm32l0xx_hal_pwr.c **** void HAL_PWR_EnablePVD(void)
 400:/home/maxx/STM32Cube/Repository/STM32Cube_FW_L0_V1.11.2/Drivers/STM32L0xx_HAL_Driver/Src/stm32l0xx_hal_pwr.c **** {
 230              		.loc 1 400 0
 231              		.cfi_startproc
 232              		@ args = 0, pretend = 0, frame = 0
 233              		@ frame_needed = 0, uses_anonymous_args = 0
 234              		@ link register save eliminated.
 401:/home/maxx/STM32Cube/Repository/STM32Cube_FW_L0_V1.11.2/Drivers/STM32L0xx_HAL_Driver/Src/stm32l0xx_hal_pwr.c ****   /* Enable the power voltage detector */
 402:/home/maxx/STM32Cube/Repository/STM32Cube_FW_L0_V1.11.2/Drivers/STM32L0xx_HAL_Driver/Src/stm32l0xx_hal_pwr.c ****   SET_BIT(PWR->CR, PWR_CR_PVDE);
ARM GAS  /tmp/ccd53DOt.s 			page 12


 235              		.loc 1 402 0
 236 0000 024A     		ldr	r2, .L18
 237 0002 1368     		ldr	r3, [r2]
 238 0004 1021     		movs	r1, #16
 239 0006 0B43     		orrs	r3, r1
 240 0008 1360     		str	r3, [r2]
 403:/home/maxx/STM32Cube/Repository/STM32Cube_FW_L0_V1.11.2/Drivers/STM32L0xx_HAL_Driver/Src/stm32l0xx_hal_pwr.c **** }
 241              		.loc 1 403 0
 242              		@ sp needed
 243 000a 7047     		bx	lr
 244              	.L19:
 245              		.align	2
 246              	.L18:
 247 000c 00700040 		.word	1073770496
 248              		.cfi_endproc
 249              	.LFE38:
 251              		.section	.text.HAL_PWR_DisablePVD,"ax",%progbits
 252              		.align	1
 253              		.global	HAL_PWR_DisablePVD
 254              		.syntax unified
 255              		.code	16
 256              		.thumb_func
 257              		.fpu softvfp
 259              	HAL_PWR_DisablePVD:
 260              	.LFB39:
 404:/home/maxx/STM32Cube/Repository/STM32Cube_FW_L0_V1.11.2/Drivers/STM32L0xx_HAL_Driver/Src/stm32l0xx_hal_pwr.c **** 
 405:/home/maxx/STM32Cube/Repository/STM32Cube_FW_L0_V1.11.2/Drivers/STM32L0xx_HAL_Driver/Src/stm32l0xx_hal_pwr.c **** /**
 406:/home/maxx/STM32Cube/Repository/STM32Cube_FW_L0_V1.11.2/Drivers/STM32L0xx_HAL_Driver/Src/stm32l0xx_hal_pwr.c ****   * @brief Disables the Power Voltage Detector(PVD).
 407:/home/maxx/STM32Cube/Repository/STM32Cube_FW_L0_V1.11.2/Drivers/STM32L0xx_HAL_Driver/Src/stm32l0xx_hal_pwr.c ****   * @retval None
 408:/home/maxx/STM32Cube/Repository/STM32Cube_FW_L0_V1.11.2/Drivers/STM32L0xx_HAL_Driver/Src/stm32l0xx_hal_pwr.c ****   */
 409:/home/maxx/STM32Cube/Repository/STM32Cube_FW_L0_V1.11.2/Drivers/STM32L0xx_HAL_Driver/Src/stm32l0xx_hal_pwr.c **** void HAL_PWR_DisablePVD(void)
 410:/home/maxx/STM32Cube/Repository/STM32Cube_FW_L0_V1.11.2/Drivers/STM32L0xx_HAL_Driver/Src/stm32l0xx_hal_pwr.c **** {
 261              		.loc 1 410 0
 262              		.cfi_startproc
 263              		@ args = 0, pretend = 0, frame = 0
 264              		@ frame_needed = 0, uses_anonymous_args = 0
 265              		@ link register save eliminated.
 411:/home/maxx/STM32Cube/Repository/STM32Cube_FW_L0_V1.11.2/Drivers/STM32L0xx_HAL_Driver/Src/stm32l0xx_hal_pwr.c ****   /* Disable the power voltage detector */
 412:/home/maxx/STM32Cube/Repository/STM32Cube_FW_L0_V1.11.2/Drivers/STM32L0xx_HAL_Driver/Src/stm32l0xx_hal_pwr.c ****   CLEAR_BIT(PWR->CR, PWR_CR_PVDE);
 266              		.loc 1 412 0
 267 0000 024A     		ldr	r2, .L21
 268 0002 1368     		ldr	r3, [r2]
 269 0004 1021     		movs	r1, #16
 270 0006 8B43     		bics	r3, r1
 271 0008 1360     		str	r3, [r2]
 413:/home/maxx/STM32Cube/Repository/STM32Cube_FW_L0_V1.11.2/Drivers/STM32L0xx_HAL_Driver/Src/stm32l0xx_hal_pwr.c **** }
 272              		.loc 1 413 0
 273              		@ sp needed
 274 000a 7047     		bx	lr
 275              	.L22:
 276              		.align	2
 277              	.L21:
 278 000c 00700040 		.word	1073770496
 279              		.cfi_endproc
 280              	.LFE39:
 282              		.section	.text.HAL_PWR_EnableWakeUpPin,"ax",%progbits
 283              		.align	1
ARM GAS  /tmp/ccd53DOt.s 			page 13


 284              		.global	HAL_PWR_EnableWakeUpPin
 285              		.syntax unified
 286              		.code	16
 287              		.thumb_func
 288              		.fpu softvfp
 290              	HAL_PWR_EnableWakeUpPin:
 291              	.LFB40:
 414:/home/maxx/STM32Cube/Repository/STM32Cube_FW_L0_V1.11.2/Drivers/STM32L0xx_HAL_Driver/Src/stm32l0xx_hal_pwr.c **** #endif /* PWR_PVD_SUPPORT */
 415:/home/maxx/STM32Cube/Repository/STM32Cube_FW_L0_V1.11.2/Drivers/STM32L0xx_HAL_Driver/Src/stm32l0xx_hal_pwr.c **** 
 416:/home/maxx/STM32Cube/Repository/STM32Cube_FW_L0_V1.11.2/Drivers/STM32L0xx_HAL_Driver/Src/stm32l0xx_hal_pwr.c **** /**
 417:/home/maxx/STM32Cube/Repository/STM32Cube_FW_L0_V1.11.2/Drivers/STM32L0xx_HAL_Driver/Src/stm32l0xx_hal_pwr.c ****   * @brief Enables the WakeUp PINx functionality.
 418:/home/maxx/STM32Cube/Repository/STM32Cube_FW_L0_V1.11.2/Drivers/STM32L0xx_HAL_Driver/Src/stm32l0xx_hal_pwr.c ****   * @param WakeUpPinx: Specifies the Power Wake-Up pin to enable.
 419:/home/maxx/STM32Cube/Repository/STM32Cube_FW_L0_V1.11.2/Drivers/STM32L0xx_HAL_Driver/Src/stm32l0xx_hal_pwr.c ****   *         This parameter can be one of the following values:
 420:/home/maxx/STM32Cube/Repository/STM32Cube_FW_L0_V1.11.2/Drivers/STM32L0xx_HAL_Driver/Src/stm32l0xx_hal_pwr.c ****   *           @arg PWR_WAKEUP_PIN1
 421:/home/maxx/STM32Cube/Repository/STM32Cube_FW_L0_V1.11.2/Drivers/STM32L0xx_HAL_Driver/Src/stm32l0xx_hal_pwr.c ****   *           @arg PWR_WAKEUP_PIN2
 422:/home/maxx/STM32Cube/Repository/STM32Cube_FW_L0_V1.11.2/Drivers/STM32L0xx_HAL_Driver/Src/stm32l0xx_hal_pwr.c ****   *           @arg PWR_WAKEUP_PIN3 for stm32l07xxx and stm32l08xxx devices only.
 423:/home/maxx/STM32Cube/Repository/STM32Cube_FW_L0_V1.11.2/Drivers/STM32L0xx_HAL_Driver/Src/stm32l0xx_hal_pwr.c ****   * @retval None
 424:/home/maxx/STM32Cube/Repository/STM32Cube_FW_L0_V1.11.2/Drivers/STM32L0xx_HAL_Driver/Src/stm32l0xx_hal_pwr.c ****   */
 425:/home/maxx/STM32Cube/Repository/STM32Cube_FW_L0_V1.11.2/Drivers/STM32L0xx_HAL_Driver/Src/stm32l0xx_hal_pwr.c **** void HAL_PWR_EnableWakeUpPin(uint32_t WakeUpPinx)
 426:/home/maxx/STM32Cube/Repository/STM32Cube_FW_L0_V1.11.2/Drivers/STM32L0xx_HAL_Driver/Src/stm32l0xx_hal_pwr.c **** {
 292              		.loc 1 426 0
 293              		.cfi_startproc
 294              		@ args = 0, pretend = 0, frame = 0
 295              		@ frame_needed = 0, uses_anonymous_args = 0
 296              		@ link register save eliminated.
 297              	.LVL1:
 427:/home/maxx/STM32Cube/Repository/STM32Cube_FW_L0_V1.11.2/Drivers/STM32L0xx_HAL_Driver/Src/stm32l0xx_hal_pwr.c ****   /* Check the parameter */
 428:/home/maxx/STM32Cube/Repository/STM32Cube_FW_L0_V1.11.2/Drivers/STM32L0xx_HAL_Driver/Src/stm32l0xx_hal_pwr.c ****   assert_param(IS_PWR_WAKEUP_PIN(WakeUpPinx));
 429:/home/maxx/STM32Cube/Repository/STM32Cube_FW_L0_V1.11.2/Drivers/STM32L0xx_HAL_Driver/Src/stm32l0xx_hal_pwr.c ****   /* Enable the EWUPx pin */
 430:/home/maxx/STM32Cube/Repository/STM32Cube_FW_L0_V1.11.2/Drivers/STM32L0xx_HAL_Driver/Src/stm32l0xx_hal_pwr.c ****   SET_BIT(PWR->CSR, WakeUpPinx);
 298              		.loc 1 430 0
 299 0000 024A     		ldr	r2, .L24
 300 0002 5368     		ldr	r3, [r2, #4]
 301 0004 1843     		orrs	r0, r3
 302              	.LVL2:
 303 0006 5060     		str	r0, [r2, #4]
 431:/home/maxx/STM32Cube/Repository/STM32Cube_FW_L0_V1.11.2/Drivers/STM32L0xx_HAL_Driver/Src/stm32l0xx_hal_pwr.c **** }
 304              		.loc 1 431 0
 305              		@ sp needed
 306 0008 7047     		bx	lr
 307              	.L25:
 308 000a C046     		.align	2
 309              	.L24:
 310 000c 00700040 		.word	1073770496
 311              		.cfi_endproc
 312              	.LFE40:
 314              		.section	.text.HAL_PWR_DisableWakeUpPin,"ax",%progbits
 315              		.align	1
 316              		.global	HAL_PWR_DisableWakeUpPin
 317              		.syntax unified
 318              		.code	16
 319              		.thumb_func
 320              		.fpu softvfp
 322              	HAL_PWR_DisableWakeUpPin:
 323              	.LFB41:
 432:/home/maxx/STM32Cube/Repository/STM32Cube_FW_L0_V1.11.2/Drivers/STM32L0xx_HAL_Driver/Src/stm32l0xx_hal_pwr.c **** 
 433:/home/maxx/STM32Cube/Repository/STM32Cube_FW_L0_V1.11.2/Drivers/STM32L0xx_HAL_Driver/Src/stm32l0xx_hal_pwr.c **** /**
ARM GAS  /tmp/ccd53DOt.s 			page 14


 434:/home/maxx/STM32Cube/Repository/STM32Cube_FW_L0_V1.11.2/Drivers/STM32L0xx_HAL_Driver/Src/stm32l0xx_hal_pwr.c ****   * @brief Disables the WakeUp PINx functionality.
 435:/home/maxx/STM32Cube/Repository/STM32Cube_FW_L0_V1.11.2/Drivers/STM32L0xx_HAL_Driver/Src/stm32l0xx_hal_pwr.c ****   * @param WakeUpPinx: Specifies the Power Wake-Up pin to disable.
 436:/home/maxx/STM32Cube/Repository/STM32Cube_FW_L0_V1.11.2/Drivers/STM32L0xx_HAL_Driver/Src/stm32l0xx_hal_pwr.c ****   *         This parameter can be one of the following values:
 437:/home/maxx/STM32Cube/Repository/STM32Cube_FW_L0_V1.11.2/Drivers/STM32L0xx_HAL_Driver/Src/stm32l0xx_hal_pwr.c ****   *           @arg PWR_WAKEUP_PIN1
 438:/home/maxx/STM32Cube/Repository/STM32Cube_FW_L0_V1.11.2/Drivers/STM32L0xx_HAL_Driver/Src/stm32l0xx_hal_pwr.c ****   *           @arg PWR_WAKEUP_PIN2  
 439:/home/maxx/STM32Cube/Repository/STM32Cube_FW_L0_V1.11.2/Drivers/STM32L0xx_HAL_Driver/Src/stm32l0xx_hal_pwr.c ****   *           @arg PWR_WAKEUP_PIN3  for stm32l07xxx and stm32l08xxx devices only.
 440:/home/maxx/STM32Cube/Repository/STM32Cube_FW_L0_V1.11.2/Drivers/STM32L0xx_HAL_Driver/Src/stm32l0xx_hal_pwr.c ****   * @retval None
 441:/home/maxx/STM32Cube/Repository/STM32Cube_FW_L0_V1.11.2/Drivers/STM32L0xx_HAL_Driver/Src/stm32l0xx_hal_pwr.c ****   */
 442:/home/maxx/STM32Cube/Repository/STM32Cube_FW_L0_V1.11.2/Drivers/STM32L0xx_HAL_Driver/Src/stm32l0xx_hal_pwr.c **** void HAL_PWR_DisableWakeUpPin(uint32_t WakeUpPinx)
 443:/home/maxx/STM32Cube/Repository/STM32Cube_FW_L0_V1.11.2/Drivers/STM32L0xx_HAL_Driver/Src/stm32l0xx_hal_pwr.c **** {
 324              		.loc 1 443 0
 325              		.cfi_startproc
 326              		@ args = 0, pretend = 0, frame = 0
 327              		@ frame_needed = 0, uses_anonymous_args = 0
 328              		@ link register save eliminated.
 329              	.LVL3:
 444:/home/maxx/STM32Cube/Repository/STM32Cube_FW_L0_V1.11.2/Drivers/STM32L0xx_HAL_Driver/Src/stm32l0xx_hal_pwr.c ****   /* Check the parameter */
 445:/home/maxx/STM32Cube/Repository/STM32Cube_FW_L0_V1.11.2/Drivers/STM32L0xx_HAL_Driver/Src/stm32l0xx_hal_pwr.c ****   assert_param(IS_PWR_WAKEUP_PIN(WakeUpPinx));
 446:/home/maxx/STM32Cube/Repository/STM32Cube_FW_L0_V1.11.2/Drivers/STM32L0xx_HAL_Driver/Src/stm32l0xx_hal_pwr.c ****   /* Disable the EWUPx pin */
 447:/home/maxx/STM32Cube/Repository/STM32Cube_FW_L0_V1.11.2/Drivers/STM32L0xx_HAL_Driver/Src/stm32l0xx_hal_pwr.c ****   CLEAR_BIT(PWR->CSR, WakeUpPinx);
 330              		.loc 1 447 0
 331 0000 024A     		ldr	r2, .L27
 332 0002 5368     		ldr	r3, [r2, #4]
 333 0004 8343     		bics	r3, r0
 334 0006 5360     		str	r3, [r2, #4]
 448:/home/maxx/STM32Cube/Repository/STM32Cube_FW_L0_V1.11.2/Drivers/STM32L0xx_HAL_Driver/Src/stm32l0xx_hal_pwr.c **** }
 335              		.loc 1 448 0
 336              		@ sp needed
 337 0008 7047     		bx	lr
 338              	.L28:
 339 000a C046     		.align	2
 340              	.L27:
 341 000c 00700040 		.word	1073770496
 342              		.cfi_endproc
 343              	.LFE41:
 345              		.section	.text.HAL_PWR_EnterSLEEPMode,"ax",%progbits
 346              		.align	1
 347              		.global	HAL_PWR_EnterSLEEPMode
 348              		.syntax unified
 349              		.code	16
 350              		.thumb_func
 351              		.fpu softvfp
 353              	HAL_PWR_EnterSLEEPMode:
 354              	.LFB42:
 449:/home/maxx/STM32Cube/Repository/STM32Cube_FW_L0_V1.11.2/Drivers/STM32L0xx_HAL_Driver/Src/stm32l0xx_hal_pwr.c **** 
 450:/home/maxx/STM32Cube/Repository/STM32Cube_FW_L0_V1.11.2/Drivers/STM32L0xx_HAL_Driver/Src/stm32l0xx_hal_pwr.c **** /**
 451:/home/maxx/STM32Cube/Repository/STM32Cube_FW_L0_V1.11.2/Drivers/STM32L0xx_HAL_Driver/Src/stm32l0xx_hal_pwr.c ****   * @brief Enters Sleep mode.
 452:/home/maxx/STM32Cube/Repository/STM32Cube_FW_L0_V1.11.2/Drivers/STM32L0xx_HAL_Driver/Src/stm32l0xx_hal_pwr.c ****   * @note In Sleep mode, all I/O pins keep the same state as in Run mode.
 453:/home/maxx/STM32Cube/Repository/STM32Cube_FW_L0_V1.11.2/Drivers/STM32L0xx_HAL_Driver/Src/stm32l0xx_hal_pwr.c ****   * @param Regulator: Specifies the regulator state in SLEEP mode.
 454:/home/maxx/STM32Cube/Repository/STM32Cube_FW_L0_V1.11.2/Drivers/STM32L0xx_HAL_Driver/Src/stm32l0xx_hal_pwr.c ****   *          This parameter can be one of the following values:
 455:/home/maxx/STM32Cube/Repository/STM32Cube_FW_L0_V1.11.2/Drivers/STM32L0xx_HAL_Driver/Src/stm32l0xx_hal_pwr.c ****   *            @arg PWR_MAINREGULATOR_ON: SLEEP mode with regulator ON
 456:/home/maxx/STM32Cube/Repository/STM32Cube_FW_L0_V1.11.2/Drivers/STM32L0xx_HAL_Driver/Src/stm32l0xx_hal_pwr.c ****   *            @arg PWR_LOWPOWERREGULATOR_ON: SLEEP mode with low power regulator ON
 457:/home/maxx/STM32Cube/Repository/STM32Cube_FW_L0_V1.11.2/Drivers/STM32L0xx_HAL_Driver/Src/stm32l0xx_hal_pwr.c ****   * @param SLEEPEntry: Specifies if SLEEP mode is entered with WFI or WFE instruction.
 458:/home/maxx/STM32Cube/Repository/STM32Cube_FW_L0_V1.11.2/Drivers/STM32L0xx_HAL_Driver/Src/stm32l0xx_hal_pwr.c ****   *           When WFI entry is used, tick interrupt have to be disabled if not desired as 
 459:/home/maxx/STM32Cube/Repository/STM32Cube_FW_L0_V1.11.2/Drivers/STM32L0xx_HAL_Driver/Src/stm32l0xx_hal_pwr.c ****   *           the interrupt wake up source.
 460:/home/maxx/STM32Cube/Repository/STM32Cube_FW_L0_V1.11.2/Drivers/STM32L0xx_HAL_Driver/Src/stm32l0xx_hal_pwr.c ****   *           This parameter can be one of the following values:
 461:/home/maxx/STM32Cube/Repository/STM32Cube_FW_L0_V1.11.2/Drivers/STM32L0xx_HAL_Driver/Src/stm32l0xx_hal_pwr.c ****   *            @arg PWR_SLEEPENTRY_WFI: enter SLEEP mode with WFI instruction
ARM GAS  /tmp/ccd53DOt.s 			page 15


 462:/home/maxx/STM32Cube/Repository/STM32Cube_FW_L0_V1.11.2/Drivers/STM32L0xx_HAL_Driver/Src/stm32l0xx_hal_pwr.c ****   *            @arg PWR_SLEEPENTRY_WFE: enter SLEEP mode with WFE instruction
 463:/home/maxx/STM32Cube/Repository/STM32Cube_FW_L0_V1.11.2/Drivers/STM32L0xx_HAL_Driver/Src/stm32l0xx_hal_pwr.c ****   * @retval None
 464:/home/maxx/STM32Cube/Repository/STM32Cube_FW_L0_V1.11.2/Drivers/STM32L0xx_HAL_Driver/Src/stm32l0xx_hal_pwr.c ****   */
 465:/home/maxx/STM32Cube/Repository/STM32Cube_FW_L0_V1.11.2/Drivers/STM32L0xx_HAL_Driver/Src/stm32l0xx_hal_pwr.c **** void HAL_PWR_EnterSLEEPMode(uint32_t Regulator, uint8_t SLEEPEntry)
 466:/home/maxx/STM32Cube/Repository/STM32Cube_FW_L0_V1.11.2/Drivers/STM32L0xx_HAL_Driver/Src/stm32l0xx_hal_pwr.c **** {
 355              		.loc 1 466 0
 356              		.cfi_startproc
 357              		@ args = 0, pretend = 0, frame = 0
 358              		@ frame_needed = 0, uses_anonymous_args = 0
 359              	.LVL4:
 360 0000 10B5     		push	{r4, lr}
 361              	.LCFI0:
 362              		.cfi_def_cfa_offset 8
 363              		.cfi_offset 4, -8
 364              		.cfi_offset 14, -4
 365              	.LVL5:
 467:/home/maxx/STM32Cube/Repository/STM32Cube_FW_L0_V1.11.2/Drivers/STM32L0xx_HAL_Driver/Src/stm32l0xx_hal_pwr.c ****    uint32_t tmpreg = 0U;
 468:/home/maxx/STM32Cube/Repository/STM32Cube_FW_L0_V1.11.2/Drivers/STM32L0xx_HAL_Driver/Src/stm32l0xx_hal_pwr.c ****   /* Check the parameters */
 469:/home/maxx/STM32Cube/Repository/STM32Cube_FW_L0_V1.11.2/Drivers/STM32L0xx_HAL_Driver/Src/stm32l0xx_hal_pwr.c ****   assert_param(IS_PWR_REGULATOR(Regulator));
 470:/home/maxx/STM32Cube/Repository/STM32Cube_FW_L0_V1.11.2/Drivers/STM32L0xx_HAL_Driver/Src/stm32l0xx_hal_pwr.c ****   assert_param(IS_PWR_SLEEP_ENTRY(SLEEPEntry));
 471:/home/maxx/STM32Cube/Repository/STM32Cube_FW_L0_V1.11.2/Drivers/STM32L0xx_HAL_Driver/Src/stm32l0xx_hal_pwr.c **** 
 472:/home/maxx/STM32Cube/Repository/STM32Cube_FW_L0_V1.11.2/Drivers/STM32L0xx_HAL_Driver/Src/stm32l0xx_hal_pwr.c ****   /* Select the regulator state in Sleep mode ---------------------------------*/
 473:/home/maxx/STM32Cube/Repository/STM32Cube_FW_L0_V1.11.2/Drivers/STM32L0xx_HAL_Driver/Src/stm32l0xx_hal_pwr.c ****   tmpreg = PWR->CR;
 366              		.loc 1 473 0
 367 0002 0A4A     		ldr	r2, .L33
 368 0004 1368     		ldr	r3, [r2]
 369              	.LVL6:
 474:/home/maxx/STM32Cube/Repository/STM32Cube_FW_L0_V1.11.2/Drivers/STM32L0xx_HAL_Driver/Src/stm32l0xx_hal_pwr.c **** 
 475:/home/maxx/STM32Cube/Repository/STM32Cube_FW_L0_V1.11.2/Drivers/STM32L0xx_HAL_Driver/Src/stm32l0xx_hal_pwr.c ****   /* Clear PDDS and LPDS bits */
 476:/home/maxx/STM32Cube/Repository/STM32Cube_FW_L0_V1.11.2/Drivers/STM32L0xx_HAL_Driver/Src/stm32l0xx_hal_pwr.c ****   CLEAR_BIT(tmpreg, (PWR_CR_PDDS | PWR_CR_LPSDSR));
 370              		.loc 1 476 0
 371 0006 0324     		movs	r4, #3
 372 0008 A343     		bics	r3, r4
 373              	.LVL7:
 477:/home/maxx/STM32Cube/Repository/STM32Cube_FW_L0_V1.11.2/Drivers/STM32L0xx_HAL_Driver/Src/stm32l0xx_hal_pwr.c **** 
 478:/home/maxx/STM32Cube/Repository/STM32Cube_FW_L0_V1.11.2/Drivers/STM32L0xx_HAL_Driver/Src/stm32l0xx_hal_pwr.c ****  /* Set LPSDSR bit according to PWR_Regulator value */
 479:/home/maxx/STM32Cube/Repository/STM32Cube_FW_L0_V1.11.2/Drivers/STM32L0xx_HAL_Driver/Src/stm32l0xx_hal_pwr.c ****   SET_BIT(tmpreg, Regulator);
 374              		.loc 1 479 0
 375 000a 1843     		orrs	r0, r3
 376              	.LVL8:
 480:/home/maxx/STM32Cube/Repository/STM32Cube_FW_L0_V1.11.2/Drivers/STM32L0xx_HAL_Driver/Src/stm32l0xx_hal_pwr.c **** 
 481:/home/maxx/STM32Cube/Repository/STM32Cube_FW_L0_V1.11.2/Drivers/STM32L0xx_HAL_Driver/Src/stm32l0xx_hal_pwr.c ****   /* Store the new value */
 482:/home/maxx/STM32Cube/Repository/STM32Cube_FW_L0_V1.11.2/Drivers/STM32L0xx_HAL_Driver/Src/stm32l0xx_hal_pwr.c ****   PWR->CR = tmpreg;
 377              		.loc 1 482 0
 378 000c 1060     		str	r0, [r2]
 483:/home/maxx/STM32Cube/Repository/STM32Cube_FW_L0_V1.11.2/Drivers/STM32L0xx_HAL_Driver/Src/stm32l0xx_hal_pwr.c ****   
 484:/home/maxx/STM32Cube/Repository/STM32Cube_FW_L0_V1.11.2/Drivers/STM32L0xx_HAL_Driver/Src/stm32l0xx_hal_pwr.c ****   /* Clear SLEEPDEEP bit of Cortex System Control Register */
 485:/home/maxx/STM32Cube/Repository/STM32Cube_FW_L0_V1.11.2/Drivers/STM32L0xx_HAL_Driver/Src/stm32l0xx_hal_pwr.c ****   CLEAR_BIT(SCB->SCR, SCB_SCR_SLEEPDEEP_Msk);
 379              		.loc 1 485 0
 380 000e 084A     		ldr	r2, .L33+4
 381 0010 1369     		ldr	r3, [r2, #16]
 382 0012 0420     		movs	r0, #4
 383              	.LVL9:
 384 0014 8343     		bics	r3, r0
 385 0016 1361     		str	r3, [r2, #16]
 386              	.LVL10:
 486:/home/maxx/STM32Cube/Repository/STM32Cube_FW_L0_V1.11.2/Drivers/STM32L0xx_HAL_Driver/Src/stm32l0xx_hal_pwr.c **** 
ARM GAS  /tmp/ccd53DOt.s 			page 16


 487:/home/maxx/STM32Cube/Repository/STM32Cube_FW_L0_V1.11.2/Drivers/STM32L0xx_HAL_Driver/Src/stm32l0xx_hal_pwr.c ****   /* Select SLEEP mode entry -------------------------------------------------*/
 488:/home/maxx/STM32Cube/Repository/STM32Cube_FW_L0_V1.11.2/Drivers/STM32L0xx_HAL_Driver/Src/stm32l0xx_hal_pwr.c ****   if(SLEEPEntry == PWR_SLEEPENTRY_WFI)
 387              		.loc 1 488 0
 388 0018 0129     		cmp	r1, #1
 389 001a 04D0     		beq	.L32
 390              	.LBB22:
 391              	.LBB23:
 392              		.file 2 "/home/maxx/STM32Cube/Repository/STM32Cube_FW_L0_V1.11.2/Drivers/CMSIS/Include/cmsis_gcc.h
   1:/home/maxx/STM32Cube/Repository/STM32Cube_FW_L0_V1.11.2/Drivers/CMSIS/Include/cmsis_gcc.h **** /**************************************************************************//**
   2:/home/maxx/STM32Cube/Repository/STM32Cube_FW_L0_V1.11.2/Drivers/CMSIS/Include/cmsis_gcc.h ****  * @file     cmsis_gcc.h
   3:/home/maxx/STM32Cube/Repository/STM32Cube_FW_L0_V1.11.2/Drivers/CMSIS/Include/cmsis_gcc.h ****  * @brief    CMSIS Cortex-M Core Function/Instruction Header File
   4:/home/maxx/STM32Cube/Repository/STM32Cube_FW_L0_V1.11.2/Drivers/CMSIS/Include/cmsis_gcc.h ****  * @version  V4.30
   5:/home/maxx/STM32Cube/Repository/STM32Cube_FW_L0_V1.11.2/Drivers/CMSIS/Include/cmsis_gcc.h ****  * @date     20. October 2015
   6:/home/maxx/STM32Cube/Repository/STM32Cube_FW_L0_V1.11.2/Drivers/CMSIS/Include/cmsis_gcc.h ****  ******************************************************************************/
   7:/home/maxx/STM32Cube/Repository/STM32Cube_FW_L0_V1.11.2/Drivers/CMSIS/Include/cmsis_gcc.h **** /* Copyright (c) 2009 - 2015 ARM LIMITED
   8:/home/maxx/STM32Cube/Repository/STM32Cube_FW_L0_V1.11.2/Drivers/CMSIS/Include/cmsis_gcc.h **** 
   9:/home/maxx/STM32Cube/Repository/STM32Cube_FW_L0_V1.11.2/Drivers/CMSIS/Include/cmsis_gcc.h ****    All rights reserved.
  10:/home/maxx/STM32Cube/Repository/STM32Cube_FW_L0_V1.11.2/Drivers/CMSIS/Include/cmsis_gcc.h ****    Redistribution and use in source and binary forms, with or without
  11:/home/maxx/STM32Cube/Repository/STM32Cube_FW_L0_V1.11.2/Drivers/CMSIS/Include/cmsis_gcc.h ****    modification, are permitted provided that the following conditions are met:
  12:/home/maxx/STM32Cube/Repository/STM32Cube_FW_L0_V1.11.2/Drivers/CMSIS/Include/cmsis_gcc.h ****    - Redistributions of source code must retain the above copyright
  13:/home/maxx/STM32Cube/Repository/STM32Cube_FW_L0_V1.11.2/Drivers/CMSIS/Include/cmsis_gcc.h ****      notice, this list of conditions and the following disclaimer.
  14:/home/maxx/STM32Cube/Repository/STM32Cube_FW_L0_V1.11.2/Drivers/CMSIS/Include/cmsis_gcc.h ****    - Redistributions in binary form must reproduce the above copyright
  15:/home/maxx/STM32Cube/Repository/STM32Cube_FW_L0_V1.11.2/Drivers/CMSIS/Include/cmsis_gcc.h ****      notice, this list of conditions and the following disclaimer in the
  16:/home/maxx/STM32Cube/Repository/STM32Cube_FW_L0_V1.11.2/Drivers/CMSIS/Include/cmsis_gcc.h ****      documentation and/or other materials provided with the distribution.
  17:/home/maxx/STM32Cube/Repository/STM32Cube_FW_L0_V1.11.2/Drivers/CMSIS/Include/cmsis_gcc.h ****    - Neither the name of ARM nor the names of its contributors may be used
  18:/home/maxx/STM32Cube/Repository/STM32Cube_FW_L0_V1.11.2/Drivers/CMSIS/Include/cmsis_gcc.h ****      to endorse or promote products derived from this software without
  19:/home/maxx/STM32Cube/Repository/STM32Cube_FW_L0_V1.11.2/Drivers/CMSIS/Include/cmsis_gcc.h ****      specific prior written permission.
  20:/home/maxx/STM32Cube/Repository/STM32Cube_FW_L0_V1.11.2/Drivers/CMSIS/Include/cmsis_gcc.h ****    *
  21:/home/maxx/STM32Cube/Repository/STM32Cube_FW_L0_V1.11.2/Drivers/CMSIS/Include/cmsis_gcc.h ****    THIS SOFTWARE IS PROVIDED BY THE COPYRIGHT HOLDERS AND CONTRIBUTORS "AS IS"
  22:/home/maxx/STM32Cube/Repository/STM32Cube_FW_L0_V1.11.2/Drivers/CMSIS/Include/cmsis_gcc.h ****    AND ANY EXPRESS OR IMPLIED WARRANTIES, INCLUDING, BUT NOT LIMITED TO, THE
  23:/home/maxx/STM32Cube/Repository/STM32Cube_FW_L0_V1.11.2/Drivers/CMSIS/Include/cmsis_gcc.h ****    IMPLIED WARRANTIES OF MERCHANTABILITY AND FITNESS FOR A PARTICULAR PURPOSE
  24:/home/maxx/STM32Cube/Repository/STM32Cube_FW_L0_V1.11.2/Drivers/CMSIS/Include/cmsis_gcc.h ****    ARE DISCLAIMED. IN NO EVENT SHALL COPYRIGHT HOLDERS AND CONTRIBUTORS BE
  25:/home/maxx/STM32Cube/Repository/STM32Cube_FW_L0_V1.11.2/Drivers/CMSIS/Include/cmsis_gcc.h ****    LIABLE FOR ANY DIRECT, INDIRECT, INCIDENTAL, SPECIAL, EXEMPLARY, OR
  26:/home/maxx/STM32Cube/Repository/STM32Cube_FW_L0_V1.11.2/Drivers/CMSIS/Include/cmsis_gcc.h ****    CONSEQUENTIAL DAMAGES (INCLUDING, BUT NOT LIMITED TO, PROCUREMENT OF
  27:/home/maxx/STM32Cube/Repository/STM32Cube_FW_L0_V1.11.2/Drivers/CMSIS/Include/cmsis_gcc.h ****    SUBSTITUTE GOODS OR SERVICES; LOSS OF USE, DATA, OR PROFITS; OR BUSINESS
  28:/home/maxx/STM32Cube/Repository/STM32Cube_FW_L0_V1.11.2/Drivers/CMSIS/Include/cmsis_gcc.h ****    INTERRUPTION) HOWEVER CAUSED AND ON ANY THEORY OF LIABILITY, WHETHER IN
  29:/home/maxx/STM32Cube/Repository/STM32Cube_FW_L0_V1.11.2/Drivers/CMSIS/Include/cmsis_gcc.h ****    CONTRACT, STRICT LIABILITY, OR TORT (INCLUDING NEGLIGENCE OR OTHERWISE)
  30:/home/maxx/STM32Cube/Repository/STM32Cube_FW_L0_V1.11.2/Drivers/CMSIS/Include/cmsis_gcc.h ****    ARISING IN ANY WAY OUT OF THE USE OF THIS SOFTWARE, EVEN IF ADVISED OF THE
  31:/home/maxx/STM32Cube/Repository/STM32Cube_FW_L0_V1.11.2/Drivers/CMSIS/Include/cmsis_gcc.h ****    POSSIBILITY OF SUCH DAMAGE.
  32:/home/maxx/STM32Cube/Repository/STM32Cube_FW_L0_V1.11.2/Drivers/CMSIS/Include/cmsis_gcc.h ****    ---------------------------------------------------------------------------*/
  33:/home/maxx/STM32Cube/Repository/STM32Cube_FW_L0_V1.11.2/Drivers/CMSIS/Include/cmsis_gcc.h **** 
  34:/home/maxx/STM32Cube/Repository/STM32Cube_FW_L0_V1.11.2/Drivers/CMSIS/Include/cmsis_gcc.h **** 
  35:/home/maxx/STM32Cube/Repository/STM32Cube_FW_L0_V1.11.2/Drivers/CMSIS/Include/cmsis_gcc.h **** #ifndef __CMSIS_GCC_H
  36:/home/maxx/STM32Cube/Repository/STM32Cube_FW_L0_V1.11.2/Drivers/CMSIS/Include/cmsis_gcc.h **** #define __CMSIS_GCC_H
  37:/home/maxx/STM32Cube/Repository/STM32Cube_FW_L0_V1.11.2/Drivers/CMSIS/Include/cmsis_gcc.h **** 
  38:/home/maxx/STM32Cube/Repository/STM32Cube_FW_L0_V1.11.2/Drivers/CMSIS/Include/cmsis_gcc.h **** /* ignore some GCC warnings */
  39:/home/maxx/STM32Cube/Repository/STM32Cube_FW_L0_V1.11.2/Drivers/CMSIS/Include/cmsis_gcc.h **** #if defined ( __GNUC__ )
  40:/home/maxx/STM32Cube/Repository/STM32Cube_FW_L0_V1.11.2/Drivers/CMSIS/Include/cmsis_gcc.h **** #pragma GCC diagnostic push
  41:/home/maxx/STM32Cube/Repository/STM32Cube_FW_L0_V1.11.2/Drivers/CMSIS/Include/cmsis_gcc.h **** #pragma GCC diagnostic ignored "-Wsign-conversion"
  42:/home/maxx/STM32Cube/Repository/STM32Cube_FW_L0_V1.11.2/Drivers/CMSIS/Include/cmsis_gcc.h **** #pragma GCC diagnostic ignored "-Wconversion"
  43:/home/maxx/STM32Cube/Repository/STM32Cube_FW_L0_V1.11.2/Drivers/CMSIS/Include/cmsis_gcc.h **** #pragma GCC diagnostic ignored "-Wunused-parameter"
  44:/home/maxx/STM32Cube/Repository/STM32Cube_FW_L0_V1.11.2/Drivers/CMSIS/Include/cmsis_gcc.h **** #endif
  45:/home/maxx/STM32Cube/Repository/STM32Cube_FW_L0_V1.11.2/Drivers/CMSIS/Include/cmsis_gcc.h **** 
  46:/home/maxx/STM32Cube/Repository/STM32Cube_FW_L0_V1.11.2/Drivers/CMSIS/Include/cmsis_gcc.h **** 
  47:/home/maxx/STM32Cube/Repository/STM32Cube_FW_L0_V1.11.2/Drivers/CMSIS/Include/cmsis_gcc.h **** /* ###########################  Core Function Access  ########################### */
  48:/home/maxx/STM32Cube/Repository/STM32Cube_FW_L0_V1.11.2/Drivers/CMSIS/Include/cmsis_gcc.h **** /** \ingroup  CMSIS_Core_FunctionInterface
  49:/home/maxx/STM32Cube/Repository/STM32Cube_FW_L0_V1.11.2/Drivers/CMSIS/Include/cmsis_gcc.h ****     \defgroup CMSIS_Core_RegAccFunctions CMSIS Core Register Access Functions
ARM GAS  /tmp/ccd53DOt.s 			page 17


  50:/home/maxx/STM32Cube/Repository/STM32Cube_FW_L0_V1.11.2/Drivers/CMSIS/Include/cmsis_gcc.h ****   @{
  51:/home/maxx/STM32Cube/Repository/STM32Cube_FW_L0_V1.11.2/Drivers/CMSIS/Include/cmsis_gcc.h ****  */
  52:/home/maxx/STM32Cube/Repository/STM32Cube_FW_L0_V1.11.2/Drivers/CMSIS/Include/cmsis_gcc.h **** 
  53:/home/maxx/STM32Cube/Repository/STM32Cube_FW_L0_V1.11.2/Drivers/CMSIS/Include/cmsis_gcc.h **** /**
  54:/home/maxx/STM32Cube/Repository/STM32Cube_FW_L0_V1.11.2/Drivers/CMSIS/Include/cmsis_gcc.h ****   \brief   Enable IRQ Interrupts
  55:/home/maxx/STM32Cube/Repository/STM32Cube_FW_L0_V1.11.2/Drivers/CMSIS/Include/cmsis_gcc.h ****   \details Enables IRQ interrupts by clearing the I-bit in the CPSR.
  56:/home/maxx/STM32Cube/Repository/STM32Cube_FW_L0_V1.11.2/Drivers/CMSIS/Include/cmsis_gcc.h ****            Can only be executed in Privileged modes.
  57:/home/maxx/STM32Cube/Repository/STM32Cube_FW_L0_V1.11.2/Drivers/CMSIS/Include/cmsis_gcc.h ****  */
  58:/home/maxx/STM32Cube/Repository/STM32Cube_FW_L0_V1.11.2/Drivers/CMSIS/Include/cmsis_gcc.h **** __attribute__( ( always_inline ) ) __STATIC_INLINE void __enable_irq(void)
  59:/home/maxx/STM32Cube/Repository/STM32Cube_FW_L0_V1.11.2/Drivers/CMSIS/Include/cmsis_gcc.h **** {
  60:/home/maxx/STM32Cube/Repository/STM32Cube_FW_L0_V1.11.2/Drivers/CMSIS/Include/cmsis_gcc.h ****   __ASM volatile ("cpsie i" : : : "memory");
  61:/home/maxx/STM32Cube/Repository/STM32Cube_FW_L0_V1.11.2/Drivers/CMSIS/Include/cmsis_gcc.h **** }
  62:/home/maxx/STM32Cube/Repository/STM32Cube_FW_L0_V1.11.2/Drivers/CMSIS/Include/cmsis_gcc.h **** 
  63:/home/maxx/STM32Cube/Repository/STM32Cube_FW_L0_V1.11.2/Drivers/CMSIS/Include/cmsis_gcc.h **** 
  64:/home/maxx/STM32Cube/Repository/STM32Cube_FW_L0_V1.11.2/Drivers/CMSIS/Include/cmsis_gcc.h **** /**
  65:/home/maxx/STM32Cube/Repository/STM32Cube_FW_L0_V1.11.2/Drivers/CMSIS/Include/cmsis_gcc.h ****   \brief   Disable IRQ Interrupts
  66:/home/maxx/STM32Cube/Repository/STM32Cube_FW_L0_V1.11.2/Drivers/CMSIS/Include/cmsis_gcc.h ****   \details Disables IRQ interrupts by setting the I-bit in the CPSR.
  67:/home/maxx/STM32Cube/Repository/STM32Cube_FW_L0_V1.11.2/Drivers/CMSIS/Include/cmsis_gcc.h ****   Can only be executed in Privileged modes.
  68:/home/maxx/STM32Cube/Repository/STM32Cube_FW_L0_V1.11.2/Drivers/CMSIS/Include/cmsis_gcc.h ****  */
  69:/home/maxx/STM32Cube/Repository/STM32Cube_FW_L0_V1.11.2/Drivers/CMSIS/Include/cmsis_gcc.h **** __attribute__( ( always_inline ) ) __STATIC_INLINE void __disable_irq(void)
  70:/home/maxx/STM32Cube/Repository/STM32Cube_FW_L0_V1.11.2/Drivers/CMSIS/Include/cmsis_gcc.h **** {
  71:/home/maxx/STM32Cube/Repository/STM32Cube_FW_L0_V1.11.2/Drivers/CMSIS/Include/cmsis_gcc.h ****   __ASM volatile ("cpsid i" : : : "memory");
  72:/home/maxx/STM32Cube/Repository/STM32Cube_FW_L0_V1.11.2/Drivers/CMSIS/Include/cmsis_gcc.h **** }
  73:/home/maxx/STM32Cube/Repository/STM32Cube_FW_L0_V1.11.2/Drivers/CMSIS/Include/cmsis_gcc.h **** 
  74:/home/maxx/STM32Cube/Repository/STM32Cube_FW_L0_V1.11.2/Drivers/CMSIS/Include/cmsis_gcc.h **** 
  75:/home/maxx/STM32Cube/Repository/STM32Cube_FW_L0_V1.11.2/Drivers/CMSIS/Include/cmsis_gcc.h **** /**
  76:/home/maxx/STM32Cube/Repository/STM32Cube_FW_L0_V1.11.2/Drivers/CMSIS/Include/cmsis_gcc.h ****   \brief   Get Control Register
  77:/home/maxx/STM32Cube/Repository/STM32Cube_FW_L0_V1.11.2/Drivers/CMSIS/Include/cmsis_gcc.h ****   \details Returns the content of the Control Register.
  78:/home/maxx/STM32Cube/Repository/STM32Cube_FW_L0_V1.11.2/Drivers/CMSIS/Include/cmsis_gcc.h ****   \return               Control Register value
  79:/home/maxx/STM32Cube/Repository/STM32Cube_FW_L0_V1.11.2/Drivers/CMSIS/Include/cmsis_gcc.h ****  */
  80:/home/maxx/STM32Cube/Repository/STM32Cube_FW_L0_V1.11.2/Drivers/CMSIS/Include/cmsis_gcc.h **** __attribute__( ( always_inline ) ) __STATIC_INLINE uint32_t __get_CONTROL(void)
  81:/home/maxx/STM32Cube/Repository/STM32Cube_FW_L0_V1.11.2/Drivers/CMSIS/Include/cmsis_gcc.h **** {
  82:/home/maxx/STM32Cube/Repository/STM32Cube_FW_L0_V1.11.2/Drivers/CMSIS/Include/cmsis_gcc.h ****   uint32_t result;
  83:/home/maxx/STM32Cube/Repository/STM32Cube_FW_L0_V1.11.2/Drivers/CMSIS/Include/cmsis_gcc.h **** 
  84:/home/maxx/STM32Cube/Repository/STM32Cube_FW_L0_V1.11.2/Drivers/CMSIS/Include/cmsis_gcc.h ****   __ASM volatile ("MRS %0, control" : "=r" (result) );
  85:/home/maxx/STM32Cube/Repository/STM32Cube_FW_L0_V1.11.2/Drivers/CMSIS/Include/cmsis_gcc.h ****   return(result);
  86:/home/maxx/STM32Cube/Repository/STM32Cube_FW_L0_V1.11.2/Drivers/CMSIS/Include/cmsis_gcc.h **** }
  87:/home/maxx/STM32Cube/Repository/STM32Cube_FW_L0_V1.11.2/Drivers/CMSIS/Include/cmsis_gcc.h **** 
  88:/home/maxx/STM32Cube/Repository/STM32Cube_FW_L0_V1.11.2/Drivers/CMSIS/Include/cmsis_gcc.h **** 
  89:/home/maxx/STM32Cube/Repository/STM32Cube_FW_L0_V1.11.2/Drivers/CMSIS/Include/cmsis_gcc.h **** /**
  90:/home/maxx/STM32Cube/Repository/STM32Cube_FW_L0_V1.11.2/Drivers/CMSIS/Include/cmsis_gcc.h ****   \brief   Set Control Register
  91:/home/maxx/STM32Cube/Repository/STM32Cube_FW_L0_V1.11.2/Drivers/CMSIS/Include/cmsis_gcc.h ****   \details Writes the given value to the Control Register.
  92:/home/maxx/STM32Cube/Repository/STM32Cube_FW_L0_V1.11.2/Drivers/CMSIS/Include/cmsis_gcc.h ****   \param [in]    control  Control Register value to set
  93:/home/maxx/STM32Cube/Repository/STM32Cube_FW_L0_V1.11.2/Drivers/CMSIS/Include/cmsis_gcc.h ****  */
  94:/home/maxx/STM32Cube/Repository/STM32Cube_FW_L0_V1.11.2/Drivers/CMSIS/Include/cmsis_gcc.h **** __attribute__( ( always_inline ) ) __STATIC_INLINE void __set_CONTROL(uint32_t control)
  95:/home/maxx/STM32Cube/Repository/STM32Cube_FW_L0_V1.11.2/Drivers/CMSIS/Include/cmsis_gcc.h **** {
  96:/home/maxx/STM32Cube/Repository/STM32Cube_FW_L0_V1.11.2/Drivers/CMSIS/Include/cmsis_gcc.h ****   __ASM volatile ("MSR control, %0" : : "r" (control) : "memory");
  97:/home/maxx/STM32Cube/Repository/STM32Cube_FW_L0_V1.11.2/Drivers/CMSIS/Include/cmsis_gcc.h **** }
  98:/home/maxx/STM32Cube/Repository/STM32Cube_FW_L0_V1.11.2/Drivers/CMSIS/Include/cmsis_gcc.h **** 
  99:/home/maxx/STM32Cube/Repository/STM32Cube_FW_L0_V1.11.2/Drivers/CMSIS/Include/cmsis_gcc.h **** 
 100:/home/maxx/STM32Cube/Repository/STM32Cube_FW_L0_V1.11.2/Drivers/CMSIS/Include/cmsis_gcc.h **** /**
 101:/home/maxx/STM32Cube/Repository/STM32Cube_FW_L0_V1.11.2/Drivers/CMSIS/Include/cmsis_gcc.h ****   \brief   Get IPSR Register
 102:/home/maxx/STM32Cube/Repository/STM32Cube_FW_L0_V1.11.2/Drivers/CMSIS/Include/cmsis_gcc.h ****   \details Returns the content of the IPSR Register.
 103:/home/maxx/STM32Cube/Repository/STM32Cube_FW_L0_V1.11.2/Drivers/CMSIS/Include/cmsis_gcc.h ****   \return               IPSR Register value
 104:/home/maxx/STM32Cube/Repository/STM32Cube_FW_L0_V1.11.2/Drivers/CMSIS/Include/cmsis_gcc.h ****  */
 105:/home/maxx/STM32Cube/Repository/STM32Cube_FW_L0_V1.11.2/Drivers/CMSIS/Include/cmsis_gcc.h **** __attribute__( ( always_inline ) ) __STATIC_INLINE uint32_t __get_IPSR(void)
 106:/home/maxx/STM32Cube/Repository/STM32Cube_FW_L0_V1.11.2/Drivers/CMSIS/Include/cmsis_gcc.h **** {
ARM GAS  /tmp/ccd53DOt.s 			page 18


 107:/home/maxx/STM32Cube/Repository/STM32Cube_FW_L0_V1.11.2/Drivers/CMSIS/Include/cmsis_gcc.h ****   uint32_t result;
 108:/home/maxx/STM32Cube/Repository/STM32Cube_FW_L0_V1.11.2/Drivers/CMSIS/Include/cmsis_gcc.h **** 
 109:/home/maxx/STM32Cube/Repository/STM32Cube_FW_L0_V1.11.2/Drivers/CMSIS/Include/cmsis_gcc.h ****   __ASM volatile ("MRS %0, ipsr" : "=r" (result) );
 110:/home/maxx/STM32Cube/Repository/STM32Cube_FW_L0_V1.11.2/Drivers/CMSIS/Include/cmsis_gcc.h ****   return(result);
 111:/home/maxx/STM32Cube/Repository/STM32Cube_FW_L0_V1.11.2/Drivers/CMSIS/Include/cmsis_gcc.h **** }
 112:/home/maxx/STM32Cube/Repository/STM32Cube_FW_L0_V1.11.2/Drivers/CMSIS/Include/cmsis_gcc.h **** 
 113:/home/maxx/STM32Cube/Repository/STM32Cube_FW_L0_V1.11.2/Drivers/CMSIS/Include/cmsis_gcc.h **** 
 114:/home/maxx/STM32Cube/Repository/STM32Cube_FW_L0_V1.11.2/Drivers/CMSIS/Include/cmsis_gcc.h **** /**
 115:/home/maxx/STM32Cube/Repository/STM32Cube_FW_L0_V1.11.2/Drivers/CMSIS/Include/cmsis_gcc.h ****   \brief   Get APSR Register
 116:/home/maxx/STM32Cube/Repository/STM32Cube_FW_L0_V1.11.2/Drivers/CMSIS/Include/cmsis_gcc.h ****   \details Returns the content of the APSR Register.
 117:/home/maxx/STM32Cube/Repository/STM32Cube_FW_L0_V1.11.2/Drivers/CMSIS/Include/cmsis_gcc.h ****   \return               APSR Register value
 118:/home/maxx/STM32Cube/Repository/STM32Cube_FW_L0_V1.11.2/Drivers/CMSIS/Include/cmsis_gcc.h ****  */
 119:/home/maxx/STM32Cube/Repository/STM32Cube_FW_L0_V1.11.2/Drivers/CMSIS/Include/cmsis_gcc.h **** __attribute__( ( always_inline ) ) __STATIC_INLINE uint32_t __get_APSR(void)
 120:/home/maxx/STM32Cube/Repository/STM32Cube_FW_L0_V1.11.2/Drivers/CMSIS/Include/cmsis_gcc.h **** {
 121:/home/maxx/STM32Cube/Repository/STM32Cube_FW_L0_V1.11.2/Drivers/CMSIS/Include/cmsis_gcc.h ****   uint32_t result;
 122:/home/maxx/STM32Cube/Repository/STM32Cube_FW_L0_V1.11.2/Drivers/CMSIS/Include/cmsis_gcc.h **** 
 123:/home/maxx/STM32Cube/Repository/STM32Cube_FW_L0_V1.11.2/Drivers/CMSIS/Include/cmsis_gcc.h ****   __ASM volatile ("MRS %0, apsr" : "=r" (result) );
 124:/home/maxx/STM32Cube/Repository/STM32Cube_FW_L0_V1.11.2/Drivers/CMSIS/Include/cmsis_gcc.h ****   return(result);
 125:/home/maxx/STM32Cube/Repository/STM32Cube_FW_L0_V1.11.2/Drivers/CMSIS/Include/cmsis_gcc.h **** }
 126:/home/maxx/STM32Cube/Repository/STM32Cube_FW_L0_V1.11.2/Drivers/CMSIS/Include/cmsis_gcc.h **** 
 127:/home/maxx/STM32Cube/Repository/STM32Cube_FW_L0_V1.11.2/Drivers/CMSIS/Include/cmsis_gcc.h **** 
 128:/home/maxx/STM32Cube/Repository/STM32Cube_FW_L0_V1.11.2/Drivers/CMSIS/Include/cmsis_gcc.h **** /**
 129:/home/maxx/STM32Cube/Repository/STM32Cube_FW_L0_V1.11.2/Drivers/CMSIS/Include/cmsis_gcc.h ****   \brief   Get xPSR Register
 130:/home/maxx/STM32Cube/Repository/STM32Cube_FW_L0_V1.11.2/Drivers/CMSIS/Include/cmsis_gcc.h ****   \details Returns the content of the xPSR Register.
 131:/home/maxx/STM32Cube/Repository/STM32Cube_FW_L0_V1.11.2/Drivers/CMSIS/Include/cmsis_gcc.h **** 
 132:/home/maxx/STM32Cube/Repository/STM32Cube_FW_L0_V1.11.2/Drivers/CMSIS/Include/cmsis_gcc.h ****     \return               xPSR Register value
 133:/home/maxx/STM32Cube/Repository/STM32Cube_FW_L0_V1.11.2/Drivers/CMSIS/Include/cmsis_gcc.h ****  */
 134:/home/maxx/STM32Cube/Repository/STM32Cube_FW_L0_V1.11.2/Drivers/CMSIS/Include/cmsis_gcc.h **** __attribute__( ( always_inline ) ) __STATIC_INLINE uint32_t __get_xPSR(void)
 135:/home/maxx/STM32Cube/Repository/STM32Cube_FW_L0_V1.11.2/Drivers/CMSIS/Include/cmsis_gcc.h **** {
 136:/home/maxx/STM32Cube/Repository/STM32Cube_FW_L0_V1.11.2/Drivers/CMSIS/Include/cmsis_gcc.h ****   uint32_t result;
 137:/home/maxx/STM32Cube/Repository/STM32Cube_FW_L0_V1.11.2/Drivers/CMSIS/Include/cmsis_gcc.h **** 
 138:/home/maxx/STM32Cube/Repository/STM32Cube_FW_L0_V1.11.2/Drivers/CMSIS/Include/cmsis_gcc.h ****   __ASM volatile ("MRS %0, xpsr" : "=r" (result) );
 139:/home/maxx/STM32Cube/Repository/STM32Cube_FW_L0_V1.11.2/Drivers/CMSIS/Include/cmsis_gcc.h ****   return(result);
 140:/home/maxx/STM32Cube/Repository/STM32Cube_FW_L0_V1.11.2/Drivers/CMSIS/Include/cmsis_gcc.h **** }
 141:/home/maxx/STM32Cube/Repository/STM32Cube_FW_L0_V1.11.2/Drivers/CMSIS/Include/cmsis_gcc.h **** 
 142:/home/maxx/STM32Cube/Repository/STM32Cube_FW_L0_V1.11.2/Drivers/CMSIS/Include/cmsis_gcc.h **** 
 143:/home/maxx/STM32Cube/Repository/STM32Cube_FW_L0_V1.11.2/Drivers/CMSIS/Include/cmsis_gcc.h **** /**
 144:/home/maxx/STM32Cube/Repository/STM32Cube_FW_L0_V1.11.2/Drivers/CMSIS/Include/cmsis_gcc.h ****   \brief   Get Process Stack Pointer
 145:/home/maxx/STM32Cube/Repository/STM32Cube_FW_L0_V1.11.2/Drivers/CMSIS/Include/cmsis_gcc.h ****   \details Returns the current value of the Process Stack Pointer (PSP).
 146:/home/maxx/STM32Cube/Repository/STM32Cube_FW_L0_V1.11.2/Drivers/CMSIS/Include/cmsis_gcc.h ****   \return               PSP Register value
 147:/home/maxx/STM32Cube/Repository/STM32Cube_FW_L0_V1.11.2/Drivers/CMSIS/Include/cmsis_gcc.h ****  */
 148:/home/maxx/STM32Cube/Repository/STM32Cube_FW_L0_V1.11.2/Drivers/CMSIS/Include/cmsis_gcc.h **** __attribute__( ( always_inline ) ) __STATIC_INLINE uint32_t __get_PSP(void)
 149:/home/maxx/STM32Cube/Repository/STM32Cube_FW_L0_V1.11.2/Drivers/CMSIS/Include/cmsis_gcc.h **** {
 150:/home/maxx/STM32Cube/Repository/STM32Cube_FW_L0_V1.11.2/Drivers/CMSIS/Include/cmsis_gcc.h ****   register uint32_t result;
 151:/home/maxx/STM32Cube/Repository/STM32Cube_FW_L0_V1.11.2/Drivers/CMSIS/Include/cmsis_gcc.h **** 
 152:/home/maxx/STM32Cube/Repository/STM32Cube_FW_L0_V1.11.2/Drivers/CMSIS/Include/cmsis_gcc.h ****   __ASM volatile ("MRS %0, psp\n"  : "=r" (result) );
 153:/home/maxx/STM32Cube/Repository/STM32Cube_FW_L0_V1.11.2/Drivers/CMSIS/Include/cmsis_gcc.h ****   return(result);
 154:/home/maxx/STM32Cube/Repository/STM32Cube_FW_L0_V1.11.2/Drivers/CMSIS/Include/cmsis_gcc.h **** }
 155:/home/maxx/STM32Cube/Repository/STM32Cube_FW_L0_V1.11.2/Drivers/CMSIS/Include/cmsis_gcc.h **** 
 156:/home/maxx/STM32Cube/Repository/STM32Cube_FW_L0_V1.11.2/Drivers/CMSIS/Include/cmsis_gcc.h **** 
 157:/home/maxx/STM32Cube/Repository/STM32Cube_FW_L0_V1.11.2/Drivers/CMSIS/Include/cmsis_gcc.h **** /**
 158:/home/maxx/STM32Cube/Repository/STM32Cube_FW_L0_V1.11.2/Drivers/CMSIS/Include/cmsis_gcc.h ****   \brief   Set Process Stack Pointer
 159:/home/maxx/STM32Cube/Repository/STM32Cube_FW_L0_V1.11.2/Drivers/CMSIS/Include/cmsis_gcc.h ****   \details Assigns the given value to the Process Stack Pointer (PSP).
 160:/home/maxx/STM32Cube/Repository/STM32Cube_FW_L0_V1.11.2/Drivers/CMSIS/Include/cmsis_gcc.h ****   \param [in]    topOfProcStack  Process Stack Pointer value to set
 161:/home/maxx/STM32Cube/Repository/STM32Cube_FW_L0_V1.11.2/Drivers/CMSIS/Include/cmsis_gcc.h ****  */
 162:/home/maxx/STM32Cube/Repository/STM32Cube_FW_L0_V1.11.2/Drivers/CMSIS/Include/cmsis_gcc.h **** __attribute__( ( always_inline ) ) __STATIC_INLINE void __set_PSP(uint32_t topOfProcStack)
 163:/home/maxx/STM32Cube/Repository/STM32Cube_FW_L0_V1.11.2/Drivers/CMSIS/Include/cmsis_gcc.h **** {
ARM GAS  /tmp/ccd53DOt.s 			page 19


 164:/home/maxx/STM32Cube/Repository/STM32Cube_FW_L0_V1.11.2/Drivers/CMSIS/Include/cmsis_gcc.h ****   __ASM volatile ("MSR psp, %0\n" : : "r" (topOfProcStack) : "sp");
 165:/home/maxx/STM32Cube/Repository/STM32Cube_FW_L0_V1.11.2/Drivers/CMSIS/Include/cmsis_gcc.h **** }
 166:/home/maxx/STM32Cube/Repository/STM32Cube_FW_L0_V1.11.2/Drivers/CMSIS/Include/cmsis_gcc.h **** 
 167:/home/maxx/STM32Cube/Repository/STM32Cube_FW_L0_V1.11.2/Drivers/CMSIS/Include/cmsis_gcc.h **** 
 168:/home/maxx/STM32Cube/Repository/STM32Cube_FW_L0_V1.11.2/Drivers/CMSIS/Include/cmsis_gcc.h **** /**
 169:/home/maxx/STM32Cube/Repository/STM32Cube_FW_L0_V1.11.2/Drivers/CMSIS/Include/cmsis_gcc.h ****   \brief   Get Main Stack Pointer
 170:/home/maxx/STM32Cube/Repository/STM32Cube_FW_L0_V1.11.2/Drivers/CMSIS/Include/cmsis_gcc.h ****   \details Returns the current value of the Main Stack Pointer (MSP).
 171:/home/maxx/STM32Cube/Repository/STM32Cube_FW_L0_V1.11.2/Drivers/CMSIS/Include/cmsis_gcc.h ****   \return               MSP Register value
 172:/home/maxx/STM32Cube/Repository/STM32Cube_FW_L0_V1.11.2/Drivers/CMSIS/Include/cmsis_gcc.h ****  */
 173:/home/maxx/STM32Cube/Repository/STM32Cube_FW_L0_V1.11.2/Drivers/CMSIS/Include/cmsis_gcc.h **** __attribute__( ( always_inline ) ) __STATIC_INLINE uint32_t __get_MSP(void)
 174:/home/maxx/STM32Cube/Repository/STM32Cube_FW_L0_V1.11.2/Drivers/CMSIS/Include/cmsis_gcc.h **** {
 175:/home/maxx/STM32Cube/Repository/STM32Cube_FW_L0_V1.11.2/Drivers/CMSIS/Include/cmsis_gcc.h ****   register uint32_t result;
 176:/home/maxx/STM32Cube/Repository/STM32Cube_FW_L0_V1.11.2/Drivers/CMSIS/Include/cmsis_gcc.h **** 
 177:/home/maxx/STM32Cube/Repository/STM32Cube_FW_L0_V1.11.2/Drivers/CMSIS/Include/cmsis_gcc.h ****   __ASM volatile ("MRS %0, msp\n" : "=r" (result) );
 178:/home/maxx/STM32Cube/Repository/STM32Cube_FW_L0_V1.11.2/Drivers/CMSIS/Include/cmsis_gcc.h ****   return(result);
 179:/home/maxx/STM32Cube/Repository/STM32Cube_FW_L0_V1.11.2/Drivers/CMSIS/Include/cmsis_gcc.h **** }
 180:/home/maxx/STM32Cube/Repository/STM32Cube_FW_L0_V1.11.2/Drivers/CMSIS/Include/cmsis_gcc.h **** 
 181:/home/maxx/STM32Cube/Repository/STM32Cube_FW_L0_V1.11.2/Drivers/CMSIS/Include/cmsis_gcc.h **** 
 182:/home/maxx/STM32Cube/Repository/STM32Cube_FW_L0_V1.11.2/Drivers/CMSIS/Include/cmsis_gcc.h **** /**
 183:/home/maxx/STM32Cube/Repository/STM32Cube_FW_L0_V1.11.2/Drivers/CMSIS/Include/cmsis_gcc.h ****   \brief   Set Main Stack Pointer
 184:/home/maxx/STM32Cube/Repository/STM32Cube_FW_L0_V1.11.2/Drivers/CMSIS/Include/cmsis_gcc.h ****   \details Assigns the given value to the Main Stack Pointer (MSP).
 185:/home/maxx/STM32Cube/Repository/STM32Cube_FW_L0_V1.11.2/Drivers/CMSIS/Include/cmsis_gcc.h **** 
 186:/home/maxx/STM32Cube/Repository/STM32Cube_FW_L0_V1.11.2/Drivers/CMSIS/Include/cmsis_gcc.h ****     \param [in]    topOfMainStack  Main Stack Pointer value to set
 187:/home/maxx/STM32Cube/Repository/STM32Cube_FW_L0_V1.11.2/Drivers/CMSIS/Include/cmsis_gcc.h ****  */
 188:/home/maxx/STM32Cube/Repository/STM32Cube_FW_L0_V1.11.2/Drivers/CMSIS/Include/cmsis_gcc.h **** __attribute__( ( always_inline ) ) __STATIC_INLINE void __set_MSP(uint32_t topOfMainStack)
 189:/home/maxx/STM32Cube/Repository/STM32Cube_FW_L0_V1.11.2/Drivers/CMSIS/Include/cmsis_gcc.h **** {
 190:/home/maxx/STM32Cube/Repository/STM32Cube_FW_L0_V1.11.2/Drivers/CMSIS/Include/cmsis_gcc.h ****   __ASM volatile ("MSR msp, %0\n" : : "r" (topOfMainStack) : "sp");
 191:/home/maxx/STM32Cube/Repository/STM32Cube_FW_L0_V1.11.2/Drivers/CMSIS/Include/cmsis_gcc.h **** }
 192:/home/maxx/STM32Cube/Repository/STM32Cube_FW_L0_V1.11.2/Drivers/CMSIS/Include/cmsis_gcc.h **** 
 193:/home/maxx/STM32Cube/Repository/STM32Cube_FW_L0_V1.11.2/Drivers/CMSIS/Include/cmsis_gcc.h **** 
 194:/home/maxx/STM32Cube/Repository/STM32Cube_FW_L0_V1.11.2/Drivers/CMSIS/Include/cmsis_gcc.h **** /**
 195:/home/maxx/STM32Cube/Repository/STM32Cube_FW_L0_V1.11.2/Drivers/CMSIS/Include/cmsis_gcc.h ****   \brief   Get Priority Mask
 196:/home/maxx/STM32Cube/Repository/STM32Cube_FW_L0_V1.11.2/Drivers/CMSIS/Include/cmsis_gcc.h ****   \details Returns the current state of the priority mask bit from the Priority Mask Register.
 197:/home/maxx/STM32Cube/Repository/STM32Cube_FW_L0_V1.11.2/Drivers/CMSIS/Include/cmsis_gcc.h ****   \return               Priority Mask value
 198:/home/maxx/STM32Cube/Repository/STM32Cube_FW_L0_V1.11.2/Drivers/CMSIS/Include/cmsis_gcc.h ****  */
 199:/home/maxx/STM32Cube/Repository/STM32Cube_FW_L0_V1.11.2/Drivers/CMSIS/Include/cmsis_gcc.h **** __attribute__( ( always_inline ) ) __STATIC_INLINE uint32_t __get_PRIMASK(void)
 200:/home/maxx/STM32Cube/Repository/STM32Cube_FW_L0_V1.11.2/Drivers/CMSIS/Include/cmsis_gcc.h **** {
 201:/home/maxx/STM32Cube/Repository/STM32Cube_FW_L0_V1.11.2/Drivers/CMSIS/Include/cmsis_gcc.h ****   uint32_t result;
 202:/home/maxx/STM32Cube/Repository/STM32Cube_FW_L0_V1.11.2/Drivers/CMSIS/Include/cmsis_gcc.h **** 
 203:/home/maxx/STM32Cube/Repository/STM32Cube_FW_L0_V1.11.2/Drivers/CMSIS/Include/cmsis_gcc.h ****   __ASM volatile ("MRS %0, primask" : "=r" (result) );
 204:/home/maxx/STM32Cube/Repository/STM32Cube_FW_L0_V1.11.2/Drivers/CMSIS/Include/cmsis_gcc.h ****   return(result);
 205:/home/maxx/STM32Cube/Repository/STM32Cube_FW_L0_V1.11.2/Drivers/CMSIS/Include/cmsis_gcc.h **** }
 206:/home/maxx/STM32Cube/Repository/STM32Cube_FW_L0_V1.11.2/Drivers/CMSIS/Include/cmsis_gcc.h **** 
 207:/home/maxx/STM32Cube/Repository/STM32Cube_FW_L0_V1.11.2/Drivers/CMSIS/Include/cmsis_gcc.h **** 
 208:/home/maxx/STM32Cube/Repository/STM32Cube_FW_L0_V1.11.2/Drivers/CMSIS/Include/cmsis_gcc.h **** /**
 209:/home/maxx/STM32Cube/Repository/STM32Cube_FW_L0_V1.11.2/Drivers/CMSIS/Include/cmsis_gcc.h ****   \brief   Set Priority Mask
 210:/home/maxx/STM32Cube/Repository/STM32Cube_FW_L0_V1.11.2/Drivers/CMSIS/Include/cmsis_gcc.h ****   \details Assigns the given value to the Priority Mask Register.
 211:/home/maxx/STM32Cube/Repository/STM32Cube_FW_L0_V1.11.2/Drivers/CMSIS/Include/cmsis_gcc.h ****   \param [in]    priMask  Priority Mask
 212:/home/maxx/STM32Cube/Repository/STM32Cube_FW_L0_V1.11.2/Drivers/CMSIS/Include/cmsis_gcc.h ****  */
 213:/home/maxx/STM32Cube/Repository/STM32Cube_FW_L0_V1.11.2/Drivers/CMSIS/Include/cmsis_gcc.h **** __attribute__( ( always_inline ) ) __STATIC_INLINE void __set_PRIMASK(uint32_t priMask)
 214:/home/maxx/STM32Cube/Repository/STM32Cube_FW_L0_V1.11.2/Drivers/CMSIS/Include/cmsis_gcc.h **** {
 215:/home/maxx/STM32Cube/Repository/STM32Cube_FW_L0_V1.11.2/Drivers/CMSIS/Include/cmsis_gcc.h ****   __ASM volatile ("MSR primask, %0" : : "r" (priMask) : "memory");
 216:/home/maxx/STM32Cube/Repository/STM32Cube_FW_L0_V1.11.2/Drivers/CMSIS/Include/cmsis_gcc.h **** }
 217:/home/maxx/STM32Cube/Repository/STM32Cube_FW_L0_V1.11.2/Drivers/CMSIS/Include/cmsis_gcc.h **** 
 218:/home/maxx/STM32Cube/Repository/STM32Cube_FW_L0_V1.11.2/Drivers/CMSIS/Include/cmsis_gcc.h **** 
 219:/home/maxx/STM32Cube/Repository/STM32Cube_FW_L0_V1.11.2/Drivers/CMSIS/Include/cmsis_gcc.h **** #if       (__CORTEX_M >= 0x03U)
 220:/home/maxx/STM32Cube/Repository/STM32Cube_FW_L0_V1.11.2/Drivers/CMSIS/Include/cmsis_gcc.h **** 
ARM GAS  /tmp/ccd53DOt.s 			page 20


 221:/home/maxx/STM32Cube/Repository/STM32Cube_FW_L0_V1.11.2/Drivers/CMSIS/Include/cmsis_gcc.h **** /**
 222:/home/maxx/STM32Cube/Repository/STM32Cube_FW_L0_V1.11.2/Drivers/CMSIS/Include/cmsis_gcc.h ****   \brief   Enable FIQ
 223:/home/maxx/STM32Cube/Repository/STM32Cube_FW_L0_V1.11.2/Drivers/CMSIS/Include/cmsis_gcc.h ****   \details Enables FIQ interrupts by clearing the F-bit in the CPSR.
 224:/home/maxx/STM32Cube/Repository/STM32Cube_FW_L0_V1.11.2/Drivers/CMSIS/Include/cmsis_gcc.h ****            Can only be executed in Privileged modes.
 225:/home/maxx/STM32Cube/Repository/STM32Cube_FW_L0_V1.11.2/Drivers/CMSIS/Include/cmsis_gcc.h ****  */
 226:/home/maxx/STM32Cube/Repository/STM32Cube_FW_L0_V1.11.2/Drivers/CMSIS/Include/cmsis_gcc.h **** __attribute__( ( always_inline ) ) __STATIC_INLINE void __enable_fault_irq(void)
 227:/home/maxx/STM32Cube/Repository/STM32Cube_FW_L0_V1.11.2/Drivers/CMSIS/Include/cmsis_gcc.h **** {
 228:/home/maxx/STM32Cube/Repository/STM32Cube_FW_L0_V1.11.2/Drivers/CMSIS/Include/cmsis_gcc.h ****   __ASM volatile ("cpsie f" : : : "memory");
 229:/home/maxx/STM32Cube/Repository/STM32Cube_FW_L0_V1.11.2/Drivers/CMSIS/Include/cmsis_gcc.h **** }
 230:/home/maxx/STM32Cube/Repository/STM32Cube_FW_L0_V1.11.2/Drivers/CMSIS/Include/cmsis_gcc.h **** 
 231:/home/maxx/STM32Cube/Repository/STM32Cube_FW_L0_V1.11.2/Drivers/CMSIS/Include/cmsis_gcc.h **** 
 232:/home/maxx/STM32Cube/Repository/STM32Cube_FW_L0_V1.11.2/Drivers/CMSIS/Include/cmsis_gcc.h **** /**
 233:/home/maxx/STM32Cube/Repository/STM32Cube_FW_L0_V1.11.2/Drivers/CMSIS/Include/cmsis_gcc.h ****   \brief   Disable FIQ
 234:/home/maxx/STM32Cube/Repository/STM32Cube_FW_L0_V1.11.2/Drivers/CMSIS/Include/cmsis_gcc.h ****   \details Disables FIQ interrupts by setting the F-bit in the CPSR.
 235:/home/maxx/STM32Cube/Repository/STM32Cube_FW_L0_V1.11.2/Drivers/CMSIS/Include/cmsis_gcc.h ****            Can only be executed in Privileged modes.
 236:/home/maxx/STM32Cube/Repository/STM32Cube_FW_L0_V1.11.2/Drivers/CMSIS/Include/cmsis_gcc.h ****  */
 237:/home/maxx/STM32Cube/Repository/STM32Cube_FW_L0_V1.11.2/Drivers/CMSIS/Include/cmsis_gcc.h **** __attribute__( ( always_inline ) ) __STATIC_INLINE void __disable_fault_irq(void)
 238:/home/maxx/STM32Cube/Repository/STM32Cube_FW_L0_V1.11.2/Drivers/CMSIS/Include/cmsis_gcc.h **** {
 239:/home/maxx/STM32Cube/Repository/STM32Cube_FW_L0_V1.11.2/Drivers/CMSIS/Include/cmsis_gcc.h ****   __ASM volatile ("cpsid f" : : : "memory");
 240:/home/maxx/STM32Cube/Repository/STM32Cube_FW_L0_V1.11.2/Drivers/CMSIS/Include/cmsis_gcc.h **** }
 241:/home/maxx/STM32Cube/Repository/STM32Cube_FW_L0_V1.11.2/Drivers/CMSIS/Include/cmsis_gcc.h **** 
 242:/home/maxx/STM32Cube/Repository/STM32Cube_FW_L0_V1.11.2/Drivers/CMSIS/Include/cmsis_gcc.h **** 
 243:/home/maxx/STM32Cube/Repository/STM32Cube_FW_L0_V1.11.2/Drivers/CMSIS/Include/cmsis_gcc.h **** /**
 244:/home/maxx/STM32Cube/Repository/STM32Cube_FW_L0_V1.11.2/Drivers/CMSIS/Include/cmsis_gcc.h ****   \brief   Get Base Priority
 245:/home/maxx/STM32Cube/Repository/STM32Cube_FW_L0_V1.11.2/Drivers/CMSIS/Include/cmsis_gcc.h ****   \details Returns the current value of the Base Priority register.
 246:/home/maxx/STM32Cube/Repository/STM32Cube_FW_L0_V1.11.2/Drivers/CMSIS/Include/cmsis_gcc.h ****   \return               Base Priority register value
 247:/home/maxx/STM32Cube/Repository/STM32Cube_FW_L0_V1.11.2/Drivers/CMSIS/Include/cmsis_gcc.h ****  */
 248:/home/maxx/STM32Cube/Repository/STM32Cube_FW_L0_V1.11.2/Drivers/CMSIS/Include/cmsis_gcc.h **** __attribute__( ( always_inline ) ) __STATIC_INLINE uint32_t __get_BASEPRI(void)
 249:/home/maxx/STM32Cube/Repository/STM32Cube_FW_L0_V1.11.2/Drivers/CMSIS/Include/cmsis_gcc.h **** {
 250:/home/maxx/STM32Cube/Repository/STM32Cube_FW_L0_V1.11.2/Drivers/CMSIS/Include/cmsis_gcc.h ****   uint32_t result;
 251:/home/maxx/STM32Cube/Repository/STM32Cube_FW_L0_V1.11.2/Drivers/CMSIS/Include/cmsis_gcc.h **** 
 252:/home/maxx/STM32Cube/Repository/STM32Cube_FW_L0_V1.11.2/Drivers/CMSIS/Include/cmsis_gcc.h ****   __ASM volatile ("MRS %0, basepri" : "=r" (result) );
 253:/home/maxx/STM32Cube/Repository/STM32Cube_FW_L0_V1.11.2/Drivers/CMSIS/Include/cmsis_gcc.h ****   return(result);
 254:/home/maxx/STM32Cube/Repository/STM32Cube_FW_L0_V1.11.2/Drivers/CMSIS/Include/cmsis_gcc.h **** }
 255:/home/maxx/STM32Cube/Repository/STM32Cube_FW_L0_V1.11.2/Drivers/CMSIS/Include/cmsis_gcc.h **** 
 256:/home/maxx/STM32Cube/Repository/STM32Cube_FW_L0_V1.11.2/Drivers/CMSIS/Include/cmsis_gcc.h **** 
 257:/home/maxx/STM32Cube/Repository/STM32Cube_FW_L0_V1.11.2/Drivers/CMSIS/Include/cmsis_gcc.h **** /**
 258:/home/maxx/STM32Cube/Repository/STM32Cube_FW_L0_V1.11.2/Drivers/CMSIS/Include/cmsis_gcc.h ****   \brief   Set Base Priority
 259:/home/maxx/STM32Cube/Repository/STM32Cube_FW_L0_V1.11.2/Drivers/CMSIS/Include/cmsis_gcc.h ****   \details Assigns the given value to the Base Priority register.
 260:/home/maxx/STM32Cube/Repository/STM32Cube_FW_L0_V1.11.2/Drivers/CMSIS/Include/cmsis_gcc.h ****   \param [in]    basePri  Base Priority value to set
 261:/home/maxx/STM32Cube/Repository/STM32Cube_FW_L0_V1.11.2/Drivers/CMSIS/Include/cmsis_gcc.h ****  */
 262:/home/maxx/STM32Cube/Repository/STM32Cube_FW_L0_V1.11.2/Drivers/CMSIS/Include/cmsis_gcc.h **** __attribute__( ( always_inline ) ) __STATIC_INLINE void __set_BASEPRI(uint32_t value)
 263:/home/maxx/STM32Cube/Repository/STM32Cube_FW_L0_V1.11.2/Drivers/CMSIS/Include/cmsis_gcc.h **** {
 264:/home/maxx/STM32Cube/Repository/STM32Cube_FW_L0_V1.11.2/Drivers/CMSIS/Include/cmsis_gcc.h ****   __ASM volatile ("MSR basepri, %0" : : "r" (value) : "memory");
 265:/home/maxx/STM32Cube/Repository/STM32Cube_FW_L0_V1.11.2/Drivers/CMSIS/Include/cmsis_gcc.h **** }
 266:/home/maxx/STM32Cube/Repository/STM32Cube_FW_L0_V1.11.2/Drivers/CMSIS/Include/cmsis_gcc.h **** 
 267:/home/maxx/STM32Cube/Repository/STM32Cube_FW_L0_V1.11.2/Drivers/CMSIS/Include/cmsis_gcc.h **** 
 268:/home/maxx/STM32Cube/Repository/STM32Cube_FW_L0_V1.11.2/Drivers/CMSIS/Include/cmsis_gcc.h **** /**
 269:/home/maxx/STM32Cube/Repository/STM32Cube_FW_L0_V1.11.2/Drivers/CMSIS/Include/cmsis_gcc.h ****   \brief   Set Base Priority with condition
 270:/home/maxx/STM32Cube/Repository/STM32Cube_FW_L0_V1.11.2/Drivers/CMSIS/Include/cmsis_gcc.h ****   \details Assigns the given value to the Base Priority register only if BASEPRI masking is disable
 271:/home/maxx/STM32Cube/Repository/STM32Cube_FW_L0_V1.11.2/Drivers/CMSIS/Include/cmsis_gcc.h ****            or the new value increases the BASEPRI priority level.
 272:/home/maxx/STM32Cube/Repository/STM32Cube_FW_L0_V1.11.2/Drivers/CMSIS/Include/cmsis_gcc.h ****   \param [in]    basePri  Base Priority value to set
 273:/home/maxx/STM32Cube/Repository/STM32Cube_FW_L0_V1.11.2/Drivers/CMSIS/Include/cmsis_gcc.h ****  */
 274:/home/maxx/STM32Cube/Repository/STM32Cube_FW_L0_V1.11.2/Drivers/CMSIS/Include/cmsis_gcc.h **** __attribute__( ( always_inline ) ) __STATIC_INLINE void __set_BASEPRI_MAX(uint32_t value)
 275:/home/maxx/STM32Cube/Repository/STM32Cube_FW_L0_V1.11.2/Drivers/CMSIS/Include/cmsis_gcc.h **** {
 276:/home/maxx/STM32Cube/Repository/STM32Cube_FW_L0_V1.11.2/Drivers/CMSIS/Include/cmsis_gcc.h ****   __ASM volatile ("MSR basepri_max, %0" : : "r" (value) : "memory");
 277:/home/maxx/STM32Cube/Repository/STM32Cube_FW_L0_V1.11.2/Drivers/CMSIS/Include/cmsis_gcc.h **** }
ARM GAS  /tmp/ccd53DOt.s 			page 21


 278:/home/maxx/STM32Cube/Repository/STM32Cube_FW_L0_V1.11.2/Drivers/CMSIS/Include/cmsis_gcc.h **** 
 279:/home/maxx/STM32Cube/Repository/STM32Cube_FW_L0_V1.11.2/Drivers/CMSIS/Include/cmsis_gcc.h **** 
 280:/home/maxx/STM32Cube/Repository/STM32Cube_FW_L0_V1.11.2/Drivers/CMSIS/Include/cmsis_gcc.h **** /**
 281:/home/maxx/STM32Cube/Repository/STM32Cube_FW_L0_V1.11.2/Drivers/CMSIS/Include/cmsis_gcc.h ****   \brief   Get Fault Mask
 282:/home/maxx/STM32Cube/Repository/STM32Cube_FW_L0_V1.11.2/Drivers/CMSIS/Include/cmsis_gcc.h ****   \details Returns the current value of the Fault Mask register.
 283:/home/maxx/STM32Cube/Repository/STM32Cube_FW_L0_V1.11.2/Drivers/CMSIS/Include/cmsis_gcc.h ****   \return               Fault Mask register value
 284:/home/maxx/STM32Cube/Repository/STM32Cube_FW_L0_V1.11.2/Drivers/CMSIS/Include/cmsis_gcc.h ****  */
 285:/home/maxx/STM32Cube/Repository/STM32Cube_FW_L0_V1.11.2/Drivers/CMSIS/Include/cmsis_gcc.h **** __attribute__( ( always_inline ) ) __STATIC_INLINE uint32_t __get_FAULTMASK(void)
 286:/home/maxx/STM32Cube/Repository/STM32Cube_FW_L0_V1.11.2/Drivers/CMSIS/Include/cmsis_gcc.h **** {
 287:/home/maxx/STM32Cube/Repository/STM32Cube_FW_L0_V1.11.2/Drivers/CMSIS/Include/cmsis_gcc.h ****   uint32_t result;
 288:/home/maxx/STM32Cube/Repository/STM32Cube_FW_L0_V1.11.2/Drivers/CMSIS/Include/cmsis_gcc.h **** 
 289:/home/maxx/STM32Cube/Repository/STM32Cube_FW_L0_V1.11.2/Drivers/CMSIS/Include/cmsis_gcc.h ****   __ASM volatile ("MRS %0, faultmask" : "=r" (result) );
 290:/home/maxx/STM32Cube/Repository/STM32Cube_FW_L0_V1.11.2/Drivers/CMSIS/Include/cmsis_gcc.h ****   return(result);
 291:/home/maxx/STM32Cube/Repository/STM32Cube_FW_L0_V1.11.2/Drivers/CMSIS/Include/cmsis_gcc.h **** }
 292:/home/maxx/STM32Cube/Repository/STM32Cube_FW_L0_V1.11.2/Drivers/CMSIS/Include/cmsis_gcc.h **** 
 293:/home/maxx/STM32Cube/Repository/STM32Cube_FW_L0_V1.11.2/Drivers/CMSIS/Include/cmsis_gcc.h **** 
 294:/home/maxx/STM32Cube/Repository/STM32Cube_FW_L0_V1.11.2/Drivers/CMSIS/Include/cmsis_gcc.h **** /**
 295:/home/maxx/STM32Cube/Repository/STM32Cube_FW_L0_V1.11.2/Drivers/CMSIS/Include/cmsis_gcc.h ****   \brief   Set Fault Mask
 296:/home/maxx/STM32Cube/Repository/STM32Cube_FW_L0_V1.11.2/Drivers/CMSIS/Include/cmsis_gcc.h ****   \details Assigns the given value to the Fault Mask register.
 297:/home/maxx/STM32Cube/Repository/STM32Cube_FW_L0_V1.11.2/Drivers/CMSIS/Include/cmsis_gcc.h ****   \param [in]    faultMask  Fault Mask value to set
 298:/home/maxx/STM32Cube/Repository/STM32Cube_FW_L0_V1.11.2/Drivers/CMSIS/Include/cmsis_gcc.h ****  */
 299:/home/maxx/STM32Cube/Repository/STM32Cube_FW_L0_V1.11.2/Drivers/CMSIS/Include/cmsis_gcc.h **** __attribute__( ( always_inline ) ) __STATIC_INLINE void __set_FAULTMASK(uint32_t faultMask)
 300:/home/maxx/STM32Cube/Repository/STM32Cube_FW_L0_V1.11.2/Drivers/CMSIS/Include/cmsis_gcc.h **** {
 301:/home/maxx/STM32Cube/Repository/STM32Cube_FW_L0_V1.11.2/Drivers/CMSIS/Include/cmsis_gcc.h ****   __ASM volatile ("MSR faultmask, %0" : : "r" (faultMask) : "memory");
 302:/home/maxx/STM32Cube/Repository/STM32Cube_FW_L0_V1.11.2/Drivers/CMSIS/Include/cmsis_gcc.h **** }
 303:/home/maxx/STM32Cube/Repository/STM32Cube_FW_L0_V1.11.2/Drivers/CMSIS/Include/cmsis_gcc.h **** 
 304:/home/maxx/STM32Cube/Repository/STM32Cube_FW_L0_V1.11.2/Drivers/CMSIS/Include/cmsis_gcc.h **** #endif /* (__CORTEX_M >= 0x03U) */
 305:/home/maxx/STM32Cube/Repository/STM32Cube_FW_L0_V1.11.2/Drivers/CMSIS/Include/cmsis_gcc.h **** 
 306:/home/maxx/STM32Cube/Repository/STM32Cube_FW_L0_V1.11.2/Drivers/CMSIS/Include/cmsis_gcc.h **** 
 307:/home/maxx/STM32Cube/Repository/STM32Cube_FW_L0_V1.11.2/Drivers/CMSIS/Include/cmsis_gcc.h **** #if       (__CORTEX_M == 0x04U) || (__CORTEX_M == 0x07U)
 308:/home/maxx/STM32Cube/Repository/STM32Cube_FW_L0_V1.11.2/Drivers/CMSIS/Include/cmsis_gcc.h **** 
 309:/home/maxx/STM32Cube/Repository/STM32Cube_FW_L0_V1.11.2/Drivers/CMSIS/Include/cmsis_gcc.h **** /**
 310:/home/maxx/STM32Cube/Repository/STM32Cube_FW_L0_V1.11.2/Drivers/CMSIS/Include/cmsis_gcc.h ****   \brief   Get FPSCR
 311:/home/maxx/STM32Cube/Repository/STM32Cube_FW_L0_V1.11.2/Drivers/CMSIS/Include/cmsis_gcc.h ****   \details Returns the current value of the Floating Point Status/Control register.
 312:/home/maxx/STM32Cube/Repository/STM32Cube_FW_L0_V1.11.2/Drivers/CMSIS/Include/cmsis_gcc.h ****   \return               Floating Point Status/Control register value
 313:/home/maxx/STM32Cube/Repository/STM32Cube_FW_L0_V1.11.2/Drivers/CMSIS/Include/cmsis_gcc.h ****  */
 314:/home/maxx/STM32Cube/Repository/STM32Cube_FW_L0_V1.11.2/Drivers/CMSIS/Include/cmsis_gcc.h **** __attribute__( ( always_inline ) ) __STATIC_INLINE uint32_t __get_FPSCR(void)
 315:/home/maxx/STM32Cube/Repository/STM32Cube_FW_L0_V1.11.2/Drivers/CMSIS/Include/cmsis_gcc.h **** {
 316:/home/maxx/STM32Cube/Repository/STM32Cube_FW_L0_V1.11.2/Drivers/CMSIS/Include/cmsis_gcc.h **** #if (__FPU_PRESENT == 1U) && (__FPU_USED == 1U)
 317:/home/maxx/STM32Cube/Repository/STM32Cube_FW_L0_V1.11.2/Drivers/CMSIS/Include/cmsis_gcc.h ****   uint32_t result;
 318:/home/maxx/STM32Cube/Repository/STM32Cube_FW_L0_V1.11.2/Drivers/CMSIS/Include/cmsis_gcc.h **** 
 319:/home/maxx/STM32Cube/Repository/STM32Cube_FW_L0_V1.11.2/Drivers/CMSIS/Include/cmsis_gcc.h ****   /* Empty asm statement works as a scheduling barrier */
 320:/home/maxx/STM32Cube/Repository/STM32Cube_FW_L0_V1.11.2/Drivers/CMSIS/Include/cmsis_gcc.h ****   __ASM volatile ("");
 321:/home/maxx/STM32Cube/Repository/STM32Cube_FW_L0_V1.11.2/Drivers/CMSIS/Include/cmsis_gcc.h ****   __ASM volatile ("VMRS %0, fpscr" : "=r" (result) );
 322:/home/maxx/STM32Cube/Repository/STM32Cube_FW_L0_V1.11.2/Drivers/CMSIS/Include/cmsis_gcc.h ****   __ASM volatile ("");
 323:/home/maxx/STM32Cube/Repository/STM32Cube_FW_L0_V1.11.2/Drivers/CMSIS/Include/cmsis_gcc.h ****   return(result);
 324:/home/maxx/STM32Cube/Repository/STM32Cube_FW_L0_V1.11.2/Drivers/CMSIS/Include/cmsis_gcc.h **** #else
 325:/home/maxx/STM32Cube/Repository/STM32Cube_FW_L0_V1.11.2/Drivers/CMSIS/Include/cmsis_gcc.h ****    return(0);
 326:/home/maxx/STM32Cube/Repository/STM32Cube_FW_L0_V1.11.2/Drivers/CMSIS/Include/cmsis_gcc.h **** #endif
 327:/home/maxx/STM32Cube/Repository/STM32Cube_FW_L0_V1.11.2/Drivers/CMSIS/Include/cmsis_gcc.h **** }
 328:/home/maxx/STM32Cube/Repository/STM32Cube_FW_L0_V1.11.2/Drivers/CMSIS/Include/cmsis_gcc.h **** 
 329:/home/maxx/STM32Cube/Repository/STM32Cube_FW_L0_V1.11.2/Drivers/CMSIS/Include/cmsis_gcc.h **** 
 330:/home/maxx/STM32Cube/Repository/STM32Cube_FW_L0_V1.11.2/Drivers/CMSIS/Include/cmsis_gcc.h **** /**
 331:/home/maxx/STM32Cube/Repository/STM32Cube_FW_L0_V1.11.2/Drivers/CMSIS/Include/cmsis_gcc.h ****   \brief   Set FPSCR
 332:/home/maxx/STM32Cube/Repository/STM32Cube_FW_L0_V1.11.2/Drivers/CMSIS/Include/cmsis_gcc.h ****   \details Assigns the given value to the Floating Point Status/Control register.
 333:/home/maxx/STM32Cube/Repository/STM32Cube_FW_L0_V1.11.2/Drivers/CMSIS/Include/cmsis_gcc.h ****   \param [in]    fpscr  Floating Point Status/Control value to set
 334:/home/maxx/STM32Cube/Repository/STM32Cube_FW_L0_V1.11.2/Drivers/CMSIS/Include/cmsis_gcc.h ****  */
ARM GAS  /tmp/ccd53DOt.s 			page 22


 335:/home/maxx/STM32Cube/Repository/STM32Cube_FW_L0_V1.11.2/Drivers/CMSIS/Include/cmsis_gcc.h **** __attribute__( ( always_inline ) ) __STATIC_INLINE void __set_FPSCR(uint32_t fpscr)
 336:/home/maxx/STM32Cube/Repository/STM32Cube_FW_L0_V1.11.2/Drivers/CMSIS/Include/cmsis_gcc.h **** {
 337:/home/maxx/STM32Cube/Repository/STM32Cube_FW_L0_V1.11.2/Drivers/CMSIS/Include/cmsis_gcc.h **** #if (__FPU_PRESENT == 1U) && (__FPU_USED == 1U)
 338:/home/maxx/STM32Cube/Repository/STM32Cube_FW_L0_V1.11.2/Drivers/CMSIS/Include/cmsis_gcc.h ****   /* Empty asm statement works as a scheduling barrier */
 339:/home/maxx/STM32Cube/Repository/STM32Cube_FW_L0_V1.11.2/Drivers/CMSIS/Include/cmsis_gcc.h ****   __ASM volatile ("");
 340:/home/maxx/STM32Cube/Repository/STM32Cube_FW_L0_V1.11.2/Drivers/CMSIS/Include/cmsis_gcc.h ****   __ASM volatile ("VMSR fpscr, %0" : : "r" (fpscr) : "vfpcc");
 341:/home/maxx/STM32Cube/Repository/STM32Cube_FW_L0_V1.11.2/Drivers/CMSIS/Include/cmsis_gcc.h ****   __ASM volatile ("");
 342:/home/maxx/STM32Cube/Repository/STM32Cube_FW_L0_V1.11.2/Drivers/CMSIS/Include/cmsis_gcc.h **** #endif
 343:/home/maxx/STM32Cube/Repository/STM32Cube_FW_L0_V1.11.2/Drivers/CMSIS/Include/cmsis_gcc.h **** }
 344:/home/maxx/STM32Cube/Repository/STM32Cube_FW_L0_V1.11.2/Drivers/CMSIS/Include/cmsis_gcc.h **** 
 345:/home/maxx/STM32Cube/Repository/STM32Cube_FW_L0_V1.11.2/Drivers/CMSIS/Include/cmsis_gcc.h **** #endif /* (__CORTEX_M == 0x04U) || (__CORTEX_M == 0x07U) */
 346:/home/maxx/STM32Cube/Repository/STM32Cube_FW_L0_V1.11.2/Drivers/CMSIS/Include/cmsis_gcc.h **** 
 347:/home/maxx/STM32Cube/Repository/STM32Cube_FW_L0_V1.11.2/Drivers/CMSIS/Include/cmsis_gcc.h **** 
 348:/home/maxx/STM32Cube/Repository/STM32Cube_FW_L0_V1.11.2/Drivers/CMSIS/Include/cmsis_gcc.h **** 
 349:/home/maxx/STM32Cube/Repository/STM32Cube_FW_L0_V1.11.2/Drivers/CMSIS/Include/cmsis_gcc.h **** /*@} end of CMSIS_Core_RegAccFunctions */
 350:/home/maxx/STM32Cube/Repository/STM32Cube_FW_L0_V1.11.2/Drivers/CMSIS/Include/cmsis_gcc.h **** 
 351:/home/maxx/STM32Cube/Repository/STM32Cube_FW_L0_V1.11.2/Drivers/CMSIS/Include/cmsis_gcc.h **** 
 352:/home/maxx/STM32Cube/Repository/STM32Cube_FW_L0_V1.11.2/Drivers/CMSIS/Include/cmsis_gcc.h **** /* ##########################  Core Instruction Access  ######################### */
 353:/home/maxx/STM32Cube/Repository/STM32Cube_FW_L0_V1.11.2/Drivers/CMSIS/Include/cmsis_gcc.h **** /** \defgroup CMSIS_Core_InstructionInterface CMSIS Core Instruction Interface
 354:/home/maxx/STM32Cube/Repository/STM32Cube_FW_L0_V1.11.2/Drivers/CMSIS/Include/cmsis_gcc.h ****   Access to dedicated instructions
 355:/home/maxx/STM32Cube/Repository/STM32Cube_FW_L0_V1.11.2/Drivers/CMSIS/Include/cmsis_gcc.h ****   @{
 356:/home/maxx/STM32Cube/Repository/STM32Cube_FW_L0_V1.11.2/Drivers/CMSIS/Include/cmsis_gcc.h **** */
 357:/home/maxx/STM32Cube/Repository/STM32Cube_FW_L0_V1.11.2/Drivers/CMSIS/Include/cmsis_gcc.h **** 
 358:/home/maxx/STM32Cube/Repository/STM32Cube_FW_L0_V1.11.2/Drivers/CMSIS/Include/cmsis_gcc.h **** /* Define macros for porting to both thumb1 and thumb2.
 359:/home/maxx/STM32Cube/Repository/STM32Cube_FW_L0_V1.11.2/Drivers/CMSIS/Include/cmsis_gcc.h ****  * For thumb1, use low register (r0-r7), specified by constraint "l"
 360:/home/maxx/STM32Cube/Repository/STM32Cube_FW_L0_V1.11.2/Drivers/CMSIS/Include/cmsis_gcc.h ****  * Otherwise, use general registers, specified by constraint "r" */
 361:/home/maxx/STM32Cube/Repository/STM32Cube_FW_L0_V1.11.2/Drivers/CMSIS/Include/cmsis_gcc.h **** #if defined (__thumb__) && !defined (__thumb2__)
 362:/home/maxx/STM32Cube/Repository/STM32Cube_FW_L0_V1.11.2/Drivers/CMSIS/Include/cmsis_gcc.h **** #define __CMSIS_GCC_OUT_REG(r) "=l" (r)
 363:/home/maxx/STM32Cube/Repository/STM32Cube_FW_L0_V1.11.2/Drivers/CMSIS/Include/cmsis_gcc.h **** #define __CMSIS_GCC_USE_REG(r) "l" (r)
 364:/home/maxx/STM32Cube/Repository/STM32Cube_FW_L0_V1.11.2/Drivers/CMSIS/Include/cmsis_gcc.h **** #else
 365:/home/maxx/STM32Cube/Repository/STM32Cube_FW_L0_V1.11.2/Drivers/CMSIS/Include/cmsis_gcc.h **** #define __CMSIS_GCC_OUT_REG(r) "=r" (r)
 366:/home/maxx/STM32Cube/Repository/STM32Cube_FW_L0_V1.11.2/Drivers/CMSIS/Include/cmsis_gcc.h **** #define __CMSIS_GCC_USE_REG(r) "r" (r)
 367:/home/maxx/STM32Cube/Repository/STM32Cube_FW_L0_V1.11.2/Drivers/CMSIS/Include/cmsis_gcc.h **** #endif
 368:/home/maxx/STM32Cube/Repository/STM32Cube_FW_L0_V1.11.2/Drivers/CMSIS/Include/cmsis_gcc.h **** 
 369:/home/maxx/STM32Cube/Repository/STM32Cube_FW_L0_V1.11.2/Drivers/CMSIS/Include/cmsis_gcc.h **** /**
 370:/home/maxx/STM32Cube/Repository/STM32Cube_FW_L0_V1.11.2/Drivers/CMSIS/Include/cmsis_gcc.h ****   \brief   No Operation
 371:/home/maxx/STM32Cube/Repository/STM32Cube_FW_L0_V1.11.2/Drivers/CMSIS/Include/cmsis_gcc.h ****   \details No Operation does nothing. This instruction can be used for code alignment purposes.
 372:/home/maxx/STM32Cube/Repository/STM32Cube_FW_L0_V1.11.2/Drivers/CMSIS/Include/cmsis_gcc.h ****  */
 373:/home/maxx/STM32Cube/Repository/STM32Cube_FW_L0_V1.11.2/Drivers/CMSIS/Include/cmsis_gcc.h **** __attribute__((always_inline)) __STATIC_INLINE void __NOP(void)
 374:/home/maxx/STM32Cube/Repository/STM32Cube_FW_L0_V1.11.2/Drivers/CMSIS/Include/cmsis_gcc.h **** {
 375:/home/maxx/STM32Cube/Repository/STM32Cube_FW_L0_V1.11.2/Drivers/CMSIS/Include/cmsis_gcc.h ****   __ASM volatile ("nop");
 376:/home/maxx/STM32Cube/Repository/STM32Cube_FW_L0_V1.11.2/Drivers/CMSIS/Include/cmsis_gcc.h **** }
 377:/home/maxx/STM32Cube/Repository/STM32Cube_FW_L0_V1.11.2/Drivers/CMSIS/Include/cmsis_gcc.h **** 
 378:/home/maxx/STM32Cube/Repository/STM32Cube_FW_L0_V1.11.2/Drivers/CMSIS/Include/cmsis_gcc.h **** 
 379:/home/maxx/STM32Cube/Repository/STM32Cube_FW_L0_V1.11.2/Drivers/CMSIS/Include/cmsis_gcc.h **** /**
 380:/home/maxx/STM32Cube/Repository/STM32Cube_FW_L0_V1.11.2/Drivers/CMSIS/Include/cmsis_gcc.h ****   \brief   Wait For Interrupt
 381:/home/maxx/STM32Cube/Repository/STM32Cube_FW_L0_V1.11.2/Drivers/CMSIS/Include/cmsis_gcc.h ****   \details Wait For Interrupt is a hint instruction that suspends execution until one of a number o
 382:/home/maxx/STM32Cube/Repository/STM32Cube_FW_L0_V1.11.2/Drivers/CMSIS/Include/cmsis_gcc.h ****  */
 383:/home/maxx/STM32Cube/Repository/STM32Cube_FW_L0_V1.11.2/Drivers/CMSIS/Include/cmsis_gcc.h **** __attribute__((always_inline)) __STATIC_INLINE void __WFI(void)
 384:/home/maxx/STM32Cube/Repository/STM32Cube_FW_L0_V1.11.2/Drivers/CMSIS/Include/cmsis_gcc.h **** {
 385:/home/maxx/STM32Cube/Repository/STM32Cube_FW_L0_V1.11.2/Drivers/CMSIS/Include/cmsis_gcc.h ****   __ASM volatile ("wfi");
 386:/home/maxx/STM32Cube/Repository/STM32Cube_FW_L0_V1.11.2/Drivers/CMSIS/Include/cmsis_gcc.h **** }
 387:/home/maxx/STM32Cube/Repository/STM32Cube_FW_L0_V1.11.2/Drivers/CMSIS/Include/cmsis_gcc.h **** 
 388:/home/maxx/STM32Cube/Repository/STM32Cube_FW_L0_V1.11.2/Drivers/CMSIS/Include/cmsis_gcc.h **** 
 389:/home/maxx/STM32Cube/Repository/STM32Cube_FW_L0_V1.11.2/Drivers/CMSIS/Include/cmsis_gcc.h **** /**
 390:/home/maxx/STM32Cube/Repository/STM32Cube_FW_L0_V1.11.2/Drivers/CMSIS/Include/cmsis_gcc.h ****   \brief   Wait For Event
 391:/home/maxx/STM32Cube/Repository/STM32Cube_FW_L0_V1.11.2/Drivers/CMSIS/Include/cmsis_gcc.h ****   \details Wait For Event is a hint instruction that permits the processor to enter
ARM GAS  /tmp/ccd53DOt.s 			page 23


 392:/home/maxx/STM32Cube/Repository/STM32Cube_FW_L0_V1.11.2/Drivers/CMSIS/Include/cmsis_gcc.h ****     a low-power state until one of a number of events occurs.
 393:/home/maxx/STM32Cube/Repository/STM32Cube_FW_L0_V1.11.2/Drivers/CMSIS/Include/cmsis_gcc.h ****  */
 394:/home/maxx/STM32Cube/Repository/STM32Cube_FW_L0_V1.11.2/Drivers/CMSIS/Include/cmsis_gcc.h **** __attribute__((always_inline)) __STATIC_INLINE void __WFE(void)
 395:/home/maxx/STM32Cube/Repository/STM32Cube_FW_L0_V1.11.2/Drivers/CMSIS/Include/cmsis_gcc.h **** {
 396:/home/maxx/STM32Cube/Repository/STM32Cube_FW_L0_V1.11.2/Drivers/CMSIS/Include/cmsis_gcc.h ****   __ASM volatile ("wfe");
 397:/home/maxx/STM32Cube/Repository/STM32Cube_FW_L0_V1.11.2/Drivers/CMSIS/Include/cmsis_gcc.h **** }
 398:/home/maxx/STM32Cube/Repository/STM32Cube_FW_L0_V1.11.2/Drivers/CMSIS/Include/cmsis_gcc.h **** 
 399:/home/maxx/STM32Cube/Repository/STM32Cube_FW_L0_V1.11.2/Drivers/CMSIS/Include/cmsis_gcc.h **** 
 400:/home/maxx/STM32Cube/Repository/STM32Cube_FW_L0_V1.11.2/Drivers/CMSIS/Include/cmsis_gcc.h **** /**
 401:/home/maxx/STM32Cube/Repository/STM32Cube_FW_L0_V1.11.2/Drivers/CMSIS/Include/cmsis_gcc.h ****   \brief   Send Event
 402:/home/maxx/STM32Cube/Repository/STM32Cube_FW_L0_V1.11.2/Drivers/CMSIS/Include/cmsis_gcc.h ****   \details Send Event is a hint instruction. It causes an event to be signaled to the CPU.
 403:/home/maxx/STM32Cube/Repository/STM32Cube_FW_L0_V1.11.2/Drivers/CMSIS/Include/cmsis_gcc.h ****  */
 404:/home/maxx/STM32Cube/Repository/STM32Cube_FW_L0_V1.11.2/Drivers/CMSIS/Include/cmsis_gcc.h **** __attribute__((always_inline)) __STATIC_INLINE void __SEV(void)
 405:/home/maxx/STM32Cube/Repository/STM32Cube_FW_L0_V1.11.2/Drivers/CMSIS/Include/cmsis_gcc.h **** {
 406:/home/maxx/STM32Cube/Repository/STM32Cube_FW_L0_V1.11.2/Drivers/CMSIS/Include/cmsis_gcc.h ****   __ASM volatile ("sev");
 393              		.loc 2 406 0
 394              		.syntax divided
 395              	@ 406 "/home/maxx/STM32Cube/Repository/STM32Cube_FW_L0_V1.11.2/Drivers/CMSIS/Include/cmsis_gcc.h" 1
 396 001c 40BF     		sev
 397              	@ 0 "" 2
 398              		.thumb
 399              		.syntax unified
 400              	.LBE23:
 401              	.LBE22:
 402              	.LBB24:
 403              	.LBB25:
 396:/home/maxx/STM32Cube/Repository/STM32Cube_FW_L0_V1.11.2/Drivers/CMSIS/Include/cmsis_gcc.h **** }
 404              		.loc 2 396 0
 405              		.syntax divided
 406              	@ 396 "/home/maxx/STM32Cube/Repository/STM32Cube_FW_L0_V1.11.2/Drivers/CMSIS/Include/cmsis_gcc.h" 1
 407 001e 20BF     		wfe
 408              	@ 0 "" 2
 409              		.thumb
 410              		.syntax unified
 411              	.LBE25:
 412              	.LBE24:
 413              	.LBB26:
 414              	.LBB27:
 415              		.syntax divided
 416              	@ 396 "/home/maxx/STM32Cube/Repository/STM32Cube_FW_L0_V1.11.2/Drivers/CMSIS/Include/cmsis_gcc.h" 1
 417 0020 20BF     		wfe
 418              	@ 0 "" 2
 419              		.thumb
 420              		.syntax unified
 421              	.L31:
 422              	.LBE27:
 423              	.LBE26:
 424              	.LBB28:
 425              	.LBB29:
 375:/home/maxx/STM32Cube/Repository/STM32Cube_FW_L0_V1.11.2/Drivers/CMSIS/Include/cmsis_gcc.h **** }
 426              		.loc 2 375 0
 427              		.syntax divided
 428              	@ 375 "/home/maxx/STM32Cube/Repository/STM32Cube_FW_L0_V1.11.2/Drivers/CMSIS/Include/cmsis_gcc.h" 1
 429 0022 C046     		nop
 430              	@ 0 "" 2
 431              		.thumb
 432              		.syntax unified
ARM GAS  /tmp/ccd53DOt.s 			page 24


 433              	.LBE29:
 434              	.LBE28:
 489:/home/maxx/STM32Cube/Repository/STM32Cube_FW_L0_V1.11.2/Drivers/STM32L0xx_HAL_Driver/Src/stm32l0xx_hal_pwr.c ****   {
 490:/home/maxx/STM32Cube/Repository/STM32Cube_FW_L0_V1.11.2/Drivers/STM32L0xx_HAL_Driver/Src/stm32l0xx_hal_pwr.c ****     /* Request Wait For Interrupt */
 491:/home/maxx/STM32Cube/Repository/STM32Cube_FW_L0_V1.11.2/Drivers/STM32L0xx_HAL_Driver/Src/stm32l0xx_hal_pwr.c ****     __WFI();
 492:/home/maxx/STM32Cube/Repository/STM32Cube_FW_L0_V1.11.2/Drivers/STM32L0xx_HAL_Driver/Src/stm32l0xx_hal_pwr.c ****   }
 493:/home/maxx/STM32Cube/Repository/STM32Cube_FW_L0_V1.11.2/Drivers/STM32L0xx_HAL_Driver/Src/stm32l0xx_hal_pwr.c ****   else
 494:/home/maxx/STM32Cube/Repository/STM32Cube_FW_L0_V1.11.2/Drivers/STM32L0xx_HAL_Driver/Src/stm32l0xx_hal_pwr.c ****   {
 495:/home/maxx/STM32Cube/Repository/STM32Cube_FW_L0_V1.11.2/Drivers/STM32L0xx_HAL_Driver/Src/stm32l0xx_hal_pwr.c ****     /* Request Wait For Event */
 496:/home/maxx/STM32Cube/Repository/STM32Cube_FW_L0_V1.11.2/Drivers/STM32L0xx_HAL_Driver/Src/stm32l0xx_hal_pwr.c ****     __SEV();
 497:/home/maxx/STM32Cube/Repository/STM32Cube_FW_L0_V1.11.2/Drivers/STM32L0xx_HAL_Driver/Src/stm32l0xx_hal_pwr.c ****     __WFE();
 498:/home/maxx/STM32Cube/Repository/STM32Cube_FW_L0_V1.11.2/Drivers/STM32L0xx_HAL_Driver/Src/stm32l0xx_hal_pwr.c ****     __WFE();
 499:/home/maxx/STM32Cube/Repository/STM32Cube_FW_L0_V1.11.2/Drivers/STM32L0xx_HAL_Driver/Src/stm32l0xx_hal_pwr.c ****   }
 500:/home/maxx/STM32Cube/Repository/STM32Cube_FW_L0_V1.11.2/Drivers/STM32L0xx_HAL_Driver/Src/stm32l0xx_hal_pwr.c **** 
 501:/home/maxx/STM32Cube/Repository/STM32Cube_FW_L0_V1.11.2/Drivers/STM32L0xx_HAL_Driver/Src/stm32l0xx_hal_pwr.c ****   /* Additional NOP to ensure all pending instructions are flushed before entering low power mode *
 502:/home/maxx/STM32Cube/Repository/STM32Cube_FW_L0_V1.11.2/Drivers/STM32L0xx_HAL_Driver/Src/stm32l0xx_hal_pwr.c ****   __NOP();
 503:/home/maxx/STM32Cube/Repository/STM32Cube_FW_L0_V1.11.2/Drivers/STM32L0xx_HAL_Driver/Src/stm32l0xx_hal_pwr.c **** 
 504:/home/maxx/STM32Cube/Repository/STM32Cube_FW_L0_V1.11.2/Drivers/STM32L0xx_HAL_Driver/Src/stm32l0xx_hal_pwr.c **** }
 435              		.loc 1 504 0
 436              		@ sp needed
 437 0024 10BD     		pop	{r4, pc}
 438              	.L32:
 439              	.LBB30:
 440              	.LBB31:
 385:/home/maxx/STM32Cube/Repository/STM32Cube_FW_L0_V1.11.2/Drivers/CMSIS/Include/cmsis_gcc.h **** }
 441              		.loc 2 385 0
 442              		.syntax divided
 443              	@ 385 "/home/maxx/STM32Cube/Repository/STM32Cube_FW_L0_V1.11.2/Drivers/CMSIS/Include/cmsis_gcc.h" 1
 444 0026 30BF     		wfi
 445              	@ 0 "" 2
 446              		.thumb
 447              		.syntax unified
 448 0028 FBE7     		b	.L31
 449              	.L34:
 450 002a C046     		.align	2
 451              	.L33:
 452 002c 00700040 		.word	1073770496
 453 0030 00ED00E0 		.word	-536810240
 454              	.LBE31:
 455              	.LBE30:
 456              		.cfi_endproc
 457              	.LFE42:
 459              		.section	.text.HAL_PWR_EnterSTOPMode,"ax",%progbits
 460              		.align	1
 461              		.global	HAL_PWR_EnterSTOPMode
 462              		.syntax unified
 463              		.code	16
 464              		.thumb_func
 465              		.fpu softvfp
 467              	HAL_PWR_EnterSTOPMode:
 468              	.LFB43:
 505:/home/maxx/STM32Cube/Repository/STM32Cube_FW_L0_V1.11.2/Drivers/STM32L0xx_HAL_Driver/Src/stm32l0xx_hal_pwr.c **** 
 506:/home/maxx/STM32Cube/Repository/STM32Cube_FW_L0_V1.11.2/Drivers/STM32L0xx_HAL_Driver/Src/stm32l0xx_hal_pwr.c **** /**
 507:/home/maxx/STM32Cube/Repository/STM32Cube_FW_L0_V1.11.2/Drivers/STM32L0xx_HAL_Driver/Src/stm32l0xx_hal_pwr.c ****   * @brief Enters Stop mode. 
 508:/home/maxx/STM32Cube/Repository/STM32Cube_FW_L0_V1.11.2/Drivers/STM32L0xx_HAL_Driver/Src/stm32l0xx_hal_pwr.c ****   * @note In Stop mode, all I/O pins keep the same state as in Run mode.
 509:/home/maxx/STM32Cube/Repository/STM32Cube_FW_L0_V1.11.2/Drivers/STM32L0xx_HAL_Driver/Src/stm32l0xx_hal_pwr.c ****   * @note When exiting Stop mode by issuing an interrupt or a wakeup event,
 510:/home/maxx/STM32Cube/Repository/STM32Cube_FW_L0_V1.11.2/Drivers/STM32L0xx_HAL_Driver/Src/stm32l0xx_hal_pwr.c ****   *        MSI or HSI16 RCoscillator is selected as system clock depending 
ARM GAS  /tmp/ccd53DOt.s 			page 25


 511:/home/maxx/STM32Cube/Repository/STM32Cube_FW_L0_V1.11.2/Drivers/STM32L0xx_HAL_Driver/Src/stm32l0xx_hal_pwr.c ****   *        the bit STOPWUCK in the RCC_CFGR register.
 512:/home/maxx/STM32Cube/Repository/STM32Cube_FW_L0_V1.11.2/Drivers/STM32L0xx_HAL_Driver/Src/stm32l0xx_hal_pwr.c ****   * @note When the voltage regulator operates in low power mode, an additional
 513:/home/maxx/STM32Cube/Repository/STM32Cube_FW_L0_V1.11.2/Drivers/STM32L0xx_HAL_Driver/Src/stm32l0xx_hal_pwr.c ****   *         startup delay is incurred when waking up from Stop mode. 
 514:/home/maxx/STM32Cube/Repository/STM32Cube_FW_L0_V1.11.2/Drivers/STM32L0xx_HAL_Driver/Src/stm32l0xx_hal_pwr.c ****   *         By keeping the internal regulator ON during Stop mode, the consumption
 515:/home/maxx/STM32Cube/Repository/STM32Cube_FW_L0_V1.11.2/Drivers/STM32L0xx_HAL_Driver/Src/stm32l0xx_hal_pwr.c ****   *         is higher although the startup time is reduced.
 516:/home/maxx/STM32Cube/Repository/STM32Cube_FW_L0_V1.11.2/Drivers/STM32L0xx_HAL_Driver/Src/stm32l0xx_hal_pwr.c ****   * @note Before entering in this function, it is important to ensure that the WUF
 517:/home/maxx/STM32Cube/Repository/STM32Cube_FW_L0_V1.11.2/Drivers/STM32L0xx_HAL_Driver/Src/stm32l0xx_hal_pwr.c ****   *       wakeup flag is cleared. To perform this action, it is possible to call the
 518:/home/maxx/STM32Cube/Repository/STM32Cube_FW_L0_V1.11.2/Drivers/STM32L0xx_HAL_Driver/Src/stm32l0xx_hal_pwr.c ****   *       following macro : __HAL_PWR_CLEAR_FLAG(PWR_FLAG_WU)
 519:/home/maxx/STM32Cube/Repository/STM32Cube_FW_L0_V1.11.2/Drivers/STM32L0xx_HAL_Driver/Src/stm32l0xx_hal_pwr.c ****   *
 520:/home/maxx/STM32Cube/Repository/STM32Cube_FW_L0_V1.11.2/Drivers/STM32L0xx_HAL_Driver/Src/stm32l0xx_hal_pwr.c ****   * @param Regulator: Specifies the regulator state in Stop mode.
 521:/home/maxx/STM32Cube/Repository/STM32Cube_FW_L0_V1.11.2/Drivers/STM32L0xx_HAL_Driver/Src/stm32l0xx_hal_pwr.c ****   *          This parameter can be one of the following values:
 522:/home/maxx/STM32Cube/Repository/STM32Cube_FW_L0_V1.11.2/Drivers/STM32L0xx_HAL_Driver/Src/stm32l0xx_hal_pwr.c ****   *            @arg PWR_MAINREGULATOR_ON: Stop mode with regulator ON
 523:/home/maxx/STM32Cube/Repository/STM32Cube_FW_L0_V1.11.2/Drivers/STM32L0xx_HAL_Driver/Src/stm32l0xx_hal_pwr.c ****   *            @arg PWR_LOWPOWERREGULATOR_ON: Stop mode with low power regulator ON
 524:/home/maxx/STM32Cube/Repository/STM32Cube_FW_L0_V1.11.2/Drivers/STM32L0xx_HAL_Driver/Src/stm32l0xx_hal_pwr.c ****   * @param STOPEntry: Specifies if Stop mode in entered with WFI or WFE instruction.
 525:/home/maxx/STM32Cube/Repository/STM32Cube_FW_L0_V1.11.2/Drivers/STM32L0xx_HAL_Driver/Src/stm32l0xx_hal_pwr.c ****   *          This parameter can be one of the following values:
 526:/home/maxx/STM32Cube/Repository/STM32Cube_FW_L0_V1.11.2/Drivers/STM32L0xx_HAL_Driver/Src/stm32l0xx_hal_pwr.c ****   *            @arg PWR_STOPENTRY_WFI: Enter Stop mode with WFI instruction
 527:/home/maxx/STM32Cube/Repository/STM32Cube_FW_L0_V1.11.2/Drivers/STM32L0xx_HAL_Driver/Src/stm32l0xx_hal_pwr.c ****   *            @arg PWR_STOPENTRY_WFE: Enter Stop mode with WFE instruction   
 528:/home/maxx/STM32Cube/Repository/STM32Cube_FW_L0_V1.11.2/Drivers/STM32L0xx_HAL_Driver/Src/stm32l0xx_hal_pwr.c ****   * @retval None
 529:/home/maxx/STM32Cube/Repository/STM32Cube_FW_L0_V1.11.2/Drivers/STM32L0xx_HAL_Driver/Src/stm32l0xx_hal_pwr.c ****   */
 530:/home/maxx/STM32Cube/Repository/STM32Cube_FW_L0_V1.11.2/Drivers/STM32L0xx_HAL_Driver/Src/stm32l0xx_hal_pwr.c **** void HAL_PWR_EnterSTOPMode(uint32_t Regulator, uint8_t STOPEntry)
 531:/home/maxx/STM32Cube/Repository/STM32Cube_FW_L0_V1.11.2/Drivers/STM32L0xx_HAL_Driver/Src/stm32l0xx_hal_pwr.c **** {
 469              		.loc 1 531 0
 470              		.cfi_startproc
 471              		@ args = 0, pretend = 0, frame = 0
 472              		@ frame_needed = 0, uses_anonymous_args = 0
 473              	.LVL11:
 474 0000 10B5     		push	{r4, lr}
 475              	.LCFI1:
 476              		.cfi_def_cfa_offset 8
 477              		.cfi_offset 4, -8
 478              		.cfi_offset 14, -4
 479              	.LVL12:
 532:/home/maxx/STM32Cube/Repository/STM32Cube_FW_L0_V1.11.2/Drivers/STM32L0xx_HAL_Driver/Src/stm32l0xx_hal_pwr.c ****   uint32_t tmpreg = 0U;
 533:/home/maxx/STM32Cube/Repository/STM32Cube_FW_L0_V1.11.2/Drivers/STM32L0xx_HAL_Driver/Src/stm32l0xx_hal_pwr.c **** 
 534:/home/maxx/STM32Cube/Repository/STM32Cube_FW_L0_V1.11.2/Drivers/STM32L0xx_HAL_Driver/Src/stm32l0xx_hal_pwr.c ****   /* Check the parameters */
 535:/home/maxx/STM32Cube/Repository/STM32Cube_FW_L0_V1.11.2/Drivers/STM32L0xx_HAL_Driver/Src/stm32l0xx_hal_pwr.c ****   assert_param(IS_PWR_REGULATOR(Regulator));
 536:/home/maxx/STM32Cube/Repository/STM32Cube_FW_L0_V1.11.2/Drivers/STM32L0xx_HAL_Driver/Src/stm32l0xx_hal_pwr.c ****   assert_param(IS_PWR_STOP_ENTRY(STOPEntry));
 537:/home/maxx/STM32Cube/Repository/STM32Cube_FW_L0_V1.11.2/Drivers/STM32L0xx_HAL_Driver/Src/stm32l0xx_hal_pwr.c **** 
 538:/home/maxx/STM32Cube/Repository/STM32Cube_FW_L0_V1.11.2/Drivers/STM32L0xx_HAL_Driver/Src/stm32l0xx_hal_pwr.c ****   /* Select the regulator state in Stop mode ---------------------------------*/
 539:/home/maxx/STM32Cube/Repository/STM32Cube_FW_L0_V1.11.2/Drivers/STM32L0xx_HAL_Driver/Src/stm32l0xx_hal_pwr.c ****   tmpreg = PWR->CR;
 480              		.loc 1 539 0
 481 0002 0C4A     		ldr	r2, .L39
 482 0004 1368     		ldr	r3, [r2]
 483              	.LVL13:
 540:/home/maxx/STM32Cube/Repository/STM32Cube_FW_L0_V1.11.2/Drivers/STM32L0xx_HAL_Driver/Src/stm32l0xx_hal_pwr.c ****   
 541:/home/maxx/STM32Cube/Repository/STM32Cube_FW_L0_V1.11.2/Drivers/STM32L0xx_HAL_Driver/Src/stm32l0xx_hal_pwr.c ****   /* Clear PDDS and LPDS bits */
 542:/home/maxx/STM32Cube/Repository/STM32Cube_FW_L0_V1.11.2/Drivers/STM32L0xx_HAL_Driver/Src/stm32l0xx_hal_pwr.c ****   CLEAR_BIT(tmpreg, (PWR_CR_PDDS | PWR_CR_LPSDSR));
 484              		.loc 1 542 0
 485 0006 0324     		movs	r4, #3
 486 0008 A343     		bics	r3, r4
 487              	.LVL14:
 543:/home/maxx/STM32Cube/Repository/STM32Cube_FW_L0_V1.11.2/Drivers/STM32L0xx_HAL_Driver/Src/stm32l0xx_hal_pwr.c **** 
 544:/home/maxx/STM32Cube/Repository/STM32Cube_FW_L0_V1.11.2/Drivers/STM32L0xx_HAL_Driver/Src/stm32l0xx_hal_pwr.c ****  /* Set LPSDSR bit according to PWR_Regulator value */
 545:/home/maxx/STM32Cube/Repository/STM32Cube_FW_L0_V1.11.2/Drivers/STM32L0xx_HAL_Driver/Src/stm32l0xx_hal_pwr.c ****   SET_BIT(tmpreg, Regulator);
 488              		.loc 1 545 0
 489 000a 1843     		orrs	r0, r3
 490              	.LVL15:
ARM GAS  /tmp/ccd53DOt.s 			page 26


 546:/home/maxx/STM32Cube/Repository/STM32Cube_FW_L0_V1.11.2/Drivers/STM32L0xx_HAL_Driver/Src/stm32l0xx_hal_pwr.c **** 
 547:/home/maxx/STM32Cube/Repository/STM32Cube_FW_L0_V1.11.2/Drivers/STM32L0xx_HAL_Driver/Src/stm32l0xx_hal_pwr.c ****   /* Store the new value */
 548:/home/maxx/STM32Cube/Repository/STM32Cube_FW_L0_V1.11.2/Drivers/STM32L0xx_HAL_Driver/Src/stm32l0xx_hal_pwr.c ****   PWR->CR = tmpreg;
 491              		.loc 1 548 0
 492 000c 1060     		str	r0, [r2]
 549:/home/maxx/STM32Cube/Repository/STM32Cube_FW_L0_V1.11.2/Drivers/STM32L0xx_HAL_Driver/Src/stm32l0xx_hal_pwr.c **** 
 550:/home/maxx/STM32Cube/Repository/STM32Cube_FW_L0_V1.11.2/Drivers/STM32L0xx_HAL_Driver/Src/stm32l0xx_hal_pwr.c ****   /* Set SLEEPDEEP bit of Cortex System Control Register */
 551:/home/maxx/STM32Cube/Repository/STM32Cube_FW_L0_V1.11.2/Drivers/STM32L0xx_HAL_Driver/Src/stm32l0xx_hal_pwr.c ****   SET_BIT(SCB->SCR, SCB_SCR_SLEEPDEEP_Msk);
 493              		.loc 1 551 0
 494 000e 0A4A     		ldr	r2, .L39+4
 495 0010 1369     		ldr	r3, [r2, #16]
 496 0012 0420     		movs	r0, #4
 497              	.LVL16:
 498 0014 0343     		orrs	r3, r0
 499 0016 1361     		str	r3, [r2, #16]
 500              	.LVL17:
 552:/home/maxx/STM32Cube/Repository/STM32Cube_FW_L0_V1.11.2/Drivers/STM32L0xx_HAL_Driver/Src/stm32l0xx_hal_pwr.c **** 
 553:/home/maxx/STM32Cube/Repository/STM32Cube_FW_L0_V1.11.2/Drivers/STM32L0xx_HAL_Driver/Src/stm32l0xx_hal_pwr.c ****   /* Select Stop mode entry --------------------------------------------------*/
 554:/home/maxx/STM32Cube/Repository/STM32Cube_FW_L0_V1.11.2/Drivers/STM32L0xx_HAL_Driver/Src/stm32l0xx_hal_pwr.c ****   if(STOPEntry == PWR_STOPENTRY_WFI)
 501              		.loc 1 554 0
 502 0018 0129     		cmp	r1, #1
 503 001a 08D0     		beq	.L38
 504              	.LBB32:
 505              	.LBB33:
 506              		.loc 2 406 0
 507              		.syntax divided
 508              	@ 406 "/home/maxx/STM32Cube/Repository/STM32Cube_FW_L0_V1.11.2/Drivers/CMSIS/Include/cmsis_gcc.h" 1
 509 001c 40BF     		sev
 510              	@ 0 "" 2
 511              		.thumb
 512              		.syntax unified
 513              	.LBE33:
 514              	.LBE32:
 515              	.LBB34:
 516              	.LBB35:
 396:/home/maxx/STM32Cube/Repository/STM32Cube_FW_L0_V1.11.2/Drivers/CMSIS/Include/cmsis_gcc.h **** }
 517              		.loc 2 396 0
 518              		.syntax divided
 519              	@ 396 "/home/maxx/STM32Cube/Repository/STM32Cube_FW_L0_V1.11.2/Drivers/CMSIS/Include/cmsis_gcc.h" 1
 520 001e 20BF     		wfe
 521              	@ 0 "" 2
 522              		.thumb
 523              		.syntax unified
 524              	.LBE35:
 525              	.LBE34:
 526              	.LBB36:
 527              	.LBB37:
 528              		.syntax divided
 529              	@ 396 "/home/maxx/STM32Cube/Repository/STM32Cube_FW_L0_V1.11.2/Drivers/CMSIS/Include/cmsis_gcc.h" 1
 530 0020 20BF     		wfe
 531              	@ 0 "" 2
 532              		.thumb
 533              		.syntax unified
 534              	.L37:
 535              	.LBE37:
 536              	.LBE36:
 555:/home/maxx/STM32Cube/Repository/STM32Cube_FW_L0_V1.11.2/Drivers/STM32L0xx_HAL_Driver/Src/stm32l0xx_hal_pwr.c ****   {
ARM GAS  /tmp/ccd53DOt.s 			page 27


 556:/home/maxx/STM32Cube/Repository/STM32Cube_FW_L0_V1.11.2/Drivers/STM32L0xx_HAL_Driver/Src/stm32l0xx_hal_pwr.c ****     /* Request Wait For Interrupt */
 557:/home/maxx/STM32Cube/Repository/STM32Cube_FW_L0_V1.11.2/Drivers/STM32L0xx_HAL_Driver/Src/stm32l0xx_hal_pwr.c ****     __WFI();
 558:/home/maxx/STM32Cube/Repository/STM32Cube_FW_L0_V1.11.2/Drivers/STM32L0xx_HAL_Driver/Src/stm32l0xx_hal_pwr.c ****   }
 559:/home/maxx/STM32Cube/Repository/STM32Cube_FW_L0_V1.11.2/Drivers/STM32L0xx_HAL_Driver/Src/stm32l0xx_hal_pwr.c ****   else
 560:/home/maxx/STM32Cube/Repository/STM32Cube_FW_L0_V1.11.2/Drivers/STM32L0xx_HAL_Driver/Src/stm32l0xx_hal_pwr.c ****   {
 561:/home/maxx/STM32Cube/Repository/STM32Cube_FW_L0_V1.11.2/Drivers/STM32L0xx_HAL_Driver/Src/stm32l0xx_hal_pwr.c ****     /* Request Wait For Event */
 562:/home/maxx/STM32Cube/Repository/STM32Cube_FW_L0_V1.11.2/Drivers/STM32L0xx_HAL_Driver/Src/stm32l0xx_hal_pwr.c ****     __SEV();
 563:/home/maxx/STM32Cube/Repository/STM32Cube_FW_L0_V1.11.2/Drivers/STM32L0xx_HAL_Driver/Src/stm32l0xx_hal_pwr.c ****     __WFE();
 564:/home/maxx/STM32Cube/Repository/STM32Cube_FW_L0_V1.11.2/Drivers/STM32L0xx_HAL_Driver/Src/stm32l0xx_hal_pwr.c ****     __WFE();
 565:/home/maxx/STM32Cube/Repository/STM32Cube_FW_L0_V1.11.2/Drivers/STM32L0xx_HAL_Driver/Src/stm32l0xx_hal_pwr.c ****   }
 566:/home/maxx/STM32Cube/Repository/STM32Cube_FW_L0_V1.11.2/Drivers/STM32L0xx_HAL_Driver/Src/stm32l0xx_hal_pwr.c ****  
 567:/home/maxx/STM32Cube/Repository/STM32Cube_FW_L0_V1.11.2/Drivers/STM32L0xx_HAL_Driver/Src/stm32l0xx_hal_pwr.c ****   /* Reset SLEEPDEEP bit of Cortex System Control Register */
 568:/home/maxx/STM32Cube/Repository/STM32Cube_FW_L0_V1.11.2/Drivers/STM32L0xx_HAL_Driver/Src/stm32l0xx_hal_pwr.c ****   CLEAR_BIT(SCB->SCR, SCB_SCR_SLEEPDEEP_Msk);
 537              		.loc 1 568 0
 538 0022 054A     		ldr	r2, .L39+4
 539 0024 1369     		ldr	r3, [r2, #16]
 540 0026 0421     		movs	r1, #4
 541              	.LVL18:
 542 0028 8B43     		bics	r3, r1
 543 002a 1361     		str	r3, [r2, #16]
 569:/home/maxx/STM32Cube/Repository/STM32Cube_FW_L0_V1.11.2/Drivers/STM32L0xx_HAL_Driver/Src/stm32l0xx_hal_pwr.c **** 
 570:/home/maxx/STM32Cube/Repository/STM32Cube_FW_L0_V1.11.2/Drivers/STM32L0xx_HAL_Driver/Src/stm32l0xx_hal_pwr.c **** }
 544              		.loc 1 570 0
 545              		@ sp needed
 546 002c 10BD     		pop	{r4, pc}
 547              	.LVL19:
 548              	.L38:
 549              	.LBB38:
 550              	.LBB39:
 385:/home/maxx/STM32Cube/Repository/STM32Cube_FW_L0_V1.11.2/Drivers/CMSIS/Include/cmsis_gcc.h **** }
 551              		.loc 2 385 0
 552              		.syntax divided
 553              	@ 385 "/home/maxx/STM32Cube/Repository/STM32Cube_FW_L0_V1.11.2/Drivers/CMSIS/Include/cmsis_gcc.h" 1
 554 002e 30BF     		wfi
 555              	@ 0 "" 2
 556              		.thumb
 557              		.syntax unified
 558 0030 F7E7     		b	.L37
 559              	.L40:
 560 0032 C046     		.align	2
 561              	.L39:
 562 0034 00700040 		.word	1073770496
 563 0038 00ED00E0 		.word	-536810240
 564              	.LBE39:
 565              	.LBE38:
 566              		.cfi_endproc
 567              	.LFE43:
 569              		.section	.text.HAL_PWR_EnterSTANDBYMode,"ax",%progbits
 570              		.align	1
 571              		.global	HAL_PWR_EnterSTANDBYMode
 572              		.syntax unified
 573              		.code	16
 574              		.thumb_func
 575              		.fpu softvfp
 577              	HAL_PWR_EnterSTANDBYMode:
 578              	.LFB44:
 571:/home/maxx/STM32Cube/Repository/STM32Cube_FW_L0_V1.11.2/Drivers/STM32L0xx_HAL_Driver/Src/stm32l0xx_hal_pwr.c **** 
ARM GAS  /tmp/ccd53DOt.s 			page 28


 572:/home/maxx/STM32Cube/Repository/STM32Cube_FW_L0_V1.11.2/Drivers/STM32L0xx_HAL_Driver/Src/stm32l0xx_hal_pwr.c **** /**
 573:/home/maxx/STM32Cube/Repository/STM32Cube_FW_L0_V1.11.2/Drivers/STM32L0xx_HAL_Driver/Src/stm32l0xx_hal_pwr.c ****   * @brief Enters Standby mode.
 574:/home/maxx/STM32Cube/Repository/STM32Cube_FW_L0_V1.11.2/Drivers/STM32L0xx_HAL_Driver/Src/stm32l0xx_hal_pwr.c ****   * @note In Standby mode, all I/O pins are high impedance except for:
 575:/home/maxx/STM32Cube/Repository/STM32Cube_FW_L0_V1.11.2/Drivers/STM32L0xx_HAL_Driver/Src/stm32l0xx_hal_pwr.c ****   *          - Reset pad (still available) 
 576:/home/maxx/STM32Cube/Repository/STM32Cube_FW_L0_V1.11.2/Drivers/STM32L0xx_HAL_Driver/Src/stm32l0xx_hal_pwr.c ****   *          - RTC_AF1 pin (PC13) if configured for tamper, time-stamp, RTC
 577:/home/maxx/STM32Cube/Repository/STM32Cube_FW_L0_V1.11.2/Drivers/STM32L0xx_HAL_Driver/Src/stm32l0xx_hal_pwr.c ****   *            Alarm out, or RTC clock calibration out.
 578:/home/maxx/STM32Cube/Repository/STM32Cube_FW_L0_V1.11.2/Drivers/STM32L0xx_HAL_Driver/Src/stm32l0xx_hal_pwr.c ****   *          - RTC_AF2 pin (PC13) if configured for tamper.
 579:/home/maxx/STM32Cube/Repository/STM32Cube_FW_L0_V1.11.2/Drivers/STM32L0xx_HAL_Driver/Src/stm32l0xx_hal_pwr.c ****   *          - WKUP pin 1 (PA00) if enabled.
 580:/home/maxx/STM32Cube/Repository/STM32Cube_FW_L0_V1.11.2/Drivers/STM32L0xx_HAL_Driver/Src/stm32l0xx_hal_pwr.c ****   *          - WKUP pin 2 (PC13) if enabled.
 581:/home/maxx/STM32Cube/Repository/STM32Cube_FW_L0_V1.11.2/Drivers/STM32L0xx_HAL_Driver/Src/stm32l0xx_hal_pwr.c ****   *          - WKUP pin 3 (PE06) if enabled, for stm32l07xxx and stm32l08xxx devices only.
 582:/home/maxx/STM32Cube/Repository/STM32Cube_FW_L0_V1.11.2/Drivers/STM32L0xx_HAL_Driver/Src/stm32l0xx_hal_pwr.c ****   *          - WKUP pin 3 (PA02) if enabled, for stm32l031xx devices only.
 583:/home/maxx/STM32Cube/Repository/STM32Cube_FW_L0_V1.11.2/Drivers/STM32L0xx_HAL_Driver/Src/stm32l0xx_hal_pwr.c ****   * @retval None
 584:/home/maxx/STM32Cube/Repository/STM32Cube_FW_L0_V1.11.2/Drivers/STM32L0xx_HAL_Driver/Src/stm32l0xx_hal_pwr.c ****   */
 585:/home/maxx/STM32Cube/Repository/STM32Cube_FW_L0_V1.11.2/Drivers/STM32L0xx_HAL_Driver/Src/stm32l0xx_hal_pwr.c **** void HAL_PWR_EnterSTANDBYMode(void)
 586:/home/maxx/STM32Cube/Repository/STM32Cube_FW_L0_V1.11.2/Drivers/STM32L0xx_HAL_Driver/Src/stm32l0xx_hal_pwr.c **** {
 579              		.loc 1 586 0
 580              		.cfi_startproc
 581              		@ args = 0, pretend = 0, frame = 0
 582              		@ frame_needed = 0, uses_anonymous_args = 0
 583              		@ link register save eliminated.
 587:/home/maxx/STM32Cube/Repository/STM32Cube_FW_L0_V1.11.2/Drivers/STM32L0xx_HAL_Driver/Src/stm32l0xx_hal_pwr.c ****   /* Select Standby mode */
 588:/home/maxx/STM32Cube/Repository/STM32Cube_FW_L0_V1.11.2/Drivers/STM32L0xx_HAL_Driver/Src/stm32l0xx_hal_pwr.c ****   SET_BIT(PWR->CR, PWR_CR_PDDS);
 584              		.loc 1 588 0
 585 0000 054A     		ldr	r2, .L42
 586 0002 1368     		ldr	r3, [r2]
 587 0004 0221     		movs	r1, #2
 588 0006 0B43     		orrs	r3, r1
 589 0008 1360     		str	r3, [r2]
 589:/home/maxx/STM32Cube/Repository/STM32Cube_FW_L0_V1.11.2/Drivers/STM32L0xx_HAL_Driver/Src/stm32l0xx_hal_pwr.c **** 
 590:/home/maxx/STM32Cube/Repository/STM32Cube_FW_L0_V1.11.2/Drivers/STM32L0xx_HAL_Driver/Src/stm32l0xx_hal_pwr.c ****   /* Set SLEEPDEEP bit of Cortex System Control Register */
 591:/home/maxx/STM32Cube/Repository/STM32Cube_FW_L0_V1.11.2/Drivers/STM32L0xx_HAL_Driver/Src/stm32l0xx_hal_pwr.c ****   SET_BIT(SCB->SCR, SCB_SCR_SLEEPDEEP_Msk);
 590              		.loc 1 591 0
 591 000a 044A     		ldr	r2, .L42+4
 592 000c 1369     		ldr	r3, [r2, #16]
 593 000e 0231     		adds	r1, r1, #2
 594 0010 0B43     		orrs	r3, r1
 595 0012 1361     		str	r3, [r2, #16]
 596              	.LBB40:
 597              	.LBB41:
 385:/home/maxx/STM32Cube/Repository/STM32Cube_FW_L0_V1.11.2/Drivers/CMSIS/Include/cmsis_gcc.h **** }
 598              		.loc 2 385 0
 599              		.syntax divided
 600              	@ 385 "/home/maxx/STM32Cube/Repository/STM32Cube_FW_L0_V1.11.2/Drivers/CMSIS/Include/cmsis_gcc.h" 1
 601 0014 30BF     		wfi
 602              	@ 0 "" 2
 603              		.thumb
 604              		.syntax unified
 605              	.LBE41:
 606              	.LBE40:
 592:/home/maxx/STM32Cube/Repository/STM32Cube_FW_L0_V1.11.2/Drivers/STM32L0xx_HAL_Driver/Src/stm32l0xx_hal_pwr.c **** 
 593:/home/maxx/STM32Cube/Repository/STM32Cube_FW_L0_V1.11.2/Drivers/STM32L0xx_HAL_Driver/Src/stm32l0xx_hal_pwr.c ****   /* This option is used to ensure that store operations are completed */
 594:/home/maxx/STM32Cube/Repository/STM32Cube_FW_L0_V1.11.2/Drivers/STM32L0xx_HAL_Driver/Src/stm32l0xx_hal_pwr.c **** #if defined ( __CC_ARM)
 595:/home/maxx/STM32Cube/Repository/STM32Cube_FW_L0_V1.11.2/Drivers/STM32L0xx_HAL_Driver/Src/stm32l0xx_hal_pwr.c ****   __force_stores();
 596:/home/maxx/STM32Cube/Repository/STM32Cube_FW_L0_V1.11.2/Drivers/STM32L0xx_HAL_Driver/Src/stm32l0xx_hal_pwr.c **** #endif
 597:/home/maxx/STM32Cube/Repository/STM32Cube_FW_L0_V1.11.2/Drivers/STM32L0xx_HAL_Driver/Src/stm32l0xx_hal_pwr.c ****   /* Request Wait For Interrupt */
 598:/home/maxx/STM32Cube/Repository/STM32Cube_FW_L0_V1.11.2/Drivers/STM32L0xx_HAL_Driver/Src/stm32l0xx_hal_pwr.c ****   __WFI();
 599:/home/maxx/STM32Cube/Repository/STM32Cube_FW_L0_V1.11.2/Drivers/STM32L0xx_HAL_Driver/Src/stm32l0xx_hal_pwr.c **** }
ARM GAS  /tmp/ccd53DOt.s 			page 29


 607              		.loc 1 599 0
 608              		@ sp needed
 609 0016 7047     		bx	lr
 610              	.L43:
 611              		.align	2
 612              	.L42:
 613 0018 00700040 		.word	1073770496
 614 001c 00ED00E0 		.word	-536810240
 615              		.cfi_endproc
 616              	.LFE44:
 618              		.section	.text.HAL_PWR_EnableSleepOnExit,"ax",%progbits
 619              		.align	1
 620              		.global	HAL_PWR_EnableSleepOnExit
 621              		.syntax unified
 622              		.code	16
 623              		.thumb_func
 624              		.fpu softvfp
 626              	HAL_PWR_EnableSleepOnExit:
 627              	.LFB45:
 600:/home/maxx/STM32Cube/Repository/STM32Cube_FW_L0_V1.11.2/Drivers/STM32L0xx_HAL_Driver/Src/stm32l0xx_hal_pwr.c **** 
 601:/home/maxx/STM32Cube/Repository/STM32Cube_FW_L0_V1.11.2/Drivers/STM32L0xx_HAL_Driver/Src/stm32l0xx_hal_pwr.c **** /**
 602:/home/maxx/STM32Cube/Repository/STM32Cube_FW_L0_V1.11.2/Drivers/STM32L0xx_HAL_Driver/Src/stm32l0xx_hal_pwr.c ****   * @brief Indicates Sleep-On-Exit when returning from Handler mode to Thread mode. 
 603:/home/maxx/STM32Cube/Repository/STM32Cube_FW_L0_V1.11.2/Drivers/STM32L0xx_HAL_Driver/Src/stm32l0xx_hal_pwr.c ****   * @note Set SLEEPONEXIT bit of SCR register. When this bit is set, the processor 
 604:/home/maxx/STM32Cube/Repository/STM32Cube_FW_L0_V1.11.2/Drivers/STM32L0xx_HAL_Driver/Src/stm32l0xx_hal_pwr.c ****   *       re-enters SLEEP mode when an interruption handling is over.
 605:/home/maxx/STM32Cube/Repository/STM32Cube_FW_L0_V1.11.2/Drivers/STM32L0xx_HAL_Driver/Src/stm32l0xx_hal_pwr.c ****   *       Setting this bit is useful when the processor is expected to run only on
 606:/home/maxx/STM32Cube/Repository/STM32Cube_FW_L0_V1.11.2/Drivers/STM32L0xx_HAL_Driver/Src/stm32l0xx_hal_pwr.c ****   *       interruptions handling.         
 607:/home/maxx/STM32Cube/Repository/STM32Cube_FW_L0_V1.11.2/Drivers/STM32L0xx_HAL_Driver/Src/stm32l0xx_hal_pwr.c ****   * @retval None
 608:/home/maxx/STM32Cube/Repository/STM32Cube_FW_L0_V1.11.2/Drivers/STM32L0xx_HAL_Driver/Src/stm32l0xx_hal_pwr.c ****   */
 609:/home/maxx/STM32Cube/Repository/STM32Cube_FW_L0_V1.11.2/Drivers/STM32L0xx_HAL_Driver/Src/stm32l0xx_hal_pwr.c **** void HAL_PWR_EnableSleepOnExit(void)
 610:/home/maxx/STM32Cube/Repository/STM32Cube_FW_L0_V1.11.2/Drivers/STM32L0xx_HAL_Driver/Src/stm32l0xx_hal_pwr.c **** {
 628              		.loc 1 610 0
 629              		.cfi_startproc
 630              		@ args = 0, pretend = 0, frame = 0
 631              		@ frame_needed = 0, uses_anonymous_args = 0
 632              		@ link register save eliminated.
 611:/home/maxx/STM32Cube/Repository/STM32Cube_FW_L0_V1.11.2/Drivers/STM32L0xx_HAL_Driver/Src/stm32l0xx_hal_pwr.c ****   /* Set SLEEPONEXIT bit of Cortex System Control Register */
 612:/home/maxx/STM32Cube/Repository/STM32Cube_FW_L0_V1.11.2/Drivers/STM32L0xx_HAL_Driver/Src/stm32l0xx_hal_pwr.c ****   SET_BIT(SCB->SCR, ((uint32_t)SCB_SCR_SLEEPONEXIT_Msk));
 633              		.loc 1 612 0
 634 0000 024A     		ldr	r2, .L45
 635 0002 1369     		ldr	r3, [r2, #16]
 636 0004 0221     		movs	r1, #2
 637 0006 0B43     		orrs	r3, r1
 638 0008 1361     		str	r3, [r2, #16]
 613:/home/maxx/STM32Cube/Repository/STM32Cube_FW_L0_V1.11.2/Drivers/STM32L0xx_HAL_Driver/Src/stm32l0xx_hal_pwr.c **** }
 639              		.loc 1 613 0
 640              		@ sp needed
 641 000a 7047     		bx	lr
 642              	.L46:
 643              		.align	2
 644              	.L45:
 645 000c 00ED00E0 		.word	-536810240
 646              		.cfi_endproc
 647              	.LFE45:
 649              		.section	.text.HAL_PWR_DisableSleepOnExit,"ax",%progbits
 650              		.align	1
 651              		.global	HAL_PWR_DisableSleepOnExit
 652              		.syntax unified
ARM GAS  /tmp/ccd53DOt.s 			page 30


 653              		.code	16
 654              		.thumb_func
 655              		.fpu softvfp
 657              	HAL_PWR_DisableSleepOnExit:
 658              	.LFB46:
 614:/home/maxx/STM32Cube/Repository/STM32Cube_FW_L0_V1.11.2/Drivers/STM32L0xx_HAL_Driver/Src/stm32l0xx_hal_pwr.c **** 
 615:/home/maxx/STM32Cube/Repository/STM32Cube_FW_L0_V1.11.2/Drivers/STM32L0xx_HAL_Driver/Src/stm32l0xx_hal_pwr.c **** 
 616:/home/maxx/STM32Cube/Repository/STM32Cube_FW_L0_V1.11.2/Drivers/STM32L0xx_HAL_Driver/Src/stm32l0xx_hal_pwr.c **** /**
 617:/home/maxx/STM32Cube/Repository/STM32Cube_FW_L0_V1.11.2/Drivers/STM32L0xx_HAL_Driver/Src/stm32l0xx_hal_pwr.c ****   * @brief Disables Sleep-On-Exit feature when returning from Handler mode to Thread mode. 
 618:/home/maxx/STM32Cube/Repository/STM32Cube_FW_L0_V1.11.2/Drivers/STM32L0xx_HAL_Driver/Src/stm32l0xx_hal_pwr.c ****   * @note Clears SLEEPONEXIT bit of SCR register. When this bit is set, the processor 
 619:/home/maxx/STM32Cube/Repository/STM32Cube_FW_L0_V1.11.2/Drivers/STM32L0xx_HAL_Driver/Src/stm32l0xx_hal_pwr.c ****   *       re-enters SLEEP mode when an interruption handling is over.          
 620:/home/maxx/STM32Cube/Repository/STM32Cube_FW_L0_V1.11.2/Drivers/STM32L0xx_HAL_Driver/Src/stm32l0xx_hal_pwr.c ****   * @retval None
 621:/home/maxx/STM32Cube/Repository/STM32Cube_FW_L0_V1.11.2/Drivers/STM32L0xx_HAL_Driver/Src/stm32l0xx_hal_pwr.c ****   */
 622:/home/maxx/STM32Cube/Repository/STM32Cube_FW_L0_V1.11.2/Drivers/STM32L0xx_HAL_Driver/Src/stm32l0xx_hal_pwr.c **** void HAL_PWR_DisableSleepOnExit(void)
 623:/home/maxx/STM32Cube/Repository/STM32Cube_FW_L0_V1.11.2/Drivers/STM32L0xx_HAL_Driver/Src/stm32l0xx_hal_pwr.c **** {
 659              		.loc 1 623 0
 660              		.cfi_startproc
 661              		@ args = 0, pretend = 0, frame = 0
 662              		@ frame_needed = 0, uses_anonymous_args = 0
 663              		@ link register save eliminated.
 624:/home/maxx/STM32Cube/Repository/STM32Cube_FW_L0_V1.11.2/Drivers/STM32L0xx_HAL_Driver/Src/stm32l0xx_hal_pwr.c ****   /* Clear SLEEPONEXIT bit of Cortex System Control Register */
 625:/home/maxx/STM32Cube/Repository/STM32Cube_FW_L0_V1.11.2/Drivers/STM32L0xx_HAL_Driver/Src/stm32l0xx_hal_pwr.c ****   CLEAR_BIT(SCB->SCR, ((uint32_t)SCB_SCR_SLEEPONEXIT_Msk));
 664              		.loc 1 625 0
 665 0000 024A     		ldr	r2, .L48
 666 0002 1369     		ldr	r3, [r2, #16]
 667 0004 0221     		movs	r1, #2
 668 0006 8B43     		bics	r3, r1
 669 0008 1361     		str	r3, [r2, #16]
 626:/home/maxx/STM32Cube/Repository/STM32Cube_FW_L0_V1.11.2/Drivers/STM32L0xx_HAL_Driver/Src/stm32l0xx_hal_pwr.c **** }
 670              		.loc 1 626 0
 671              		@ sp needed
 672 000a 7047     		bx	lr
 673              	.L49:
 674              		.align	2
 675              	.L48:
 676 000c 00ED00E0 		.word	-536810240
 677              		.cfi_endproc
 678              	.LFE46:
 680              		.section	.text.HAL_PWR_EnableSEVOnPend,"ax",%progbits
 681              		.align	1
 682              		.global	HAL_PWR_EnableSEVOnPend
 683              		.syntax unified
 684              		.code	16
 685              		.thumb_func
 686              		.fpu softvfp
 688              	HAL_PWR_EnableSEVOnPend:
 689              	.LFB47:
 627:/home/maxx/STM32Cube/Repository/STM32Cube_FW_L0_V1.11.2/Drivers/STM32L0xx_HAL_Driver/Src/stm32l0xx_hal_pwr.c **** 
 628:/home/maxx/STM32Cube/Repository/STM32Cube_FW_L0_V1.11.2/Drivers/STM32L0xx_HAL_Driver/Src/stm32l0xx_hal_pwr.c **** 
 629:/home/maxx/STM32Cube/Repository/STM32Cube_FW_L0_V1.11.2/Drivers/STM32L0xx_HAL_Driver/Src/stm32l0xx_hal_pwr.c **** /**
 630:/home/maxx/STM32Cube/Repository/STM32Cube_FW_L0_V1.11.2/Drivers/STM32L0xx_HAL_Driver/Src/stm32l0xx_hal_pwr.c ****   * @brief Enables CORTEX M0+ SEVONPEND bit. 
 631:/home/maxx/STM32Cube/Repository/STM32Cube_FW_L0_V1.11.2/Drivers/STM32L0xx_HAL_Driver/Src/stm32l0xx_hal_pwr.c ****   * @note Sets SEVONPEND bit of SCR register. When this bit is set, this causes 
 632:/home/maxx/STM32Cube/Repository/STM32Cube_FW_L0_V1.11.2/Drivers/STM32L0xx_HAL_Driver/Src/stm32l0xx_hal_pwr.c ****   *       WFE to wake up when an interrupt moves from inactive to pended.
 633:/home/maxx/STM32Cube/Repository/STM32Cube_FW_L0_V1.11.2/Drivers/STM32L0xx_HAL_Driver/Src/stm32l0xx_hal_pwr.c ****   * @retval None
 634:/home/maxx/STM32Cube/Repository/STM32Cube_FW_L0_V1.11.2/Drivers/STM32L0xx_HAL_Driver/Src/stm32l0xx_hal_pwr.c ****   */
 635:/home/maxx/STM32Cube/Repository/STM32Cube_FW_L0_V1.11.2/Drivers/STM32L0xx_HAL_Driver/Src/stm32l0xx_hal_pwr.c **** void HAL_PWR_EnableSEVOnPend(void)
 636:/home/maxx/STM32Cube/Repository/STM32Cube_FW_L0_V1.11.2/Drivers/STM32L0xx_HAL_Driver/Src/stm32l0xx_hal_pwr.c **** {
ARM GAS  /tmp/ccd53DOt.s 			page 31


 690              		.loc 1 636 0
 691              		.cfi_startproc
 692              		@ args = 0, pretend = 0, frame = 0
 693              		@ frame_needed = 0, uses_anonymous_args = 0
 694              		@ link register save eliminated.
 637:/home/maxx/STM32Cube/Repository/STM32Cube_FW_L0_V1.11.2/Drivers/STM32L0xx_HAL_Driver/Src/stm32l0xx_hal_pwr.c ****   /* Set SEVONPEND bit of Cortex System Control Register */
 638:/home/maxx/STM32Cube/Repository/STM32Cube_FW_L0_V1.11.2/Drivers/STM32L0xx_HAL_Driver/Src/stm32l0xx_hal_pwr.c ****   SET_BIT(SCB->SCR, ((uint32_t)SCB_SCR_SEVONPEND_Msk));
 695              		.loc 1 638 0
 696 0000 024A     		ldr	r2, .L51
 697 0002 1369     		ldr	r3, [r2, #16]
 698 0004 1021     		movs	r1, #16
 699 0006 0B43     		orrs	r3, r1
 700 0008 1361     		str	r3, [r2, #16]
 639:/home/maxx/STM32Cube/Repository/STM32Cube_FW_L0_V1.11.2/Drivers/STM32L0xx_HAL_Driver/Src/stm32l0xx_hal_pwr.c **** }
 701              		.loc 1 639 0
 702              		@ sp needed
 703 000a 7047     		bx	lr
 704              	.L52:
 705              		.align	2
 706              	.L51:
 707 000c 00ED00E0 		.word	-536810240
 708              		.cfi_endproc
 709              	.LFE47:
 711              		.section	.text.HAL_PWR_DisableSEVOnPend,"ax",%progbits
 712              		.align	1
 713              		.global	HAL_PWR_DisableSEVOnPend
 714              		.syntax unified
 715              		.code	16
 716              		.thumb_func
 717              		.fpu softvfp
 719              	HAL_PWR_DisableSEVOnPend:
 720              	.LFB48:
 640:/home/maxx/STM32Cube/Repository/STM32Cube_FW_L0_V1.11.2/Drivers/STM32L0xx_HAL_Driver/Src/stm32l0xx_hal_pwr.c **** 
 641:/home/maxx/STM32Cube/Repository/STM32Cube_FW_L0_V1.11.2/Drivers/STM32L0xx_HAL_Driver/Src/stm32l0xx_hal_pwr.c **** 
 642:/home/maxx/STM32Cube/Repository/STM32Cube_FW_L0_V1.11.2/Drivers/STM32L0xx_HAL_Driver/Src/stm32l0xx_hal_pwr.c **** /**
 643:/home/maxx/STM32Cube/Repository/STM32Cube_FW_L0_V1.11.2/Drivers/STM32L0xx_HAL_Driver/Src/stm32l0xx_hal_pwr.c ****   * @brief Disables CORTEX M0+ SEVONPEND bit. 
 644:/home/maxx/STM32Cube/Repository/STM32Cube_FW_L0_V1.11.2/Drivers/STM32L0xx_HAL_Driver/Src/stm32l0xx_hal_pwr.c ****   * @note Clears SEVONPEND bit of SCR register. When this bit is set, this causes 
 645:/home/maxx/STM32Cube/Repository/STM32Cube_FW_L0_V1.11.2/Drivers/STM32L0xx_HAL_Driver/Src/stm32l0xx_hal_pwr.c ****   *       WFE to wake up when an interrupt moves from inactive to pended.         
 646:/home/maxx/STM32Cube/Repository/STM32Cube_FW_L0_V1.11.2/Drivers/STM32L0xx_HAL_Driver/Src/stm32l0xx_hal_pwr.c ****   * @retval None
 647:/home/maxx/STM32Cube/Repository/STM32Cube_FW_L0_V1.11.2/Drivers/STM32L0xx_HAL_Driver/Src/stm32l0xx_hal_pwr.c ****   */
 648:/home/maxx/STM32Cube/Repository/STM32Cube_FW_L0_V1.11.2/Drivers/STM32L0xx_HAL_Driver/Src/stm32l0xx_hal_pwr.c **** void HAL_PWR_DisableSEVOnPend(void)
 649:/home/maxx/STM32Cube/Repository/STM32Cube_FW_L0_V1.11.2/Drivers/STM32L0xx_HAL_Driver/Src/stm32l0xx_hal_pwr.c **** {
 721              		.loc 1 649 0
 722              		.cfi_startproc
 723              		@ args = 0, pretend = 0, frame = 0
 724              		@ frame_needed = 0, uses_anonymous_args = 0
 725              		@ link register save eliminated.
 650:/home/maxx/STM32Cube/Repository/STM32Cube_FW_L0_V1.11.2/Drivers/STM32L0xx_HAL_Driver/Src/stm32l0xx_hal_pwr.c ****   /* Clear SEVONPEND bit of Cortex System Control Register */
 651:/home/maxx/STM32Cube/Repository/STM32Cube_FW_L0_V1.11.2/Drivers/STM32L0xx_HAL_Driver/Src/stm32l0xx_hal_pwr.c ****   CLEAR_BIT(SCB->SCR, ((uint32_t)SCB_SCR_SEVONPEND_Msk));
 726              		.loc 1 651 0
 727 0000 024A     		ldr	r2, .L54
 728 0002 1369     		ldr	r3, [r2, #16]
 729 0004 1021     		movs	r1, #16
 730 0006 8B43     		bics	r3, r1
 731 0008 1361     		str	r3, [r2, #16]
 652:/home/maxx/STM32Cube/Repository/STM32Cube_FW_L0_V1.11.2/Drivers/STM32L0xx_HAL_Driver/Src/stm32l0xx_hal_pwr.c **** }
 732              		.loc 1 652 0
ARM GAS  /tmp/ccd53DOt.s 			page 32


 733              		@ sp needed
 734 000a 7047     		bx	lr
 735              	.L55:
 736              		.align	2
 737              	.L54:
 738 000c 00ED00E0 		.word	-536810240
 739              		.cfi_endproc
 740              	.LFE48:
 742              		.section	.text.HAL_PWR_PVDCallback,"ax",%progbits
 743              		.align	1
 744              		.weak	HAL_PWR_PVDCallback
 745              		.syntax unified
 746              		.code	16
 747              		.thumb_func
 748              		.fpu softvfp
 750              	HAL_PWR_PVDCallback:
 751              	.LFB50:
 653:/home/maxx/STM32Cube/Repository/STM32Cube_FW_L0_V1.11.2/Drivers/STM32L0xx_HAL_Driver/Src/stm32l0xx_hal_pwr.c **** 
 654:/home/maxx/STM32Cube/Repository/STM32Cube_FW_L0_V1.11.2/Drivers/STM32L0xx_HAL_Driver/Src/stm32l0xx_hal_pwr.c **** #if defined(PWR_PVD_SUPPORT)
 655:/home/maxx/STM32Cube/Repository/STM32Cube_FW_L0_V1.11.2/Drivers/STM32L0xx_HAL_Driver/Src/stm32l0xx_hal_pwr.c **** /**
 656:/home/maxx/STM32Cube/Repository/STM32Cube_FW_L0_V1.11.2/Drivers/STM32L0xx_HAL_Driver/Src/stm32l0xx_hal_pwr.c ****   * @brief This function handles the PWR PVD interrupt request.
 657:/home/maxx/STM32Cube/Repository/STM32Cube_FW_L0_V1.11.2/Drivers/STM32L0xx_HAL_Driver/Src/stm32l0xx_hal_pwr.c ****   * @note This API should be called under the PVD_IRQHandler().
 658:/home/maxx/STM32Cube/Repository/STM32Cube_FW_L0_V1.11.2/Drivers/STM32L0xx_HAL_Driver/Src/stm32l0xx_hal_pwr.c ****   * @retval None
 659:/home/maxx/STM32Cube/Repository/STM32Cube_FW_L0_V1.11.2/Drivers/STM32L0xx_HAL_Driver/Src/stm32l0xx_hal_pwr.c ****   */
 660:/home/maxx/STM32Cube/Repository/STM32Cube_FW_L0_V1.11.2/Drivers/STM32L0xx_HAL_Driver/Src/stm32l0xx_hal_pwr.c **** void HAL_PWR_PVD_IRQHandler(void)
 661:/home/maxx/STM32Cube/Repository/STM32Cube_FW_L0_V1.11.2/Drivers/STM32L0xx_HAL_Driver/Src/stm32l0xx_hal_pwr.c **** {
 662:/home/maxx/STM32Cube/Repository/STM32Cube_FW_L0_V1.11.2/Drivers/STM32L0xx_HAL_Driver/Src/stm32l0xx_hal_pwr.c ****   /* Check PWR exti flag */
 663:/home/maxx/STM32Cube/Repository/STM32Cube_FW_L0_V1.11.2/Drivers/STM32L0xx_HAL_Driver/Src/stm32l0xx_hal_pwr.c ****   if(__HAL_PWR_PVD_EXTI_GET_FLAG() != RESET)
 664:/home/maxx/STM32Cube/Repository/STM32Cube_FW_L0_V1.11.2/Drivers/STM32L0xx_HAL_Driver/Src/stm32l0xx_hal_pwr.c ****   {
 665:/home/maxx/STM32Cube/Repository/STM32Cube_FW_L0_V1.11.2/Drivers/STM32L0xx_HAL_Driver/Src/stm32l0xx_hal_pwr.c ****     /* PWR PVD interrupt user callback */
 666:/home/maxx/STM32Cube/Repository/STM32Cube_FW_L0_V1.11.2/Drivers/STM32L0xx_HAL_Driver/Src/stm32l0xx_hal_pwr.c ****     HAL_PWR_PVDCallback();
 667:/home/maxx/STM32Cube/Repository/STM32Cube_FW_L0_V1.11.2/Drivers/STM32L0xx_HAL_Driver/Src/stm32l0xx_hal_pwr.c **** 
 668:/home/maxx/STM32Cube/Repository/STM32Cube_FW_L0_V1.11.2/Drivers/STM32L0xx_HAL_Driver/Src/stm32l0xx_hal_pwr.c ****     /* Clear PWR Exti pending bit */
 669:/home/maxx/STM32Cube/Repository/STM32Cube_FW_L0_V1.11.2/Drivers/STM32L0xx_HAL_Driver/Src/stm32l0xx_hal_pwr.c ****     __HAL_PWR_PVD_EXTI_CLEAR_FLAG();
 670:/home/maxx/STM32Cube/Repository/STM32Cube_FW_L0_V1.11.2/Drivers/STM32L0xx_HAL_Driver/Src/stm32l0xx_hal_pwr.c ****   }
 671:/home/maxx/STM32Cube/Repository/STM32Cube_FW_L0_V1.11.2/Drivers/STM32L0xx_HAL_Driver/Src/stm32l0xx_hal_pwr.c **** }
 672:/home/maxx/STM32Cube/Repository/STM32Cube_FW_L0_V1.11.2/Drivers/STM32L0xx_HAL_Driver/Src/stm32l0xx_hal_pwr.c **** 
 673:/home/maxx/STM32Cube/Repository/STM32Cube_FW_L0_V1.11.2/Drivers/STM32L0xx_HAL_Driver/Src/stm32l0xx_hal_pwr.c **** /**
 674:/home/maxx/STM32Cube/Repository/STM32Cube_FW_L0_V1.11.2/Drivers/STM32L0xx_HAL_Driver/Src/stm32l0xx_hal_pwr.c ****   * @brief  PWR PVD interrupt callback
 675:/home/maxx/STM32Cube/Repository/STM32Cube_FW_L0_V1.11.2/Drivers/STM32L0xx_HAL_Driver/Src/stm32l0xx_hal_pwr.c ****   * @retval None
 676:/home/maxx/STM32Cube/Repository/STM32Cube_FW_L0_V1.11.2/Drivers/STM32L0xx_HAL_Driver/Src/stm32l0xx_hal_pwr.c ****   */
 677:/home/maxx/STM32Cube/Repository/STM32Cube_FW_L0_V1.11.2/Drivers/STM32L0xx_HAL_Driver/Src/stm32l0xx_hal_pwr.c **** __weak void HAL_PWR_PVDCallback(void)
 678:/home/maxx/STM32Cube/Repository/STM32Cube_FW_L0_V1.11.2/Drivers/STM32L0xx_HAL_Driver/Src/stm32l0xx_hal_pwr.c **** {
 752              		.loc 1 678 0
 753              		.cfi_startproc
 754              		@ args = 0, pretend = 0, frame = 0
 755              		@ frame_needed = 0, uses_anonymous_args = 0
 756              		@ link register save eliminated.
 679:/home/maxx/STM32Cube/Repository/STM32Cube_FW_L0_V1.11.2/Drivers/STM32L0xx_HAL_Driver/Src/stm32l0xx_hal_pwr.c ****   /* NOTE : This function Should not be modified, when the callback is needed,
 680:/home/maxx/STM32Cube/Repository/STM32Cube_FW_L0_V1.11.2/Drivers/STM32L0xx_HAL_Driver/Src/stm32l0xx_hal_pwr.c ****             the HAL_PWR_PVDCallback could be implemented in the user file
 681:/home/maxx/STM32Cube/Repository/STM32Cube_FW_L0_V1.11.2/Drivers/STM32L0xx_HAL_Driver/Src/stm32l0xx_hal_pwr.c ****    */ 
 682:/home/maxx/STM32Cube/Repository/STM32Cube_FW_L0_V1.11.2/Drivers/STM32L0xx_HAL_Driver/Src/stm32l0xx_hal_pwr.c **** }
 757              		.loc 1 682 0
 758              		@ sp needed
 759 0000 7047     		bx	lr
 760              		.cfi_endproc
 761              	.LFE50:
ARM GAS  /tmp/ccd53DOt.s 			page 33


 763              		.section	.text.HAL_PWR_PVD_IRQHandler,"ax",%progbits
 764              		.align	1
 765              		.global	HAL_PWR_PVD_IRQHandler
 766              		.syntax unified
 767              		.code	16
 768              		.thumb_func
 769              		.fpu softvfp
 771              	HAL_PWR_PVD_IRQHandler:
 772              	.LFB49:
 661:/home/maxx/STM32Cube/Repository/STM32Cube_FW_L0_V1.11.2/Drivers/STM32L0xx_HAL_Driver/Src/stm32l0xx_hal_pwr.c ****   /* Check PWR exti flag */
 773              		.loc 1 661 0
 774              		.cfi_startproc
 775              		@ args = 0, pretend = 0, frame = 0
 776              		@ frame_needed = 0, uses_anonymous_args = 0
 777 0000 10B5     		push	{r4, lr}
 778              	.LCFI2:
 779              		.cfi_def_cfa_offset 8
 780              		.cfi_offset 4, -8
 781              		.cfi_offset 14, -4
 663:/home/maxx/STM32Cube/Repository/STM32Cube_FW_L0_V1.11.2/Drivers/STM32L0xx_HAL_Driver/Src/stm32l0xx_hal_pwr.c ****   {
 782              		.loc 1 663 0
 783 0002 064B     		ldr	r3, .L60
 784 0004 5B69     		ldr	r3, [r3, #20]
 785 0006 DB03     		lsls	r3, r3, #15
 786 0008 00D4     		bmi	.L59
 787              	.L57:
 671:/home/maxx/STM32Cube/Repository/STM32Cube_FW_L0_V1.11.2/Drivers/STM32L0xx_HAL_Driver/Src/stm32l0xx_hal_pwr.c **** 
 788              		.loc 1 671 0
 789              		@ sp needed
 790 000a 10BD     		pop	{r4, pc}
 791              	.L59:
 666:/home/maxx/STM32Cube/Repository/STM32Cube_FW_L0_V1.11.2/Drivers/STM32L0xx_HAL_Driver/Src/stm32l0xx_hal_pwr.c **** 
 792              		.loc 1 666 0
 793 000c FFF7FEFF 		bl	HAL_PWR_PVDCallback
 794              	.LVL20:
 669:/home/maxx/STM32Cube/Repository/STM32Cube_FW_L0_V1.11.2/Drivers/STM32L0xx_HAL_Driver/Src/stm32l0xx_hal_pwr.c ****   }
 795              		.loc 1 669 0
 796 0010 024B     		ldr	r3, .L60
 797 0012 8022     		movs	r2, #128
 798 0014 5202     		lsls	r2, r2, #9
 799 0016 5A61     		str	r2, [r3, #20]
 671:/home/maxx/STM32Cube/Repository/STM32Cube_FW_L0_V1.11.2/Drivers/STM32L0xx_HAL_Driver/Src/stm32l0xx_hal_pwr.c **** 
 800              		.loc 1 671 0
 801 0018 F7E7     		b	.L57
 802              	.L61:
 803 001a C046     		.align	2
 804              	.L60:
 805 001c 00040140 		.word	1073808384
 806              		.cfi_endproc
 807              	.LFE49:
 809              		.text
 810              	.Letext0:
 811              		.file 3 "/home/maxx/develop/gcc-arm-none-eabi-7-2018-q2-update/arm-none-eabi/include/machine/_defa
 812              		.file 4 "/home/maxx/develop/gcc-arm-none-eabi-7-2018-q2-update/arm-none-eabi/include/sys/_stdint.h
 813              		.file 5 "/home/maxx/STM32Cube/Repository/STM32Cube_FW_L0_V1.11.2/Drivers/CMSIS/Include/core_cm0plu
 814              		.file 6 "/home/maxx/STM32Cube/Repository/STM32Cube_FW_L0_V1.11.2/Drivers/CMSIS/Device/ST/STM32L0xx
 815              		.file 7 "/home/maxx/STM32Cube/Repository/STM32Cube_FW_L0_V1.11.2/Drivers/CMSIS/Device/ST/STM32L0xx
ARM GAS  /tmp/ccd53DOt.s 			page 34


 816              		.file 8 "/home/maxx/STM32Cube/Repository/STM32Cube_FW_L0_V1.11.2/Drivers/STM32L0xx_HAL_Driver/Inc/
 817              		.file 9 "/home/maxx/STM32Cube/Repository/STM32Cube_FW_L0_V1.11.2/Drivers/STM32L0xx_HAL_Driver/Inc/
 818              		.file 10 "/home/maxx/STM32Cube/Repository/STM32Cube_FW_L0_V1.11.2/Drivers/CMSIS/Device/ST/STM32L0x
ARM GAS  /tmp/ccd53DOt.s 			page 35

