ARM GAS  /tmp/ccYpwBuo.s 			page 1


   1              		.cpu cortex-m4
   2              		.eabi_attribute 27, 1
   3              		.eabi_attribute 28, 1
   4              		.eabi_attribute 20, 1
   5              		.eabi_attribute 21, 1
   6              		.eabi_attribute 23, 3
   7              		.eabi_attribute 24, 1
   8              		.eabi_attribute 25, 1
   9              		.eabi_attribute 26, 1
  10              		.eabi_attribute 30, 1
  11              		.eabi_attribute 34, 1
  12              		.eabi_attribute 18, 4
  13              		.file	"spi.c"
  14              		.text
  15              	.Ltext0:
  16              		.cfi_sections	.debug_frame
  17              		.section	.text.MX_SPI3_Init,"ax",%progbits
  18              		.align	1
  19              		.global	MX_SPI3_Init
  20              		.syntax unified
  21              		.thumb
  22              		.thumb_func
  23              		.fpu fpv4-sp-d16
  25              	MX_SPI3_Init:
  26              	.LFB130:
  27              		.file 1 "Src/spi.c"
   1:Src/spi.c     **** /**
   2:Src/spi.c     ****   ******************************************************************************
   3:Src/spi.c     ****   * File Name          : SPI.c
   4:Src/spi.c     ****   * Description        : This file provides code for the configuration
   5:Src/spi.c     ****   *                      of the SPI instances.
   6:Src/spi.c     ****   ******************************************************************************
   7:Src/spi.c     ****   * @attention
   8:Src/spi.c     ****   *
   9:Src/spi.c     ****   * <h2><center>&copy; Copyright (c) 2020 STMicroelectronics.
  10:Src/spi.c     ****   * All rights reserved.</center></h2>
  11:Src/spi.c     ****   *
  12:Src/spi.c     ****   * This software component is licensed by ST under BSD 3-Clause license,
  13:Src/spi.c     ****   * the "License"; You may not use this file except in compliance with the
  14:Src/spi.c     ****   * License. You may obtain a copy of the License at:
  15:Src/spi.c     ****   *                        opensource.org/licenses/BSD-3-Clause
  16:Src/spi.c     ****   *
  17:Src/spi.c     ****   ******************************************************************************
  18:Src/spi.c     ****   */
  19:Src/spi.c     **** 
  20:Src/spi.c     **** /* Includes ------------------------------------------------------------------*/
  21:Src/spi.c     **** #include "spi.h"
  22:Src/spi.c     **** 
  23:Src/spi.c     **** /* USER CODE BEGIN 0 */
  24:Src/spi.c     **** 
  25:Src/spi.c     **** /* USER CODE END 0 */
  26:Src/spi.c     **** 
  27:Src/spi.c     **** SPI_HandleTypeDef hspi3;
  28:Src/spi.c     **** 
  29:Src/spi.c     **** /* SPI3 init function */
  30:Src/spi.c     **** void MX_SPI3_Init(void)
  31:Src/spi.c     **** {
ARM GAS  /tmp/ccYpwBuo.s 			page 2


  28              		.loc 1 31 0
  29              		.cfi_startproc
  30              		@ args = 0, pretend = 0, frame = 0
  31              		@ frame_needed = 0, uses_anonymous_args = 0
  32 0000 08B5     		push	{r3, lr}
  33              	.LCFI0:
  34              		.cfi_def_cfa_offset 8
  35              		.cfi_offset 3, -8
  36              		.cfi_offset 14, -4
  32:Src/spi.c     **** 
  33:Src/spi.c     ****   hspi3.Instance = SPI3;
  37              		.loc 1 33 0
  38 0002 0D48     		ldr	r0, .L5
  39 0004 0D4B     		ldr	r3, .L5+4
  40 0006 0360     		str	r3, [r0]
  34:Src/spi.c     ****   hspi3.Init.Mode = SPI_MODE_MASTER;
  41              		.loc 1 34 0
  42 0008 4FF48273 		mov	r3, #260
  43 000c 4360     		str	r3, [r0, #4]
  35:Src/spi.c     ****   hspi3.Init.Direction = SPI_DIRECTION_2LINES;
  44              		.loc 1 35 0
  45 000e 0023     		movs	r3, #0
  46 0010 8360     		str	r3, [r0, #8]
  36:Src/spi.c     ****   hspi3.Init.DataSize = SPI_DATASIZE_8BIT;
  47              		.loc 1 36 0
  48 0012 C360     		str	r3, [r0, #12]
  37:Src/spi.c     ****   hspi3.Init.CLKPolarity = SPI_POLARITY_LOW;
  49              		.loc 1 37 0
  50 0014 0361     		str	r3, [r0, #16]
  38:Src/spi.c     ****   hspi3.Init.CLKPhase = SPI_PHASE_1EDGE;
  51              		.loc 1 38 0
  52 0016 4361     		str	r3, [r0, #20]
  39:Src/spi.c     ****   hspi3.Init.NSS = SPI_NSS_SOFT;
  53              		.loc 1 39 0
  54 0018 4FF40072 		mov	r2, #512
  55 001c 8261     		str	r2, [r0, #24]
  40:Src/spi.c     ****   hspi3.Init.BaudRatePrescaler = SPI_BAUDRATEPRESCALER_2;
  56              		.loc 1 40 0
  57 001e C361     		str	r3, [r0, #28]
  41:Src/spi.c     ****   hspi3.Init.FirstBit = SPI_FIRSTBIT_MSB;
  58              		.loc 1 41 0
  59 0020 0362     		str	r3, [r0, #32]
  42:Src/spi.c     ****   hspi3.Init.TIMode = SPI_TIMODE_DISABLE;
  60              		.loc 1 42 0
  61 0022 4362     		str	r3, [r0, #36]
  43:Src/spi.c     ****   hspi3.Init.CRCCalculation = SPI_CRCCALCULATION_DISABLE;
  62              		.loc 1 43 0
  63 0024 8362     		str	r3, [r0, #40]
  44:Src/spi.c     ****   hspi3.Init.CRCPolynomial = 10;
  64              		.loc 1 44 0
  65 0026 0A23     		movs	r3, #10
  66 0028 C362     		str	r3, [r0, #44]
  45:Src/spi.c     ****   if (HAL_SPI_Init(&hspi3) != HAL_OK)
  67              		.loc 1 45 0
  68 002a FFF7FEFF 		bl	HAL_SPI_Init
  69              	.LVL0:
  70 002e 00B9     		cbnz	r0, .L4
ARM GAS  /tmp/ccYpwBuo.s 			page 3


  71              	.L1:
  46:Src/spi.c     ****   {
  47:Src/spi.c     ****     Error_Handler();
  48:Src/spi.c     ****   }
  49:Src/spi.c     **** 
  50:Src/spi.c     **** }
  72              		.loc 1 50 0
  73 0030 08BD     		pop	{r3, pc}
  74              	.L4:
  47:Src/spi.c     ****   }
  75              		.loc 1 47 0
  76 0032 FFF7FEFF 		bl	Error_Handler
  77              	.LVL1:
  78              		.loc 1 50 0
  79 0036 FBE7     		b	.L1
  80              	.L6:
  81              		.align	2
  82              	.L5:
  83 0038 00000000 		.word	hspi3
  84 003c 003C0040 		.word	1073757184
  85              		.cfi_endproc
  86              	.LFE130:
  88              		.section	.text.HAL_SPI_MspInit,"ax",%progbits
  89              		.align	1
  90              		.global	HAL_SPI_MspInit
  91              		.syntax unified
  92              		.thumb
  93              		.thumb_func
  94              		.fpu fpv4-sp-d16
  96              	HAL_SPI_MspInit:
  97              	.LFB131:
  51:Src/spi.c     **** 
  52:Src/spi.c     **** void HAL_SPI_MspInit(SPI_HandleTypeDef* spiHandle)
  53:Src/spi.c     **** {
  98              		.loc 1 53 0
  99              		.cfi_startproc
 100              		@ args = 0, pretend = 0, frame = 32
 101              		@ frame_needed = 0, uses_anonymous_args = 0
 102              	.LVL2:
 103 0000 00B5     		push	{lr}
 104              	.LCFI1:
 105              		.cfi_def_cfa_offset 4
 106              		.cfi_offset 14, -4
 107 0002 89B0     		sub	sp, sp, #36
 108              	.LCFI2:
 109              		.cfi_def_cfa_offset 40
  54:Src/spi.c     **** 
  55:Src/spi.c     ****   GPIO_InitTypeDef GPIO_InitStruct = {0};
 110              		.loc 1 55 0
 111 0004 0023     		movs	r3, #0
 112 0006 0393     		str	r3, [sp, #12]
 113 0008 0493     		str	r3, [sp, #16]
 114 000a 0593     		str	r3, [sp, #20]
 115 000c 0693     		str	r3, [sp, #24]
 116 000e 0793     		str	r3, [sp, #28]
  56:Src/spi.c     ****   if(spiHandle->Instance==SPI3)
 117              		.loc 1 56 0
ARM GAS  /tmp/ccYpwBuo.s 			page 4


 118 0010 0268     		ldr	r2, [r0]
 119 0012 154B     		ldr	r3, .L11
 120 0014 9A42     		cmp	r2, r3
 121 0016 02D0     		beq	.L10
 122              	.LVL3:
 123              	.L7:
  57:Src/spi.c     ****   {
  58:Src/spi.c     ****   /* USER CODE BEGIN SPI3_MspInit 0 */
  59:Src/spi.c     **** 
  60:Src/spi.c     ****   /* USER CODE END SPI3_MspInit 0 */
  61:Src/spi.c     ****     /* SPI3 clock enable */
  62:Src/spi.c     ****     __HAL_RCC_SPI3_CLK_ENABLE();
  63:Src/spi.c     ****   
  64:Src/spi.c     ****     __HAL_RCC_GPIOC_CLK_ENABLE();
  65:Src/spi.c     ****     /**SPI3 GPIO Configuration    
  66:Src/spi.c     ****     PC10     ------> SPI3_SCK
  67:Src/spi.c     ****     PC11     ------> SPI3_MISO
  68:Src/spi.c     ****     PC12     ------> SPI3_MOSI 
  69:Src/spi.c     ****     */
  70:Src/spi.c     ****     GPIO_InitStruct.Pin = GPIO_PIN_10|GPIO_PIN_11|GPIO_PIN_12;
  71:Src/spi.c     ****     GPIO_InitStruct.Mode = GPIO_MODE_AF_PP;
  72:Src/spi.c     ****     GPIO_InitStruct.Pull = GPIO_NOPULL;
  73:Src/spi.c     ****     GPIO_InitStruct.Speed = GPIO_SPEED_FREQ_VERY_HIGH;
  74:Src/spi.c     ****     GPIO_InitStruct.Alternate = GPIO_AF6_SPI3;
  75:Src/spi.c     ****     HAL_GPIO_Init(GPIOC, &GPIO_InitStruct);
  76:Src/spi.c     **** 
  77:Src/spi.c     ****   /* USER CODE BEGIN SPI3_MspInit 1 */
  78:Src/spi.c     **** 
  79:Src/spi.c     ****   /* USER CODE END SPI3_MspInit 1 */
  80:Src/spi.c     ****   }
  81:Src/spi.c     **** }
 124              		.loc 1 81 0
 125 0018 09B0     		add	sp, sp, #36
 126              	.LCFI3:
 127              		.cfi_remember_state
 128              		.cfi_def_cfa_offset 4
 129              		@ sp needed
 130 001a 5DF804FB 		ldr	pc, [sp], #4
 131              	.LVL4:
 132              	.L10:
 133              	.LCFI4:
 134              		.cfi_restore_state
 135              	.LBB2:
  62:Src/spi.c     ****   
 136              		.loc 1 62 0
 137 001e 0021     		movs	r1, #0
 138 0020 0191     		str	r1, [sp, #4]
 139 0022 03F5FE33 		add	r3, r3, #130048
 140 0026 1A6C     		ldr	r2, [r3, #64]
 141 0028 42F40042 		orr	r2, r2, #32768
 142 002c 1A64     		str	r2, [r3, #64]
 143 002e 1A6C     		ldr	r2, [r3, #64]
 144 0030 02F40042 		and	r2, r2, #32768
 145 0034 0192     		str	r2, [sp, #4]
 146 0036 019A     		ldr	r2, [sp, #4]
 147              	.LBE2:
 148              	.LBB3:
ARM GAS  /tmp/ccYpwBuo.s 			page 5


  64:Src/spi.c     ****     /**SPI3 GPIO Configuration    
 149              		.loc 1 64 0
 150 0038 0291     		str	r1, [sp, #8]
 151 003a 1A6B     		ldr	r2, [r3, #48]
 152 003c 42F00402 		orr	r2, r2, #4
 153 0040 1A63     		str	r2, [r3, #48]
 154 0042 1B6B     		ldr	r3, [r3, #48]
 155 0044 03F00403 		and	r3, r3, #4
 156 0048 0293     		str	r3, [sp, #8]
 157 004a 029B     		ldr	r3, [sp, #8]
 158              	.LBE3:
  70:Src/spi.c     ****     GPIO_InitStruct.Mode = GPIO_MODE_AF_PP;
 159              		.loc 1 70 0
 160 004c 4FF4E053 		mov	r3, #7168
 161 0050 0393     		str	r3, [sp, #12]
  71:Src/spi.c     ****     GPIO_InitStruct.Pull = GPIO_NOPULL;
 162              		.loc 1 71 0
 163 0052 0223     		movs	r3, #2
 164 0054 0493     		str	r3, [sp, #16]
  73:Src/spi.c     ****     GPIO_InitStruct.Alternate = GPIO_AF6_SPI3;
 165              		.loc 1 73 0
 166 0056 0323     		movs	r3, #3
 167 0058 0693     		str	r3, [sp, #24]
  74:Src/spi.c     ****     HAL_GPIO_Init(GPIOC, &GPIO_InitStruct);
 168              		.loc 1 74 0
 169 005a 0623     		movs	r3, #6
 170 005c 0793     		str	r3, [sp, #28]
  75:Src/spi.c     **** 
 171              		.loc 1 75 0
 172 005e 03A9     		add	r1, sp, #12
 173 0060 0248     		ldr	r0, .L11+4
 174              	.LVL5:
 175 0062 FFF7FEFF 		bl	HAL_GPIO_Init
 176              	.LVL6:
 177              		.loc 1 81 0
 178 0066 D7E7     		b	.L7
 179              	.L12:
 180              		.align	2
 181              	.L11:
 182 0068 003C0040 		.word	1073757184
 183 006c 00080240 		.word	1073874944
 184              		.cfi_endproc
 185              	.LFE131:
 187              		.section	.text.HAL_SPI_MspDeInit,"ax",%progbits
 188              		.align	1
 189              		.global	HAL_SPI_MspDeInit
 190              		.syntax unified
 191              		.thumb
 192              		.thumb_func
 193              		.fpu fpv4-sp-d16
 195              	HAL_SPI_MspDeInit:
 196              	.LFB132:
  82:Src/spi.c     **** 
  83:Src/spi.c     **** void HAL_SPI_MspDeInit(SPI_HandleTypeDef* spiHandle)
  84:Src/spi.c     **** {
 197              		.loc 1 84 0
 198              		.cfi_startproc
ARM GAS  /tmp/ccYpwBuo.s 			page 6


 199              		@ args = 0, pretend = 0, frame = 0
 200              		@ frame_needed = 0, uses_anonymous_args = 0
 201              	.LVL7:
 202 0000 08B5     		push	{r3, lr}
 203              	.LCFI5:
 204              		.cfi_def_cfa_offset 8
 205              		.cfi_offset 3, -8
 206              		.cfi_offset 14, -4
  85:Src/spi.c     **** 
  86:Src/spi.c     ****   if(spiHandle->Instance==SPI3)
 207              		.loc 1 86 0
 208 0002 0268     		ldr	r2, [r0]
 209 0004 074B     		ldr	r3, .L17
 210 0006 9A42     		cmp	r2, r3
 211 0008 00D0     		beq	.L16
 212              	.LVL8:
 213              	.L13:
  87:Src/spi.c     ****   {
  88:Src/spi.c     ****   /* USER CODE BEGIN SPI3_MspDeInit 0 */
  89:Src/spi.c     **** 
  90:Src/spi.c     ****   /* USER CODE END SPI3_MspDeInit 0 */
  91:Src/spi.c     ****     /* Peripheral clock disable */
  92:Src/spi.c     ****     __HAL_RCC_SPI3_CLK_DISABLE();
  93:Src/spi.c     ****   
  94:Src/spi.c     ****     /**SPI3 GPIO Configuration    
  95:Src/spi.c     ****     PC10     ------> SPI3_SCK
  96:Src/spi.c     ****     PC11     ------> SPI3_MISO
  97:Src/spi.c     ****     PC12     ------> SPI3_MOSI 
  98:Src/spi.c     ****     */
  99:Src/spi.c     ****     HAL_GPIO_DeInit(GPIOC, GPIO_PIN_10|GPIO_PIN_11|GPIO_PIN_12);
 100:Src/spi.c     **** 
 101:Src/spi.c     ****   /* USER CODE BEGIN SPI3_MspDeInit 1 */
 102:Src/spi.c     **** 
 103:Src/spi.c     ****   /* USER CODE END SPI3_MspDeInit 1 */
 104:Src/spi.c     ****   }
 105:Src/spi.c     **** } 
 214              		.loc 1 105 0
 215 000a 08BD     		pop	{r3, pc}
 216              	.LVL9:
 217              	.L16:
  92:Src/spi.c     ****   
 218              		.loc 1 92 0
 219 000c 064A     		ldr	r2, .L17+4
 220 000e 136C     		ldr	r3, [r2, #64]
 221 0010 23F40043 		bic	r3, r3, #32768
 222 0014 1364     		str	r3, [r2, #64]
  99:Src/spi.c     **** 
 223              		.loc 1 99 0
 224 0016 4FF4E051 		mov	r1, #7168
 225 001a 0448     		ldr	r0, .L17+8
 226              	.LVL10:
 227 001c FFF7FEFF 		bl	HAL_GPIO_DeInit
 228              	.LVL11:
 229              		.loc 1 105 0
 230 0020 F3E7     		b	.L13
 231              	.L18:
 232 0022 00BF     		.align	2
ARM GAS  /tmp/ccYpwBuo.s 			page 7


 233              	.L17:
 234 0024 003C0040 		.word	1073757184
 235 0028 00380240 		.word	1073887232
 236 002c 00080240 		.word	1073874944
 237              		.cfi_endproc
 238              	.LFE132:
 240              		.comm	hspi3,88,4
 241              		.text
 242              	.Letext0:
 243              		.file 2 "/home/maxx/develop/gcc-arm-none-eabi-7-2018-q2-update/arm-none-eabi/include/machine/_defa
 244              		.file 3 "/home/maxx/develop/gcc-arm-none-eabi-7-2018-q2-update/arm-none-eabi/include/sys/_stdint.h
 245              		.file 4 "Drivers/CMSIS/Include/core_cm4.h"
 246              		.file 5 "Drivers/CMSIS/Device/ST/STM32F4xx/Include/system_stm32f4xx.h"
 247              		.file 6 "Drivers/CMSIS/Device/ST/STM32F4xx/Include/stm32f401xe.h"
 248              		.file 7 "Drivers/STM32F4xx_HAL_Driver/Inc/stm32f4xx_hal_def.h"
 249              		.file 8 "Drivers/STM32F4xx_HAL_Driver/Inc/stm32f4xx_hal_gpio.h"
 250              		.file 9 "Drivers/STM32F4xx_HAL_Driver/Inc/stm32f4xx_hal_dma.h"
 251              		.file 10 "Drivers/STM32F4xx_HAL_Driver/Inc/stm32f4xx_hal_spi.h"
 252              		.file 11 "Drivers/STM32F4xx_HAL_Driver/Inc/stm32f4xx_hal.h"
 253              		.file 12 "Inc/spi.h"
 254              		.file 13 "Inc/main.h"
ARM GAS  /tmp/ccYpwBuo.s 			page 8

