ARM GAS  /tmp/ccZFdKv2.s 			page 1


   1              		.cpu cortex-m3
   2              		.eabi_attribute 20, 1
   3              		.eabi_attribute 21, 1
   4              		.eabi_attribute 23, 3
   5              		.eabi_attribute 24, 1
   6              		.eabi_attribute 25, 1
   7              		.eabi_attribute 26, 1
   8              		.eabi_attribute 30, 1
   9              		.eabi_attribute 34, 1
  10              		.eabi_attribute 18, 4
  11              		.file	"stm32f1xx_hal_sram.c"
  12              		.text
  13              	.Ltext0:
  14              		.cfi_sections	.debug_frame
  15              		.section	.text.HAL_SRAM_MspInit,"ax",%progbits
  16              		.align	1
  17              		.weak	HAL_SRAM_MspInit
  18              		.arch armv7-m
  19              		.syntax unified
  20              		.thumb
  21              		.thumb_func
  22              		.fpu softvfp
  24              	HAL_SRAM_MspInit:
  25              	.LVL0:
  26              	.LFB67:
  27              		.file 1 "Drivers/STM32F1xx_HAL_Driver/Src/stm32f1xx_hal_sram.c"
   1:Drivers/STM32F1xx_HAL_Driver/Src/stm32f1xx_hal_sram.c **** /**
   2:Drivers/STM32F1xx_HAL_Driver/Src/stm32f1xx_hal_sram.c ****   ******************************************************************************
   3:Drivers/STM32F1xx_HAL_Driver/Src/stm32f1xx_hal_sram.c ****   * @file    stm32f1xx_hal_sram.c
   4:Drivers/STM32F1xx_HAL_Driver/Src/stm32f1xx_hal_sram.c ****   * @author  MCD Application Team
   5:Drivers/STM32F1xx_HAL_Driver/Src/stm32f1xx_hal_sram.c ****   * @brief   SRAM HAL module driver.
   6:Drivers/STM32F1xx_HAL_Driver/Src/stm32f1xx_hal_sram.c ****   *          This file provides a generic firmware to drive SRAM memories
   7:Drivers/STM32F1xx_HAL_Driver/Src/stm32f1xx_hal_sram.c ****   *          mounted as external device.
   8:Drivers/STM32F1xx_HAL_Driver/Src/stm32f1xx_hal_sram.c ****   *
   9:Drivers/STM32F1xx_HAL_Driver/Src/stm32f1xx_hal_sram.c ****   @verbatim
  10:Drivers/STM32F1xx_HAL_Driver/Src/stm32f1xx_hal_sram.c ****   ==============================================================================
  11:Drivers/STM32F1xx_HAL_Driver/Src/stm32f1xx_hal_sram.c ****                           ##### How to use this driver #####
  12:Drivers/STM32F1xx_HAL_Driver/Src/stm32f1xx_hal_sram.c ****   ==============================================================================
  13:Drivers/STM32F1xx_HAL_Driver/Src/stm32f1xx_hal_sram.c ****   [..]
  14:Drivers/STM32F1xx_HAL_Driver/Src/stm32f1xx_hal_sram.c ****     This driver is a generic layered driver which contains a set of APIs used to
  15:Drivers/STM32F1xx_HAL_Driver/Src/stm32f1xx_hal_sram.c ****     control SRAM memories. It uses the FSMC layer functions to interface
  16:Drivers/STM32F1xx_HAL_Driver/Src/stm32f1xx_hal_sram.c ****     with SRAM devices.
  17:Drivers/STM32F1xx_HAL_Driver/Src/stm32f1xx_hal_sram.c ****     The following sequence should be followed to configure the FSMC to interface
  18:Drivers/STM32F1xx_HAL_Driver/Src/stm32f1xx_hal_sram.c ****     with SRAM/PSRAM memories:
  19:Drivers/STM32F1xx_HAL_Driver/Src/stm32f1xx_hal_sram.c **** 
  20:Drivers/STM32F1xx_HAL_Driver/Src/stm32f1xx_hal_sram.c ****    (#) Declare a SRAM_HandleTypeDef handle structure, for example:
  21:Drivers/STM32F1xx_HAL_Driver/Src/stm32f1xx_hal_sram.c ****           SRAM_HandleTypeDef  hsram; and:
  22:Drivers/STM32F1xx_HAL_Driver/Src/stm32f1xx_hal_sram.c **** 
  23:Drivers/STM32F1xx_HAL_Driver/Src/stm32f1xx_hal_sram.c ****        (++) Fill the SRAM_HandleTypeDef handle "Init" field with the allowed
  24:Drivers/STM32F1xx_HAL_Driver/Src/stm32f1xx_hal_sram.c ****             values of the structure member.
  25:Drivers/STM32F1xx_HAL_Driver/Src/stm32f1xx_hal_sram.c **** 
  26:Drivers/STM32F1xx_HAL_Driver/Src/stm32f1xx_hal_sram.c ****        (++) Fill the SRAM_HandleTypeDef handle "Instance" field with a predefined
  27:Drivers/STM32F1xx_HAL_Driver/Src/stm32f1xx_hal_sram.c ****             base register instance for NOR or SRAM device
  28:Drivers/STM32F1xx_HAL_Driver/Src/stm32f1xx_hal_sram.c **** 
  29:Drivers/STM32F1xx_HAL_Driver/Src/stm32f1xx_hal_sram.c ****        (++) Fill the SRAM_HandleTypeDef handle "Extended" field with a predefined
  30:Drivers/STM32F1xx_HAL_Driver/Src/stm32f1xx_hal_sram.c ****             base register instance for NOR or SRAM extended mode
  31:Drivers/STM32F1xx_HAL_Driver/Src/stm32f1xx_hal_sram.c **** 
ARM GAS  /tmp/ccZFdKv2.s 			page 2


  32:Drivers/STM32F1xx_HAL_Driver/Src/stm32f1xx_hal_sram.c ****    (#) Declare two FSMC_NORSRAM_TimingTypeDef structures, for both normal and extended
  33:Drivers/STM32F1xx_HAL_Driver/Src/stm32f1xx_hal_sram.c ****        mode timings; for example:
  34:Drivers/STM32F1xx_HAL_Driver/Src/stm32f1xx_hal_sram.c ****           FSMC_NORSRAM_TimingTypeDef  Timing and FSMC_NORSRAM_TimingTypeDef  ExTiming;
  35:Drivers/STM32F1xx_HAL_Driver/Src/stm32f1xx_hal_sram.c ****       and fill its fields with the allowed values of the structure member.
  36:Drivers/STM32F1xx_HAL_Driver/Src/stm32f1xx_hal_sram.c **** 
  37:Drivers/STM32F1xx_HAL_Driver/Src/stm32f1xx_hal_sram.c ****    (#) Initialize the SRAM Controller by calling the function HAL_SRAM_Init(). This function
  38:Drivers/STM32F1xx_HAL_Driver/Src/stm32f1xx_hal_sram.c ****        performs the following sequence:
  39:Drivers/STM32F1xx_HAL_Driver/Src/stm32f1xx_hal_sram.c **** 
  40:Drivers/STM32F1xx_HAL_Driver/Src/stm32f1xx_hal_sram.c ****        (##) MSP hardware layer configuration using the function HAL_SRAM_MspInit()
  41:Drivers/STM32F1xx_HAL_Driver/Src/stm32f1xx_hal_sram.c ****        (##) Control register configuration using the FSMC NORSRAM interface function
  42:Drivers/STM32F1xx_HAL_Driver/Src/stm32f1xx_hal_sram.c ****             FSMC_NORSRAM_Init()
  43:Drivers/STM32F1xx_HAL_Driver/Src/stm32f1xx_hal_sram.c ****        (##) Timing register configuration using the FSMC NORSRAM interface function
  44:Drivers/STM32F1xx_HAL_Driver/Src/stm32f1xx_hal_sram.c ****             FSMC_NORSRAM_Timing_Init()
  45:Drivers/STM32F1xx_HAL_Driver/Src/stm32f1xx_hal_sram.c ****        (##) Extended mode Timing register configuration using the FSMC NORSRAM interface function
  46:Drivers/STM32F1xx_HAL_Driver/Src/stm32f1xx_hal_sram.c ****             FSMC_NORSRAM_Extended_Timing_Init()
  47:Drivers/STM32F1xx_HAL_Driver/Src/stm32f1xx_hal_sram.c ****        (##) Enable the SRAM device using the macro __FSMC_NORSRAM_ENABLE()
  48:Drivers/STM32F1xx_HAL_Driver/Src/stm32f1xx_hal_sram.c **** 
  49:Drivers/STM32F1xx_HAL_Driver/Src/stm32f1xx_hal_sram.c ****    (#) At this stage you can perform read/write accesses from/to the memory connected
  50:Drivers/STM32F1xx_HAL_Driver/Src/stm32f1xx_hal_sram.c ****        to the NOR/SRAM Bank. You can perform either polling or DMA transfer using the
  51:Drivers/STM32F1xx_HAL_Driver/Src/stm32f1xx_hal_sram.c ****        following APIs:
  52:Drivers/STM32F1xx_HAL_Driver/Src/stm32f1xx_hal_sram.c ****        (++) HAL_SRAM_Read()/HAL_SRAM_Write() for polling read/write access
  53:Drivers/STM32F1xx_HAL_Driver/Src/stm32f1xx_hal_sram.c ****        (++) HAL_SRAM_Read_DMA()/HAL_SRAM_Write_DMA() for DMA read/write transfer
  54:Drivers/STM32F1xx_HAL_Driver/Src/stm32f1xx_hal_sram.c **** 
  55:Drivers/STM32F1xx_HAL_Driver/Src/stm32f1xx_hal_sram.c ****    (#) You can also control the SRAM device by calling the control APIs HAL_SRAM_WriteOperation_Ena
  56:Drivers/STM32F1xx_HAL_Driver/Src/stm32f1xx_hal_sram.c ****        HAL_SRAM_WriteOperation_Disable() to respectively enable/disable the SRAM write operation
  57:Drivers/STM32F1xx_HAL_Driver/Src/stm32f1xx_hal_sram.c **** 
  58:Drivers/STM32F1xx_HAL_Driver/Src/stm32f1xx_hal_sram.c ****    (#) You can continuously monitor the SRAM device HAL state by calling the function
  59:Drivers/STM32F1xx_HAL_Driver/Src/stm32f1xx_hal_sram.c ****        HAL_SRAM_GetState()
  60:Drivers/STM32F1xx_HAL_Driver/Src/stm32f1xx_hal_sram.c **** 
  61:Drivers/STM32F1xx_HAL_Driver/Src/stm32f1xx_hal_sram.c ****        *** Callback registration ***
  62:Drivers/STM32F1xx_HAL_Driver/Src/stm32f1xx_hal_sram.c ****     =============================================
  63:Drivers/STM32F1xx_HAL_Driver/Src/stm32f1xx_hal_sram.c ****     [..]
  64:Drivers/STM32F1xx_HAL_Driver/Src/stm32f1xx_hal_sram.c ****       The compilation define  USE_HAL_SRAM_REGISTER_CALLBACKS when set to 1
  65:Drivers/STM32F1xx_HAL_Driver/Src/stm32f1xx_hal_sram.c ****       allows the user to configure dynamically the driver callbacks.
  66:Drivers/STM32F1xx_HAL_Driver/Src/stm32f1xx_hal_sram.c **** 
  67:Drivers/STM32F1xx_HAL_Driver/Src/stm32f1xx_hal_sram.c ****       Use Functions @ref HAL_SRAM_RegisterCallback() to register a user callback,
  68:Drivers/STM32F1xx_HAL_Driver/Src/stm32f1xx_hal_sram.c ****       it allows to register following callbacks:
  69:Drivers/STM32F1xx_HAL_Driver/Src/stm32f1xx_hal_sram.c ****         (+) MspInitCallback    : SRAM MspInit.
  70:Drivers/STM32F1xx_HAL_Driver/Src/stm32f1xx_hal_sram.c ****         (+) MspDeInitCallback  : SRAM MspDeInit.
  71:Drivers/STM32F1xx_HAL_Driver/Src/stm32f1xx_hal_sram.c ****       This function takes as parameters the HAL peripheral handle, the Callback ID
  72:Drivers/STM32F1xx_HAL_Driver/Src/stm32f1xx_hal_sram.c ****       and a pointer to the user callback function.
  73:Drivers/STM32F1xx_HAL_Driver/Src/stm32f1xx_hal_sram.c **** 
  74:Drivers/STM32F1xx_HAL_Driver/Src/stm32f1xx_hal_sram.c ****       Use function @ref HAL_SRAM_UnRegisterCallback() to reset a callback to the default
  75:Drivers/STM32F1xx_HAL_Driver/Src/stm32f1xx_hal_sram.c ****       weak (surcharged) function. It allows to reset following callbacks:
  76:Drivers/STM32F1xx_HAL_Driver/Src/stm32f1xx_hal_sram.c ****         (+) MspInitCallback    : SRAM MspInit.
  77:Drivers/STM32F1xx_HAL_Driver/Src/stm32f1xx_hal_sram.c ****         (+) MspDeInitCallback  : SRAM MspDeInit.
  78:Drivers/STM32F1xx_HAL_Driver/Src/stm32f1xx_hal_sram.c ****       This function) takes as parameters the HAL peripheral handle and the Callback ID.
  79:Drivers/STM32F1xx_HAL_Driver/Src/stm32f1xx_hal_sram.c **** 
  80:Drivers/STM32F1xx_HAL_Driver/Src/stm32f1xx_hal_sram.c ****       By default, after the @ref HAL_SRAM_Init and if the state is HAL_SRAM_STATE_RESET
  81:Drivers/STM32F1xx_HAL_Driver/Src/stm32f1xx_hal_sram.c ****       all callbacks are reset to the corresponding legacy weak (surcharged) functions.
  82:Drivers/STM32F1xx_HAL_Driver/Src/stm32f1xx_hal_sram.c ****       Exception done for MspInit and MspDeInit callbacks that are respectively
  83:Drivers/STM32F1xx_HAL_Driver/Src/stm32f1xx_hal_sram.c ****       reset to the legacy weak (surcharged) functions in the @ref HAL_SRAM_Init
  84:Drivers/STM32F1xx_HAL_Driver/Src/stm32f1xx_hal_sram.c ****       and @ref  HAL_SRAM_DeInit only when these callbacks are null (not registered beforehand).
  85:Drivers/STM32F1xx_HAL_Driver/Src/stm32f1xx_hal_sram.c ****       If not, MspInit or MspDeInit are not null, the @ref HAL_SRAM_Init and @ref HAL_SRAM_DeInit
  86:Drivers/STM32F1xx_HAL_Driver/Src/stm32f1xx_hal_sram.c ****       keep and use the user MspInit/MspDeInit callbacks (registered beforehand)
  87:Drivers/STM32F1xx_HAL_Driver/Src/stm32f1xx_hal_sram.c **** 
  88:Drivers/STM32F1xx_HAL_Driver/Src/stm32f1xx_hal_sram.c ****       Callbacks can be registered/unregistered in READY state only.
ARM GAS  /tmp/ccZFdKv2.s 			page 3


  89:Drivers/STM32F1xx_HAL_Driver/Src/stm32f1xx_hal_sram.c ****       Exception done for MspInit/MspDeInit callbacks that can be registered/unregistered
  90:Drivers/STM32F1xx_HAL_Driver/Src/stm32f1xx_hal_sram.c ****       in READY or RESET state, thus registered (user) MspInit/DeInit callbacks can be used
  91:Drivers/STM32F1xx_HAL_Driver/Src/stm32f1xx_hal_sram.c ****       during the Init/DeInit.
  92:Drivers/STM32F1xx_HAL_Driver/Src/stm32f1xx_hal_sram.c ****       In that case first register the MspInit/MspDeInit user callbacks
  93:Drivers/STM32F1xx_HAL_Driver/Src/stm32f1xx_hal_sram.c ****       using @ref HAL_SRAM_RegisterCallback before calling @ref HAL_SRAM_DeInit
  94:Drivers/STM32F1xx_HAL_Driver/Src/stm32f1xx_hal_sram.c ****       or @ref HAL_SRAM_Init function.
  95:Drivers/STM32F1xx_HAL_Driver/Src/stm32f1xx_hal_sram.c **** 
  96:Drivers/STM32F1xx_HAL_Driver/Src/stm32f1xx_hal_sram.c ****       When The compilation define USE_HAL_SRAM_REGISTER_CALLBACKS is set to 0 or
  97:Drivers/STM32F1xx_HAL_Driver/Src/stm32f1xx_hal_sram.c ****       not defined, the callback registering feature is not available
  98:Drivers/STM32F1xx_HAL_Driver/Src/stm32f1xx_hal_sram.c ****       and weak (surcharged) callbacks are used.
  99:Drivers/STM32F1xx_HAL_Driver/Src/stm32f1xx_hal_sram.c **** 
 100:Drivers/STM32F1xx_HAL_Driver/Src/stm32f1xx_hal_sram.c ****   @endverbatim
 101:Drivers/STM32F1xx_HAL_Driver/Src/stm32f1xx_hal_sram.c ****   ******************************************************************************
 102:Drivers/STM32F1xx_HAL_Driver/Src/stm32f1xx_hal_sram.c ****   * @attention
 103:Drivers/STM32F1xx_HAL_Driver/Src/stm32f1xx_hal_sram.c ****   *
 104:Drivers/STM32F1xx_HAL_Driver/Src/stm32f1xx_hal_sram.c ****   * <h2><center>&copy; Copyright (c) 2016 STMicroelectronics.
 105:Drivers/STM32F1xx_HAL_Driver/Src/stm32f1xx_hal_sram.c ****   * All rights reserved.</center></h2>
 106:Drivers/STM32F1xx_HAL_Driver/Src/stm32f1xx_hal_sram.c ****   *
 107:Drivers/STM32F1xx_HAL_Driver/Src/stm32f1xx_hal_sram.c ****   * This software component is licensed by ST under BSD 3-Clause license,
 108:Drivers/STM32F1xx_HAL_Driver/Src/stm32f1xx_hal_sram.c ****   * the "License"; You may not use this file except in compliance with the
 109:Drivers/STM32F1xx_HAL_Driver/Src/stm32f1xx_hal_sram.c ****   * License. You may obtain a copy of the License at:
 110:Drivers/STM32F1xx_HAL_Driver/Src/stm32f1xx_hal_sram.c ****   *                       opensource.org/licenses/BSD-3-Clause
 111:Drivers/STM32F1xx_HAL_Driver/Src/stm32f1xx_hal_sram.c ****   *
 112:Drivers/STM32F1xx_HAL_Driver/Src/stm32f1xx_hal_sram.c ****   ******************************************************************************
 113:Drivers/STM32F1xx_HAL_Driver/Src/stm32f1xx_hal_sram.c ****   */
 114:Drivers/STM32F1xx_HAL_Driver/Src/stm32f1xx_hal_sram.c **** 
 115:Drivers/STM32F1xx_HAL_Driver/Src/stm32f1xx_hal_sram.c **** /* Includes ------------------------------------------------------------------*/
 116:Drivers/STM32F1xx_HAL_Driver/Src/stm32f1xx_hal_sram.c **** #include "stm32f1xx_hal.h"
 117:Drivers/STM32F1xx_HAL_Driver/Src/stm32f1xx_hal_sram.c **** 
 118:Drivers/STM32F1xx_HAL_Driver/Src/stm32f1xx_hal_sram.c **** #if defined FSMC_BANK1
 119:Drivers/STM32F1xx_HAL_Driver/Src/stm32f1xx_hal_sram.c **** 
 120:Drivers/STM32F1xx_HAL_Driver/Src/stm32f1xx_hal_sram.c **** /** @addtogroup STM32F1xx_HAL_Driver
 121:Drivers/STM32F1xx_HAL_Driver/Src/stm32f1xx_hal_sram.c ****   * @{
 122:Drivers/STM32F1xx_HAL_Driver/Src/stm32f1xx_hal_sram.c ****   */
 123:Drivers/STM32F1xx_HAL_Driver/Src/stm32f1xx_hal_sram.c **** 
 124:Drivers/STM32F1xx_HAL_Driver/Src/stm32f1xx_hal_sram.c **** #ifdef HAL_SRAM_MODULE_ENABLED
 125:Drivers/STM32F1xx_HAL_Driver/Src/stm32f1xx_hal_sram.c **** 
 126:Drivers/STM32F1xx_HAL_Driver/Src/stm32f1xx_hal_sram.c **** /** @defgroup SRAM SRAM
 127:Drivers/STM32F1xx_HAL_Driver/Src/stm32f1xx_hal_sram.c ****   * @brief SRAM driver modules
 128:Drivers/STM32F1xx_HAL_Driver/Src/stm32f1xx_hal_sram.c ****   * @{
 129:Drivers/STM32F1xx_HAL_Driver/Src/stm32f1xx_hal_sram.c ****   */
 130:Drivers/STM32F1xx_HAL_Driver/Src/stm32f1xx_hal_sram.c **** 
 131:Drivers/STM32F1xx_HAL_Driver/Src/stm32f1xx_hal_sram.c **** /**
 132:Drivers/STM32F1xx_HAL_Driver/Src/stm32f1xx_hal_sram.c ****   @cond 0
 133:Drivers/STM32F1xx_HAL_Driver/Src/stm32f1xx_hal_sram.c ****   */
 134:Drivers/STM32F1xx_HAL_Driver/Src/stm32f1xx_hal_sram.c **** /* Private typedef -----------------------------------------------------------*/
 135:Drivers/STM32F1xx_HAL_Driver/Src/stm32f1xx_hal_sram.c **** /* Private define ------------------------------------------------------------*/
 136:Drivers/STM32F1xx_HAL_Driver/Src/stm32f1xx_hal_sram.c **** /* Private macro -------------------------------------------------------------*/
 137:Drivers/STM32F1xx_HAL_Driver/Src/stm32f1xx_hal_sram.c **** /* Private variables ---------------------------------------------------------*/
 138:Drivers/STM32F1xx_HAL_Driver/Src/stm32f1xx_hal_sram.c **** /* Private function prototypes -----------------------------------------------*/
 139:Drivers/STM32F1xx_HAL_Driver/Src/stm32f1xx_hal_sram.c **** static void SRAM_DMACplt(DMA_HandleTypeDef *hdma);
 140:Drivers/STM32F1xx_HAL_Driver/Src/stm32f1xx_hal_sram.c **** static void SRAM_DMACpltProt(DMA_HandleTypeDef *hdma);
 141:Drivers/STM32F1xx_HAL_Driver/Src/stm32f1xx_hal_sram.c **** static void SRAM_DMAError(DMA_HandleTypeDef *hdma);
 142:Drivers/STM32F1xx_HAL_Driver/Src/stm32f1xx_hal_sram.c **** /**
 143:Drivers/STM32F1xx_HAL_Driver/Src/stm32f1xx_hal_sram.c ****   @endcond
 144:Drivers/STM32F1xx_HAL_Driver/Src/stm32f1xx_hal_sram.c ****   */
 145:Drivers/STM32F1xx_HAL_Driver/Src/stm32f1xx_hal_sram.c **** 
ARM GAS  /tmp/ccZFdKv2.s 			page 4


 146:Drivers/STM32F1xx_HAL_Driver/Src/stm32f1xx_hal_sram.c **** /* Exported functions --------------------------------------------------------*/
 147:Drivers/STM32F1xx_HAL_Driver/Src/stm32f1xx_hal_sram.c **** 
 148:Drivers/STM32F1xx_HAL_Driver/Src/stm32f1xx_hal_sram.c **** /** @defgroup SRAM_Exported_Functions SRAM Exported Functions
 149:Drivers/STM32F1xx_HAL_Driver/Src/stm32f1xx_hal_sram.c ****   * @{
 150:Drivers/STM32F1xx_HAL_Driver/Src/stm32f1xx_hal_sram.c ****   */
 151:Drivers/STM32F1xx_HAL_Driver/Src/stm32f1xx_hal_sram.c **** 
 152:Drivers/STM32F1xx_HAL_Driver/Src/stm32f1xx_hal_sram.c **** /** @defgroup SRAM_Exported_Functions_Group1 Initialization and de-initialization functions
 153:Drivers/STM32F1xx_HAL_Driver/Src/stm32f1xx_hal_sram.c ****   * @brief    Initialization and Configuration functions.
 154:Drivers/STM32F1xx_HAL_Driver/Src/stm32f1xx_hal_sram.c ****   *
 155:Drivers/STM32F1xx_HAL_Driver/Src/stm32f1xx_hal_sram.c ****   @verbatim
 156:Drivers/STM32F1xx_HAL_Driver/Src/stm32f1xx_hal_sram.c ****   ==============================================================================
 157:Drivers/STM32F1xx_HAL_Driver/Src/stm32f1xx_hal_sram.c ****            ##### SRAM Initialization and de_initialization functions #####
 158:Drivers/STM32F1xx_HAL_Driver/Src/stm32f1xx_hal_sram.c ****   ==============================================================================
 159:Drivers/STM32F1xx_HAL_Driver/Src/stm32f1xx_hal_sram.c ****     [..]  This section provides functions allowing to initialize/de-initialize
 160:Drivers/STM32F1xx_HAL_Driver/Src/stm32f1xx_hal_sram.c ****           the SRAM memory
 161:Drivers/STM32F1xx_HAL_Driver/Src/stm32f1xx_hal_sram.c **** 
 162:Drivers/STM32F1xx_HAL_Driver/Src/stm32f1xx_hal_sram.c **** @endverbatim
 163:Drivers/STM32F1xx_HAL_Driver/Src/stm32f1xx_hal_sram.c ****   * @{
 164:Drivers/STM32F1xx_HAL_Driver/Src/stm32f1xx_hal_sram.c ****   */
 165:Drivers/STM32F1xx_HAL_Driver/Src/stm32f1xx_hal_sram.c **** 
 166:Drivers/STM32F1xx_HAL_Driver/Src/stm32f1xx_hal_sram.c **** /**
 167:Drivers/STM32F1xx_HAL_Driver/Src/stm32f1xx_hal_sram.c ****   * @brief  Performs the SRAM device initialization sequence
 168:Drivers/STM32F1xx_HAL_Driver/Src/stm32f1xx_hal_sram.c ****   * @param  hsram pointer to a SRAM_HandleTypeDef structure that contains
 169:Drivers/STM32F1xx_HAL_Driver/Src/stm32f1xx_hal_sram.c ****   *                the configuration information for SRAM module.
 170:Drivers/STM32F1xx_HAL_Driver/Src/stm32f1xx_hal_sram.c ****   * @param  Timing Pointer to SRAM control timing structure
 171:Drivers/STM32F1xx_HAL_Driver/Src/stm32f1xx_hal_sram.c ****   * @param  ExtTiming Pointer to SRAM extended mode timing structure
 172:Drivers/STM32F1xx_HAL_Driver/Src/stm32f1xx_hal_sram.c ****   * @retval HAL status
 173:Drivers/STM32F1xx_HAL_Driver/Src/stm32f1xx_hal_sram.c ****   */
 174:Drivers/STM32F1xx_HAL_Driver/Src/stm32f1xx_hal_sram.c **** HAL_StatusTypeDef HAL_SRAM_Init(SRAM_HandleTypeDef *hsram, FSMC_NORSRAM_TimingTypeDef *Timing,
 175:Drivers/STM32F1xx_HAL_Driver/Src/stm32f1xx_hal_sram.c ****                                 FSMC_NORSRAM_TimingTypeDef *ExtTiming)
 176:Drivers/STM32F1xx_HAL_Driver/Src/stm32f1xx_hal_sram.c **** {
 177:Drivers/STM32F1xx_HAL_Driver/Src/stm32f1xx_hal_sram.c ****   /* Check the SRAM handle parameter */
 178:Drivers/STM32F1xx_HAL_Driver/Src/stm32f1xx_hal_sram.c ****   if ((hsram == NULL) || (hsram->Init.BurstAccessMode == FSMC_BURST_ACCESS_MODE_ENABLE))
 179:Drivers/STM32F1xx_HAL_Driver/Src/stm32f1xx_hal_sram.c ****   {
 180:Drivers/STM32F1xx_HAL_Driver/Src/stm32f1xx_hal_sram.c ****     return HAL_ERROR;
 181:Drivers/STM32F1xx_HAL_Driver/Src/stm32f1xx_hal_sram.c ****   }
 182:Drivers/STM32F1xx_HAL_Driver/Src/stm32f1xx_hal_sram.c **** 
 183:Drivers/STM32F1xx_HAL_Driver/Src/stm32f1xx_hal_sram.c ****   if (hsram->State == HAL_SRAM_STATE_RESET)
 184:Drivers/STM32F1xx_HAL_Driver/Src/stm32f1xx_hal_sram.c ****   {
 185:Drivers/STM32F1xx_HAL_Driver/Src/stm32f1xx_hal_sram.c ****     /* Allocate lock resource and initialize it */
 186:Drivers/STM32F1xx_HAL_Driver/Src/stm32f1xx_hal_sram.c ****     hsram->Lock = HAL_UNLOCKED;
 187:Drivers/STM32F1xx_HAL_Driver/Src/stm32f1xx_hal_sram.c **** 
 188:Drivers/STM32F1xx_HAL_Driver/Src/stm32f1xx_hal_sram.c **** #if (USE_HAL_SRAM_REGISTER_CALLBACKS == 1)
 189:Drivers/STM32F1xx_HAL_Driver/Src/stm32f1xx_hal_sram.c ****     if (hsram->MspInitCallback == NULL)
 190:Drivers/STM32F1xx_HAL_Driver/Src/stm32f1xx_hal_sram.c ****     {
 191:Drivers/STM32F1xx_HAL_Driver/Src/stm32f1xx_hal_sram.c ****       hsram->MspInitCallback = HAL_SRAM_MspInit;
 192:Drivers/STM32F1xx_HAL_Driver/Src/stm32f1xx_hal_sram.c ****     }
 193:Drivers/STM32F1xx_HAL_Driver/Src/stm32f1xx_hal_sram.c ****     hsram->DmaXferCpltCallback = HAL_SRAM_DMA_XferCpltCallback;
 194:Drivers/STM32F1xx_HAL_Driver/Src/stm32f1xx_hal_sram.c ****     hsram->DmaXferErrorCallback = HAL_SRAM_DMA_XferErrorCallback;
 195:Drivers/STM32F1xx_HAL_Driver/Src/stm32f1xx_hal_sram.c **** 
 196:Drivers/STM32F1xx_HAL_Driver/Src/stm32f1xx_hal_sram.c ****     /* Init the low level hardware */
 197:Drivers/STM32F1xx_HAL_Driver/Src/stm32f1xx_hal_sram.c ****     hsram->MspInitCallback(hsram);
 198:Drivers/STM32F1xx_HAL_Driver/Src/stm32f1xx_hal_sram.c **** #else
 199:Drivers/STM32F1xx_HAL_Driver/Src/stm32f1xx_hal_sram.c ****     /* Initialize the low level hardware (MSP) */
 200:Drivers/STM32F1xx_HAL_Driver/Src/stm32f1xx_hal_sram.c ****     HAL_SRAM_MspInit(hsram);
 201:Drivers/STM32F1xx_HAL_Driver/Src/stm32f1xx_hal_sram.c **** #endif
 202:Drivers/STM32F1xx_HAL_Driver/Src/stm32f1xx_hal_sram.c ****   }
ARM GAS  /tmp/ccZFdKv2.s 			page 5


 203:Drivers/STM32F1xx_HAL_Driver/Src/stm32f1xx_hal_sram.c **** 
 204:Drivers/STM32F1xx_HAL_Driver/Src/stm32f1xx_hal_sram.c ****   /* Initialize SRAM control Interface */
 205:Drivers/STM32F1xx_HAL_Driver/Src/stm32f1xx_hal_sram.c ****   (void)FSMC_NORSRAM_Init(hsram->Instance, &(hsram->Init));
 206:Drivers/STM32F1xx_HAL_Driver/Src/stm32f1xx_hal_sram.c **** 
 207:Drivers/STM32F1xx_HAL_Driver/Src/stm32f1xx_hal_sram.c ****   /* Initialize SRAM timing Interface */
 208:Drivers/STM32F1xx_HAL_Driver/Src/stm32f1xx_hal_sram.c ****   (void)FSMC_NORSRAM_Timing_Init(hsram->Instance, Timing, hsram->Init.NSBank);
 209:Drivers/STM32F1xx_HAL_Driver/Src/stm32f1xx_hal_sram.c **** 
 210:Drivers/STM32F1xx_HAL_Driver/Src/stm32f1xx_hal_sram.c ****   /* Initialize SRAM extended mode timing Interface */
 211:Drivers/STM32F1xx_HAL_Driver/Src/stm32f1xx_hal_sram.c ****   (void)FSMC_NORSRAM_Extended_Timing_Init(hsram->Extended, ExtTiming, hsram->Init.NSBank,
 212:Drivers/STM32F1xx_HAL_Driver/Src/stm32f1xx_hal_sram.c ****                                          hsram->Init.ExtendedMode);
 213:Drivers/STM32F1xx_HAL_Driver/Src/stm32f1xx_hal_sram.c **** 
 214:Drivers/STM32F1xx_HAL_Driver/Src/stm32f1xx_hal_sram.c ****   /* Enable the NORSRAM device */
 215:Drivers/STM32F1xx_HAL_Driver/Src/stm32f1xx_hal_sram.c ****   __FSMC_NORSRAM_ENABLE(hsram->Instance, hsram->Init.NSBank);
 216:Drivers/STM32F1xx_HAL_Driver/Src/stm32f1xx_hal_sram.c **** 
 217:Drivers/STM32F1xx_HAL_Driver/Src/stm32f1xx_hal_sram.c ****   /* Initialize the SRAM controller state */
 218:Drivers/STM32F1xx_HAL_Driver/Src/stm32f1xx_hal_sram.c ****   hsram->State = HAL_SRAM_STATE_READY;
 219:Drivers/STM32F1xx_HAL_Driver/Src/stm32f1xx_hal_sram.c **** 
 220:Drivers/STM32F1xx_HAL_Driver/Src/stm32f1xx_hal_sram.c ****   return HAL_OK;
 221:Drivers/STM32F1xx_HAL_Driver/Src/stm32f1xx_hal_sram.c **** }
 222:Drivers/STM32F1xx_HAL_Driver/Src/stm32f1xx_hal_sram.c **** 
 223:Drivers/STM32F1xx_HAL_Driver/Src/stm32f1xx_hal_sram.c **** /**
 224:Drivers/STM32F1xx_HAL_Driver/Src/stm32f1xx_hal_sram.c ****   * @brief  Performs the SRAM device De-initialization sequence.
 225:Drivers/STM32F1xx_HAL_Driver/Src/stm32f1xx_hal_sram.c ****   * @param  hsram pointer to a SRAM_HandleTypeDef structure that contains
 226:Drivers/STM32F1xx_HAL_Driver/Src/stm32f1xx_hal_sram.c ****   *                the configuration information for SRAM module.
 227:Drivers/STM32F1xx_HAL_Driver/Src/stm32f1xx_hal_sram.c ****   * @retval HAL status
 228:Drivers/STM32F1xx_HAL_Driver/Src/stm32f1xx_hal_sram.c ****   */
 229:Drivers/STM32F1xx_HAL_Driver/Src/stm32f1xx_hal_sram.c **** HAL_StatusTypeDef HAL_SRAM_DeInit(SRAM_HandleTypeDef *hsram)
 230:Drivers/STM32F1xx_HAL_Driver/Src/stm32f1xx_hal_sram.c **** {
 231:Drivers/STM32F1xx_HAL_Driver/Src/stm32f1xx_hal_sram.c **** #if (USE_HAL_SRAM_REGISTER_CALLBACKS == 1)
 232:Drivers/STM32F1xx_HAL_Driver/Src/stm32f1xx_hal_sram.c ****   if (hsram->MspDeInitCallback == NULL)
 233:Drivers/STM32F1xx_HAL_Driver/Src/stm32f1xx_hal_sram.c ****   {
 234:Drivers/STM32F1xx_HAL_Driver/Src/stm32f1xx_hal_sram.c ****     hsram->MspDeInitCallback = HAL_SRAM_MspDeInit;
 235:Drivers/STM32F1xx_HAL_Driver/Src/stm32f1xx_hal_sram.c ****   }
 236:Drivers/STM32F1xx_HAL_Driver/Src/stm32f1xx_hal_sram.c **** 
 237:Drivers/STM32F1xx_HAL_Driver/Src/stm32f1xx_hal_sram.c ****   /* DeInit the low level hardware */
 238:Drivers/STM32F1xx_HAL_Driver/Src/stm32f1xx_hal_sram.c ****   hsram->MspDeInitCallback(hsram);
 239:Drivers/STM32F1xx_HAL_Driver/Src/stm32f1xx_hal_sram.c **** #else
 240:Drivers/STM32F1xx_HAL_Driver/Src/stm32f1xx_hal_sram.c ****   /* De-Initialize the low level hardware (MSP) */
 241:Drivers/STM32F1xx_HAL_Driver/Src/stm32f1xx_hal_sram.c ****   HAL_SRAM_MspDeInit(hsram);
 242:Drivers/STM32F1xx_HAL_Driver/Src/stm32f1xx_hal_sram.c **** #endif
 243:Drivers/STM32F1xx_HAL_Driver/Src/stm32f1xx_hal_sram.c **** 
 244:Drivers/STM32F1xx_HAL_Driver/Src/stm32f1xx_hal_sram.c ****   /* Configure the SRAM registers with their reset values */
 245:Drivers/STM32F1xx_HAL_Driver/Src/stm32f1xx_hal_sram.c ****   (void)FSMC_NORSRAM_DeInit(hsram->Instance, hsram->Extended, hsram->Init.NSBank);
 246:Drivers/STM32F1xx_HAL_Driver/Src/stm32f1xx_hal_sram.c **** 
 247:Drivers/STM32F1xx_HAL_Driver/Src/stm32f1xx_hal_sram.c ****   /* Reset the SRAM controller state */
 248:Drivers/STM32F1xx_HAL_Driver/Src/stm32f1xx_hal_sram.c ****   hsram->State = HAL_SRAM_STATE_RESET;
 249:Drivers/STM32F1xx_HAL_Driver/Src/stm32f1xx_hal_sram.c **** 
 250:Drivers/STM32F1xx_HAL_Driver/Src/stm32f1xx_hal_sram.c ****   /* Release Lock */
 251:Drivers/STM32F1xx_HAL_Driver/Src/stm32f1xx_hal_sram.c ****   __HAL_UNLOCK(hsram);
 252:Drivers/STM32F1xx_HAL_Driver/Src/stm32f1xx_hal_sram.c **** 
 253:Drivers/STM32F1xx_HAL_Driver/Src/stm32f1xx_hal_sram.c ****   return HAL_OK;
 254:Drivers/STM32F1xx_HAL_Driver/Src/stm32f1xx_hal_sram.c **** }
 255:Drivers/STM32F1xx_HAL_Driver/Src/stm32f1xx_hal_sram.c **** 
 256:Drivers/STM32F1xx_HAL_Driver/Src/stm32f1xx_hal_sram.c **** /**
 257:Drivers/STM32F1xx_HAL_Driver/Src/stm32f1xx_hal_sram.c ****   * @brief  SRAM MSP Init.
 258:Drivers/STM32F1xx_HAL_Driver/Src/stm32f1xx_hal_sram.c ****   * @param  hsram pointer to a SRAM_HandleTypeDef structure that contains
 259:Drivers/STM32F1xx_HAL_Driver/Src/stm32f1xx_hal_sram.c ****   *                the configuration information for SRAM module.
ARM GAS  /tmp/ccZFdKv2.s 			page 6


 260:Drivers/STM32F1xx_HAL_Driver/Src/stm32f1xx_hal_sram.c ****   * @retval None
 261:Drivers/STM32F1xx_HAL_Driver/Src/stm32f1xx_hal_sram.c ****   */
 262:Drivers/STM32F1xx_HAL_Driver/Src/stm32f1xx_hal_sram.c **** __weak void HAL_SRAM_MspInit(SRAM_HandleTypeDef *hsram)
 263:Drivers/STM32F1xx_HAL_Driver/Src/stm32f1xx_hal_sram.c **** {
  28              		.loc 1 263 1 view -0
  29              		.cfi_startproc
  30              		@ args = 0, pretend = 0, frame = 0
  31              		@ frame_needed = 0, uses_anonymous_args = 0
  32              		@ link register save eliminated.
 264:Drivers/STM32F1xx_HAL_Driver/Src/stm32f1xx_hal_sram.c ****   /* Prevent unused argument(s) compilation warning */
 265:Drivers/STM32F1xx_HAL_Driver/Src/stm32f1xx_hal_sram.c ****   UNUSED(hsram);
  33              		.loc 1 265 3 view .LVU1
 266:Drivers/STM32F1xx_HAL_Driver/Src/stm32f1xx_hal_sram.c **** 
 267:Drivers/STM32F1xx_HAL_Driver/Src/stm32f1xx_hal_sram.c ****   /* NOTE : This function Should not be modified, when the callback is needed,
 268:Drivers/STM32F1xx_HAL_Driver/Src/stm32f1xx_hal_sram.c ****             the HAL_SRAM_MspInit could be implemented in the user file
 269:Drivers/STM32F1xx_HAL_Driver/Src/stm32f1xx_hal_sram.c ****    */
 270:Drivers/STM32F1xx_HAL_Driver/Src/stm32f1xx_hal_sram.c **** }
  34              		.loc 1 270 1 is_stmt 0 view .LVU2
  35 0000 7047     		bx	lr
  36              		.cfi_endproc
  37              	.LFE67:
  39              		.section	.text.HAL_SRAM_Init,"ax",%progbits
  40              		.align	1
  41              		.global	HAL_SRAM_Init
  42              		.syntax unified
  43              		.thumb
  44              		.thumb_func
  45              		.fpu softvfp
  47              	HAL_SRAM_Init:
  48              	.LVL1:
  49              	.LFB65:
 176:Drivers/STM32F1xx_HAL_Driver/Src/stm32f1xx_hal_sram.c ****   /* Check the SRAM handle parameter */
  50              		.loc 1 176 1 is_stmt 1 view -0
  51              		.cfi_startproc
  52              		@ args = 0, pretend = 0, frame = 0
  53              		@ frame_needed = 0, uses_anonymous_args = 0
 178:Drivers/STM32F1xx_HAL_Driver/Src/stm32f1xx_hal_sram.c ****   {
  54              		.loc 1 178 3 view .LVU4
 178:Drivers/STM32F1xx_HAL_Driver/Src/stm32f1xx_hal_sram.c ****   {
  55              		.loc 1 178 6 is_stmt 0 view .LVU5
  56 0000 60B3     		cbz	r0, .L5
 176:Drivers/STM32F1xx_HAL_Driver/Src/stm32f1xx_hal_sram.c ****   /* Check the SRAM handle parameter */
  57              		.loc 1 176 1 discriminator 1 view .LVU6
  58 0002 70B5     		push	{r4, r5, r6, lr}
  59              	.LCFI0:
  60              		.cfi_def_cfa_offset 16
  61              		.cfi_offset 4, -16
  62              		.cfi_offset 5, -12
  63              		.cfi_offset 6, -8
  64              		.cfi_offset 14, -4
  65 0004 0E46     		mov	r6, r1
  66 0006 1546     		mov	r5, r2
  67 0008 0446     		mov	r4, r0
 178:Drivers/STM32F1xx_HAL_Driver/Src/stm32f1xx_hal_sram.c ****   {
  68              		.loc 1 178 38 discriminator 1 view .LVU7
  69 000a 8369     		ldr	r3, [r0, #24]
 178:Drivers/STM32F1xx_HAL_Driver/Src/stm32f1xx_hal_sram.c ****   {
ARM GAS  /tmp/ccZFdKv2.s 			page 7


  70              		.loc 1 178 23 discriminator 1 view .LVU8
  71 000c B3F5807F 		cmp	r3, #256
  72 0010 26D0     		beq	.L6
 183:Drivers/STM32F1xx_HAL_Driver/Src/stm32f1xx_hal_sram.c ****   {
  73              		.loc 1 183 3 is_stmt 1 view .LVU9
 183:Drivers/STM32F1xx_HAL_Driver/Src/stm32f1xx_hal_sram.c ****   {
  74              		.loc 1 183 12 is_stmt 0 view .LVU10
  75 0012 90F84130 		ldrb	r3, [r0, #65]	@ zero_extendqisi2
 183:Drivers/STM32F1xx_HAL_Driver/Src/stm32f1xx_hal_sram.c ****   {
  76              		.loc 1 183 6 view .LVU11
  77 0016 E3B1     		cbz	r3, .L11
  78              	.LVL2:
  79              	.L4:
 205:Drivers/STM32F1xx_HAL_Driver/Src/stm32f1xx_hal_sram.c **** 
  80              		.loc 1 205 3 is_stmt 1 view .LVU12
 205:Drivers/STM32F1xx_HAL_Driver/Src/stm32f1xx_hal_sram.c **** 
  81              		.loc 1 205 9 is_stmt 0 view .LVU13
  82 0018 2146     		mov	r1, r4
  83 001a 51F8080B 		ldr	r0, [r1], #8
  84 001e FFF7FEFF 		bl	FSMC_NORSRAM_Init
  85              	.LVL3:
 208:Drivers/STM32F1xx_HAL_Driver/Src/stm32f1xx_hal_sram.c **** 
  86              		.loc 1 208 3 is_stmt 1 view .LVU14
 208:Drivers/STM32F1xx_HAL_Driver/Src/stm32f1xx_hal_sram.c **** 
  87              		.loc 1 208 9 is_stmt 0 view .LVU15
  88 0022 A268     		ldr	r2, [r4, #8]
  89 0024 3146     		mov	r1, r6
  90 0026 2068     		ldr	r0, [r4]
  91 0028 FFF7FEFF 		bl	FSMC_NORSRAM_Timing_Init
  92              	.LVL4:
 211:Drivers/STM32F1xx_HAL_Driver/Src/stm32f1xx_hal_sram.c ****                                          hsram->Init.ExtendedMode);
  93              		.loc 1 211 3 is_stmt 1 view .LVU16
 211:Drivers/STM32F1xx_HAL_Driver/Src/stm32f1xx_hal_sram.c ****                                          hsram->Init.ExtendedMode);
  94              		.loc 1 211 9 is_stmt 0 view .LVU17
  95 002c 236B     		ldr	r3, [r4, #48]
  96 002e A268     		ldr	r2, [r4, #8]
  97 0030 2946     		mov	r1, r5
  98 0032 6068     		ldr	r0, [r4, #4]
  99 0034 FFF7FEFF 		bl	FSMC_NORSRAM_Extended_Timing_Init
 100              	.LVL5:
 215:Drivers/STM32F1xx_HAL_Driver/Src/stm32f1xx_hal_sram.c **** 
 101              		.loc 1 215 3 is_stmt 1 view .LVU18
 102 0038 2268     		ldr	r2, [r4]
 103 003a A168     		ldr	r1, [r4, #8]
 104 003c 52F82130 		ldr	r3, [r2, r1, lsl #2]
 105 0040 43F00103 		orr	r3, r3, #1
 106 0044 42F82130 		str	r3, [r2, r1, lsl #2]
 218:Drivers/STM32F1xx_HAL_Driver/Src/stm32f1xx_hal_sram.c **** 
 107              		.loc 1 218 3 view .LVU19
 218:Drivers/STM32F1xx_HAL_Driver/Src/stm32f1xx_hal_sram.c **** 
 108              		.loc 1 218 16 is_stmt 0 view .LVU20
 109 0048 0123     		movs	r3, #1
 110 004a 84F84130 		strb	r3, [r4, #65]
 220:Drivers/STM32F1xx_HAL_Driver/Src/stm32f1xx_hal_sram.c **** }
 111              		.loc 1 220 3 is_stmt 1 view .LVU21
 220:Drivers/STM32F1xx_HAL_Driver/Src/stm32f1xx_hal_sram.c **** }
 112              		.loc 1 220 10 is_stmt 0 view .LVU22
ARM GAS  /tmp/ccZFdKv2.s 			page 8


 113 004e 0020     		movs	r0, #0
 114              	.L3:
 221:Drivers/STM32F1xx_HAL_Driver/Src/stm32f1xx_hal_sram.c **** 
 115              		.loc 1 221 1 view .LVU23
 116 0050 70BD     		pop	{r4, r5, r6, pc}
 117              	.LVL6:
 118              	.L11:
 186:Drivers/STM32F1xx_HAL_Driver/Src/stm32f1xx_hal_sram.c **** 
 119              		.loc 1 186 5 is_stmt 1 view .LVU24
 186:Drivers/STM32F1xx_HAL_Driver/Src/stm32f1xx_hal_sram.c **** 
 120              		.loc 1 186 17 is_stmt 0 view .LVU25
 121 0052 80F84030 		strb	r3, [r0, #64]
 200:Drivers/STM32F1xx_HAL_Driver/Src/stm32f1xx_hal_sram.c **** #endif
 122              		.loc 1 200 5 is_stmt 1 view .LVU26
 123 0056 FFF7FEFF 		bl	HAL_SRAM_MspInit
 124              	.LVL7:
 200:Drivers/STM32F1xx_HAL_Driver/Src/stm32f1xx_hal_sram.c **** #endif
 125              		.loc 1 200 5 is_stmt 0 view .LVU27
 126 005a DDE7     		b	.L4
 127              	.LVL8:
 128              	.L5:
 129              	.LCFI1:
 130              		.cfi_def_cfa_offset 0
 131              		.cfi_restore 4
 132              		.cfi_restore 5
 133              		.cfi_restore 6
 134              		.cfi_restore 14
 180:Drivers/STM32F1xx_HAL_Driver/Src/stm32f1xx_hal_sram.c ****   }
 135              		.loc 1 180 12 view .LVU28
 136 005c 0120     		movs	r0, #1
 137              	.LVL9:
 221:Drivers/STM32F1xx_HAL_Driver/Src/stm32f1xx_hal_sram.c **** 
 138              		.loc 1 221 1 view .LVU29
 139 005e 7047     		bx	lr
 140              	.LVL10:
 141              	.L6:
 142              	.LCFI2:
 143              		.cfi_def_cfa_offset 16
 144              		.cfi_offset 4, -16
 145              		.cfi_offset 5, -12
 146              		.cfi_offset 6, -8
 147              		.cfi_offset 14, -4
 180:Drivers/STM32F1xx_HAL_Driver/Src/stm32f1xx_hal_sram.c ****   }
 148              		.loc 1 180 12 view .LVU30
 149 0060 0120     		movs	r0, #1
 150              	.LVL11:
 180:Drivers/STM32F1xx_HAL_Driver/Src/stm32f1xx_hal_sram.c ****   }
 151              		.loc 1 180 12 view .LVU31
 152 0062 F5E7     		b	.L3
 153              		.cfi_endproc
 154              	.LFE65:
 156              		.section	.text.HAL_SRAM_MspDeInit,"ax",%progbits
 157              		.align	1
 158              		.weak	HAL_SRAM_MspDeInit
 159              		.syntax unified
 160              		.thumb
 161              		.thumb_func
ARM GAS  /tmp/ccZFdKv2.s 			page 9


 162              		.fpu softvfp
 164              	HAL_SRAM_MspDeInit:
 165              	.LVL12:
 166              	.LFB68:
 271:Drivers/STM32F1xx_HAL_Driver/Src/stm32f1xx_hal_sram.c **** 
 272:Drivers/STM32F1xx_HAL_Driver/Src/stm32f1xx_hal_sram.c **** /**
 273:Drivers/STM32F1xx_HAL_Driver/Src/stm32f1xx_hal_sram.c ****   * @brief  SRAM MSP DeInit.
 274:Drivers/STM32F1xx_HAL_Driver/Src/stm32f1xx_hal_sram.c ****   * @param  hsram pointer to a SRAM_HandleTypeDef structure that contains
 275:Drivers/STM32F1xx_HAL_Driver/Src/stm32f1xx_hal_sram.c ****   *                the configuration information for SRAM module.
 276:Drivers/STM32F1xx_HAL_Driver/Src/stm32f1xx_hal_sram.c ****   * @retval None
 277:Drivers/STM32F1xx_HAL_Driver/Src/stm32f1xx_hal_sram.c ****   */
 278:Drivers/STM32F1xx_HAL_Driver/Src/stm32f1xx_hal_sram.c **** __weak void HAL_SRAM_MspDeInit(SRAM_HandleTypeDef *hsram)
 279:Drivers/STM32F1xx_HAL_Driver/Src/stm32f1xx_hal_sram.c **** {
 167              		.loc 1 279 1 is_stmt 1 view -0
 168              		.cfi_startproc
 169              		@ args = 0, pretend = 0, frame = 0
 170              		@ frame_needed = 0, uses_anonymous_args = 0
 171              		@ link register save eliminated.
 280:Drivers/STM32F1xx_HAL_Driver/Src/stm32f1xx_hal_sram.c ****   /* Prevent unused argument(s) compilation warning */
 281:Drivers/STM32F1xx_HAL_Driver/Src/stm32f1xx_hal_sram.c ****   UNUSED(hsram);
 172              		.loc 1 281 3 view .LVU33
 282:Drivers/STM32F1xx_HAL_Driver/Src/stm32f1xx_hal_sram.c **** 
 283:Drivers/STM32F1xx_HAL_Driver/Src/stm32f1xx_hal_sram.c ****   /* NOTE : This function Should not be modified, when the callback is needed,
 284:Drivers/STM32F1xx_HAL_Driver/Src/stm32f1xx_hal_sram.c ****             the HAL_SRAM_MspDeInit could be implemented in the user file
 285:Drivers/STM32F1xx_HAL_Driver/Src/stm32f1xx_hal_sram.c ****    */
 286:Drivers/STM32F1xx_HAL_Driver/Src/stm32f1xx_hal_sram.c **** }
 173              		.loc 1 286 1 is_stmt 0 view .LVU34
 174 0000 7047     		bx	lr
 175              		.cfi_endproc
 176              	.LFE68:
 178              		.section	.text.HAL_SRAM_DeInit,"ax",%progbits
 179              		.align	1
 180              		.global	HAL_SRAM_DeInit
 181              		.syntax unified
 182              		.thumb
 183              		.thumb_func
 184              		.fpu softvfp
 186              	HAL_SRAM_DeInit:
 187              	.LVL13:
 188              	.LFB66:
 230:Drivers/STM32F1xx_HAL_Driver/Src/stm32f1xx_hal_sram.c **** #if (USE_HAL_SRAM_REGISTER_CALLBACKS == 1)
 189              		.loc 1 230 1 is_stmt 1 view -0
 190              		.cfi_startproc
 191              		@ args = 0, pretend = 0, frame = 0
 192              		@ frame_needed = 0, uses_anonymous_args = 0
 230:Drivers/STM32F1xx_HAL_Driver/Src/stm32f1xx_hal_sram.c **** #if (USE_HAL_SRAM_REGISTER_CALLBACKS == 1)
 193              		.loc 1 230 1 is_stmt 0 view .LVU36
 194 0000 10B5     		push	{r4, lr}
 195              	.LCFI3:
 196              		.cfi_def_cfa_offset 8
 197              		.cfi_offset 4, -8
 198              		.cfi_offset 14, -4
 199 0002 0446     		mov	r4, r0
 241:Drivers/STM32F1xx_HAL_Driver/Src/stm32f1xx_hal_sram.c **** #endif
 200              		.loc 1 241 3 is_stmt 1 view .LVU37
 201 0004 FFF7FEFF 		bl	HAL_SRAM_MspDeInit
 202              	.LVL14:
ARM GAS  /tmp/ccZFdKv2.s 			page 10


 245:Drivers/STM32F1xx_HAL_Driver/Src/stm32f1xx_hal_sram.c **** 
 203              		.loc 1 245 3 view .LVU38
 245:Drivers/STM32F1xx_HAL_Driver/Src/stm32f1xx_hal_sram.c **** 
 204              		.loc 1 245 9 is_stmt 0 view .LVU39
 205 0008 A268     		ldr	r2, [r4, #8]
 206 000a 6168     		ldr	r1, [r4, #4]
 207 000c 2068     		ldr	r0, [r4]
 208 000e FFF7FEFF 		bl	FSMC_NORSRAM_DeInit
 209              	.LVL15:
 248:Drivers/STM32F1xx_HAL_Driver/Src/stm32f1xx_hal_sram.c **** 
 210              		.loc 1 248 3 is_stmt 1 view .LVU40
 248:Drivers/STM32F1xx_HAL_Driver/Src/stm32f1xx_hal_sram.c **** 
 211              		.loc 1 248 16 is_stmt 0 view .LVU41
 212 0012 0020     		movs	r0, #0
 213 0014 84F84100 		strb	r0, [r4, #65]
 251:Drivers/STM32F1xx_HAL_Driver/Src/stm32f1xx_hal_sram.c **** 
 214              		.loc 1 251 3 is_stmt 1 view .LVU42
 251:Drivers/STM32F1xx_HAL_Driver/Src/stm32f1xx_hal_sram.c **** 
 215              		.loc 1 251 3 view .LVU43
 216 0018 84F84000 		strb	r0, [r4, #64]
 251:Drivers/STM32F1xx_HAL_Driver/Src/stm32f1xx_hal_sram.c **** 
 217              		.loc 1 251 3 view .LVU44
 253:Drivers/STM32F1xx_HAL_Driver/Src/stm32f1xx_hal_sram.c **** }
 218              		.loc 1 253 3 view .LVU45
 254:Drivers/STM32F1xx_HAL_Driver/Src/stm32f1xx_hal_sram.c **** 
 219              		.loc 1 254 1 is_stmt 0 view .LVU46
 220 001c 10BD     		pop	{r4, pc}
 254:Drivers/STM32F1xx_HAL_Driver/Src/stm32f1xx_hal_sram.c **** 
 221              		.loc 1 254 1 view .LVU47
 222              		.cfi_endproc
 223              	.LFE66:
 225              		.section	.text.HAL_SRAM_DMA_XferCpltCallback,"ax",%progbits
 226              		.align	1
 227              		.weak	HAL_SRAM_DMA_XferCpltCallback
 228              		.syntax unified
 229              		.thumb
 230              		.thumb_func
 231              		.fpu softvfp
 233              	HAL_SRAM_DMA_XferCpltCallback:
 234              	.LVL16:
 235              	.LFB69:
 287:Drivers/STM32F1xx_HAL_Driver/Src/stm32f1xx_hal_sram.c **** 
 288:Drivers/STM32F1xx_HAL_Driver/Src/stm32f1xx_hal_sram.c **** /**
 289:Drivers/STM32F1xx_HAL_Driver/Src/stm32f1xx_hal_sram.c ****   * @brief  DMA transfer complete callback.
 290:Drivers/STM32F1xx_HAL_Driver/Src/stm32f1xx_hal_sram.c ****   * @param  hdma pointer to a SRAM_HandleTypeDef structure that contains
 291:Drivers/STM32F1xx_HAL_Driver/Src/stm32f1xx_hal_sram.c ****   *                the configuration information for SRAM module.
 292:Drivers/STM32F1xx_HAL_Driver/Src/stm32f1xx_hal_sram.c ****   * @retval None
 293:Drivers/STM32F1xx_HAL_Driver/Src/stm32f1xx_hal_sram.c ****   */
 294:Drivers/STM32F1xx_HAL_Driver/Src/stm32f1xx_hal_sram.c **** __weak void HAL_SRAM_DMA_XferCpltCallback(DMA_HandleTypeDef *hdma)
 295:Drivers/STM32F1xx_HAL_Driver/Src/stm32f1xx_hal_sram.c **** {
 236              		.loc 1 295 1 is_stmt 1 view -0
 237              		.cfi_startproc
 238              		@ args = 0, pretend = 0, frame = 0
 239              		@ frame_needed = 0, uses_anonymous_args = 0
 240              		@ link register save eliminated.
 296:Drivers/STM32F1xx_HAL_Driver/Src/stm32f1xx_hal_sram.c ****   /* Prevent unused argument(s) compilation warning */
 297:Drivers/STM32F1xx_HAL_Driver/Src/stm32f1xx_hal_sram.c ****   UNUSED(hdma);
ARM GAS  /tmp/ccZFdKv2.s 			page 11


 241              		.loc 1 297 3 view .LVU49
 298:Drivers/STM32F1xx_HAL_Driver/Src/stm32f1xx_hal_sram.c **** 
 299:Drivers/STM32F1xx_HAL_Driver/Src/stm32f1xx_hal_sram.c ****   /* NOTE : This function Should not be modified, when the callback is needed,
 300:Drivers/STM32F1xx_HAL_Driver/Src/stm32f1xx_hal_sram.c ****             the HAL_SRAM_DMA_XferCpltCallback could be implemented in the user file
 301:Drivers/STM32F1xx_HAL_Driver/Src/stm32f1xx_hal_sram.c ****    */
 302:Drivers/STM32F1xx_HAL_Driver/Src/stm32f1xx_hal_sram.c **** }
 242              		.loc 1 302 1 is_stmt 0 view .LVU50
 243 0000 7047     		bx	lr
 244              		.cfi_endproc
 245              	.LFE69:
 247              		.section	.text.SRAM_DMACpltProt,"ax",%progbits
 248              		.align	1
 249              		.syntax unified
 250              		.thumb
 251              		.thumb_func
 252              		.fpu softvfp
 254              	SRAM_DMACpltProt:
 255              	.LVL17:
 256              	.LFB83:
 303:Drivers/STM32F1xx_HAL_Driver/Src/stm32f1xx_hal_sram.c **** 
 304:Drivers/STM32F1xx_HAL_Driver/Src/stm32f1xx_hal_sram.c **** /**
 305:Drivers/STM32F1xx_HAL_Driver/Src/stm32f1xx_hal_sram.c ****   * @brief  DMA transfer complete error callback.
 306:Drivers/STM32F1xx_HAL_Driver/Src/stm32f1xx_hal_sram.c ****   * @param  hdma pointer to a SRAM_HandleTypeDef structure that contains
 307:Drivers/STM32F1xx_HAL_Driver/Src/stm32f1xx_hal_sram.c ****   *                the configuration information for SRAM module.
 308:Drivers/STM32F1xx_HAL_Driver/Src/stm32f1xx_hal_sram.c ****   * @retval None
 309:Drivers/STM32F1xx_HAL_Driver/Src/stm32f1xx_hal_sram.c ****   */
 310:Drivers/STM32F1xx_HAL_Driver/Src/stm32f1xx_hal_sram.c **** __weak void HAL_SRAM_DMA_XferErrorCallback(DMA_HandleTypeDef *hdma)
 311:Drivers/STM32F1xx_HAL_Driver/Src/stm32f1xx_hal_sram.c **** {
 312:Drivers/STM32F1xx_HAL_Driver/Src/stm32f1xx_hal_sram.c ****   /* Prevent unused argument(s) compilation warning */
 313:Drivers/STM32F1xx_HAL_Driver/Src/stm32f1xx_hal_sram.c ****   UNUSED(hdma);
 314:Drivers/STM32F1xx_HAL_Driver/Src/stm32f1xx_hal_sram.c **** 
 315:Drivers/STM32F1xx_HAL_Driver/Src/stm32f1xx_hal_sram.c ****   /* NOTE : This function Should not be modified, when the callback is needed,
 316:Drivers/STM32F1xx_HAL_Driver/Src/stm32f1xx_hal_sram.c ****             the HAL_SRAM_DMA_XferErrorCallback could be implemented in the user file
 317:Drivers/STM32F1xx_HAL_Driver/Src/stm32f1xx_hal_sram.c ****    */
 318:Drivers/STM32F1xx_HAL_Driver/Src/stm32f1xx_hal_sram.c **** }
 319:Drivers/STM32F1xx_HAL_Driver/Src/stm32f1xx_hal_sram.c **** 
 320:Drivers/STM32F1xx_HAL_Driver/Src/stm32f1xx_hal_sram.c **** /**
 321:Drivers/STM32F1xx_HAL_Driver/Src/stm32f1xx_hal_sram.c ****   * @}
 322:Drivers/STM32F1xx_HAL_Driver/Src/stm32f1xx_hal_sram.c ****   */
 323:Drivers/STM32F1xx_HAL_Driver/Src/stm32f1xx_hal_sram.c **** 
 324:Drivers/STM32F1xx_HAL_Driver/Src/stm32f1xx_hal_sram.c **** /** @defgroup SRAM_Exported_Functions_Group2 Input Output and memory control functions
 325:Drivers/STM32F1xx_HAL_Driver/Src/stm32f1xx_hal_sram.c ****   * @brief    Input Output and memory control functions
 326:Drivers/STM32F1xx_HAL_Driver/Src/stm32f1xx_hal_sram.c ****   *
 327:Drivers/STM32F1xx_HAL_Driver/Src/stm32f1xx_hal_sram.c ****   @verbatim
 328:Drivers/STM32F1xx_HAL_Driver/Src/stm32f1xx_hal_sram.c ****   ==============================================================================
 329:Drivers/STM32F1xx_HAL_Driver/Src/stm32f1xx_hal_sram.c ****                   ##### SRAM Input and Output functions #####
 330:Drivers/STM32F1xx_HAL_Driver/Src/stm32f1xx_hal_sram.c ****   ==============================================================================
 331:Drivers/STM32F1xx_HAL_Driver/Src/stm32f1xx_hal_sram.c ****   [..]
 332:Drivers/STM32F1xx_HAL_Driver/Src/stm32f1xx_hal_sram.c ****     This section provides functions allowing to use and control the SRAM memory
 333:Drivers/STM32F1xx_HAL_Driver/Src/stm32f1xx_hal_sram.c **** 
 334:Drivers/STM32F1xx_HAL_Driver/Src/stm32f1xx_hal_sram.c **** @endverbatim
 335:Drivers/STM32F1xx_HAL_Driver/Src/stm32f1xx_hal_sram.c ****   * @{
 336:Drivers/STM32F1xx_HAL_Driver/Src/stm32f1xx_hal_sram.c ****   */
 337:Drivers/STM32F1xx_HAL_Driver/Src/stm32f1xx_hal_sram.c **** 
 338:Drivers/STM32F1xx_HAL_Driver/Src/stm32f1xx_hal_sram.c **** /**
 339:Drivers/STM32F1xx_HAL_Driver/Src/stm32f1xx_hal_sram.c ****   * @brief  Reads 8-bit buffer from SRAM memory.
 340:Drivers/STM32F1xx_HAL_Driver/Src/stm32f1xx_hal_sram.c ****   * @param  hsram pointer to a SRAM_HandleTypeDef structure that contains
ARM GAS  /tmp/ccZFdKv2.s 			page 12


 341:Drivers/STM32F1xx_HAL_Driver/Src/stm32f1xx_hal_sram.c ****   *                the configuration information for SRAM module.
 342:Drivers/STM32F1xx_HAL_Driver/Src/stm32f1xx_hal_sram.c ****   * @param  pAddress Pointer to read start address
 343:Drivers/STM32F1xx_HAL_Driver/Src/stm32f1xx_hal_sram.c ****   * @param  pDstBuffer Pointer to destination buffer
 344:Drivers/STM32F1xx_HAL_Driver/Src/stm32f1xx_hal_sram.c ****   * @param  BufferSize Size of the buffer to read from memory
 345:Drivers/STM32F1xx_HAL_Driver/Src/stm32f1xx_hal_sram.c ****   * @retval HAL status
 346:Drivers/STM32F1xx_HAL_Driver/Src/stm32f1xx_hal_sram.c ****   */
 347:Drivers/STM32F1xx_HAL_Driver/Src/stm32f1xx_hal_sram.c **** HAL_StatusTypeDef HAL_SRAM_Read_8b(SRAM_HandleTypeDef *hsram, uint32_t *pAddress, uint8_t *pDstBuff
 348:Drivers/STM32F1xx_HAL_Driver/Src/stm32f1xx_hal_sram.c ****                                    uint32_t BufferSize)
 349:Drivers/STM32F1xx_HAL_Driver/Src/stm32f1xx_hal_sram.c **** {
 350:Drivers/STM32F1xx_HAL_Driver/Src/stm32f1xx_hal_sram.c ****   uint32_t size;
 351:Drivers/STM32F1xx_HAL_Driver/Src/stm32f1xx_hal_sram.c ****   __IO uint8_t *psramaddress = (uint8_t *)pAddress;
 352:Drivers/STM32F1xx_HAL_Driver/Src/stm32f1xx_hal_sram.c ****   uint8_t *pdestbuff = pDstBuffer;
 353:Drivers/STM32F1xx_HAL_Driver/Src/stm32f1xx_hal_sram.c ****   HAL_SRAM_StateTypeDef state = hsram->State;
 354:Drivers/STM32F1xx_HAL_Driver/Src/stm32f1xx_hal_sram.c **** 
 355:Drivers/STM32F1xx_HAL_Driver/Src/stm32f1xx_hal_sram.c ****   /* Check the SRAM controller state */
 356:Drivers/STM32F1xx_HAL_Driver/Src/stm32f1xx_hal_sram.c ****   if ((state == HAL_SRAM_STATE_READY) || (state == HAL_SRAM_STATE_PROTECTED))
 357:Drivers/STM32F1xx_HAL_Driver/Src/stm32f1xx_hal_sram.c ****   {
 358:Drivers/STM32F1xx_HAL_Driver/Src/stm32f1xx_hal_sram.c ****     /* Process Locked */
 359:Drivers/STM32F1xx_HAL_Driver/Src/stm32f1xx_hal_sram.c ****     __HAL_LOCK(hsram);
 360:Drivers/STM32F1xx_HAL_Driver/Src/stm32f1xx_hal_sram.c **** 
 361:Drivers/STM32F1xx_HAL_Driver/Src/stm32f1xx_hal_sram.c ****     /* Update the SRAM controller state */
 362:Drivers/STM32F1xx_HAL_Driver/Src/stm32f1xx_hal_sram.c ****     hsram->State = HAL_SRAM_STATE_BUSY;
 363:Drivers/STM32F1xx_HAL_Driver/Src/stm32f1xx_hal_sram.c **** 
 364:Drivers/STM32F1xx_HAL_Driver/Src/stm32f1xx_hal_sram.c ****     /* Read data from memory */
 365:Drivers/STM32F1xx_HAL_Driver/Src/stm32f1xx_hal_sram.c ****     for (size = BufferSize; size != 0U; size--)
 366:Drivers/STM32F1xx_HAL_Driver/Src/stm32f1xx_hal_sram.c ****     {
 367:Drivers/STM32F1xx_HAL_Driver/Src/stm32f1xx_hal_sram.c ****       *pdestbuff = *psramaddress;
 368:Drivers/STM32F1xx_HAL_Driver/Src/stm32f1xx_hal_sram.c ****       pdestbuff++;
 369:Drivers/STM32F1xx_HAL_Driver/Src/stm32f1xx_hal_sram.c ****       psramaddress++;
 370:Drivers/STM32F1xx_HAL_Driver/Src/stm32f1xx_hal_sram.c ****     }
 371:Drivers/STM32F1xx_HAL_Driver/Src/stm32f1xx_hal_sram.c **** 
 372:Drivers/STM32F1xx_HAL_Driver/Src/stm32f1xx_hal_sram.c ****     /* Update the SRAM controller state */
 373:Drivers/STM32F1xx_HAL_Driver/Src/stm32f1xx_hal_sram.c ****     hsram->State = state;
 374:Drivers/STM32F1xx_HAL_Driver/Src/stm32f1xx_hal_sram.c **** 
 375:Drivers/STM32F1xx_HAL_Driver/Src/stm32f1xx_hal_sram.c ****     /* Process unlocked */
 376:Drivers/STM32F1xx_HAL_Driver/Src/stm32f1xx_hal_sram.c ****     __HAL_UNLOCK(hsram);
 377:Drivers/STM32F1xx_HAL_Driver/Src/stm32f1xx_hal_sram.c ****   }
 378:Drivers/STM32F1xx_HAL_Driver/Src/stm32f1xx_hal_sram.c ****   else
 379:Drivers/STM32F1xx_HAL_Driver/Src/stm32f1xx_hal_sram.c ****   {
 380:Drivers/STM32F1xx_HAL_Driver/Src/stm32f1xx_hal_sram.c ****     return HAL_ERROR;
 381:Drivers/STM32F1xx_HAL_Driver/Src/stm32f1xx_hal_sram.c ****   }
 382:Drivers/STM32F1xx_HAL_Driver/Src/stm32f1xx_hal_sram.c **** 
 383:Drivers/STM32F1xx_HAL_Driver/Src/stm32f1xx_hal_sram.c ****   return HAL_OK;
 384:Drivers/STM32F1xx_HAL_Driver/Src/stm32f1xx_hal_sram.c **** }
 385:Drivers/STM32F1xx_HAL_Driver/Src/stm32f1xx_hal_sram.c **** 
 386:Drivers/STM32F1xx_HAL_Driver/Src/stm32f1xx_hal_sram.c **** /**
 387:Drivers/STM32F1xx_HAL_Driver/Src/stm32f1xx_hal_sram.c ****   * @brief  Writes 8-bit buffer to SRAM memory.
 388:Drivers/STM32F1xx_HAL_Driver/Src/stm32f1xx_hal_sram.c ****   * @param  hsram pointer to a SRAM_HandleTypeDef structure that contains
 389:Drivers/STM32F1xx_HAL_Driver/Src/stm32f1xx_hal_sram.c ****   *                the configuration information for SRAM module.
 390:Drivers/STM32F1xx_HAL_Driver/Src/stm32f1xx_hal_sram.c ****   * @param  pAddress Pointer to write start address
 391:Drivers/STM32F1xx_HAL_Driver/Src/stm32f1xx_hal_sram.c ****   * @param  pSrcBuffer Pointer to source buffer to write
 392:Drivers/STM32F1xx_HAL_Driver/Src/stm32f1xx_hal_sram.c ****   * @param  BufferSize Size of the buffer to write to memory
 393:Drivers/STM32F1xx_HAL_Driver/Src/stm32f1xx_hal_sram.c ****   * @retval HAL status
 394:Drivers/STM32F1xx_HAL_Driver/Src/stm32f1xx_hal_sram.c ****   */
 395:Drivers/STM32F1xx_HAL_Driver/Src/stm32f1xx_hal_sram.c **** HAL_StatusTypeDef HAL_SRAM_Write_8b(SRAM_HandleTypeDef *hsram, uint32_t *pAddress, uint8_t *pSrcBuf
 396:Drivers/STM32F1xx_HAL_Driver/Src/stm32f1xx_hal_sram.c ****                                     uint32_t BufferSize)
 397:Drivers/STM32F1xx_HAL_Driver/Src/stm32f1xx_hal_sram.c **** {
ARM GAS  /tmp/ccZFdKv2.s 			page 13


 398:Drivers/STM32F1xx_HAL_Driver/Src/stm32f1xx_hal_sram.c ****   uint32_t size;
 399:Drivers/STM32F1xx_HAL_Driver/Src/stm32f1xx_hal_sram.c ****   __IO uint8_t *psramaddress = (uint8_t *)pAddress;
 400:Drivers/STM32F1xx_HAL_Driver/Src/stm32f1xx_hal_sram.c ****   uint8_t *psrcbuff = pSrcBuffer;
 401:Drivers/STM32F1xx_HAL_Driver/Src/stm32f1xx_hal_sram.c **** 
 402:Drivers/STM32F1xx_HAL_Driver/Src/stm32f1xx_hal_sram.c ****   /* Check the SRAM controller state */
 403:Drivers/STM32F1xx_HAL_Driver/Src/stm32f1xx_hal_sram.c ****   if (hsram->State == HAL_SRAM_STATE_READY)
 404:Drivers/STM32F1xx_HAL_Driver/Src/stm32f1xx_hal_sram.c ****   {
 405:Drivers/STM32F1xx_HAL_Driver/Src/stm32f1xx_hal_sram.c ****     /* Process Locked */
 406:Drivers/STM32F1xx_HAL_Driver/Src/stm32f1xx_hal_sram.c ****     __HAL_LOCK(hsram);
 407:Drivers/STM32F1xx_HAL_Driver/Src/stm32f1xx_hal_sram.c **** 
 408:Drivers/STM32F1xx_HAL_Driver/Src/stm32f1xx_hal_sram.c ****     /* Update the SRAM controller state */
 409:Drivers/STM32F1xx_HAL_Driver/Src/stm32f1xx_hal_sram.c ****     hsram->State = HAL_SRAM_STATE_BUSY;
 410:Drivers/STM32F1xx_HAL_Driver/Src/stm32f1xx_hal_sram.c **** 
 411:Drivers/STM32F1xx_HAL_Driver/Src/stm32f1xx_hal_sram.c ****     /* Write data to memory */
 412:Drivers/STM32F1xx_HAL_Driver/Src/stm32f1xx_hal_sram.c ****     for (size = BufferSize; size != 0U; size--)
 413:Drivers/STM32F1xx_HAL_Driver/Src/stm32f1xx_hal_sram.c ****     {
 414:Drivers/STM32F1xx_HAL_Driver/Src/stm32f1xx_hal_sram.c ****       *psramaddress = *psrcbuff;
 415:Drivers/STM32F1xx_HAL_Driver/Src/stm32f1xx_hal_sram.c ****       psrcbuff++;
 416:Drivers/STM32F1xx_HAL_Driver/Src/stm32f1xx_hal_sram.c ****       psramaddress++;
 417:Drivers/STM32F1xx_HAL_Driver/Src/stm32f1xx_hal_sram.c ****     }
 418:Drivers/STM32F1xx_HAL_Driver/Src/stm32f1xx_hal_sram.c **** 
 419:Drivers/STM32F1xx_HAL_Driver/Src/stm32f1xx_hal_sram.c ****     /* Update the SRAM controller state */
 420:Drivers/STM32F1xx_HAL_Driver/Src/stm32f1xx_hal_sram.c ****     hsram->State = HAL_SRAM_STATE_READY;
 421:Drivers/STM32F1xx_HAL_Driver/Src/stm32f1xx_hal_sram.c **** 
 422:Drivers/STM32F1xx_HAL_Driver/Src/stm32f1xx_hal_sram.c ****     /* Process unlocked */
 423:Drivers/STM32F1xx_HAL_Driver/Src/stm32f1xx_hal_sram.c ****     __HAL_UNLOCK(hsram);
 424:Drivers/STM32F1xx_HAL_Driver/Src/stm32f1xx_hal_sram.c ****   }
 425:Drivers/STM32F1xx_HAL_Driver/Src/stm32f1xx_hal_sram.c ****   else
 426:Drivers/STM32F1xx_HAL_Driver/Src/stm32f1xx_hal_sram.c ****   {
 427:Drivers/STM32F1xx_HAL_Driver/Src/stm32f1xx_hal_sram.c ****     return HAL_ERROR;
 428:Drivers/STM32F1xx_HAL_Driver/Src/stm32f1xx_hal_sram.c ****   }
 429:Drivers/STM32F1xx_HAL_Driver/Src/stm32f1xx_hal_sram.c **** 
 430:Drivers/STM32F1xx_HAL_Driver/Src/stm32f1xx_hal_sram.c ****   return HAL_OK;
 431:Drivers/STM32F1xx_HAL_Driver/Src/stm32f1xx_hal_sram.c **** }
 432:Drivers/STM32F1xx_HAL_Driver/Src/stm32f1xx_hal_sram.c **** 
 433:Drivers/STM32F1xx_HAL_Driver/Src/stm32f1xx_hal_sram.c **** /**
 434:Drivers/STM32F1xx_HAL_Driver/Src/stm32f1xx_hal_sram.c ****   * @brief  Reads 16-bit buffer from SRAM memory.
 435:Drivers/STM32F1xx_HAL_Driver/Src/stm32f1xx_hal_sram.c ****   * @param  hsram pointer to a SRAM_HandleTypeDef structure that contains
 436:Drivers/STM32F1xx_HAL_Driver/Src/stm32f1xx_hal_sram.c ****   *                the configuration information for SRAM module.
 437:Drivers/STM32F1xx_HAL_Driver/Src/stm32f1xx_hal_sram.c ****   * @param  pAddress Pointer to read start address
 438:Drivers/STM32F1xx_HAL_Driver/Src/stm32f1xx_hal_sram.c ****   * @param  pDstBuffer Pointer to destination buffer
 439:Drivers/STM32F1xx_HAL_Driver/Src/stm32f1xx_hal_sram.c ****   * @param  BufferSize Size of the buffer to read from memory
 440:Drivers/STM32F1xx_HAL_Driver/Src/stm32f1xx_hal_sram.c ****   * @retval HAL status
 441:Drivers/STM32F1xx_HAL_Driver/Src/stm32f1xx_hal_sram.c ****   */
 442:Drivers/STM32F1xx_HAL_Driver/Src/stm32f1xx_hal_sram.c **** HAL_StatusTypeDef HAL_SRAM_Read_16b(SRAM_HandleTypeDef *hsram, uint32_t *pAddress, uint16_t *pDstBu
 443:Drivers/STM32F1xx_HAL_Driver/Src/stm32f1xx_hal_sram.c ****                                     uint32_t BufferSize)
 444:Drivers/STM32F1xx_HAL_Driver/Src/stm32f1xx_hal_sram.c **** {
 445:Drivers/STM32F1xx_HAL_Driver/Src/stm32f1xx_hal_sram.c ****   uint32_t size;
 446:Drivers/STM32F1xx_HAL_Driver/Src/stm32f1xx_hal_sram.c ****   __IO uint32_t *psramaddress = pAddress;
 447:Drivers/STM32F1xx_HAL_Driver/Src/stm32f1xx_hal_sram.c ****   uint16_t *pdestbuff = pDstBuffer;
 448:Drivers/STM32F1xx_HAL_Driver/Src/stm32f1xx_hal_sram.c ****   uint8_t limit;
 449:Drivers/STM32F1xx_HAL_Driver/Src/stm32f1xx_hal_sram.c ****   HAL_SRAM_StateTypeDef state = hsram->State;
 450:Drivers/STM32F1xx_HAL_Driver/Src/stm32f1xx_hal_sram.c **** 
 451:Drivers/STM32F1xx_HAL_Driver/Src/stm32f1xx_hal_sram.c ****   /* Check the SRAM controller state */
 452:Drivers/STM32F1xx_HAL_Driver/Src/stm32f1xx_hal_sram.c ****   if ((state == HAL_SRAM_STATE_READY) || (state == HAL_SRAM_STATE_PROTECTED))
 453:Drivers/STM32F1xx_HAL_Driver/Src/stm32f1xx_hal_sram.c ****   {
 454:Drivers/STM32F1xx_HAL_Driver/Src/stm32f1xx_hal_sram.c ****     /* Process Locked */
ARM GAS  /tmp/ccZFdKv2.s 			page 14


 455:Drivers/STM32F1xx_HAL_Driver/Src/stm32f1xx_hal_sram.c ****     __HAL_LOCK(hsram);
 456:Drivers/STM32F1xx_HAL_Driver/Src/stm32f1xx_hal_sram.c **** 
 457:Drivers/STM32F1xx_HAL_Driver/Src/stm32f1xx_hal_sram.c ****     /* Update the SRAM controller state */
 458:Drivers/STM32F1xx_HAL_Driver/Src/stm32f1xx_hal_sram.c ****     hsram->State = HAL_SRAM_STATE_BUSY;
 459:Drivers/STM32F1xx_HAL_Driver/Src/stm32f1xx_hal_sram.c **** 
 460:Drivers/STM32F1xx_HAL_Driver/Src/stm32f1xx_hal_sram.c ****     /* Check if the size is a 32-bits multiple */
 461:Drivers/STM32F1xx_HAL_Driver/Src/stm32f1xx_hal_sram.c ****     limit = (((BufferSize % 2U) != 0U) ? 1U : 0U);
 462:Drivers/STM32F1xx_HAL_Driver/Src/stm32f1xx_hal_sram.c **** 
 463:Drivers/STM32F1xx_HAL_Driver/Src/stm32f1xx_hal_sram.c ****     /* Read data from memory */
 464:Drivers/STM32F1xx_HAL_Driver/Src/stm32f1xx_hal_sram.c ****     for (size = BufferSize; size != limit; size -= 2U)
 465:Drivers/STM32F1xx_HAL_Driver/Src/stm32f1xx_hal_sram.c ****     {
 466:Drivers/STM32F1xx_HAL_Driver/Src/stm32f1xx_hal_sram.c ****       *pdestbuff = (uint16_t)((*psramaddress) & 0x0000FFFFU);
 467:Drivers/STM32F1xx_HAL_Driver/Src/stm32f1xx_hal_sram.c ****       pdestbuff++;
 468:Drivers/STM32F1xx_HAL_Driver/Src/stm32f1xx_hal_sram.c ****       *pdestbuff = (uint16_t)(((*psramaddress) & 0xFFFF0000U) >> 16U);
 469:Drivers/STM32F1xx_HAL_Driver/Src/stm32f1xx_hal_sram.c ****       pdestbuff++;
 470:Drivers/STM32F1xx_HAL_Driver/Src/stm32f1xx_hal_sram.c ****       psramaddress++;
 471:Drivers/STM32F1xx_HAL_Driver/Src/stm32f1xx_hal_sram.c ****     }
 472:Drivers/STM32F1xx_HAL_Driver/Src/stm32f1xx_hal_sram.c **** 
 473:Drivers/STM32F1xx_HAL_Driver/Src/stm32f1xx_hal_sram.c ****     /* Read last 16-bits if size is not 32-bits multiple */
 474:Drivers/STM32F1xx_HAL_Driver/Src/stm32f1xx_hal_sram.c ****     if (limit != 0U)
 475:Drivers/STM32F1xx_HAL_Driver/Src/stm32f1xx_hal_sram.c ****     {
 476:Drivers/STM32F1xx_HAL_Driver/Src/stm32f1xx_hal_sram.c ****       *pdestbuff = (uint16_t)((*psramaddress) & 0x0000FFFFU);
 477:Drivers/STM32F1xx_HAL_Driver/Src/stm32f1xx_hal_sram.c ****     }
 478:Drivers/STM32F1xx_HAL_Driver/Src/stm32f1xx_hal_sram.c **** 
 479:Drivers/STM32F1xx_HAL_Driver/Src/stm32f1xx_hal_sram.c ****     /* Update the SRAM controller state */
 480:Drivers/STM32F1xx_HAL_Driver/Src/stm32f1xx_hal_sram.c ****     hsram->State = state;
 481:Drivers/STM32F1xx_HAL_Driver/Src/stm32f1xx_hal_sram.c **** 
 482:Drivers/STM32F1xx_HAL_Driver/Src/stm32f1xx_hal_sram.c ****     /* Process unlocked */
 483:Drivers/STM32F1xx_HAL_Driver/Src/stm32f1xx_hal_sram.c ****     __HAL_UNLOCK(hsram);
 484:Drivers/STM32F1xx_HAL_Driver/Src/stm32f1xx_hal_sram.c ****   }
 485:Drivers/STM32F1xx_HAL_Driver/Src/stm32f1xx_hal_sram.c ****   else
 486:Drivers/STM32F1xx_HAL_Driver/Src/stm32f1xx_hal_sram.c ****   {
 487:Drivers/STM32F1xx_HAL_Driver/Src/stm32f1xx_hal_sram.c ****     return HAL_ERROR;
 488:Drivers/STM32F1xx_HAL_Driver/Src/stm32f1xx_hal_sram.c ****   }
 489:Drivers/STM32F1xx_HAL_Driver/Src/stm32f1xx_hal_sram.c **** 
 490:Drivers/STM32F1xx_HAL_Driver/Src/stm32f1xx_hal_sram.c ****   return HAL_OK;
 491:Drivers/STM32F1xx_HAL_Driver/Src/stm32f1xx_hal_sram.c **** }
 492:Drivers/STM32F1xx_HAL_Driver/Src/stm32f1xx_hal_sram.c **** 
 493:Drivers/STM32F1xx_HAL_Driver/Src/stm32f1xx_hal_sram.c **** /**
 494:Drivers/STM32F1xx_HAL_Driver/Src/stm32f1xx_hal_sram.c ****   * @brief  Writes 16-bit buffer to SRAM memory.
 495:Drivers/STM32F1xx_HAL_Driver/Src/stm32f1xx_hal_sram.c ****   * @param  hsram pointer to a SRAM_HandleTypeDef structure that contains
 496:Drivers/STM32F1xx_HAL_Driver/Src/stm32f1xx_hal_sram.c ****   *                the configuration information for SRAM module.
 497:Drivers/STM32F1xx_HAL_Driver/Src/stm32f1xx_hal_sram.c ****   * @param  pAddress Pointer to write start address
 498:Drivers/STM32F1xx_HAL_Driver/Src/stm32f1xx_hal_sram.c ****   * @param  pSrcBuffer Pointer to source buffer to write
 499:Drivers/STM32F1xx_HAL_Driver/Src/stm32f1xx_hal_sram.c ****   * @param  BufferSize Size of the buffer to write to memory
 500:Drivers/STM32F1xx_HAL_Driver/Src/stm32f1xx_hal_sram.c ****   * @retval HAL status
 501:Drivers/STM32F1xx_HAL_Driver/Src/stm32f1xx_hal_sram.c ****   */
 502:Drivers/STM32F1xx_HAL_Driver/Src/stm32f1xx_hal_sram.c **** HAL_StatusTypeDef HAL_SRAM_Write_16b(SRAM_HandleTypeDef *hsram, uint32_t *pAddress, uint16_t *pSrcB
 503:Drivers/STM32F1xx_HAL_Driver/Src/stm32f1xx_hal_sram.c ****                                      uint32_t BufferSize)
 504:Drivers/STM32F1xx_HAL_Driver/Src/stm32f1xx_hal_sram.c **** {
 505:Drivers/STM32F1xx_HAL_Driver/Src/stm32f1xx_hal_sram.c ****   uint32_t size;
 506:Drivers/STM32F1xx_HAL_Driver/Src/stm32f1xx_hal_sram.c ****   __IO uint32_t *psramaddress = pAddress;
 507:Drivers/STM32F1xx_HAL_Driver/Src/stm32f1xx_hal_sram.c ****   uint16_t *psrcbuff = pSrcBuffer;
 508:Drivers/STM32F1xx_HAL_Driver/Src/stm32f1xx_hal_sram.c ****   uint8_t limit;
 509:Drivers/STM32F1xx_HAL_Driver/Src/stm32f1xx_hal_sram.c **** 
 510:Drivers/STM32F1xx_HAL_Driver/Src/stm32f1xx_hal_sram.c ****   /* Check the SRAM controller state */
 511:Drivers/STM32F1xx_HAL_Driver/Src/stm32f1xx_hal_sram.c ****   if (hsram->State == HAL_SRAM_STATE_READY)
ARM GAS  /tmp/ccZFdKv2.s 			page 15


 512:Drivers/STM32F1xx_HAL_Driver/Src/stm32f1xx_hal_sram.c ****   {
 513:Drivers/STM32F1xx_HAL_Driver/Src/stm32f1xx_hal_sram.c ****     /* Process Locked */
 514:Drivers/STM32F1xx_HAL_Driver/Src/stm32f1xx_hal_sram.c ****     __HAL_LOCK(hsram);
 515:Drivers/STM32F1xx_HAL_Driver/Src/stm32f1xx_hal_sram.c **** 
 516:Drivers/STM32F1xx_HAL_Driver/Src/stm32f1xx_hal_sram.c ****     /* Update the SRAM controller state */
 517:Drivers/STM32F1xx_HAL_Driver/Src/stm32f1xx_hal_sram.c ****     hsram->State = HAL_SRAM_STATE_BUSY;
 518:Drivers/STM32F1xx_HAL_Driver/Src/stm32f1xx_hal_sram.c **** 
 519:Drivers/STM32F1xx_HAL_Driver/Src/stm32f1xx_hal_sram.c ****     /* Check if the size is a 32-bits multiple */
 520:Drivers/STM32F1xx_HAL_Driver/Src/stm32f1xx_hal_sram.c ****     limit = (((BufferSize % 2U) != 0U) ? 1U : 0U);
 521:Drivers/STM32F1xx_HAL_Driver/Src/stm32f1xx_hal_sram.c **** 
 522:Drivers/STM32F1xx_HAL_Driver/Src/stm32f1xx_hal_sram.c ****     /* Write data to memory */
 523:Drivers/STM32F1xx_HAL_Driver/Src/stm32f1xx_hal_sram.c ****     for (size = BufferSize; size != limit; size -= 2U)
 524:Drivers/STM32F1xx_HAL_Driver/Src/stm32f1xx_hal_sram.c ****     {
 525:Drivers/STM32F1xx_HAL_Driver/Src/stm32f1xx_hal_sram.c ****       *psramaddress = (uint32_t)(*psrcbuff);
 526:Drivers/STM32F1xx_HAL_Driver/Src/stm32f1xx_hal_sram.c ****       psrcbuff++;
 527:Drivers/STM32F1xx_HAL_Driver/Src/stm32f1xx_hal_sram.c ****       *psramaddress |= ((uint32_t)(*psrcbuff) << 16U);
 528:Drivers/STM32F1xx_HAL_Driver/Src/stm32f1xx_hal_sram.c ****       psrcbuff++;
 529:Drivers/STM32F1xx_HAL_Driver/Src/stm32f1xx_hal_sram.c ****       psramaddress++;
 530:Drivers/STM32F1xx_HAL_Driver/Src/stm32f1xx_hal_sram.c ****     }
 531:Drivers/STM32F1xx_HAL_Driver/Src/stm32f1xx_hal_sram.c **** 
 532:Drivers/STM32F1xx_HAL_Driver/Src/stm32f1xx_hal_sram.c ****     /* Write last 16-bits if size is not 32-bits multiple */
 533:Drivers/STM32F1xx_HAL_Driver/Src/stm32f1xx_hal_sram.c ****     if (limit != 0U)
 534:Drivers/STM32F1xx_HAL_Driver/Src/stm32f1xx_hal_sram.c ****     {
 535:Drivers/STM32F1xx_HAL_Driver/Src/stm32f1xx_hal_sram.c ****       *psramaddress = ((uint32_t)(*psrcbuff) & 0x0000FFFFU) | ((*psramaddress) & 0xFFFF0000U);
 536:Drivers/STM32F1xx_HAL_Driver/Src/stm32f1xx_hal_sram.c ****     }
 537:Drivers/STM32F1xx_HAL_Driver/Src/stm32f1xx_hal_sram.c **** 
 538:Drivers/STM32F1xx_HAL_Driver/Src/stm32f1xx_hal_sram.c ****     /* Update the SRAM controller state */
 539:Drivers/STM32F1xx_HAL_Driver/Src/stm32f1xx_hal_sram.c ****     hsram->State = HAL_SRAM_STATE_READY;
 540:Drivers/STM32F1xx_HAL_Driver/Src/stm32f1xx_hal_sram.c **** 
 541:Drivers/STM32F1xx_HAL_Driver/Src/stm32f1xx_hal_sram.c ****     /* Process unlocked */
 542:Drivers/STM32F1xx_HAL_Driver/Src/stm32f1xx_hal_sram.c ****     __HAL_UNLOCK(hsram);
 543:Drivers/STM32F1xx_HAL_Driver/Src/stm32f1xx_hal_sram.c ****   }
 544:Drivers/STM32F1xx_HAL_Driver/Src/stm32f1xx_hal_sram.c ****   else
 545:Drivers/STM32F1xx_HAL_Driver/Src/stm32f1xx_hal_sram.c ****   {
 546:Drivers/STM32F1xx_HAL_Driver/Src/stm32f1xx_hal_sram.c ****     return HAL_ERROR;
 547:Drivers/STM32F1xx_HAL_Driver/Src/stm32f1xx_hal_sram.c ****   }
 548:Drivers/STM32F1xx_HAL_Driver/Src/stm32f1xx_hal_sram.c **** 
 549:Drivers/STM32F1xx_HAL_Driver/Src/stm32f1xx_hal_sram.c ****   return HAL_OK;
 550:Drivers/STM32F1xx_HAL_Driver/Src/stm32f1xx_hal_sram.c **** }
 551:Drivers/STM32F1xx_HAL_Driver/Src/stm32f1xx_hal_sram.c **** 
 552:Drivers/STM32F1xx_HAL_Driver/Src/stm32f1xx_hal_sram.c **** /**
 553:Drivers/STM32F1xx_HAL_Driver/Src/stm32f1xx_hal_sram.c ****   * @brief  Reads 32-bit buffer from SRAM memory.
 554:Drivers/STM32F1xx_HAL_Driver/Src/stm32f1xx_hal_sram.c ****   * @param  hsram pointer to a SRAM_HandleTypeDef structure that contains
 555:Drivers/STM32F1xx_HAL_Driver/Src/stm32f1xx_hal_sram.c ****   *                the configuration information for SRAM module.
 556:Drivers/STM32F1xx_HAL_Driver/Src/stm32f1xx_hal_sram.c ****   * @param  pAddress Pointer to read start address
 557:Drivers/STM32F1xx_HAL_Driver/Src/stm32f1xx_hal_sram.c ****   * @param  pDstBuffer Pointer to destination buffer
 558:Drivers/STM32F1xx_HAL_Driver/Src/stm32f1xx_hal_sram.c ****   * @param  BufferSize Size of the buffer to read from memory
 559:Drivers/STM32F1xx_HAL_Driver/Src/stm32f1xx_hal_sram.c ****   * @retval HAL status
 560:Drivers/STM32F1xx_HAL_Driver/Src/stm32f1xx_hal_sram.c ****   */
 561:Drivers/STM32F1xx_HAL_Driver/Src/stm32f1xx_hal_sram.c **** HAL_StatusTypeDef HAL_SRAM_Read_32b(SRAM_HandleTypeDef *hsram, uint32_t *pAddress, uint32_t *pDstBu
 562:Drivers/STM32F1xx_HAL_Driver/Src/stm32f1xx_hal_sram.c ****                                     uint32_t BufferSize)
 563:Drivers/STM32F1xx_HAL_Driver/Src/stm32f1xx_hal_sram.c **** {
 564:Drivers/STM32F1xx_HAL_Driver/Src/stm32f1xx_hal_sram.c ****   uint32_t size;
 565:Drivers/STM32F1xx_HAL_Driver/Src/stm32f1xx_hal_sram.c ****   __IO uint32_t *psramaddress = pAddress;
 566:Drivers/STM32F1xx_HAL_Driver/Src/stm32f1xx_hal_sram.c ****   uint32_t *pdestbuff = pDstBuffer;
 567:Drivers/STM32F1xx_HAL_Driver/Src/stm32f1xx_hal_sram.c ****   HAL_SRAM_StateTypeDef state = hsram->State;
 568:Drivers/STM32F1xx_HAL_Driver/Src/stm32f1xx_hal_sram.c **** 
ARM GAS  /tmp/ccZFdKv2.s 			page 16


 569:Drivers/STM32F1xx_HAL_Driver/Src/stm32f1xx_hal_sram.c ****   /* Check the SRAM controller state */
 570:Drivers/STM32F1xx_HAL_Driver/Src/stm32f1xx_hal_sram.c ****   if ((state == HAL_SRAM_STATE_READY) || (state == HAL_SRAM_STATE_PROTECTED))
 571:Drivers/STM32F1xx_HAL_Driver/Src/stm32f1xx_hal_sram.c ****   {
 572:Drivers/STM32F1xx_HAL_Driver/Src/stm32f1xx_hal_sram.c ****     /* Process Locked */
 573:Drivers/STM32F1xx_HAL_Driver/Src/stm32f1xx_hal_sram.c ****     __HAL_LOCK(hsram);
 574:Drivers/STM32F1xx_HAL_Driver/Src/stm32f1xx_hal_sram.c **** 
 575:Drivers/STM32F1xx_HAL_Driver/Src/stm32f1xx_hal_sram.c ****     /* Update the SRAM controller state */
 576:Drivers/STM32F1xx_HAL_Driver/Src/stm32f1xx_hal_sram.c ****     hsram->State = HAL_SRAM_STATE_BUSY;
 577:Drivers/STM32F1xx_HAL_Driver/Src/stm32f1xx_hal_sram.c **** 
 578:Drivers/STM32F1xx_HAL_Driver/Src/stm32f1xx_hal_sram.c ****     /* Read data from memory */
 579:Drivers/STM32F1xx_HAL_Driver/Src/stm32f1xx_hal_sram.c ****     for (size = BufferSize; size != 0U; size--)
 580:Drivers/STM32F1xx_HAL_Driver/Src/stm32f1xx_hal_sram.c ****     {
 581:Drivers/STM32F1xx_HAL_Driver/Src/stm32f1xx_hal_sram.c ****       *pdestbuff = *psramaddress;
 582:Drivers/STM32F1xx_HAL_Driver/Src/stm32f1xx_hal_sram.c ****       pdestbuff++;
 583:Drivers/STM32F1xx_HAL_Driver/Src/stm32f1xx_hal_sram.c ****       psramaddress++;
 584:Drivers/STM32F1xx_HAL_Driver/Src/stm32f1xx_hal_sram.c ****     }
 585:Drivers/STM32F1xx_HAL_Driver/Src/stm32f1xx_hal_sram.c **** 
 586:Drivers/STM32F1xx_HAL_Driver/Src/stm32f1xx_hal_sram.c ****     /* Update the SRAM controller state */
 587:Drivers/STM32F1xx_HAL_Driver/Src/stm32f1xx_hal_sram.c ****     hsram->State = state;
 588:Drivers/STM32F1xx_HAL_Driver/Src/stm32f1xx_hal_sram.c **** 
 589:Drivers/STM32F1xx_HAL_Driver/Src/stm32f1xx_hal_sram.c ****     /* Process unlocked */
 590:Drivers/STM32F1xx_HAL_Driver/Src/stm32f1xx_hal_sram.c ****     __HAL_UNLOCK(hsram);
 591:Drivers/STM32F1xx_HAL_Driver/Src/stm32f1xx_hal_sram.c ****   }
 592:Drivers/STM32F1xx_HAL_Driver/Src/stm32f1xx_hal_sram.c ****   else
 593:Drivers/STM32F1xx_HAL_Driver/Src/stm32f1xx_hal_sram.c ****   {
 594:Drivers/STM32F1xx_HAL_Driver/Src/stm32f1xx_hal_sram.c ****     return HAL_ERROR;
 595:Drivers/STM32F1xx_HAL_Driver/Src/stm32f1xx_hal_sram.c ****   }
 596:Drivers/STM32F1xx_HAL_Driver/Src/stm32f1xx_hal_sram.c **** 
 597:Drivers/STM32F1xx_HAL_Driver/Src/stm32f1xx_hal_sram.c ****   return HAL_OK;
 598:Drivers/STM32F1xx_HAL_Driver/Src/stm32f1xx_hal_sram.c **** }
 599:Drivers/STM32F1xx_HAL_Driver/Src/stm32f1xx_hal_sram.c **** 
 600:Drivers/STM32F1xx_HAL_Driver/Src/stm32f1xx_hal_sram.c **** /**
 601:Drivers/STM32F1xx_HAL_Driver/Src/stm32f1xx_hal_sram.c ****   * @brief  Writes 32-bit buffer to SRAM memory.
 602:Drivers/STM32F1xx_HAL_Driver/Src/stm32f1xx_hal_sram.c ****   * @param  hsram pointer to a SRAM_HandleTypeDef structure that contains
 603:Drivers/STM32F1xx_HAL_Driver/Src/stm32f1xx_hal_sram.c ****   *                the configuration information for SRAM module.
 604:Drivers/STM32F1xx_HAL_Driver/Src/stm32f1xx_hal_sram.c ****   * @param  pAddress Pointer to write start address
 605:Drivers/STM32F1xx_HAL_Driver/Src/stm32f1xx_hal_sram.c ****   * @param  pSrcBuffer Pointer to source buffer to write
 606:Drivers/STM32F1xx_HAL_Driver/Src/stm32f1xx_hal_sram.c ****   * @param  BufferSize Size of the buffer to write to memory
 607:Drivers/STM32F1xx_HAL_Driver/Src/stm32f1xx_hal_sram.c ****   * @retval HAL status
 608:Drivers/STM32F1xx_HAL_Driver/Src/stm32f1xx_hal_sram.c ****   */
 609:Drivers/STM32F1xx_HAL_Driver/Src/stm32f1xx_hal_sram.c **** HAL_StatusTypeDef HAL_SRAM_Write_32b(SRAM_HandleTypeDef *hsram, uint32_t *pAddress, uint32_t *pSrcB
 610:Drivers/STM32F1xx_HAL_Driver/Src/stm32f1xx_hal_sram.c ****                                      uint32_t BufferSize)
 611:Drivers/STM32F1xx_HAL_Driver/Src/stm32f1xx_hal_sram.c **** {
 612:Drivers/STM32F1xx_HAL_Driver/Src/stm32f1xx_hal_sram.c ****   uint32_t size;
 613:Drivers/STM32F1xx_HAL_Driver/Src/stm32f1xx_hal_sram.c ****   __IO uint32_t *psramaddress = pAddress;
 614:Drivers/STM32F1xx_HAL_Driver/Src/stm32f1xx_hal_sram.c ****   uint32_t *psrcbuff = pSrcBuffer;
 615:Drivers/STM32F1xx_HAL_Driver/Src/stm32f1xx_hal_sram.c **** 
 616:Drivers/STM32F1xx_HAL_Driver/Src/stm32f1xx_hal_sram.c ****   /* Check the SRAM controller state */
 617:Drivers/STM32F1xx_HAL_Driver/Src/stm32f1xx_hal_sram.c ****   if (hsram->State == HAL_SRAM_STATE_READY)
 618:Drivers/STM32F1xx_HAL_Driver/Src/stm32f1xx_hal_sram.c ****   {
 619:Drivers/STM32F1xx_HAL_Driver/Src/stm32f1xx_hal_sram.c ****     /* Process Locked */
 620:Drivers/STM32F1xx_HAL_Driver/Src/stm32f1xx_hal_sram.c ****     __HAL_LOCK(hsram);
 621:Drivers/STM32F1xx_HAL_Driver/Src/stm32f1xx_hal_sram.c **** 
 622:Drivers/STM32F1xx_HAL_Driver/Src/stm32f1xx_hal_sram.c ****     /* Update the SRAM controller state */
 623:Drivers/STM32F1xx_HAL_Driver/Src/stm32f1xx_hal_sram.c ****     hsram->State = HAL_SRAM_STATE_BUSY;
 624:Drivers/STM32F1xx_HAL_Driver/Src/stm32f1xx_hal_sram.c **** 
 625:Drivers/STM32F1xx_HAL_Driver/Src/stm32f1xx_hal_sram.c ****     /* Write data to memory */
ARM GAS  /tmp/ccZFdKv2.s 			page 17


 626:Drivers/STM32F1xx_HAL_Driver/Src/stm32f1xx_hal_sram.c ****     for (size = BufferSize; size != 0U; size--)
 627:Drivers/STM32F1xx_HAL_Driver/Src/stm32f1xx_hal_sram.c ****     {
 628:Drivers/STM32F1xx_HAL_Driver/Src/stm32f1xx_hal_sram.c ****       *psramaddress = *psrcbuff;
 629:Drivers/STM32F1xx_HAL_Driver/Src/stm32f1xx_hal_sram.c ****       psrcbuff++;
 630:Drivers/STM32F1xx_HAL_Driver/Src/stm32f1xx_hal_sram.c ****       psramaddress++;
 631:Drivers/STM32F1xx_HAL_Driver/Src/stm32f1xx_hal_sram.c ****     }
 632:Drivers/STM32F1xx_HAL_Driver/Src/stm32f1xx_hal_sram.c **** 
 633:Drivers/STM32F1xx_HAL_Driver/Src/stm32f1xx_hal_sram.c ****     /* Update the SRAM controller state */
 634:Drivers/STM32F1xx_HAL_Driver/Src/stm32f1xx_hal_sram.c ****     hsram->State = HAL_SRAM_STATE_READY;
 635:Drivers/STM32F1xx_HAL_Driver/Src/stm32f1xx_hal_sram.c **** 
 636:Drivers/STM32F1xx_HAL_Driver/Src/stm32f1xx_hal_sram.c ****     /* Process unlocked */
 637:Drivers/STM32F1xx_HAL_Driver/Src/stm32f1xx_hal_sram.c ****     __HAL_UNLOCK(hsram);
 638:Drivers/STM32F1xx_HAL_Driver/Src/stm32f1xx_hal_sram.c ****   }
 639:Drivers/STM32F1xx_HAL_Driver/Src/stm32f1xx_hal_sram.c ****   else
 640:Drivers/STM32F1xx_HAL_Driver/Src/stm32f1xx_hal_sram.c ****   {
 641:Drivers/STM32F1xx_HAL_Driver/Src/stm32f1xx_hal_sram.c ****     return HAL_ERROR;
 642:Drivers/STM32F1xx_HAL_Driver/Src/stm32f1xx_hal_sram.c ****   }
 643:Drivers/STM32F1xx_HAL_Driver/Src/stm32f1xx_hal_sram.c **** 
 644:Drivers/STM32F1xx_HAL_Driver/Src/stm32f1xx_hal_sram.c ****   return HAL_OK;
 645:Drivers/STM32F1xx_HAL_Driver/Src/stm32f1xx_hal_sram.c **** }
 646:Drivers/STM32F1xx_HAL_Driver/Src/stm32f1xx_hal_sram.c **** 
 647:Drivers/STM32F1xx_HAL_Driver/Src/stm32f1xx_hal_sram.c **** /**
 648:Drivers/STM32F1xx_HAL_Driver/Src/stm32f1xx_hal_sram.c ****   * @brief  Reads a Words data from the SRAM memory using DMA transfer.
 649:Drivers/STM32F1xx_HAL_Driver/Src/stm32f1xx_hal_sram.c ****   * @param  hsram pointer to a SRAM_HandleTypeDef structure that contains
 650:Drivers/STM32F1xx_HAL_Driver/Src/stm32f1xx_hal_sram.c ****   *                the configuration information for SRAM module.
 651:Drivers/STM32F1xx_HAL_Driver/Src/stm32f1xx_hal_sram.c ****   * @param  pAddress Pointer to read start address
 652:Drivers/STM32F1xx_HAL_Driver/Src/stm32f1xx_hal_sram.c ****   * @param  pDstBuffer Pointer to destination buffer
 653:Drivers/STM32F1xx_HAL_Driver/Src/stm32f1xx_hal_sram.c ****   * @param  BufferSize Size of the buffer to read from memory
 654:Drivers/STM32F1xx_HAL_Driver/Src/stm32f1xx_hal_sram.c ****   * @retval HAL status
 655:Drivers/STM32F1xx_HAL_Driver/Src/stm32f1xx_hal_sram.c ****   */
 656:Drivers/STM32F1xx_HAL_Driver/Src/stm32f1xx_hal_sram.c **** HAL_StatusTypeDef HAL_SRAM_Read_DMA(SRAM_HandleTypeDef *hsram, uint32_t *pAddress, uint32_t *pDstBu
 657:Drivers/STM32F1xx_HAL_Driver/Src/stm32f1xx_hal_sram.c ****                                     uint32_t BufferSize)
 658:Drivers/STM32F1xx_HAL_Driver/Src/stm32f1xx_hal_sram.c **** {
 659:Drivers/STM32F1xx_HAL_Driver/Src/stm32f1xx_hal_sram.c ****   HAL_StatusTypeDef status;
 660:Drivers/STM32F1xx_HAL_Driver/Src/stm32f1xx_hal_sram.c ****   HAL_SRAM_StateTypeDef state = hsram->State;
 661:Drivers/STM32F1xx_HAL_Driver/Src/stm32f1xx_hal_sram.c **** 
 662:Drivers/STM32F1xx_HAL_Driver/Src/stm32f1xx_hal_sram.c ****   /* Check the SRAM controller state */
 663:Drivers/STM32F1xx_HAL_Driver/Src/stm32f1xx_hal_sram.c ****   if ((state == HAL_SRAM_STATE_READY) || (state == HAL_SRAM_STATE_PROTECTED))
 664:Drivers/STM32F1xx_HAL_Driver/Src/stm32f1xx_hal_sram.c ****   {
 665:Drivers/STM32F1xx_HAL_Driver/Src/stm32f1xx_hal_sram.c ****     /* Process Locked */
 666:Drivers/STM32F1xx_HAL_Driver/Src/stm32f1xx_hal_sram.c ****     __HAL_LOCK(hsram);
 667:Drivers/STM32F1xx_HAL_Driver/Src/stm32f1xx_hal_sram.c **** 
 668:Drivers/STM32F1xx_HAL_Driver/Src/stm32f1xx_hal_sram.c ****     /* Update the SRAM controller state */
 669:Drivers/STM32F1xx_HAL_Driver/Src/stm32f1xx_hal_sram.c ****     hsram->State = HAL_SRAM_STATE_BUSY;
 670:Drivers/STM32F1xx_HAL_Driver/Src/stm32f1xx_hal_sram.c **** 
 671:Drivers/STM32F1xx_HAL_Driver/Src/stm32f1xx_hal_sram.c ****     /* Configure DMA user callbacks */
 672:Drivers/STM32F1xx_HAL_Driver/Src/stm32f1xx_hal_sram.c ****     if (state == HAL_SRAM_STATE_READY)
 673:Drivers/STM32F1xx_HAL_Driver/Src/stm32f1xx_hal_sram.c ****     {
 674:Drivers/STM32F1xx_HAL_Driver/Src/stm32f1xx_hal_sram.c ****       hsram->hdma->XferCpltCallback = SRAM_DMACplt;
 675:Drivers/STM32F1xx_HAL_Driver/Src/stm32f1xx_hal_sram.c ****     }
 676:Drivers/STM32F1xx_HAL_Driver/Src/stm32f1xx_hal_sram.c ****     else
 677:Drivers/STM32F1xx_HAL_Driver/Src/stm32f1xx_hal_sram.c ****     {
 678:Drivers/STM32F1xx_HAL_Driver/Src/stm32f1xx_hal_sram.c ****       hsram->hdma->XferCpltCallback = SRAM_DMACpltProt;
 679:Drivers/STM32F1xx_HAL_Driver/Src/stm32f1xx_hal_sram.c ****     }
 680:Drivers/STM32F1xx_HAL_Driver/Src/stm32f1xx_hal_sram.c ****     hsram->hdma->XferErrorCallback = SRAM_DMAError;
 681:Drivers/STM32F1xx_HAL_Driver/Src/stm32f1xx_hal_sram.c **** 
 682:Drivers/STM32F1xx_HAL_Driver/Src/stm32f1xx_hal_sram.c ****     /* Enable the DMA Stream */
ARM GAS  /tmp/ccZFdKv2.s 			page 18


 683:Drivers/STM32F1xx_HAL_Driver/Src/stm32f1xx_hal_sram.c ****     status = HAL_DMA_Start_IT(hsram->hdma, (uint32_t)pAddress, (uint32_t)pDstBuffer, (uint32_t)Buff
 684:Drivers/STM32F1xx_HAL_Driver/Src/stm32f1xx_hal_sram.c **** 
 685:Drivers/STM32F1xx_HAL_Driver/Src/stm32f1xx_hal_sram.c ****     /* Process unlocked */
 686:Drivers/STM32F1xx_HAL_Driver/Src/stm32f1xx_hal_sram.c ****     __HAL_UNLOCK(hsram);
 687:Drivers/STM32F1xx_HAL_Driver/Src/stm32f1xx_hal_sram.c ****   }
 688:Drivers/STM32F1xx_HAL_Driver/Src/stm32f1xx_hal_sram.c ****   else
 689:Drivers/STM32F1xx_HAL_Driver/Src/stm32f1xx_hal_sram.c ****   {
 690:Drivers/STM32F1xx_HAL_Driver/Src/stm32f1xx_hal_sram.c ****     status = HAL_ERROR;
 691:Drivers/STM32F1xx_HAL_Driver/Src/stm32f1xx_hal_sram.c ****   }
 692:Drivers/STM32F1xx_HAL_Driver/Src/stm32f1xx_hal_sram.c **** 
 693:Drivers/STM32F1xx_HAL_Driver/Src/stm32f1xx_hal_sram.c ****   return status;
 694:Drivers/STM32F1xx_HAL_Driver/Src/stm32f1xx_hal_sram.c **** }
 695:Drivers/STM32F1xx_HAL_Driver/Src/stm32f1xx_hal_sram.c **** 
 696:Drivers/STM32F1xx_HAL_Driver/Src/stm32f1xx_hal_sram.c **** /**
 697:Drivers/STM32F1xx_HAL_Driver/Src/stm32f1xx_hal_sram.c ****   * @brief  Writes a Words data buffer to SRAM memory using DMA transfer.
 698:Drivers/STM32F1xx_HAL_Driver/Src/stm32f1xx_hal_sram.c ****   * @param  hsram pointer to a SRAM_HandleTypeDef structure that contains
 699:Drivers/STM32F1xx_HAL_Driver/Src/stm32f1xx_hal_sram.c ****   *                the configuration information for SRAM module.
 700:Drivers/STM32F1xx_HAL_Driver/Src/stm32f1xx_hal_sram.c ****   * @param  pAddress Pointer to write start address
 701:Drivers/STM32F1xx_HAL_Driver/Src/stm32f1xx_hal_sram.c ****   * @param  pSrcBuffer Pointer to source buffer to write
 702:Drivers/STM32F1xx_HAL_Driver/Src/stm32f1xx_hal_sram.c ****   * @param  BufferSize Size of the buffer to write to memory
 703:Drivers/STM32F1xx_HAL_Driver/Src/stm32f1xx_hal_sram.c ****   * @retval HAL status
 704:Drivers/STM32F1xx_HAL_Driver/Src/stm32f1xx_hal_sram.c ****   */
 705:Drivers/STM32F1xx_HAL_Driver/Src/stm32f1xx_hal_sram.c **** HAL_StatusTypeDef HAL_SRAM_Write_DMA(SRAM_HandleTypeDef *hsram, uint32_t *pAddress, uint32_t *pSrcB
 706:Drivers/STM32F1xx_HAL_Driver/Src/stm32f1xx_hal_sram.c ****                                      uint32_t BufferSize)
 707:Drivers/STM32F1xx_HAL_Driver/Src/stm32f1xx_hal_sram.c **** {
 708:Drivers/STM32F1xx_HAL_Driver/Src/stm32f1xx_hal_sram.c ****   HAL_StatusTypeDef status;
 709:Drivers/STM32F1xx_HAL_Driver/Src/stm32f1xx_hal_sram.c **** 
 710:Drivers/STM32F1xx_HAL_Driver/Src/stm32f1xx_hal_sram.c ****   /* Check the SRAM controller state */
 711:Drivers/STM32F1xx_HAL_Driver/Src/stm32f1xx_hal_sram.c ****   if (hsram->State == HAL_SRAM_STATE_READY)
 712:Drivers/STM32F1xx_HAL_Driver/Src/stm32f1xx_hal_sram.c ****   {
 713:Drivers/STM32F1xx_HAL_Driver/Src/stm32f1xx_hal_sram.c ****     /* Process Locked */
 714:Drivers/STM32F1xx_HAL_Driver/Src/stm32f1xx_hal_sram.c ****     __HAL_LOCK(hsram);
 715:Drivers/STM32F1xx_HAL_Driver/Src/stm32f1xx_hal_sram.c **** 
 716:Drivers/STM32F1xx_HAL_Driver/Src/stm32f1xx_hal_sram.c ****     /* Update the SRAM controller state */
 717:Drivers/STM32F1xx_HAL_Driver/Src/stm32f1xx_hal_sram.c ****     hsram->State = HAL_SRAM_STATE_BUSY;
 718:Drivers/STM32F1xx_HAL_Driver/Src/stm32f1xx_hal_sram.c **** 
 719:Drivers/STM32F1xx_HAL_Driver/Src/stm32f1xx_hal_sram.c ****     /* Configure DMA user callbacks */
 720:Drivers/STM32F1xx_HAL_Driver/Src/stm32f1xx_hal_sram.c ****     hsram->hdma->XferCpltCallback = SRAM_DMACplt;
 721:Drivers/STM32F1xx_HAL_Driver/Src/stm32f1xx_hal_sram.c ****     hsram->hdma->XferErrorCallback = SRAM_DMAError;
 722:Drivers/STM32F1xx_HAL_Driver/Src/stm32f1xx_hal_sram.c **** 
 723:Drivers/STM32F1xx_HAL_Driver/Src/stm32f1xx_hal_sram.c ****     /* Enable the DMA Stream */
 724:Drivers/STM32F1xx_HAL_Driver/Src/stm32f1xx_hal_sram.c ****     status = HAL_DMA_Start_IT(hsram->hdma, (uint32_t)pSrcBuffer, (uint32_t)pAddress, (uint32_t)Buff
 725:Drivers/STM32F1xx_HAL_Driver/Src/stm32f1xx_hal_sram.c **** 
 726:Drivers/STM32F1xx_HAL_Driver/Src/stm32f1xx_hal_sram.c ****     /* Process unlocked */
 727:Drivers/STM32F1xx_HAL_Driver/Src/stm32f1xx_hal_sram.c ****     __HAL_UNLOCK(hsram);
 728:Drivers/STM32F1xx_HAL_Driver/Src/stm32f1xx_hal_sram.c ****   }
 729:Drivers/STM32F1xx_HAL_Driver/Src/stm32f1xx_hal_sram.c ****   else
 730:Drivers/STM32F1xx_HAL_Driver/Src/stm32f1xx_hal_sram.c ****   {
 731:Drivers/STM32F1xx_HAL_Driver/Src/stm32f1xx_hal_sram.c ****     status = HAL_ERROR;
 732:Drivers/STM32F1xx_HAL_Driver/Src/stm32f1xx_hal_sram.c ****   }
 733:Drivers/STM32F1xx_HAL_Driver/Src/stm32f1xx_hal_sram.c **** 
 734:Drivers/STM32F1xx_HAL_Driver/Src/stm32f1xx_hal_sram.c ****   return status;
 735:Drivers/STM32F1xx_HAL_Driver/Src/stm32f1xx_hal_sram.c **** }
 736:Drivers/STM32F1xx_HAL_Driver/Src/stm32f1xx_hal_sram.c **** 
 737:Drivers/STM32F1xx_HAL_Driver/Src/stm32f1xx_hal_sram.c **** #if (USE_HAL_SRAM_REGISTER_CALLBACKS == 1)
 738:Drivers/STM32F1xx_HAL_Driver/Src/stm32f1xx_hal_sram.c **** /**
 739:Drivers/STM32F1xx_HAL_Driver/Src/stm32f1xx_hal_sram.c ****   * @brief  Register a User SRAM Callback
ARM GAS  /tmp/ccZFdKv2.s 			page 19


 740:Drivers/STM32F1xx_HAL_Driver/Src/stm32f1xx_hal_sram.c ****   *         To be used instead of the weak (surcharged) predefined callback
 741:Drivers/STM32F1xx_HAL_Driver/Src/stm32f1xx_hal_sram.c ****   * @param hsram : SRAM handle
 742:Drivers/STM32F1xx_HAL_Driver/Src/stm32f1xx_hal_sram.c ****   * @param CallbackId : ID of the callback to be registered
 743:Drivers/STM32F1xx_HAL_Driver/Src/stm32f1xx_hal_sram.c ****   *        This parameter can be one of the following values:
 744:Drivers/STM32F1xx_HAL_Driver/Src/stm32f1xx_hal_sram.c ****   *          @arg @ref HAL_SRAM_MSP_INIT_CB_ID       SRAM MspInit callback ID
 745:Drivers/STM32F1xx_HAL_Driver/Src/stm32f1xx_hal_sram.c ****   *          @arg @ref HAL_SRAM_MSP_DEINIT_CB_ID     SRAM MspDeInit callback ID
 746:Drivers/STM32F1xx_HAL_Driver/Src/stm32f1xx_hal_sram.c ****   * @param pCallback : pointer to the Callback function
 747:Drivers/STM32F1xx_HAL_Driver/Src/stm32f1xx_hal_sram.c ****   * @retval status
 748:Drivers/STM32F1xx_HAL_Driver/Src/stm32f1xx_hal_sram.c ****   */
 749:Drivers/STM32F1xx_HAL_Driver/Src/stm32f1xx_hal_sram.c **** HAL_StatusTypeDef HAL_SRAM_RegisterCallback(SRAM_HandleTypeDef *hsram, HAL_SRAM_CallbackIDTypeDef C
 750:Drivers/STM32F1xx_HAL_Driver/Src/stm32f1xx_hal_sram.c ****                                             pSRAM_CallbackTypeDef pCallback)
 751:Drivers/STM32F1xx_HAL_Driver/Src/stm32f1xx_hal_sram.c **** {
 752:Drivers/STM32F1xx_HAL_Driver/Src/stm32f1xx_hal_sram.c ****   HAL_StatusTypeDef status = HAL_OK;
 753:Drivers/STM32F1xx_HAL_Driver/Src/stm32f1xx_hal_sram.c ****   HAL_SRAM_StateTypeDef state;
 754:Drivers/STM32F1xx_HAL_Driver/Src/stm32f1xx_hal_sram.c **** 
 755:Drivers/STM32F1xx_HAL_Driver/Src/stm32f1xx_hal_sram.c ****   if (pCallback == NULL)
 756:Drivers/STM32F1xx_HAL_Driver/Src/stm32f1xx_hal_sram.c ****   {
 757:Drivers/STM32F1xx_HAL_Driver/Src/stm32f1xx_hal_sram.c ****     return HAL_ERROR;
 758:Drivers/STM32F1xx_HAL_Driver/Src/stm32f1xx_hal_sram.c ****   }
 759:Drivers/STM32F1xx_HAL_Driver/Src/stm32f1xx_hal_sram.c **** 
 760:Drivers/STM32F1xx_HAL_Driver/Src/stm32f1xx_hal_sram.c ****   /* Process locked */
 761:Drivers/STM32F1xx_HAL_Driver/Src/stm32f1xx_hal_sram.c ****   __HAL_LOCK(hsram);
 762:Drivers/STM32F1xx_HAL_Driver/Src/stm32f1xx_hal_sram.c **** 
 763:Drivers/STM32F1xx_HAL_Driver/Src/stm32f1xx_hal_sram.c ****   state = hsram->State;
 764:Drivers/STM32F1xx_HAL_Driver/Src/stm32f1xx_hal_sram.c ****   if ((state == HAL_SRAM_STATE_READY) || (state == HAL_SRAM_STATE_RESET) || (state == HAL_SRAM_STAT
 765:Drivers/STM32F1xx_HAL_Driver/Src/stm32f1xx_hal_sram.c ****   {
 766:Drivers/STM32F1xx_HAL_Driver/Src/stm32f1xx_hal_sram.c ****     switch (CallbackId)
 767:Drivers/STM32F1xx_HAL_Driver/Src/stm32f1xx_hal_sram.c ****     {
 768:Drivers/STM32F1xx_HAL_Driver/Src/stm32f1xx_hal_sram.c ****       case HAL_SRAM_MSP_INIT_CB_ID :
 769:Drivers/STM32F1xx_HAL_Driver/Src/stm32f1xx_hal_sram.c ****         hsram->MspInitCallback = pCallback;
 770:Drivers/STM32F1xx_HAL_Driver/Src/stm32f1xx_hal_sram.c ****         break;
 771:Drivers/STM32F1xx_HAL_Driver/Src/stm32f1xx_hal_sram.c ****       case HAL_SRAM_MSP_DEINIT_CB_ID :
 772:Drivers/STM32F1xx_HAL_Driver/Src/stm32f1xx_hal_sram.c ****         hsram->MspDeInitCallback = pCallback;
 773:Drivers/STM32F1xx_HAL_Driver/Src/stm32f1xx_hal_sram.c ****         break;
 774:Drivers/STM32F1xx_HAL_Driver/Src/stm32f1xx_hal_sram.c ****       default :
 775:Drivers/STM32F1xx_HAL_Driver/Src/stm32f1xx_hal_sram.c ****         /* update return status */
 776:Drivers/STM32F1xx_HAL_Driver/Src/stm32f1xx_hal_sram.c ****         status =  HAL_ERROR;
 777:Drivers/STM32F1xx_HAL_Driver/Src/stm32f1xx_hal_sram.c ****         break;
 778:Drivers/STM32F1xx_HAL_Driver/Src/stm32f1xx_hal_sram.c ****     }
 779:Drivers/STM32F1xx_HAL_Driver/Src/stm32f1xx_hal_sram.c ****   }
 780:Drivers/STM32F1xx_HAL_Driver/Src/stm32f1xx_hal_sram.c ****   else
 781:Drivers/STM32F1xx_HAL_Driver/Src/stm32f1xx_hal_sram.c ****   {
 782:Drivers/STM32F1xx_HAL_Driver/Src/stm32f1xx_hal_sram.c ****     /* update return status */
 783:Drivers/STM32F1xx_HAL_Driver/Src/stm32f1xx_hal_sram.c ****     status =  HAL_ERROR;
 784:Drivers/STM32F1xx_HAL_Driver/Src/stm32f1xx_hal_sram.c ****   }
 785:Drivers/STM32F1xx_HAL_Driver/Src/stm32f1xx_hal_sram.c **** 
 786:Drivers/STM32F1xx_HAL_Driver/Src/stm32f1xx_hal_sram.c ****   /* Release Lock */
 787:Drivers/STM32F1xx_HAL_Driver/Src/stm32f1xx_hal_sram.c ****   __HAL_UNLOCK(hsram);
 788:Drivers/STM32F1xx_HAL_Driver/Src/stm32f1xx_hal_sram.c ****   return status;
 789:Drivers/STM32F1xx_HAL_Driver/Src/stm32f1xx_hal_sram.c **** }
 790:Drivers/STM32F1xx_HAL_Driver/Src/stm32f1xx_hal_sram.c **** 
 791:Drivers/STM32F1xx_HAL_Driver/Src/stm32f1xx_hal_sram.c **** /**
 792:Drivers/STM32F1xx_HAL_Driver/Src/stm32f1xx_hal_sram.c ****   * @brief  Unregister a User SRAM Callback
 793:Drivers/STM32F1xx_HAL_Driver/Src/stm32f1xx_hal_sram.c ****   *         SRAM Callback is redirected to the weak (surcharged) predefined callback
 794:Drivers/STM32F1xx_HAL_Driver/Src/stm32f1xx_hal_sram.c ****   * @param hsram : SRAM handle
 795:Drivers/STM32F1xx_HAL_Driver/Src/stm32f1xx_hal_sram.c ****   * @param CallbackId : ID of the callback to be unregistered
 796:Drivers/STM32F1xx_HAL_Driver/Src/stm32f1xx_hal_sram.c ****   *        This parameter can be one of the following values:
ARM GAS  /tmp/ccZFdKv2.s 			page 20


 797:Drivers/STM32F1xx_HAL_Driver/Src/stm32f1xx_hal_sram.c ****   *          @arg @ref HAL_SRAM_MSP_INIT_CB_ID       SRAM MspInit callback ID
 798:Drivers/STM32F1xx_HAL_Driver/Src/stm32f1xx_hal_sram.c ****   *          @arg @ref HAL_SRAM_MSP_DEINIT_CB_ID     SRAM MspDeInit callback ID
 799:Drivers/STM32F1xx_HAL_Driver/Src/stm32f1xx_hal_sram.c ****   *          @arg @ref HAL_SRAM_DMA_XFER_CPLT_CB_ID  SRAM DMA Xfer Complete callback ID
 800:Drivers/STM32F1xx_HAL_Driver/Src/stm32f1xx_hal_sram.c ****   *          @arg @ref HAL_SRAM_DMA_XFER_ERR_CB_ID   SRAM DMA Xfer Error callback ID
 801:Drivers/STM32F1xx_HAL_Driver/Src/stm32f1xx_hal_sram.c ****   * @retval status
 802:Drivers/STM32F1xx_HAL_Driver/Src/stm32f1xx_hal_sram.c ****   */
 803:Drivers/STM32F1xx_HAL_Driver/Src/stm32f1xx_hal_sram.c **** HAL_StatusTypeDef HAL_SRAM_UnRegisterCallback(SRAM_HandleTypeDef *hsram, HAL_SRAM_CallbackIDTypeDef
 804:Drivers/STM32F1xx_HAL_Driver/Src/stm32f1xx_hal_sram.c **** {
 805:Drivers/STM32F1xx_HAL_Driver/Src/stm32f1xx_hal_sram.c ****   HAL_StatusTypeDef status = HAL_OK;
 806:Drivers/STM32F1xx_HAL_Driver/Src/stm32f1xx_hal_sram.c ****   HAL_SRAM_StateTypeDef state;
 807:Drivers/STM32F1xx_HAL_Driver/Src/stm32f1xx_hal_sram.c **** 
 808:Drivers/STM32F1xx_HAL_Driver/Src/stm32f1xx_hal_sram.c ****   /* Process locked */
 809:Drivers/STM32F1xx_HAL_Driver/Src/stm32f1xx_hal_sram.c ****   __HAL_LOCK(hsram);
 810:Drivers/STM32F1xx_HAL_Driver/Src/stm32f1xx_hal_sram.c **** 
 811:Drivers/STM32F1xx_HAL_Driver/Src/stm32f1xx_hal_sram.c ****   state = hsram->State;
 812:Drivers/STM32F1xx_HAL_Driver/Src/stm32f1xx_hal_sram.c ****   if ((state == HAL_SRAM_STATE_READY) || (state == HAL_SRAM_STATE_PROTECTED))
 813:Drivers/STM32F1xx_HAL_Driver/Src/stm32f1xx_hal_sram.c ****   {
 814:Drivers/STM32F1xx_HAL_Driver/Src/stm32f1xx_hal_sram.c ****     switch (CallbackId)
 815:Drivers/STM32F1xx_HAL_Driver/Src/stm32f1xx_hal_sram.c ****     {
 816:Drivers/STM32F1xx_HAL_Driver/Src/stm32f1xx_hal_sram.c ****       case HAL_SRAM_MSP_INIT_CB_ID :
 817:Drivers/STM32F1xx_HAL_Driver/Src/stm32f1xx_hal_sram.c ****         hsram->MspInitCallback = HAL_SRAM_MspInit;
 818:Drivers/STM32F1xx_HAL_Driver/Src/stm32f1xx_hal_sram.c ****         break;
 819:Drivers/STM32F1xx_HAL_Driver/Src/stm32f1xx_hal_sram.c ****       case HAL_SRAM_MSP_DEINIT_CB_ID :
 820:Drivers/STM32F1xx_HAL_Driver/Src/stm32f1xx_hal_sram.c ****         hsram->MspDeInitCallback = HAL_SRAM_MspDeInit;
 821:Drivers/STM32F1xx_HAL_Driver/Src/stm32f1xx_hal_sram.c ****         break;
 822:Drivers/STM32F1xx_HAL_Driver/Src/stm32f1xx_hal_sram.c ****       case HAL_SRAM_DMA_XFER_CPLT_CB_ID :
 823:Drivers/STM32F1xx_HAL_Driver/Src/stm32f1xx_hal_sram.c ****         hsram->DmaXferCpltCallback = HAL_SRAM_DMA_XferCpltCallback;
 824:Drivers/STM32F1xx_HAL_Driver/Src/stm32f1xx_hal_sram.c ****         break;
 825:Drivers/STM32F1xx_HAL_Driver/Src/stm32f1xx_hal_sram.c ****       case HAL_SRAM_DMA_XFER_ERR_CB_ID :
 826:Drivers/STM32F1xx_HAL_Driver/Src/stm32f1xx_hal_sram.c ****         hsram->DmaXferErrorCallback = HAL_SRAM_DMA_XferErrorCallback;
 827:Drivers/STM32F1xx_HAL_Driver/Src/stm32f1xx_hal_sram.c ****         break;
 828:Drivers/STM32F1xx_HAL_Driver/Src/stm32f1xx_hal_sram.c ****       default :
 829:Drivers/STM32F1xx_HAL_Driver/Src/stm32f1xx_hal_sram.c ****         /* update return status */
 830:Drivers/STM32F1xx_HAL_Driver/Src/stm32f1xx_hal_sram.c ****         status =  HAL_ERROR;
 831:Drivers/STM32F1xx_HAL_Driver/Src/stm32f1xx_hal_sram.c ****         break;
 832:Drivers/STM32F1xx_HAL_Driver/Src/stm32f1xx_hal_sram.c ****     }
 833:Drivers/STM32F1xx_HAL_Driver/Src/stm32f1xx_hal_sram.c ****   }
 834:Drivers/STM32F1xx_HAL_Driver/Src/stm32f1xx_hal_sram.c ****   else if (state == HAL_SRAM_STATE_RESET)
 835:Drivers/STM32F1xx_HAL_Driver/Src/stm32f1xx_hal_sram.c ****   {
 836:Drivers/STM32F1xx_HAL_Driver/Src/stm32f1xx_hal_sram.c ****     switch (CallbackId)
 837:Drivers/STM32F1xx_HAL_Driver/Src/stm32f1xx_hal_sram.c ****     {
 838:Drivers/STM32F1xx_HAL_Driver/Src/stm32f1xx_hal_sram.c ****       case HAL_SRAM_MSP_INIT_CB_ID :
 839:Drivers/STM32F1xx_HAL_Driver/Src/stm32f1xx_hal_sram.c ****         hsram->MspInitCallback = HAL_SRAM_MspInit;
 840:Drivers/STM32F1xx_HAL_Driver/Src/stm32f1xx_hal_sram.c ****         break;
 841:Drivers/STM32F1xx_HAL_Driver/Src/stm32f1xx_hal_sram.c ****       case HAL_SRAM_MSP_DEINIT_CB_ID :
 842:Drivers/STM32F1xx_HAL_Driver/Src/stm32f1xx_hal_sram.c ****         hsram->MspDeInitCallback = HAL_SRAM_MspDeInit;
 843:Drivers/STM32F1xx_HAL_Driver/Src/stm32f1xx_hal_sram.c ****         break;
 844:Drivers/STM32F1xx_HAL_Driver/Src/stm32f1xx_hal_sram.c ****       default :
 845:Drivers/STM32F1xx_HAL_Driver/Src/stm32f1xx_hal_sram.c ****         /* update return status */
 846:Drivers/STM32F1xx_HAL_Driver/Src/stm32f1xx_hal_sram.c ****         status =  HAL_ERROR;
 847:Drivers/STM32F1xx_HAL_Driver/Src/stm32f1xx_hal_sram.c ****         break;
 848:Drivers/STM32F1xx_HAL_Driver/Src/stm32f1xx_hal_sram.c ****     }
 849:Drivers/STM32F1xx_HAL_Driver/Src/stm32f1xx_hal_sram.c ****   }
 850:Drivers/STM32F1xx_HAL_Driver/Src/stm32f1xx_hal_sram.c ****   else
 851:Drivers/STM32F1xx_HAL_Driver/Src/stm32f1xx_hal_sram.c ****   {
 852:Drivers/STM32F1xx_HAL_Driver/Src/stm32f1xx_hal_sram.c ****     /* update return status */
 853:Drivers/STM32F1xx_HAL_Driver/Src/stm32f1xx_hal_sram.c ****     status =  HAL_ERROR;
ARM GAS  /tmp/ccZFdKv2.s 			page 21


 854:Drivers/STM32F1xx_HAL_Driver/Src/stm32f1xx_hal_sram.c ****   }
 855:Drivers/STM32F1xx_HAL_Driver/Src/stm32f1xx_hal_sram.c **** 
 856:Drivers/STM32F1xx_HAL_Driver/Src/stm32f1xx_hal_sram.c ****   /* Release Lock */
 857:Drivers/STM32F1xx_HAL_Driver/Src/stm32f1xx_hal_sram.c ****   __HAL_UNLOCK(hsram);
 858:Drivers/STM32F1xx_HAL_Driver/Src/stm32f1xx_hal_sram.c ****   return status;
 859:Drivers/STM32F1xx_HAL_Driver/Src/stm32f1xx_hal_sram.c **** }
 860:Drivers/STM32F1xx_HAL_Driver/Src/stm32f1xx_hal_sram.c **** 
 861:Drivers/STM32F1xx_HAL_Driver/Src/stm32f1xx_hal_sram.c **** /**
 862:Drivers/STM32F1xx_HAL_Driver/Src/stm32f1xx_hal_sram.c ****   * @brief  Register a User SRAM Callback for DMA transfers
 863:Drivers/STM32F1xx_HAL_Driver/Src/stm32f1xx_hal_sram.c ****   *         To be used instead of the weak (surcharged) predefined callback
 864:Drivers/STM32F1xx_HAL_Driver/Src/stm32f1xx_hal_sram.c ****   * @param hsram : SRAM handle
 865:Drivers/STM32F1xx_HAL_Driver/Src/stm32f1xx_hal_sram.c ****   * @param CallbackId : ID of the callback to be registered
 866:Drivers/STM32F1xx_HAL_Driver/Src/stm32f1xx_hal_sram.c ****   *        This parameter can be one of the following values:
 867:Drivers/STM32F1xx_HAL_Driver/Src/stm32f1xx_hal_sram.c ****   *          @arg @ref HAL_SRAM_DMA_XFER_CPLT_CB_ID  SRAM DMA Xfer Complete callback ID
 868:Drivers/STM32F1xx_HAL_Driver/Src/stm32f1xx_hal_sram.c ****   *          @arg @ref HAL_SRAM_DMA_XFER_ERR_CB_ID   SRAM DMA Xfer Error callback ID
 869:Drivers/STM32F1xx_HAL_Driver/Src/stm32f1xx_hal_sram.c ****   * @param pCallback : pointer to the Callback function
 870:Drivers/STM32F1xx_HAL_Driver/Src/stm32f1xx_hal_sram.c ****   * @retval status
 871:Drivers/STM32F1xx_HAL_Driver/Src/stm32f1xx_hal_sram.c ****   */
 872:Drivers/STM32F1xx_HAL_Driver/Src/stm32f1xx_hal_sram.c **** HAL_StatusTypeDef HAL_SRAM_RegisterDmaCallback(SRAM_HandleTypeDef *hsram, HAL_SRAM_CallbackIDTypeDe
 873:Drivers/STM32F1xx_HAL_Driver/Src/stm32f1xx_hal_sram.c ****                                                pSRAM_DmaCallbackTypeDef pCallback)
 874:Drivers/STM32F1xx_HAL_Driver/Src/stm32f1xx_hal_sram.c **** {
 875:Drivers/STM32F1xx_HAL_Driver/Src/stm32f1xx_hal_sram.c ****   HAL_StatusTypeDef status = HAL_OK;
 876:Drivers/STM32F1xx_HAL_Driver/Src/stm32f1xx_hal_sram.c ****   HAL_SRAM_StateTypeDef state;
 877:Drivers/STM32F1xx_HAL_Driver/Src/stm32f1xx_hal_sram.c **** 
 878:Drivers/STM32F1xx_HAL_Driver/Src/stm32f1xx_hal_sram.c ****   if (pCallback == NULL)
 879:Drivers/STM32F1xx_HAL_Driver/Src/stm32f1xx_hal_sram.c ****   {
 880:Drivers/STM32F1xx_HAL_Driver/Src/stm32f1xx_hal_sram.c ****     return HAL_ERROR;
 881:Drivers/STM32F1xx_HAL_Driver/Src/stm32f1xx_hal_sram.c ****   }
 882:Drivers/STM32F1xx_HAL_Driver/Src/stm32f1xx_hal_sram.c **** 
 883:Drivers/STM32F1xx_HAL_Driver/Src/stm32f1xx_hal_sram.c ****   /* Process locked */
 884:Drivers/STM32F1xx_HAL_Driver/Src/stm32f1xx_hal_sram.c ****   __HAL_LOCK(hsram);
 885:Drivers/STM32F1xx_HAL_Driver/Src/stm32f1xx_hal_sram.c **** 
 886:Drivers/STM32F1xx_HAL_Driver/Src/stm32f1xx_hal_sram.c ****   state = hsram->State;
 887:Drivers/STM32F1xx_HAL_Driver/Src/stm32f1xx_hal_sram.c ****   if ((state == HAL_SRAM_STATE_READY) || (state == HAL_SRAM_STATE_PROTECTED))
 888:Drivers/STM32F1xx_HAL_Driver/Src/stm32f1xx_hal_sram.c ****   {
 889:Drivers/STM32F1xx_HAL_Driver/Src/stm32f1xx_hal_sram.c ****     switch (CallbackId)
 890:Drivers/STM32F1xx_HAL_Driver/Src/stm32f1xx_hal_sram.c ****     {
 891:Drivers/STM32F1xx_HAL_Driver/Src/stm32f1xx_hal_sram.c ****       case HAL_SRAM_DMA_XFER_CPLT_CB_ID :
 892:Drivers/STM32F1xx_HAL_Driver/Src/stm32f1xx_hal_sram.c ****         hsram->DmaXferCpltCallback = pCallback;
 893:Drivers/STM32F1xx_HAL_Driver/Src/stm32f1xx_hal_sram.c ****         break;
 894:Drivers/STM32F1xx_HAL_Driver/Src/stm32f1xx_hal_sram.c ****       case HAL_SRAM_DMA_XFER_ERR_CB_ID :
 895:Drivers/STM32F1xx_HAL_Driver/Src/stm32f1xx_hal_sram.c ****         hsram->DmaXferErrorCallback = pCallback;
 896:Drivers/STM32F1xx_HAL_Driver/Src/stm32f1xx_hal_sram.c ****         break;
 897:Drivers/STM32F1xx_HAL_Driver/Src/stm32f1xx_hal_sram.c ****       default :
 898:Drivers/STM32F1xx_HAL_Driver/Src/stm32f1xx_hal_sram.c ****         /* update return status */
 899:Drivers/STM32F1xx_HAL_Driver/Src/stm32f1xx_hal_sram.c ****         status =  HAL_ERROR;
 900:Drivers/STM32F1xx_HAL_Driver/Src/stm32f1xx_hal_sram.c ****         break;
 901:Drivers/STM32F1xx_HAL_Driver/Src/stm32f1xx_hal_sram.c ****     }
 902:Drivers/STM32F1xx_HAL_Driver/Src/stm32f1xx_hal_sram.c ****   }
 903:Drivers/STM32F1xx_HAL_Driver/Src/stm32f1xx_hal_sram.c ****   else
 904:Drivers/STM32F1xx_HAL_Driver/Src/stm32f1xx_hal_sram.c ****   {
 905:Drivers/STM32F1xx_HAL_Driver/Src/stm32f1xx_hal_sram.c ****     /* update return status */
 906:Drivers/STM32F1xx_HAL_Driver/Src/stm32f1xx_hal_sram.c ****     status =  HAL_ERROR;
 907:Drivers/STM32F1xx_HAL_Driver/Src/stm32f1xx_hal_sram.c ****   }
 908:Drivers/STM32F1xx_HAL_Driver/Src/stm32f1xx_hal_sram.c **** 
 909:Drivers/STM32F1xx_HAL_Driver/Src/stm32f1xx_hal_sram.c ****   /* Release Lock */
 910:Drivers/STM32F1xx_HAL_Driver/Src/stm32f1xx_hal_sram.c ****   __HAL_UNLOCK(hsram);
ARM GAS  /tmp/ccZFdKv2.s 			page 22


 911:Drivers/STM32F1xx_HAL_Driver/Src/stm32f1xx_hal_sram.c ****   return status;
 912:Drivers/STM32F1xx_HAL_Driver/Src/stm32f1xx_hal_sram.c **** }
 913:Drivers/STM32F1xx_HAL_Driver/Src/stm32f1xx_hal_sram.c **** #endif
 914:Drivers/STM32F1xx_HAL_Driver/Src/stm32f1xx_hal_sram.c **** 
 915:Drivers/STM32F1xx_HAL_Driver/Src/stm32f1xx_hal_sram.c **** /**
 916:Drivers/STM32F1xx_HAL_Driver/Src/stm32f1xx_hal_sram.c ****   * @}
 917:Drivers/STM32F1xx_HAL_Driver/Src/stm32f1xx_hal_sram.c ****   */
 918:Drivers/STM32F1xx_HAL_Driver/Src/stm32f1xx_hal_sram.c **** 
 919:Drivers/STM32F1xx_HAL_Driver/Src/stm32f1xx_hal_sram.c **** /** @defgroup SRAM_Exported_Functions_Group3 Control functions
 920:Drivers/STM32F1xx_HAL_Driver/Src/stm32f1xx_hal_sram.c ****   *  @brief   Control functions
 921:Drivers/STM32F1xx_HAL_Driver/Src/stm32f1xx_hal_sram.c ****   *
 922:Drivers/STM32F1xx_HAL_Driver/Src/stm32f1xx_hal_sram.c **** @verbatim
 923:Drivers/STM32F1xx_HAL_Driver/Src/stm32f1xx_hal_sram.c ****   ==============================================================================
 924:Drivers/STM32F1xx_HAL_Driver/Src/stm32f1xx_hal_sram.c ****                         ##### SRAM Control functions #####
 925:Drivers/STM32F1xx_HAL_Driver/Src/stm32f1xx_hal_sram.c ****   ==============================================================================
 926:Drivers/STM32F1xx_HAL_Driver/Src/stm32f1xx_hal_sram.c ****   [..]
 927:Drivers/STM32F1xx_HAL_Driver/Src/stm32f1xx_hal_sram.c ****     This subsection provides a set of functions allowing to control dynamically
 928:Drivers/STM32F1xx_HAL_Driver/Src/stm32f1xx_hal_sram.c ****     the SRAM interface.
 929:Drivers/STM32F1xx_HAL_Driver/Src/stm32f1xx_hal_sram.c **** 
 930:Drivers/STM32F1xx_HAL_Driver/Src/stm32f1xx_hal_sram.c **** @endverbatim
 931:Drivers/STM32F1xx_HAL_Driver/Src/stm32f1xx_hal_sram.c ****   * @{
 932:Drivers/STM32F1xx_HAL_Driver/Src/stm32f1xx_hal_sram.c ****   */
 933:Drivers/STM32F1xx_HAL_Driver/Src/stm32f1xx_hal_sram.c **** 
 934:Drivers/STM32F1xx_HAL_Driver/Src/stm32f1xx_hal_sram.c **** /**
 935:Drivers/STM32F1xx_HAL_Driver/Src/stm32f1xx_hal_sram.c ****   * @brief  Enables dynamically SRAM write operation.
 936:Drivers/STM32F1xx_HAL_Driver/Src/stm32f1xx_hal_sram.c ****   * @param  hsram pointer to a SRAM_HandleTypeDef structure that contains
 937:Drivers/STM32F1xx_HAL_Driver/Src/stm32f1xx_hal_sram.c ****   *                the configuration information for SRAM module.
 938:Drivers/STM32F1xx_HAL_Driver/Src/stm32f1xx_hal_sram.c ****   * @retval HAL status
 939:Drivers/STM32F1xx_HAL_Driver/Src/stm32f1xx_hal_sram.c ****   */
 940:Drivers/STM32F1xx_HAL_Driver/Src/stm32f1xx_hal_sram.c **** HAL_StatusTypeDef HAL_SRAM_WriteOperation_Enable(SRAM_HandleTypeDef *hsram)
 941:Drivers/STM32F1xx_HAL_Driver/Src/stm32f1xx_hal_sram.c **** {
 942:Drivers/STM32F1xx_HAL_Driver/Src/stm32f1xx_hal_sram.c ****   /* Check the SRAM controller state */
 943:Drivers/STM32F1xx_HAL_Driver/Src/stm32f1xx_hal_sram.c ****   if (hsram->State == HAL_SRAM_STATE_PROTECTED)
 944:Drivers/STM32F1xx_HAL_Driver/Src/stm32f1xx_hal_sram.c ****   {
 945:Drivers/STM32F1xx_HAL_Driver/Src/stm32f1xx_hal_sram.c ****     /* Process Locked */
 946:Drivers/STM32F1xx_HAL_Driver/Src/stm32f1xx_hal_sram.c ****     __HAL_LOCK(hsram);
 947:Drivers/STM32F1xx_HAL_Driver/Src/stm32f1xx_hal_sram.c **** 
 948:Drivers/STM32F1xx_HAL_Driver/Src/stm32f1xx_hal_sram.c ****     /* Update the SRAM controller state */
 949:Drivers/STM32F1xx_HAL_Driver/Src/stm32f1xx_hal_sram.c ****     hsram->State = HAL_SRAM_STATE_BUSY;
 950:Drivers/STM32F1xx_HAL_Driver/Src/stm32f1xx_hal_sram.c **** 
 951:Drivers/STM32F1xx_HAL_Driver/Src/stm32f1xx_hal_sram.c ****     /* Enable write operation */
 952:Drivers/STM32F1xx_HAL_Driver/Src/stm32f1xx_hal_sram.c ****     (void)FSMC_NORSRAM_WriteOperation_Enable(hsram->Instance, hsram->Init.NSBank);
 953:Drivers/STM32F1xx_HAL_Driver/Src/stm32f1xx_hal_sram.c **** 
 954:Drivers/STM32F1xx_HAL_Driver/Src/stm32f1xx_hal_sram.c ****     /* Update the SRAM controller state */
 955:Drivers/STM32F1xx_HAL_Driver/Src/stm32f1xx_hal_sram.c ****     hsram->State = HAL_SRAM_STATE_READY;
 956:Drivers/STM32F1xx_HAL_Driver/Src/stm32f1xx_hal_sram.c **** 
 957:Drivers/STM32F1xx_HAL_Driver/Src/stm32f1xx_hal_sram.c ****     /* Process unlocked */
 958:Drivers/STM32F1xx_HAL_Driver/Src/stm32f1xx_hal_sram.c ****     __HAL_UNLOCK(hsram);
 959:Drivers/STM32F1xx_HAL_Driver/Src/stm32f1xx_hal_sram.c ****   }
 960:Drivers/STM32F1xx_HAL_Driver/Src/stm32f1xx_hal_sram.c ****   else
 961:Drivers/STM32F1xx_HAL_Driver/Src/stm32f1xx_hal_sram.c ****   {
 962:Drivers/STM32F1xx_HAL_Driver/Src/stm32f1xx_hal_sram.c ****     return HAL_ERROR;
 963:Drivers/STM32F1xx_HAL_Driver/Src/stm32f1xx_hal_sram.c ****   }
 964:Drivers/STM32F1xx_HAL_Driver/Src/stm32f1xx_hal_sram.c **** 
 965:Drivers/STM32F1xx_HAL_Driver/Src/stm32f1xx_hal_sram.c ****   return HAL_OK;
 966:Drivers/STM32F1xx_HAL_Driver/Src/stm32f1xx_hal_sram.c **** }
 967:Drivers/STM32F1xx_HAL_Driver/Src/stm32f1xx_hal_sram.c **** 
ARM GAS  /tmp/ccZFdKv2.s 			page 23


 968:Drivers/STM32F1xx_HAL_Driver/Src/stm32f1xx_hal_sram.c **** /**
 969:Drivers/STM32F1xx_HAL_Driver/Src/stm32f1xx_hal_sram.c ****   * @brief  Disables dynamically SRAM write operation.
 970:Drivers/STM32F1xx_HAL_Driver/Src/stm32f1xx_hal_sram.c ****   * @param  hsram pointer to a SRAM_HandleTypeDef structure that contains
 971:Drivers/STM32F1xx_HAL_Driver/Src/stm32f1xx_hal_sram.c ****   *                the configuration information for SRAM module.
 972:Drivers/STM32F1xx_HAL_Driver/Src/stm32f1xx_hal_sram.c ****   * @retval HAL status
 973:Drivers/STM32F1xx_HAL_Driver/Src/stm32f1xx_hal_sram.c ****   */
 974:Drivers/STM32F1xx_HAL_Driver/Src/stm32f1xx_hal_sram.c **** HAL_StatusTypeDef HAL_SRAM_WriteOperation_Disable(SRAM_HandleTypeDef *hsram)
 975:Drivers/STM32F1xx_HAL_Driver/Src/stm32f1xx_hal_sram.c **** {
 976:Drivers/STM32F1xx_HAL_Driver/Src/stm32f1xx_hal_sram.c ****   /* Check the SRAM controller state */
 977:Drivers/STM32F1xx_HAL_Driver/Src/stm32f1xx_hal_sram.c ****   if (hsram->State == HAL_SRAM_STATE_READY)
 978:Drivers/STM32F1xx_HAL_Driver/Src/stm32f1xx_hal_sram.c ****   {
 979:Drivers/STM32F1xx_HAL_Driver/Src/stm32f1xx_hal_sram.c ****     /* Process Locked */
 980:Drivers/STM32F1xx_HAL_Driver/Src/stm32f1xx_hal_sram.c ****     __HAL_LOCK(hsram);
 981:Drivers/STM32F1xx_HAL_Driver/Src/stm32f1xx_hal_sram.c **** 
 982:Drivers/STM32F1xx_HAL_Driver/Src/stm32f1xx_hal_sram.c ****     /* Update the SRAM controller state */
 983:Drivers/STM32F1xx_HAL_Driver/Src/stm32f1xx_hal_sram.c ****     hsram->State = HAL_SRAM_STATE_BUSY;
 984:Drivers/STM32F1xx_HAL_Driver/Src/stm32f1xx_hal_sram.c **** 
 985:Drivers/STM32F1xx_HAL_Driver/Src/stm32f1xx_hal_sram.c ****     /* Disable write operation */
 986:Drivers/STM32F1xx_HAL_Driver/Src/stm32f1xx_hal_sram.c ****     (void)FSMC_NORSRAM_WriteOperation_Disable(hsram->Instance, hsram->Init.NSBank);
 987:Drivers/STM32F1xx_HAL_Driver/Src/stm32f1xx_hal_sram.c **** 
 988:Drivers/STM32F1xx_HAL_Driver/Src/stm32f1xx_hal_sram.c ****     /* Update the SRAM controller state */
 989:Drivers/STM32F1xx_HAL_Driver/Src/stm32f1xx_hal_sram.c ****     hsram->State = HAL_SRAM_STATE_PROTECTED;
 990:Drivers/STM32F1xx_HAL_Driver/Src/stm32f1xx_hal_sram.c **** 
 991:Drivers/STM32F1xx_HAL_Driver/Src/stm32f1xx_hal_sram.c ****     /* Process unlocked */
 992:Drivers/STM32F1xx_HAL_Driver/Src/stm32f1xx_hal_sram.c ****     __HAL_UNLOCK(hsram);
 993:Drivers/STM32F1xx_HAL_Driver/Src/stm32f1xx_hal_sram.c ****   }
 994:Drivers/STM32F1xx_HAL_Driver/Src/stm32f1xx_hal_sram.c ****   else
 995:Drivers/STM32F1xx_HAL_Driver/Src/stm32f1xx_hal_sram.c ****   {
 996:Drivers/STM32F1xx_HAL_Driver/Src/stm32f1xx_hal_sram.c ****     return HAL_ERROR;
 997:Drivers/STM32F1xx_HAL_Driver/Src/stm32f1xx_hal_sram.c ****   }
 998:Drivers/STM32F1xx_HAL_Driver/Src/stm32f1xx_hal_sram.c **** 
 999:Drivers/STM32F1xx_HAL_Driver/Src/stm32f1xx_hal_sram.c ****   return HAL_OK;
1000:Drivers/STM32F1xx_HAL_Driver/Src/stm32f1xx_hal_sram.c **** }
1001:Drivers/STM32F1xx_HAL_Driver/Src/stm32f1xx_hal_sram.c **** 
1002:Drivers/STM32F1xx_HAL_Driver/Src/stm32f1xx_hal_sram.c **** /**
1003:Drivers/STM32F1xx_HAL_Driver/Src/stm32f1xx_hal_sram.c ****   * @}
1004:Drivers/STM32F1xx_HAL_Driver/Src/stm32f1xx_hal_sram.c ****   */
1005:Drivers/STM32F1xx_HAL_Driver/Src/stm32f1xx_hal_sram.c **** 
1006:Drivers/STM32F1xx_HAL_Driver/Src/stm32f1xx_hal_sram.c **** /** @defgroup SRAM_Exported_Functions_Group4 Peripheral State functions
1007:Drivers/STM32F1xx_HAL_Driver/Src/stm32f1xx_hal_sram.c ****   *  @brief   Peripheral State functions
1008:Drivers/STM32F1xx_HAL_Driver/Src/stm32f1xx_hal_sram.c ****   *
1009:Drivers/STM32F1xx_HAL_Driver/Src/stm32f1xx_hal_sram.c **** @verbatim
1010:Drivers/STM32F1xx_HAL_Driver/Src/stm32f1xx_hal_sram.c ****   ==============================================================================
1011:Drivers/STM32F1xx_HAL_Driver/Src/stm32f1xx_hal_sram.c ****                       ##### SRAM State functions #####
1012:Drivers/STM32F1xx_HAL_Driver/Src/stm32f1xx_hal_sram.c ****   ==============================================================================
1013:Drivers/STM32F1xx_HAL_Driver/Src/stm32f1xx_hal_sram.c ****   [..]
1014:Drivers/STM32F1xx_HAL_Driver/Src/stm32f1xx_hal_sram.c ****     This subsection permits to get in run-time the status of the SRAM controller
1015:Drivers/STM32F1xx_HAL_Driver/Src/stm32f1xx_hal_sram.c ****     and the data flow.
1016:Drivers/STM32F1xx_HAL_Driver/Src/stm32f1xx_hal_sram.c **** 
1017:Drivers/STM32F1xx_HAL_Driver/Src/stm32f1xx_hal_sram.c **** @endverbatim
1018:Drivers/STM32F1xx_HAL_Driver/Src/stm32f1xx_hal_sram.c ****   * @{
1019:Drivers/STM32F1xx_HAL_Driver/Src/stm32f1xx_hal_sram.c ****   */
1020:Drivers/STM32F1xx_HAL_Driver/Src/stm32f1xx_hal_sram.c **** 
1021:Drivers/STM32F1xx_HAL_Driver/Src/stm32f1xx_hal_sram.c **** /**
1022:Drivers/STM32F1xx_HAL_Driver/Src/stm32f1xx_hal_sram.c ****   * @brief  Returns the SRAM controller state
1023:Drivers/STM32F1xx_HAL_Driver/Src/stm32f1xx_hal_sram.c ****   * @param  hsram pointer to a SRAM_HandleTypeDef structure that contains
1024:Drivers/STM32F1xx_HAL_Driver/Src/stm32f1xx_hal_sram.c ****   *                the configuration information for SRAM module.
ARM GAS  /tmp/ccZFdKv2.s 			page 24


1025:Drivers/STM32F1xx_HAL_Driver/Src/stm32f1xx_hal_sram.c ****   * @retval HAL state
1026:Drivers/STM32F1xx_HAL_Driver/Src/stm32f1xx_hal_sram.c ****   */
1027:Drivers/STM32F1xx_HAL_Driver/Src/stm32f1xx_hal_sram.c **** HAL_SRAM_StateTypeDef HAL_SRAM_GetState(SRAM_HandleTypeDef *hsram)
1028:Drivers/STM32F1xx_HAL_Driver/Src/stm32f1xx_hal_sram.c **** {
1029:Drivers/STM32F1xx_HAL_Driver/Src/stm32f1xx_hal_sram.c ****   return hsram->State;
1030:Drivers/STM32F1xx_HAL_Driver/Src/stm32f1xx_hal_sram.c **** }
1031:Drivers/STM32F1xx_HAL_Driver/Src/stm32f1xx_hal_sram.c **** 
1032:Drivers/STM32F1xx_HAL_Driver/Src/stm32f1xx_hal_sram.c **** /**
1033:Drivers/STM32F1xx_HAL_Driver/Src/stm32f1xx_hal_sram.c ****   * @}
1034:Drivers/STM32F1xx_HAL_Driver/Src/stm32f1xx_hal_sram.c ****   */
1035:Drivers/STM32F1xx_HAL_Driver/Src/stm32f1xx_hal_sram.c **** 
1036:Drivers/STM32F1xx_HAL_Driver/Src/stm32f1xx_hal_sram.c **** /**
1037:Drivers/STM32F1xx_HAL_Driver/Src/stm32f1xx_hal_sram.c ****   * @}
1038:Drivers/STM32F1xx_HAL_Driver/Src/stm32f1xx_hal_sram.c ****   */
1039:Drivers/STM32F1xx_HAL_Driver/Src/stm32f1xx_hal_sram.c **** 
1040:Drivers/STM32F1xx_HAL_Driver/Src/stm32f1xx_hal_sram.c **** /**
1041:Drivers/STM32F1xx_HAL_Driver/Src/stm32f1xx_hal_sram.c ****   @cond 0
1042:Drivers/STM32F1xx_HAL_Driver/Src/stm32f1xx_hal_sram.c ****   */
1043:Drivers/STM32F1xx_HAL_Driver/Src/stm32f1xx_hal_sram.c **** /**
1044:Drivers/STM32F1xx_HAL_Driver/Src/stm32f1xx_hal_sram.c ****   * @brief  DMA SRAM process complete callback.
1045:Drivers/STM32F1xx_HAL_Driver/Src/stm32f1xx_hal_sram.c ****   * @param  hdma : DMA handle
1046:Drivers/STM32F1xx_HAL_Driver/Src/stm32f1xx_hal_sram.c ****   * @retval None
1047:Drivers/STM32F1xx_HAL_Driver/Src/stm32f1xx_hal_sram.c ****   */
1048:Drivers/STM32F1xx_HAL_Driver/Src/stm32f1xx_hal_sram.c **** static void SRAM_DMACplt(DMA_HandleTypeDef *hdma)
1049:Drivers/STM32F1xx_HAL_Driver/Src/stm32f1xx_hal_sram.c **** {
1050:Drivers/STM32F1xx_HAL_Driver/Src/stm32f1xx_hal_sram.c ****   SRAM_HandleTypeDef *hsram = (SRAM_HandleTypeDef *)(hdma->Parent);
1051:Drivers/STM32F1xx_HAL_Driver/Src/stm32f1xx_hal_sram.c **** 
1052:Drivers/STM32F1xx_HAL_Driver/Src/stm32f1xx_hal_sram.c ****   /* Disable the DMA channel */
1053:Drivers/STM32F1xx_HAL_Driver/Src/stm32f1xx_hal_sram.c ****   __HAL_DMA_DISABLE(hdma);
1054:Drivers/STM32F1xx_HAL_Driver/Src/stm32f1xx_hal_sram.c **** 
1055:Drivers/STM32F1xx_HAL_Driver/Src/stm32f1xx_hal_sram.c ****   /* Update the SRAM controller state */
1056:Drivers/STM32F1xx_HAL_Driver/Src/stm32f1xx_hal_sram.c ****   hsram->State = HAL_SRAM_STATE_READY;
1057:Drivers/STM32F1xx_HAL_Driver/Src/stm32f1xx_hal_sram.c **** 
1058:Drivers/STM32F1xx_HAL_Driver/Src/stm32f1xx_hal_sram.c **** #if (USE_HAL_SRAM_REGISTER_CALLBACKS == 1)
1059:Drivers/STM32F1xx_HAL_Driver/Src/stm32f1xx_hal_sram.c ****   hsram->DmaXferCpltCallback(hdma);
1060:Drivers/STM32F1xx_HAL_Driver/Src/stm32f1xx_hal_sram.c **** #else
1061:Drivers/STM32F1xx_HAL_Driver/Src/stm32f1xx_hal_sram.c ****   HAL_SRAM_DMA_XferCpltCallback(hdma);
1062:Drivers/STM32F1xx_HAL_Driver/Src/stm32f1xx_hal_sram.c **** #endif
1063:Drivers/STM32F1xx_HAL_Driver/Src/stm32f1xx_hal_sram.c **** }
1064:Drivers/STM32F1xx_HAL_Driver/Src/stm32f1xx_hal_sram.c **** 
1065:Drivers/STM32F1xx_HAL_Driver/Src/stm32f1xx_hal_sram.c **** /**
1066:Drivers/STM32F1xx_HAL_Driver/Src/stm32f1xx_hal_sram.c ****   * @brief  DMA SRAM process complete callback.
1067:Drivers/STM32F1xx_HAL_Driver/Src/stm32f1xx_hal_sram.c ****   * @param  hdma : DMA handle
1068:Drivers/STM32F1xx_HAL_Driver/Src/stm32f1xx_hal_sram.c ****   * @retval None
1069:Drivers/STM32F1xx_HAL_Driver/Src/stm32f1xx_hal_sram.c ****   */
1070:Drivers/STM32F1xx_HAL_Driver/Src/stm32f1xx_hal_sram.c **** static void SRAM_DMACpltProt(DMA_HandleTypeDef *hdma)
1071:Drivers/STM32F1xx_HAL_Driver/Src/stm32f1xx_hal_sram.c **** {
 257              		.loc 1 1071 1 is_stmt 1 view -0
 258              		.cfi_startproc
 259              		@ args = 0, pretend = 0, frame = 0
 260              		@ frame_needed = 0, uses_anonymous_args = 0
 261              		.loc 1 1071 1 is_stmt 0 view .LVU52
 262 0000 08B5     		push	{r3, lr}
 263              	.LCFI4:
 264              		.cfi_def_cfa_offset 8
 265              		.cfi_offset 3, -8
 266              		.cfi_offset 14, -4
ARM GAS  /tmp/ccZFdKv2.s 			page 25


1072:Drivers/STM32F1xx_HAL_Driver/Src/stm32f1xx_hal_sram.c ****   SRAM_HandleTypeDef *hsram = (SRAM_HandleTypeDef *)(hdma->Parent);
 267              		.loc 1 1072 3 is_stmt 1 view .LVU53
 268              		.loc 1 1072 23 is_stmt 0 view .LVU54
 269 0002 416A     		ldr	r1, [r0, #36]
 270              	.LVL18:
1073:Drivers/STM32F1xx_HAL_Driver/Src/stm32f1xx_hal_sram.c **** 
1074:Drivers/STM32F1xx_HAL_Driver/Src/stm32f1xx_hal_sram.c ****   /* Disable the DMA channel */
1075:Drivers/STM32F1xx_HAL_Driver/Src/stm32f1xx_hal_sram.c ****   __HAL_DMA_DISABLE(hdma);
 271              		.loc 1 1075 3 is_stmt 1 view .LVU55
 272 0004 0268     		ldr	r2, [r0]
 273 0006 1368     		ldr	r3, [r2]
 274 0008 23F00103 		bic	r3, r3, #1
 275 000c 1360     		str	r3, [r2]
1076:Drivers/STM32F1xx_HAL_Driver/Src/stm32f1xx_hal_sram.c **** 
1077:Drivers/STM32F1xx_HAL_Driver/Src/stm32f1xx_hal_sram.c ****   /* Update the SRAM controller state */
1078:Drivers/STM32F1xx_HAL_Driver/Src/stm32f1xx_hal_sram.c ****   hsram->State = HAL_SRAM_STATE_PROTECTED;
 276              		.loc 1 1078 3 view .LVU56
 277              		.loc 1 1078 16 is_stmt 0 view .LVU57
 278 000e 0423     		movs	r3, #4
 279 0010 81F84130 		strb	r3, [r1, #65]
1079:Drivers/STM32F1xx_HAL_Driver/Src/stm32f1xx_hal_sram.c **** 
1080:Drivers/STM32F1xx_HAL_Driver/Src/stm32f1xx_hal_sram.c **** #if (USE_HAL_SRAM_REGISTER_CALLBACKS == 1)
1081:Drivers/STM32F1xx_HAL_Driver/Src/stm32f1xx_hal_sram.c ****   hsram->DmaXferCpltCallback(hdma);
1082:Drivers/STM32F1xx_HAL_Driver/Src/stm32f1xx_hal_sram.c **** #else
1083:Drivers/STM32F1xx_HAL_Driver/Src/stm32f1xx_hal_sram.c ****   HAL_SRAM_DMA_XferCpltCallback(hdma);
 280              		.loc 1 1083 3 is_stmt 1 view .LVU58
 281 0014 FFF7FEFF 		bl	HAL_SRAM_DMA_XferCpltCallback
 282              	.LVL19:
1084:Drivers/STM32F1xx_HAL_Driver/Src/stm32f1xx_hal_sram.c **** #endif
1085:Drivers/STM32F1xx_HAL_Driver/Src/stm32f1xx_hal_sram.c **** }
 283              		.loc 1 1085 1 is_stmt 0 view .LVU59
 284 0018 08BD     		pop	{r3, pc}
 285              		.cfi_endproc
 286              	.LFE83:
 288              		.section	.text.SRAM_DMACplt,"ax",%progbits
 289              		.align	1
 290              		.syntax unified
 291              		.thumb
 292              		.thumb_func
 293              		.fpu softvfp
 295              	SRAM_DMACplt:
 296              	.LVL20:
 297              	.LFB82:
1049:Drivers/STM32F1xx_HAL_Driver/Src/stm32f1xx_hal_sram.c ****   SRAM_HandleTypeDef *hsram = (SRAM_HandleTypeDef *)(hdma->Parent);
 298              		.loc 1 1049 1 is_stmt 1 view -0
 299              		.cfi_startproc
 300              		@ args = 0, pretend = 0, frame = 0
 301              		@ frame_needed = 0, uses_anonymous_args = 0
1049:Drivers/STM32F1xx_HAL_Driver/Src/stm32f1xx_hal_sram.c ****   SRAM_HandleTypeDef *hsram = (SRAM_HandleTypeDef *)(hdma->Parent);
 302              		.loc 1 1049 1 is_stmt 0 view .LVU61
 303 0000 08B5     		push	{r3, lr}
 304              	.LCFI5:
 305              		.cfi_def_cfa_offset 8
 306              		.cfi_offset 3, -8
 307              		.cfi_offset 14, -4
1050:Drivers/STM32F1xx_HAL_Driver/Src/stm32f1xx_hal_sram.c **** 
 308              		.loc 1 1050 3 is_stmt 1 view .LVU62
ARM GAS  /tmp/ccZFdKv2.s 			page 26


1050:Drivers/STM32F1xx_HAL_Driver/Src/stm32f1xx_hal_sram.c **** 
 309              		.loc 1 1050 23 is_stmt 0 view .LVU63
 310 0002 416A     		ldr	r1, [r0, #36]
 311              	.LVL21:
1053:Drivers/STM32F1xx_HAL_Driver/Src/stm32f1xx_hal_sram.c **** 
 312              		.loc 1 1053 3 is_stmt 1 view .LVU64
 313 0004 0268     		ldr	r2, [r0]
 314 0006 1368     		ldr	r3, [r2]
 315 0008 23F00103 		bic	r3, r3, #1
 316 000c 1360     		str	r3, [r2]
1056:Drivers/STM32F1xx_HAL_Driver/Src/stm32f1xx_hal_sram.c **** 
 317              		.loc 1 1056 3 view .LVU65
1056:Drivers/STM32F1xx_HAL_Driver/Src/stm32f1xx_hal_sram.c **** 
 318              		.loc 1 1056 16 is_stmt 0 view .LVU66
 319 000e 0123     		movs	r3, #1
 320 0010 81F84130 		strb	r3, [r1, #65]
1061:Drivers/STM32F1xx_HAL_Driver/Src/stm32f1xx_hal_sram.c **** #endif
 321              		.loc 1 1061 3 is_stmt 1 view .LVU67
 322 0014 FFF7FEFF 		bl	HAL_SRAM_DMA_XferCpltCallback
 323              	.LVL22:
1063:Drivers/STM32F1xx_HAL_Driver/Src/stm32f1xx_hal_sram.c **** 
 324              		.loc 1 1063 1 is_stmt 0 view .LVU68
 325 0018 08BD     		pop	{r3, pc}
 326              		.cfi_endproc
 327              	.LFE82:
 329              		.section	.text.HAL_SRAM_DMA_XferErrorCallback,"ax",%progbits
 330              		.align	1
 331              		.weak	HAL_SRAM_DMA_XferErrorCallback
 332              		.syntax unified
 333              		.thumb
 334              		.thumb_func
 335              		.fpu softvfp
 337              	HAL_SRAM_DMA_XferErrorCallback:
 338              	.LVL23:
 339              	.LFB70:
 311:Drivers/STM32F1xx_HAL_Driver/Src/stm32f1xx_hal_sram.c ****   /* Prevent unused argument(s) compilation warning */
 340              		.loc 1 311 1 is_stmt 1 view -0
 341              		.cfi_startproc
 342              		@ args = 0, pretend = 0, frame = 0
 343              		@ frame_needed = 0, uses_anonymous_args = 0
 344              		@ link register save eliminated.
 313:Drivers/STM32F1xx_HAL_Driver/Src/stm32f1xx_hal_sram.c **** 
 345              		.loc 1 313 3 view .LVU70
 318:Drivers/STM32F1xx_HAL_Driver/Src/stm32f1xx_hal_sram.c **** 
 346              		.loc 1 318 1 is_stmt 0 view .LVU71
 347 0000 7047     		bx	lr
 348              		.cfi_endproc
 349              	.LFE70:
 351              		.section	.text.SRAM_DMAError,"ax",%progbits
 352              		.align	1
 353              		.syntax unified
 354              		.thumb
 355              		.thumb_func
 356              		.fpu softvfp
 358              	SRAM_DMAError:
 359              	.LVL24:
 360              	.LFB84:
ARM GAS  /tmp/ccZFdKv2.s 			page 27


1086:Drivers/STM32F1xx_HAL_Driver/Src/stm32f1xx_hal_sram.c **** 
1087:Drivers/STM32F1xx_HAL_Driver/Src/stm32f1xx_hal_sram.c **** /**
1088:Drivers/STM32F1xx_HAL_Driver/Src/stm32f1xx_hal_sram.c ****   * @brief  DMA SRAM error callback.
1089:Drivers/STM32F1xx_HAL_Driver/Src/stm32f1xx_hal_sram.c ****   * @param  hdma : DMA handle
1090:Drivers/STM32F1xx_HAL_Driver/Src/stm32f1xx_hal_sram.c ****   * @retval None
1091:Drivers/STM32F1xx_HAL_Driver/Src/stm32f1xx_hal_sram.c ****   */
1092:Drivers/STM32F1xx_HAL_Driver/Src/stm32f1xx_hal_sram.c **** static void SRAM_DMAError(DMA_HandleTypeDef *hdma)
1093:Drivers/STM32F1xx_HAL_Driver/Src/stm32f1xx_hal_sram.c **** {
 361              		.loc 1 1093 1 is_stmt 1 view -0
 362              		.cfi_startproc
 363              		@ args = 0, pretend = 0, frame = 0
 364              		@ frame_needed = 0, uses_anonymous_args = 0
 365              		.loc 1 1093 1 is_stmt 0 view .LVU73
 366 0000 08B5     		push	{r3, lr}
 367              	.LCFI6:
 368              		.cfi_def_cfa_offset 8
 369              		.cfi_offset 3, -8
 370              		.cfi_offset 14, -4
1094:Drivers/STM32F1xx_HAL_Driver/Src/stm32f1xx_hal_sram.c ****   SRAM_HandleTypeDef *hsram = (SRAM_HandleTypeDef *)(hdma->Parent);
 371              		.loc 1 1094 3 is_stmt 1 view .LVU74
 372              		.loc 1 1094 23 is_stmt 0 view .LVU75
 373 0002 416A     		ldr	r1, [r0, #36]
 374              	.LVL25:
1095:Drivers/STM32F1xx_HAL_Driver/Src/stm32f1xx_hal_sram.c **** 
1096:Drivers/STM32F1xx_HAL_Driver/Src/stm32f1xx_hal_sram.c ****   /* Disable the DMA channel */
1097:Drivers/STM32F1xx_HAL_Driver/Src/stm32f1xx_hal_sram.c ****   __HAL_DMA_DISABLE(hdma);
 375              		.loc 1 1097 3 is_stmt 1 view .LVU76
 376 0004 0268     		ldr	r2, [r0]
 377 0006 1368     		ldr	r3, [r2]
 378 0008 23F00103 		bic	r3, r3, #1
 379 000c 1360     		str	r3, [r2]
1098:Drivers/STM32F1xx_HAL_Driver/Src/stm32f1xx_hal_sram.c **** 
1099:Drivers/STM32F1xx_HAL_Driver/Src/stm32f1xx_hal_sram.c ****   /* Update the SRAM controller state */
1100:Drivers/STM32F1xx_HAL_Driver/Src/stm32f1xx_hal_sram.c ****   hsram->State = HAL_SRAM_STATE_ERROR;
 380              		.loc 1 1100 3 view .LVU77
 381              		.loc 1 1100 16 is_stmt 0 view .LVU78
 382 000e 0323     		movs	r3, #3
 383 0010 81F84130 		strb	r3, [r1, #65]
1101:Drivers/STM32F1xx_HAL_Driver/Src/stm32f1xx_hal_sram.c **** 
1102:Drivers/STM32F1xx_HAL_Driver/Src/stm32f1xx_hal_sram.c **** #if (USE_HAL_SRAM_REGISTER_CALLBACKS == 1)
1103:Drivers/STM32F1xx_HAL_Driver/Src/stm32f1xx_hal_sram.c ****   hsram->DmaXferErrorCallback(hdma);
1104:Drivers/STM32F1xx_HAL_Driver/Src/stm32f1xx_hal_sram.c **** #else
1105:Drivers/STM32F1xx_HAL_Driver/Src/stm32f1xx_hal_sram.c ****   HAL_SRAM_DMA_XferErrorCallback(hdma);
 384              		.loc 1 1105 3 is_stmt 1 view .LVU79
 385 0014 FFF7FEFF 		bl	HAL_SRAM_DMA_XferErrorCallback
 386              	.LVL26:
1106:Drivers/STM32F1xx_HAL_Driver/Src/stm32f1xx_hal_sram.c **** #endif
1107:Drivers/STM32F1xx_HAL_Driver/Src/stm32f1xx_hal_sram.c **** }
 387              		.loc 1 1107 1 is_stmt 0 view .LVU80
 388 0018 08BD     		pop	{r3, pc}
 389              		.cfi_endproc
 390              	.LFE84:
 392              		.section	.text.HAL_SRAM_Read_8b,"ax",%progbits
 393              		.align	1
 394              		.global	HAL_SRAM_Read_8b
 395              		.syntax unified
 396              		.thumb
ARM GAS  /tmp/ccZFdKv2.s 			page 28


 397              		.thumb_func
 398              		.fpu softvfp
 400              	HAL_SRAM_Read_8b:
 401              	.LVL27:
 402              	.LFB71:
 349:Drivers/STM32F1xx_HAL_Driver/Src/stm32f1xx_hal_sram.c ****   uint32_t size;
 403              		.loc 1 349 1 is_stmt 1 view -0
 404              		.cfi_startproc
 405              		@ args = 0, pretend = 0, frame = 0
 406              		@ frame_needed = 0, uses_anonymous_args = 0
 407              		@ link register save eliminated.
 349:Drivers/STM32F1xx_HAL_Driver/Src/stm32f1xx_hal_sram.c ****   uint32_t size;
 408              		.loc 1 349 1 is_stmt 0 view .LVU82
 409 0000 30B4     		push	{r4, r5}
 410              	.LCFI7:
 411              		.cfi_def_cfa_offset 8
 412              		.cfi_offset 4, -8
 413              		.cfi_offset 5, -4
 350:Drivers/STM32F1xx_HAL_Driver/Src/stm32f1xx_hal_sram.c ****   __IO uint8_t *psramaddress = (uint8_t *)pAddress;
 414              		.loc 1 350 3 is_stmt 1 view .LVU83
 351:Drivers/STM32F1xx_HAL_Driver/Src/stm32f1xx_hal_sram.c ****   uint8_t *pdestbuff = pDstBuffer;
 415              		.loc 1 351 3 view .LVU84
 416              	.LVL28:
 352:Drivers/STM32F1xx_HAL_Driver/Src/stm32f1xx_hal_sram.c ****   HAL_SRAM_StateTypeDef state = hsram->State;
 417              		.loc 1 352 3 view .LVU85
 353:Drivers/STM32F1xx_HAL_Driver/Src/stm32f1xx_hal_sram.c **** 
 418              		.loc 1 353 3 view .LVU86
 353:Drivers/STM32F1xx_HAL_Driver/Src/stm32f1xx_hal_sram.c **** 
 419              		.loc 1 353 25 is_stmt 0 view .LVU87
 420 0002 90F84150 		ldrb	r5, [r0, #65]	@ zero_extendqisi2
 421 0006 EDB2     		uxtb	r5, r5
 422              	.LVL29:
 356:Drivers/STM32F1xx_HAL_Driver/Src/stm32f1xx_hal_sram.c ****   {
 423              		.loc 1 356 3 is_stmt 1 view .LVU88
 356:Drivers/STM32F1xx_HAL_Driver/Src/stm32f1xx_hal_sram.c ****   {
 424              		.loc 1 356 6 is_stmt 0 view .LVU89
 425 0008 012D     		cmp	r5, #1
 426 000a 01D0     		beq	.L24
 356:Drivers/STM32F1xx_HAL_Driver/Src/stm32f1xx_hal_sram.c ****   {
 427              		.loc 1 356 39 discriminator 1 view .LVU90
 428 000c 042D     		cmp	r5, #4
 429 000e 18D1     		bne	.L28
 430              	.L24:
 359:Drivers/STM32F1xx_HAL_Driver/Src/stm32f1xx_hal_sram.c **** 
 431              		.loc 1 359 5 is_stmt 1 view .LVU91
 359:Drivers/STM32F1xx_HAL_Driver/Src/stm32f1xx_hal_sram.c **** 
 432              		.loc 1 359 5 view .LVU92
 433 0010 90F84040 		ldrb	r4, [r0, #64]	@ zero_extendqisi2
 434 0014 012C     		cmp	r4, #1
 435 0016 16D0     		beq	.L29
 359:Drivers/STM32F1xx_HAL_Driver/Src/stm32f1xx_hal_sram.c **** 
 436              		.loc 1 359 5 discriminator 2 view .LVU93
 437 0018 0124     		movs	r4, #1
 438 001a 80F84040 		strb	r4, [r0, #64]
 359:Drivers/STM32F1xx_HAL_Driver/Src/stm32f1xx_hal_sram.c **** 
 439              		.loc 1 359 5 discriminator 2 view .LVU94
 362:Drivers/STM32F1xx_HAL_Driver/Src/stm32f1xx_hal_sram.c **** 
ARM GAS  /tmp/ccZFdKv2.s 			page 29


 440              		.loc 1 362 5 discriminator 2 view .LVU95
 362:Drivers/STM32F1xx_HAL_Driver/Src/stm32f1xx_hal_sram.c **** 
 441              		.loc 1 362 18 is_stmt 0 discriminator 2 view .LVU96
 442 001e 0224     		movs	r4, #2
 443 0020 80F84140 		strb	r4, [r0, #65]
 365:Drivers/STM32F1xx_HAL_Driver/Src/stm32f1xx_hal_sram.c ****     {
 444              		.loc 1 365 5 is_stmt 1 discriminator 2 view .LVU97
 445              	.LVL30:
 365:Drivers/STM32F1xx_HAL_Driver/Src/stm32f1xx_hal_sram.c ****     {
 446              		.loc 1 365 5 is_stmt 0 discriminator 2 view .LVU98
 447 0024 04E0     		b	.L26
 448              	.LVL31:
 449              	.L27:
 367:Drivers/STM32F1xx_HAL_Driver/Src/stm32f1xx_hal_sram.c ****       pdestbuff++;
 450              		.loc 1 367 7 is_stmt 1 discriminator 3 view .LVU99
 367:Drivers/STM32F1xx_HAL_Driver/Src/stm32f1xx_hal_sram.c ****       pdestbuff++;
 451              		.loc 1 367 20 is_stmt 0 discriminator 3 view .LVU100
 452 0026 11F8014B 		ldrb	r4, [r1], #1	@ zero_extendqisi2
 453              	.LVL32:
 367:Drivers/STM32F1xx_HAL_Driver/Src/stm32f1xx_hal_sram.c ****       pdestbuff++;
 454              		.loc 1 367 18 discriminator 3 view .LVU101
 455 002a 02F8014B 		strb	r4, [r2], #1
 456              	.LVL33:
 368:Drivers/STM32F1xx_HAL_Driver/Src/stm32f1xx_hal_sram.c ****       psramaddress++;
 457              		.loc 1 368 7 is_stmt 1 discriminator 3 view .LVU102
 369:Drivers/STM32F1xx_HAL_Driver/Src/stm32f1xx_hal_sram.c ****     }
 458              		.loc 1 369 7 discriminator 3 view .LVU103
 365:Drivers/STM32F1xx_HAL_Driver/Src/stm32f1xx_hal_sram.c ****     {
 459              		.loc 1 365 41 discriminator 3 view .LVU104
 365:Drivers/STM32F1xx_HAL_Driver/Src/stm32f1xx_hal_sram.c ****     {
 460              		.loc 1 365 45 is_stmt 0 discriminator 3 view .LVU105
 461 002e 013B     		subs	r3, r3, #1
 462              	.LVL34:
 463              	.L26:
 365:Drivers/STM32F1xx_HAL_Driver/Src/stm32f1xx_hal_sram.c ****     {
 464              		.loc 1 365 29 is_stmt 1 discriminator 1 view .LVU106
 365:Drivers/STM32F1xx_HAL_Driver/Src/stm32f1xx_hal_sram.c ****     {
 465              		.loc 1 365 5 is_stmt 0 discriminator 1 view .LVU107
 466 0030 002B     		cmp	r3, #0
 467 0032 F8D1     		bne	.L27
 373:Drivers/STM32F1xx_HAL_Driver/Src/stm32f1xx_hal_sram.c **** 
 468              		.loc 1 373 5 is_stmt 1 view .LVU108
 373:Drivers/STM32F1xx_HAL_Driver/Src/stm32f1xx_hal_sram.c **** 
 469              		.loc 1 373 18 is_stmt 0 view .LVU109
 470 0034 80F84150 		strb	r5, [r0, #65]
 376:Drivers/STM32F1xx_HAL_Driver/Src/stm32f1xx_hal_sram.c ****   }
 471              		.loc 1 376 5 is_stmt 1 view .LVU110
 376:Drivers/STM32F1xx_HAL_Driver/Src/stm32f1xx_hal_sram.c ****   }
 472              		.loc 1 376 5 view .LVU111
 473 0038 80F84030 		strb	r3, [r0, #64]
 376:Drivers/STM32F1xx_HAL_Driver/Src/stm32f1xx_hal_sram.c ****   }
 474              		.loc 1 376 5 view .LVU112
 383:Drivers/STM32F1xx_HAL_Driver/Src/stm32f1xx_hal_sram.c **** }
 475              		.loc 1 383 3 view .LVU113
 383:Drivers/STM32F1xx_HAL_Driver/Src/stm32f1xx_hal_sram.c **** }
 476              		.loc 1 383 10 is_stmt 0 view .LVU114
 477 003c 1846     		mov	r0, r3
ARM GAS  /tmp/ccZFdKv2.s 			page 30


 478              	.LVL35:
 479              	.L25:
 384:Drivers/STM32F1xx_HAL_Driver/Src/stm32f1xx_hal_sram.c **** 
 480              		.loc 1 384 1 view .LVU115
 481 003e 30BC     		pop	{r4, r5}
 482              	.LCFI8:
 483              		.cfi_remember_state
 484              		.cfi_restore 5
 485              		.cfi_restore 4
 486              		.cfi_def_cfa_offset 0
 487              	.LVL36:
 384:Drivers/STM32F1xx_HAL_Driver/Src/stm32f1xx_hal_sram.c **** 
 488              		.loc 1 384 1 view .LVU116
 489 0040 7047     		bx	lr
 490              	.LVL37:
 491              	.L28:
 492              	.LCFI9:
 493              		.cfi_restore_state
 380:Drivers/STM32F1xx_HAL_Driver/Src/stm32f1xx_hal_sram.c ****   }
 494              		.loc 1 380 12 view .LVU117
 495 0042 0120     		movs	r0, #1
 496              	.LVL38:
 380:Drivers/STM32F1xx_HAL_Driver/Src/stm32f1xx_hal_sram.c ****   }
 497              		.loc 1 380 12 view .LVU118
 498 0044 FBE7     		b	.L25
 499              	.LVL39:
 500              	.L29:
 359:Drivers/STM32F1xx_HAL_Driver/Src/stm32f1xx_hal_sram.c **** 
 501              		.loc 1 359 5 view .LVU119
 502 0046 0220     		movs	r0, #2
 503              	.LVL40:
 359:Drivers/STM32F1xx_HAL_Driver/Src/stm32f1xx_hal_sram.c **** 
 504              		.loc 1 359 5 view .LVU120
 505 0048 F9E7     		b	.L25
 506              		.cfi_endproc
 507              	.LFE71:
 509              		.section	.text.HAL_SRAM_Write_8b,"ax",%progbits
 510              		.align	1
 511              		.global	HAL_SRAM_Write_8b
 512              		.syntax unified
 513              		.thumb
 514              		.thumb_func
 515              		.fpu softvfp
 517              	HAL_SRAM_Write_8b:
 518              	.LVL41:
 519              	.LFB72:
 397:Drivers/STM32F1xx_HAL_Driver/Src/stm32f1xx_hal_sram.c ****   uint32_t size;
 520              		.loc 1 397 1 is_stmt 1 view -0
 521              		.cfi_startproc
 522              		@ args = 0, pretend = 0, frame = 0
 523              		@ frame_needed = 0, uses_anonymous_args = 0
 524              		@ link register save eliminated.
 397:Drivers/STM32F1xx_HAL_Driver/Src/stm32f1xx_hal_sram.c ****   uint32_t size;
 525              		.loc 1 397 1 is_stmt 0 view .LVU122
 526 0000 10B4     		push	{r4}
 527              	.LCFI10:
 528              		.cfi_def_cfa_offset 4
ARM GAS  /tmp/ccZFdKv2.s 			page 31


 529              		.cfi_offset 4, -4
 398:Drivers/STM32F1xx_HAL_Driver/Src/stm32f1xx_hal_sram.c ****   __IO uint8_t *psramaddress = (uint8_t *)pAddress;
 530              		.loc 1 398 3 is_stmt 1 view .LVU123
 399:Drivers/STM32F1xx_HAL_Driver/Src/stm32f1xx_hal_sram.c ****   uint8_t *psrcbuff = pSrcBuffer;
 531              		.loc 1 399 3 view .LVU124
 532              	.LVL42:
 400:Drivers/STM32F1xx_HAL_Driver/Src/stm32f1xx_hal_sram.c **** 
 533              		.loc 1 400 3 view .LVU125
 403:Drivers/STM32F1xx_HAL_Driver/Src/stm32f1xx_hal_sram.c ****   {
 534              		.loc 1 403 3 view .LVU126
 403:Drivers/STM32F1xx_HAL_Driver/Src/stm32f1xx_hal_sram.c ****   {
 535              		.loc 1 403 12 is_stmt 0 view .LVU127
 536 0002 90F84140 		ldrb	r4, [r0, #65]	@ zero_extendqisi2
 537 0006 E4B2     		uxtb	r4, r4
 403:Drivers/STM32F1xx_HAL_Driver/Src/stm32f1xx_hal_sram.c ****   {
 538              		.loc 1 403 6 view .LVU128
 539 0008 012C     		cmp	r4, #1
 540 000a 19D1     		bne	.L35
 406:Drivers/STM32F1xx_HAL_Driver/Src/stm32f1xx_hal_sram.c **** 
 541              		.loc 1 406 5 is_stmt 1 view .LVU129
 406:Drivers/STM32F1xx_HAL_Driver/Src/stm32f1xx_hal_sram.c **** 
 542              		.loc 1 406 5 view .LVU130
 543 000c 90F84040 		ldrb	r4, [r0, #64]	@ zero_extendqisi2
 544 0010 012C     		cmp	r4, #1
 545 0012 18D0     		beq	.L36
 406:Drivers/STM32F1xx_HAL_Driver/Src/stm32f1xx_hal_sram.c **** 
 546              		.loc 1 406 5 discriminator 2 view .LVU131
 547 0014 0124     		movs	r4, #1
 548 0016 80F84040 		strb	r4, [r0, #64]
 406:Drivers/STM32F1xx_HAL_Driver/Src/stm32f1xx_hal_sram.c **** 
 549              		.loc 1 406 5 discriminator 2 view .LVU132
 409:Drivers/STM32F1xx_HAL_Driver/Src/stm32f1xx_hal_sram.c **** 
 550              		.loc 1 409 5 discriminator 2 view .LVU133
 409:Drivers/STM32F1xx_HAL_Driver/Src/stm32f1xx_hal_sram.c **** 
 551              		.loc 1 409 18 is_stmt 0 discriminator 2 view .LVU134
 552 001a 0224     		movs	r4, #2
 553 001c 80F84140 		strb	r4, [r0, #65]
 412:Drivers/STM32F1xx_HAL_Driver/Src/stm32f1xx_hal_sram.c ****     {
 554              		.loc 1 412 5 is_stmt 1 discriminator 2 view .LVU135
 555              	.LVL43:
 412:Drivers/STM32F1xx_HAL_Driver/Src/stm32f1xx_hal_sram.c ****     {
 556              		.loc 1 412 5 is_stmt 0 discriminator 2 view .LVU136
 557 0020 04E0     		b	.L33
 558              	.LVL44:
 559              	.L34:
 414:Drivers/STM32F1xx_HAL_Driver/Src/stm32f1xx_hal_sram.c ****       psrcbuff++;
 560              		.loc 1 414 7 is_stmt 1 discriminator 3 view .LVU137
 414:Drivers/STM32F1xx_HAL_Driver/Src/stm32f1xx_hal_sram.c ****       psrcbuff++;
 561              		.loc 1 414 23 is_stmt 0 discriminator 3 view .LVU138
 562 0022 12F8014B 		ldrb	r4, [r2], #1	@ zero_extendqisi2
 563              	.LVL45:
 414:Drivers/STM32F1xx_HAL_Driver/Src/stm32f1xx_hal_sram.c ****       psrcbuff++;
 564              		.loc 1 414 21 discriminator 3 view .LVU139
 565 0026 01F8014B 		strb	r4, [r1], #1
 566              	.LVL46:
 415:Drivers/STM32F1xx_HAL_Driver/Src/stm32f1xx_hal_sram.c ****       psramaddress++;
 567              		.loc 1 415 7 is_stmt 1 discriminator 3 view .LVU140
ARM GAS  /tmp/ccZFdKv2.s 			page 32


 416:Drivers/STM32F1xx_HAL_Driver/Src/stm32f1xx_hal_sram.c ****     }
 568              		.loc 1 416 7 discriminator 3 view .LVU141
 412:Drivers/STM32F1xx_HAL_Driver/Src/stm32f1xx_hal_sram.c ****     {
 569              		.loc 1 412 41 discriminator 3 view .LVU142
 412:Drivers/STM32F1xx_HAL_Driver/Src/stm32f1xx_hal_sram.c ****     {
 570              		.loc 1 412 45 is_stmt 0 discriminator 3 view .LVU143
 571 002a 013B     		subs	r3, r3, #1
 572              	.LVL47:
 573              	.L33:
 412:Drivers/STM32F1xx_HAL_Driver/Src/stm32f1xx_hal_sram.c ****     {
 574              		.loc 1 412 29 is_stmt 1 discriminator 1 view .LVU144
 412:Drivers/STM32F1xx_HAL_Driver/Src/stm32f1xx_hal_sram.c ****     {
 575              		.loc 1 412 5 is_stmt 0 discriminator 1 view .LVU145
 576 002c 002B     		cmp	r3, #0
 577 002e F8D1     		bne	.L34
 420:Drivers/STM32F1xx_HAL_Driver/Src/stm32f1xx_hal_sram.c **** 
 578              		.loc 1 420 5 is_stmt 1 view .LVU146
 420:Drivers/STM32F1xx_HAL_Driver/Src/stm32f1xx_hal_sram.c **** 
 579              		.loc 1 420 18 is_stmt 0 view .LVU147
 580 0030 0123     		movs	r3, #1
 581              	.LVL48:
 420:Drivers/STM32F1xx_HAL_Driver/Src/stm32f1xx_hal_sram.c **** 
 582              		.loc 1 420 18 view .LVU148
 583 0032 80F84130 		strb	r3, [r0, #65]
 423:Drivers/STM32F1xx_HAL_Driver/Src/stm32f1xx_hal_sram.c ****   }
 584              		.loc 1 423 5 is_stmt 1 view .LVU149
 423:Drivers/STM32F1xx_HAL_Driver/Src/stm32f1xx_hal_sram.c ****   }
 585              		.loc 1 423 5 view .LVU150
 586 0036 0023     		movs	r3, #0
 587 0038 80F84030 		strb	r3, [r0, #64]
 423:Drivers/STM32F1xx_HAL_Driver/Src/stm32f1xx_hal_sram.c ****   }
 588              		.loc 1 423 5 view .LVU151
 430:Drivers/STM32F1xx_HAL_Driver/Src/stm32f1xx_hal_sram.c **** }
 589              		.loc 1 430 3 view .LVU152
 430:Drivers/STM32F1xx_HAL_Driver/Src/stm32f1xx_hal_sram.c **** }
 590              		.loc 1 430 10 is_stmt 0 view .LVU153
 591 003c 1846     		mov	r0, r3
 592              	.LVL49:
 430:Drivers/STM32F1xx_HAL_Driver/Src/stm32f1xx_hal_sram.c **** }
 593              		.loc 1 430 10 view .LVU154
 594 003e 00E0     		b	.L32
 595              	.LVL50:
 596              	.L35:
 427:Drivers/STM32F1xx_HAL_Driver/Src/stm32f1xx_hal_sram.c ****   }
 597              		.loc 1 427 12 view .LVU155
 598 0040 0120     		movs	r0, #1
 599              	.LVL51:
 600              	.L32:
 431:Drivers/STM32F1xx_HAL_Driver/Src/stm32f1xx_hal_sram.c **** 
 601              		.loc 1 431 1 view .LVU156
 602 0042 10BC     		pop	{r4}
 603              	.LCFI11:
 604              		.cfi_remember_state
 605              		.cfi_restore 4
 606              		.cfi_def_cfa_offset 0
 607 0044 7047     		bx	lr
 608              	.LVL52:
ARM GAS  /tmp/ccZFdKv2.s 			page 33


 609              	.L36:
 610              	.LCFI12:
 611              		.cfi_restore_state
 406:Drivers/STM32F1xx_HAL_Driver/Src/stm32f1xx_hal_sram.c **** 
 612              		.loc 1 406 5 view .LVU157
 613 0046 0220     		movs	r0, #2
 614              	.LVL53:
 406:Drivers/STM32F1xx_HAL_Driver/Src/stm32f1xx_hal_sram.c **** 
 615              		.loc 1 406 5 view .LVU158
 616 0048 FBE7     		b	.L32
 617              		.cfi_endproc
 618              	.LFE72:
 620              		.section	.text.HAL_SRAM_Read_16b,"ax",%progbits
 621              		.align	1
 622              		.global	HAL_SRAM_Read_16b
 623              		.syntax unified
 624              		.thumb
 625              		.thumb_func
 626              		.fpu softvfp
 628              	HAL_SRAM_Read_16b:
 629              	.LVL54:
 630              	.LFB73:
 444:Drivers/STM32F1xx_HAL_Driver/Src/stm32f1xx_hal_sram.c ****   uint32_t size;
 631              		.loc 1 444 1 is_stmt 1 view -0
 632              		.cfi_startproc
 633              		@ args = 0, pretend = 0, frame = 0
 634              		@ frame_needed = 0, uses_anonymous_args = 0
 635              		@ link register save eliminated.
 444:Drivers/STM32F1xx_HAL_Driver/Src/stm32f1xx_hal_sram.c ****   uint32_t size;
 636              		.loc 1 444 1 is_stmt 0 view .LVU160
 637 0000 70B4     		push	{r4, r5, r6}
 638              	.LCFI13:
 639              		.cfi_def_cfa_offset 12
 640              		.cfi_offset 4, -12
 641              		.cfi_offset 5, -8
 642              		.cfi_offset 6, -4
 445:Drivers/STM32F1xx_HAL_Driver/Src/stm32f1xx_hal_sram.c ****   __IO uint32_t *psramaddress = pAddress;
 643              		.loc 1 445 3 is_stmt 1 view .LVU161
 446:Drivers/STM32F1xx_HAL_Driver/Src/stm32f1xx_hal_sram.c ****   uint16_t *pdestbuff = pDstBuffer;
 644              		.loc 1 446 3 view .LVU162
 645              	.LVL55:
 447:Drivers/STM32F1xx_HAL_Driver/Src/stm32f1xx_hal_sram.c ****   uint8_t limit;
 646              		.loc 1 447 3 view .LVU163
 448:Drivers/STM32F1xx_HAL_Driver/Src/stm32f1xx_hal_sram.c ****   HAL_SRAM_StateTypeDef state = hsram->State;
 647              		.loc 1 448 3 view .LVU164
 449:Drivers/STM32F1xx_HAL_Driver/Src/stm32f1xx_hal_sram.c **** 
 648              		.loc 1 449 3 view .LVU165
 449:Drivers/STM32F1xx_HAL_Driver/Src/stm32f1xx_hal_sram.c **** 
 649              		.loc 1 449 25 is_stmt 0 view .LVU166
 650 0002 90F84160 		ldrb	r6, [r0, #65]	@ zero_extendqisi2
 651 0006 F6B2     		uxtb	r6, r6
 652              	.LVL56:
 452:Drivers/STM32F1xx_HAL_Driver/Src/stm32f1xx_hal_sram.c ****   {
 653              		.loc 1 452 3 is_stmt 1 view .LVU167
 452:Drivers/STM32F1xx_HAL_Driver/Src/stm32f1xx_hal_sram.c ****   {
 654              		.loc 1 452 6 is_stmt 0 view .LVU168
 655 0008 012E     		cmp	r6, #1
ARM GAS  /tmp/ccZFdKv2.s 			page 34


 656 000a 01D0     		beq	.L39
 452:Drivers/STM32F1xx_HAL_Driver/Src/stm32f1xx_hal_sram.c ****   {
 657              		.loc 1 452 39 discriminator 1 view .LVU169
 658 000c 042E     		cmp	r6, #4
 659 000e 21D1     		bne	.L44
 660              	.L39:
 455:Drivers/STM32F1xx_HAL_Driver/Src/stm32f1xx_hal_sram.c **** 
 661              		.loc 1 455 5 is_stmt 1 view .LVU170
 455:Drivers/STM32F1xx_HAL_Driver/Src/stm32f1xx_hal_sram.c **** 
 662              		.loc 1 455 5 view .LVU171
 663 0010 90F84040 		ldrb	r4, [r0, #64]	@ zero_extendqisi2
 664 0014 012C     		cmp	r4, #1
 665 0016 1FD0     		beq	.L45
 455:Drivers/STM32F1xx_HAL_Driver/Src/stm32f1xx_hal_sram.c **** 
 666              		.loc 1 455 5 discriminator 2 view .LVU172
 667 0018 0124     		movs	r4, #1
 668 001a 80F84040 		strb	r4, [r0, #64]
 455:Drivers/STM32F1xx_HAL_Driver/Src/stm32f1xx_hal_sram.c **** 
 669              		.loc 1 455 5 discriminator 2 view .LVU173
 458:Drivers/STM32F1xx_HAL_Driver/Src/stm32f1xx_hal_sram.c **** 
 670              		.loc 1 458 5 discriminator 2 view .LVU174
 458:Drivers/STM32F1xx_HAL_Driver/Src/stm32f1xx_hal_sram.c **** 
 671              		.loc 1 458 18 is_stmt 0 discriminator 2 view .LVU175
 672 001e 0224     		movs	r4, #2
 673 0020 80F84140 		strb	r4, [r0, #65]
 461:Drivers/STM32F1xx_HAL_Driver/Src/stm32f1xx_hal_sram.c **** 
 674              		.loc 1 461 5 is_stmt 1 discriminator 2 view .LVU176
 461:Drivers/STM32F1xx_HAL_Driver/Src/stm32f1xx_hal_sram.c **** 
 675              		.loc 1 461 11 is_stmt 0 discriminator 2 view .LVU177
 676 0024 03F00105 		and	r5, r3, #1
 677              	.LVL57:
 464:Drivers/STM32F1xx_HAL_Driver/Src/stm32f1xx_hal_sram.c ****     {
 678              		.loc 1 464 5 is_stmt 1 discriminator 2 view .LVU178
 464:Drivers/STM32F1xx_HAL_Driver/Src/stm32f1xx_hal_sram.c ****     {
 679              		.loc 1 464 5 is_stmt 0 discriminator 2 view .LVU179
 680 0028 07E0     		b	.L41
 681              	.LVL58:
 682              	.L42:
 466:Drivers/STM32F1xx_HAL_Driver/Src/stm32f1xx_hal_sram.c ****       pdestbuff++;
 683              		.loc 1 466 7 is_stmt 1 discriminator 3 view .LVU180
 466:Drivers/STM32F1xx_HAL_Driver/Src/stm32f1xx_hal_sram.c ****       pdestbuff++;
 684              		.loc 1 466 32 is_stmt 0 discriminator 3 view .LVU181
 685 002a 0C68     		ldr	r4, [r1]
 466:Drivers/STM32F1xx_HAL_Driver/Src/stm32f1xx_hal_sram.c ****       pdestbuff++;
 686              		.loc 1 466 18 discriminator 3 view .LVU182
 687 002c 1480     		strh	r4, [r2]	@ movhi
 467:Drivers/STM32F1xx_HAL_Driver/Src/stm32f1xx_hal_sram.c ****       *pdestbuff = (uint16_t)(((*psramaddress) & 0xFFFF0000U) >> 16U);
 688              		.loc 1 467 7 is_stmt 1 discriminator 3 view .LVU183
 689              	.LVL59:
 468:Drivers/STM32F1xx_HAL_Driver/Src/stm32f1xx_hal_sram.c ****       pdestbuff++;
 690              		.loc 1 468 7 discriminator 3 view .LVU184
 468:Drivers/STM32F1xx_HAL_Driver/Src/stm32f1xx_hal_sram.c ****       pdestbuff++;
 691              		.loc 1 468 33 is_stmt 0 discriminator 3 view .LVU185
 692 002e 51F8044B 		ldr	r4, [r1], #4
 693              	.LVL60:
 468:Drivers/STM32F1xx_HAL_Driver/Src/stm32f1xx_hal_sram.c ****       pdestbuff++;
 694              		.loc 1 468 20 discriminator 3 view .LVU186
ARM GAS  /tmp/ccZFdKv2.s 			page 35


 695 0032 240C     		lsrs	r4, r4, #16
 468:Drivers/STM32F1xx_HAL_Driver/Src/stm32f1xx_hal_sram.c ****       pdestbuff++;
 696              		.loc 1 468 18 discriminator 3 view .LVU187
 697 0034 5480     		strh	r4, [r2, #2]	@ movhi
 469:Drivers/STM32F1xx_HAL_Driver/Src/stm32f1xx_hal_sram.c ****       psramaddress++;
 698              		.loc 1 469 7 is_stmt 1 discriminator 3 view .LVU188
 469:Drivers/STM32F1xx_HAL_Driver/Src/stm32f1xx_hal_sram.c ****       psramaddress++;
 699              		.loc 1 469 16 is_stmt 0 discriminator 3 view .LVU189
 700 0036 0432     		adds	r2, r2, #4
 701              	.LVL61:
 470:Drivers/STM32F1xx_HAL_Driver/Src/stm32f1xx_hal_sram.c ****     }
 702              		.loc 1 470 7 is_stmt 1 discriminator 3 view .LVU190
 464:Drivers/STM32F1xx_HAL_Driver/Src/stm32f1xx_hal_sram.c ****     {
 703              		.loc 1 464 44 discriminator 3 view .LVU191
 464:Drivers/STM32F1xx_HAL_Driver/Src/stm32f1xx_hal_sram.c ****     {
 704              		.loc 1 464 49 is_stmt 0 discriminator 3 view .LVU192
 705 0038 023B     		subs	r3, r3, #2
 706              	.LVL62:
 707              	.L41:
 464:Drivers/STM32F1xx_HAL_Driver/Src/stm32f1xx_hal_sram.c ****     {
 708              		.loc 1 464 29 is_stmt 1 discriminator 1 view .LVU193
 464:Drivers/STM32F1xx_HAL_Driver/Src/stm32f1xx_hal_sram.c ****     {
 709              		.loc 1 464 5 is_stmt 0 discriminator 1 view .LVU194
 710 003a 9D42     		cmp	r5, r3
 711 003c F5D1     		bne	.L42
 474:Drivers/STM32F1xx_HAL_Driver/Src/stm32f1xx_hal_sram.c ****     {
 712              		.loc 1 474 5 is_stmt 1 view .LVU195
 474:Drivers/STM32F1xx_HAL_Driver/Src/stm32f1xx_hal_sram.c ****     {
 713              		.loc 1 474 8 is_stmt 0 view .LVU196
 714 003e 0DB1     		cbz	r5, .L43
 476:Drivers/STM32F1xx_HAL_Driver/Src/stm32f1xx_hal_sram.c ****     }
 715              		.loc 1 476 7 is_stmt 1 view .LVU197
 476:Drivers/STM32F1xx_HAL_Driver/Src/stm32f1xx_hal_sram.c ****     }
 716              		.loc 1 476 32 is_stmt 0 view .LVU198
 717 0040 0B68     		ldr	r3, [r1]
 718              	.LVL63:
 476:Drivers/STM32F1xx_HAL_Driver/Src/stm32f1xx_hal_sram.c ****     }
 719              		.loc 1 476 18 view .LVU199
 720 0042 1380     		strh	r3, [r2]	@ movhi
 721              	.L43:
 480:Drivers/STM32F1xx_HAL_Driver/Src/stm32f1xx_hal_sram.c **** 
 722              		.loc 1 480 5 is_stmt 1 view .LVU200
 480:Drivers/STM32F1xx_HAL_Driver/Src/stm32f1xx_hal_sram.c **** 
 723              		.loc 1 480 18 is_stmt 0 view .LVU201
 724 0044 80F84160 		strb	r6, [r0, #65]
 483:Drivers/STM32F1xx_HAL_Driver/Src/stm32f1xx_hal_sram.c ****   }
 725              		.loc 1 483 5 is_stmt 1 view .LVU202
 483:Drivers/STM32F1xx_HAL_Driver/Src/stm32f1xx_hal_sram.c ****   }
 726              		.loc 1 483 5 view .LVU203
 727 0048 0023     		movs	r3, #0
 728 004a 80F84030 		strb	r3, [r0, #64]
 483:Drivers/STM32F1xx_HAL_Driver/Src/stm32f1xx_hal_sram.c ****   }
 729              		.loc 1 483 5 view .LVU204
 490:Drivers/STM32F1xx_HAL_Driver/Src/stm32f1xx_hal_sram.c **** }
 730              		.loc 1 490 3 view .LVU205
 490:Drivers/STM32F1xx_HAL_Driver/Src/stm32f1xx_hal_sram.c **** }
 731              		.loc 1 490 10 is_stmt 0 view .LVU206
ARM GAS  /tmp/ccZFdKv2.s 			page 36


 732 004e 1846     		mov	r0, r3
 733              	.LVL64:
 734              	.L40:
 491:Drivers/STM32F1xx_HAL_Driver/Src/stm32f1xx_hal_sram.c **** 
 735              		.loc 1 491 1 view .LVU207
 736 0050 70BC     		pop	{r4, r5, r6}
 737              	.LCFI14:
 738              		.cfi_remember_state
 739              		.cfi_restore 6
 740              		.cfi_restore 5
 741              		.cfi_restore 4
 742              		.cfi_def_cfa_offset 0
 743              	.LVL65:
 491:Drivers/STM32F1xx_HAL_Driver/Src/stm32f1xx_hal_sram.c **** 
 744              		.loc 1 491 1 view .LVU208
 745 0052 7047     		bx	lr
 746              	.LVL66:
 747              	.L44:
 748              	.LCFI15:
 749              		.cfi_restore_state
 487:Drivers/STM32F1xx_HAL_Driver/Src/stm32f1xx_hal_sram.c ****   }
 750              		.loc 1 487 12 view .LVU209
 751 0054 0120     		movs	r0, #1
 752              	.LVL67:
 487:Drivers/STM32F1xx_HAL_Driver/Src/stm32f1xx_hal_sram.c ****   }
 753              		.loc 1 487 12 view .LVU210
 754 0056 FBE7     		b	.L40
 755              	.LVL68:
 756              	.L45:
 455:Drivers/STM32F1xx_HAL_Driver/Src/stm32f1xx_hal_sram.c **** 
 757              		.loc 1 455 5 view .LVU211
 758 0058 0220     		movs	r0, #2
 759              	.LVL69:
 455:Drivers/STM32F1xx_HAL_Driver/Src/stm32f1xx_hal_sram.c **** 
 760              		.loc 1 455 5 view .LVU212
 761 005a F9E7     		b	.L40
 762              		.cfi_endproc
 763              	.LFE73:
 765              		.section	.text.HAL_SRAM_Write_16b,"ax",%progbits
 766              		.align	1
 767              		.global	HAL_SRAM_Write_16b
 768              		.syntax unified
 769              		.thumb
 770              		.thumb_func
 771              		.fpu softvfp
 773              	HAL_SRAM_Write_16b:
 774              	.LVL70:
 775              	.LFB74:
 504:Drivers/STM32F1xx_HAL_Driver/Src/stm32f1xx_hal_sram.c ****   uint32_t size;
 776              		.loc 1 504 1 is_stmt 1 view -0
 777              		.cfi_startproc
 778              		@ args = 0, pretend = 0, frame = 0
 779              		@ frame_needed = 0, uses_anonymous_args = 0
 780              		@ link register save eliminated.
 504:Drivers/STM32F1xx_HAL_Driver/Src/stm32f1xx_hal_sram.c ****   uint32_t size;
 781              		.loc 1 504 1 is_stmt 0 view .LVU214
 782 0000 70B4     		push	{r4, r5, r6}
ARM GAS  /tmp/ccZFdKv2.s 			page 37


 783              	.LCFI16:
 784              		.cfi_def_cfa_offset 12
 785              		.cfi_offset 4, -12
 786              		.cfi_offset 5, -8
 787              		.cfi_offset 6, -4
 505:Drivers/STM32F1xx_HAL_Driver/Src/stm32f1xx_hal_sram.c ****   __IO uint32_t *psramaddress = pAddress;
 788              		.loc 1 505 3 is_stmt 1 view .LVU215
 506:Drivers/STM32F1xx_HAL_Driver/Src/stm32f1xx_hal_sram.c ****   uint16_t *psrcbuff = pSrcBuffer;
 789              		.loc 1 506 3 view .LVU216
 790              	.LVL71:
 507:Drivers/STM32F1xx_HAL_Driver/Src/stm32f1xx_hal_sram.c ****   uint8_t limit;
 791              		.loc 1 507 3 view .LVU217
 508:Drivers/STM32F1xx_HAL_Driver/Src/stm32f1xx_hal_sram.c **** 
 792              		.loc 1 508 3 view .LVU218
 511:Drivers/STM32F1xx_HAL_Driver/Src/stm32f1xx_hal_sram.c ****   {
 793              		.loc 1 511 3 view .LVU219
 511:Drivers/STM32F1xx_HAL_Driver/Src/stm32f1xx_hal_sram.c ****   {
 794              		.loc 1 511 12 is_stmt 0 view .LVU220
 795 0002 90F84140 		ldrb	r4, [r0, #65]	@ zero_extendqisi2
 796 0006 E4B2     		uxtb	r4, r4
 511:Drivers/STM32F1xx_HAL_Driver/Src/stm32f1xx_hal_sram.c ****   {
 797              		.loc 1 511 6 view .LVU221
 798 0008 012C     		cmp	r4, #1
 799 000a 27D1     		bne	.L52
 514:Drivers/STM32F1xx_HAL_Driver/Src/stm32f1xx_hal_sram.c **** 
 800              		.loc 1 514 5 is_stmt 1 view .LVU222
 514:Drivers/STM32F1xx_HAL_Driver/Src/stm32f1xx_hal_sram.c **** 
 801              		.loc 1 514 5 view .LVU223
 802 000c 90F84040 		ldrb	r4, [r0, #64]	@ zero_extendqisi2
 803 0010 012C     		cmp	r4, #1
 804 0012 26D0     		beq	.L53
 514:Drivers/STM32F1xx_HAL_Driver/Src/stm32f1xx_hal_sram.c **** 
 805              		.loc 1 514 5 discriminator 2 view .LVU224
 806 0014 0124     		movs	r4, #1
 807 0016 80F84040 		strb	r4, [r0, #64]
 514:Drivers/STM32F1xx_HAL_Driver/Src/stm32f1xx_hal_sram.c **** 
 808              		.loc 1 514 5 discriminator 2 view .LVU225
 517:Drivers/STM32F1xx_HAL_Driver/Src/stm32f1xx_hal_sram.c **** 
 809              		.loc 1 517 5 discriminator 2 view .LVU226
 517:Drivers/STM32F1xx_HAL_Driver/Src/stm32f1xx_hal_sram.c **** 
 810              		.loc 1 517 18 is_stmt 0 discriminator 2 view .LVU227
 811 001a 0224     		movs	r4, #2
 812 001c 80F84140 		strb	r4, [r0, #65]
 520:Drivers/STM32F1xx_HAL_Driver/Src/stm32f1xx_hal_sram.c **** 
 813              		.loc 1 520 5 is_stmt 1 discriminator 2 view .LVU228
 520:Drivers/STM32F1xx_HAL_Driver/Src/stm32f1xx_hal_sram.c **** 
 814              		.loc 1 520 11 is_stmt 0 discriminator 2 view .LVU229
 815 0020 03F00106 		and	r6, r3, #1
 816              	.LVL72:
 523:Drivers/STM32F1xx_HAL_Driver/Src/stm32f1xx_hal_sram.c ****     {
 817              		.loc 1 523 5 is_stmt 1 discriminator 2 view .LVU230
 523:Drivers/STM32F1xx_HAL_Driver/Src/stm32f1xx_hal_sram.c ****     {
 818              		.loc 1 523 5 is_stmt 0 discriminator 2 view .LVU231
 819 0024 09E0     		b	.L49
 820              	.LVL73:
 821              	.L50:
 525:Drivers/STM32F1xx_HAL_Driver/Src/stm32f1xx_hal_sram.c ****       psrcbuff++;
ARM GAS  /tmp/ccZFdKv2.s 			page 38


 822              		.loc 1 525 7 is_stmt 1 discriminator 3 view .LVU232
 525:Drivers/STM32F1xx_HAL_Driver/Src/stm32f1xx_hal_sram.c ****       psrcbuff++;
 823              		.loc 1 525 34 is_stmt 0 discriminator 3 view .LVU233
 824 0026 1488     		ldrh	r4, [r2]
 525:Drivers/STM32F1xx_HAL_Driver/Src/stm32f1xx_hal_sram.c ****       psrcbuff++;
 825              		.loc 1 525 21 discriminator 3 view .LVU234
 826 0028 0C60     		str	r4, [r1]
 526:Drivers/STM32F1xx_HAL_Driver/Src/stm32f1xx_hal_sram.c ****       *psramaddress |= ((uint32_t)(*psrcbuff) << 16U);
 827              		.loc 1 526 7 is_stmt 1 discriminator 3 view .LVU235
 828              	.LVL74:
 527:Drivers/STM32F1xx_HAL_Driver/Src/stm32f1xx_hal_sram.c ****       psrcbuff++;
 829              		.loc 1 527 7 discriminator 3 view .LVU236
 527:Drivers/STM32F1xx_HAL_Driver/Src/stm32f1xx_hal_sram.c ****       psrcbuff++;
 830              		.loc 1 527 21 is_stmt 0 discriminator 3 view .LVU237
 831 002a 0C68     		ldr	r4, [r1]
 527:Drivers/STM32F1xx_HAL_Driver/Src/stm32f1xx_hal_sram.c ****       psrcbuff++;
 832              		.loc 1 527 36 discriminator 3 view .LVU238
 833 002c 5588     		ldrh	r5, [r2, #2]
 527:Drivers/STM32F1xx_HAL_Driver/Src/stm32f1xx_hal_sram.c ****       psrcbuff++;
 834              		.loc 1 527 21 discriminator 3 view .LVU239
 835 002e 44EA0544 		orr	r4, r4, r5, lsl #16
 836 0032 41F8044B 		str	r4, [r1], #4
 837              	.LVL75:
 528:Drivers/STM32F1xx_HAL_Driver/Src/stm32f1xx_hal_sram.c ****       psramaddress++;
 838              		.loc 1 528 7 is_stmt 1 discriminator 3 view .LVU240
 528:Drivers/STM32F1xx_HAL_Driver/Src/stm32f1xx_hal_sram.c ****       psramaddress++;
 839              		.loc 1 528 15 is_stmt 0 discriminator 3 view .LVU241
 840 0036 0432     		adds	r2, r2, #4
 841              	.LVL76:
 529:Drivers/STM32F1xx_HAL_Driver/Src/stm32f1xx_hal_sram.c ****     }
 842              		.loc 1 529 7 is_stmt 1 discriminator 3 view .LVU242
 523:Drivers/STM32F1xx_HAL_Driver/Src/stm32f1xx_hal_sram.c ****     {
 843              		.loc 1 523 44 discriminator 3 view .LVU243
 523:Drivers/STM32F1xx_HAL_Driver/Src/stm32f1xx_hal_sram.c ****     {
 844              		.loc 1 523 49 is_stmt 0 discriminator 3 view .LVU244
 845 0038 023B     		subs	r3, r3, #2
 846              	.LVL77:
 847              	.L49:
 523:Drivers/STM32F1xx_HAL_Driver/Src/stm32f1xx_hal_sram.c ****     {
 848              		.loc 1 523 29 is_stmt 1 discriminator 1 view .LVU245
 523:Drivers/STM32F1xx_HAL_Driver/Src/stm32f1xx_hal_sram.c ****     {
 849              		.loc 1 523 5 is_stmt 0 discriminator 1 view .LVU246
 850 003a 9E42     		cmp	r6, r3
 851 003c F3D1     		bne	.L50
 533:Drivers/STM32F1xx_HAL_Driver/Src/stm32f1xx_hal_sram.c ****     {
 852              		.loc 1 533 5 is_stmt 1 view .LVU247
 533:Drivers/STM32F1xx_HAL_Driver/Src/stm32f1xx_hal_sram.c ****     {
 853              		.loc 1 533 8 is_stmt 0 view .LVU248
 854 003e 2EB1     		cbz	r6, .L51
 535:Drivers/STM32F1xx_HAL_Driver/Src/stm32f1xx_hal_sram.c ****     }
 855              		.loc 1 535 7 is_stmt 1 view .LVU249
 535:Drivers/STM32F1xx_HAL_Driver/Src/stm32f1xx_hal_sram.c ****     }
 856              		.loc 1 535 35 is_stmt 0 view .LVU250
 857 0040 1288     		ldrh	r2, [r2]
 858              	.LVL78:
 535:Drivers/STM32F1xx_HAL_Driver/Src/stm32f1xx_hal_sram.c ****     }
 859              		.loc 1 535 65 view .LVU251
ARM GAS  /tmp/ccZFdKv2.s 			page 39


 860 0042 0B68     		ldr	r3, [r1]
 861              	.LVL79:
 535:Drivers/STM32F1xx_HAL_Driver/Src/stm32f1xx_hal_sram.c ****     }
 862              		.loc 1 535 80 view .LVU252
 863 0044 1B0C     		lsrs	r3, r3, #16
 864 0046 1B04     		lsls	r3, r3, #16
 535:Drivers/STM32F1xx_HAL_Driver/Src/stm32f1xx_hal_sram.c ****     }
 865              		.loc 1 535 61 view .LVU253
 866 0048 1343     		orrs	r3, r3, r2
 535:Drivers/STM32F1xx_HAL_Driver/Src/stm32f1xx_hal_sram.c ****     }
 867              		.loc 1 535 21 view .LVU254
 868 004a 0B60     		str	r3, [r1]
 869              	.L51:
 539:Drivers/STM32F1xx_HAL_Driver/Src/stm32f1xx_hal_sram.c **** 
 870              		.loc 1 539 5 is_stmt 1 view .LVU255
 539:Drivers/STM32F1xx_HAL_Driver/Src/stm32f1xx_hal_sram.c **** 
 871              		.loc 1 539 18 is_stmt 0 view .LVU256
 872 004c 0123     		movs	r3, #1
 873 004e 80F84130 		strb	r3, [r0, #65]
 542:Drivers/STM32F1xx_HAL_Driver/Src/stm32f1xx_hal_sram.c ****   }
 874              		.loc 1 542 5 is_stmt 1 view .LVU257
 542:Drivers/STM32F1xx_HAL_Driver/Src/stm32f1xx_hal_sram.c ****   }
 875              		.loc 1 542 5 view .LVU258
 876 0052 0023     		movs	r3, #0
 877 0054 80F84030 		strb	r3, [r0, #64]
 542:Drivers/STM32F1xx_HAL_Driver/Src/stm32f1xx_hal_sram.c ****   }
 878              		.loc 1 542 5 view .LVU259
 549:Drivers/STM32F1xx_HAL_Driver/Src/stm32f1xx_hal_sram.c **** }
 879              		.loc 1 549 3 view .LVU260
 549:Drivers/STM32F1xx_HAL_Driver/Src/stm32f1xx_hal_sram.c **** }
 880              		.loc 1 549 10 is_stmt 0 view .LVU261
 881 0058 1846     		mov	r0, r3
 882              	.LVL80:
 549:Drivers/STM32F1xx_HAL_Driver/Src/stm32f1xx_hal_sram.c **** }
 883              		.loc 1 549 10 view .LVU262
 884 005a 00E0     		b	.L48
 885              	.LVL81:
 886              	.L52:
 546:Drivers/STM32F1xx_HAL_Driver/Src/stm32f1xx_hal_sram.c ****   }
 887              		.loc 1 546 12 view .LVU263
 888 005c 0120     		movs	r0, #1
 889              	.LVL82:
 890              	.L48:
 550:Drivers/STM32F1xx_HAL_Driver/Src/stm32f1xx_hal_sram.c **** 
 891              		.loc 1 550 1 view .LVU264
 892 005e 70BC     		pop	{r4, r5, r6}
 893              	.LCFI17:
 894              		.cfi_remember_state
 895              		.cfi_restore 6
 896              		.cfi_restore 5
 897              		.cfi_restore 4
 898              		.cfi_def_cfa_offset 0
 899 0060 7047     		bx	lr
 900              	.LVL83:
 901              	.L53:
 902              	.LCFI18:
 903              		.cfi_restore_state
ARM GAS  /tmp/ccZFdKv2.s 			page 40


 514:Drivers/STM32F1xx_HAL_Driver/Src/stm32f1xx_hal_sram.c **** 
 904              		.loc 1 514 5 view .LVU265
 905 0062 0220     		movs	r0, #2
 906              	.LVL84:
 514:Drivers/STM32F1xx_HAL_Driver/Src/stm32f1xx_hal_sram.c **** 
 907              		.loc 1 514 5 view .LVU266
 908 0064 FBE7     		b	.L48
 909              		.cfi_endproc
 910              	.LFE74:
 912              		.section	.text.HAL_SRAM_Read_32b,"ax",%progbits
 913              		.align	1
 914              		.global	HAL_SRAM_Read_32b
 915              		.syntax unified
 916              		.thumb
 917              		.thumb_func
 918              		.fpu softvfp
 920              	HAL_SRAM_Read_32b:
 921              	.LVL85:
 922              	.LFB75:
 563:Drivers/STM32F1xx_HAL_Driver/Src/stm32f1xx_hal_sram.c ****   uint32_t size;
 923              		.loc 1 563 1 is_stmt 1 view -0
 924              		.cfi_startproc
 925              		@ args = 0, pretend = 0, frame = 0
 926              		@ frame_needed = 0, uses_anonymous_args = 0
 927              		@ link register save eliminated.
 563:Drivers/STM32F1xx_HAL_Driver/Src/stm32f1xx_hal_sram.c ****   uint32_t size;
 928              		.loc 1 563 1 is_stmt 0 view .LVU268
 929 0000 30B4     		push	{r4, r5}
 930              	.LCFI19:
 931              		.cfi_def_cfa_offset 8
 932              		.cfi_offset 4, -8
 933              		.cfi_offset 5, -4
 564:Drivers/STM32F1xx_HAL_Driver/Src/stm32f1xx_hal_sram.c ****   __IO uint32_t *psramaddress = pAddress;
 934              		.loc 1 564 3 is_stmt 1 view .LVU269
 565:Drivers/STM32F1xx_HAL_Driver/Src/stm32f1xx_hal_sram.c ****   uint32_t *pdestbuff = pDstBuffer;
 935              		.loc 1 565 3 view .LVU270
 936              	.LVL86:
 566:Drivers/STM32F1xx_HAL_Driver/Src/stm32f1xx_hal_sram.c ****   HAL_SRAM_StateTypeDef state = hsram->State;
 937              		.loc 1 566 3 view .LVU271
 567:Drivers/STM32F1xx_HAL_Driver/Src/stm32f1xx_hal_sram.c **** 
 938              		.loc 1 567 3 view .LVU272
 567:Drivers/STM32F1xx_HAL_Driver/Src/stm32f1xx_hal_sram.c **** 
 939              		.loc 1 567 25 is_stmt 0 view .LVU273
 940 0002 90F84150 		ldrb	r5, [r0, #65]	@ zero_extendqisi2
 941 0006 EDB2     		uxtb	r5, r5
 942              	.LVL87:
 570:Drivers/STM32F1xx_HAL_Driver/Src/stm32f1xx_hal_sram.c ****   {
 943              		.loc 1 570 3 is_stmt 1 view .LVU274
 570:Drivers/STM32F1xx_HAL_Driver/Src/stm32f1xx_hal_sram.c ****   {
 944              		.loc 1 570 6 is_stmt 0 view .LVU275
 945 0008 012D     		cmp	r5, #1
 946 000a 01D0     		beq	.L56
 570:Drivers/STM32F1xx_HAL_Driver/Src/stm32f1xx_hal_sram.c ****   {
 947              		.loc 1 570 39 discriminator 1 view .LVU276
 948 000c 042D     		cmp	r5, #4
 949 000e 18D1     		bne	.L60
 950              	.L56:
ARM GAS  /tmp/ccZFdKv2.s 			page 41


 573:Drivers/STM32F1xx_HAL_Driver/Src/stm32f1xx_hal_sram.c **** 
 951              		.loc 1 573 5 is_stmt 1 view .LVU277
 573:Drivers/STM32F1xx_HAL_Driver/Src/stm32f1xx_hal_sram.c **** 
 952              		.loc 1 573 5 view .LVU278
 953 0010 90F84040 		ldrb	r4, [r0, #64]	@ zero_extendqisi2
 954 0014 012C     		cmp	r4, #1
 955 0016 16D0     		beq	.L61
 573:Drivers/STM32F1xx_HAL_Driver/Src/stm32f1xx_hal_sram.c **** 
 956              		.loc 1 573 5 discriminator 2 view .LVU279
 957 0018 0124     		movs	r4, #1
 958 001a 80F84040 		strb	r4, [r0, #64]
 573:Drivers/STM32F1xx_HAL_Driver/Src/stm32f1xx_hal_sram.c **** 
 959              		.loc 1 573 5 discriminator 2 view .LVU280
 576:Drivers/STM32F1xx_HAL_Driver/Src/stm32f1xx_hal_sram.c **** 
 960              		.loc 1 576 5 discriminator 2 view .LVU281
 576:Drivers/STM32F1xx_HAL_Driver/Src/stm32f1xx_hal_sram.c **** 
 961              		.loc 1 576 18 is_stmt 0 discriminator 2 view .LVU282
 962 001e 0224     		movs	r4, #2
 963 0020 80F84140 		strb	r4, [r0, #65]
 579:Drivers/STM32F1xx_HAL_Driver/Src/stm32f1xx_hal_sram.c ****     {
 964              		.loc 1 579 5 is_stmt 1 discriminator 2 view .LVU283
 965              	.LVL88:
 579:Drivers/STM32F1xx_HAL_Driver/Src/stm32f1xx_hal_sram.c ****     {
 966              		.loc 1 579 5 is_stmt 0 discriminator 2 view .LVU284
 967 0024 04E0     		b	.L58
 968              	.LVL89:
 969              	.L59:
 581:Drivers/STM32F1xx_HAL_Driver/Src/stm32f1xx_hal_sram.c ****       pdestbuff++;
 970              		.loc 1 581 7 is_stmt 1 discriminator 3 view .LVU285
 581:Drivers/STM32F1xx_HAL_Driver/Src/stm32f1xx_hal_sram.c ****       pdestbuff++;
 971              		.loc 1 581 20 is_stmt 0 discriminator 3 view .LVU286
 972 0026 51F8044B 		ldr	r4, [r1], #4
 973              	.LVL90:
 581:Drivers/STM32F1xx_HAL_Driver/Src/stm32f1xx_hal_sram.c ****       pdestbuff++;
 974              		.loc 1 581 18 discriminator 3 view .LVU287
 975 002a 42F8044B 		str	r4, [r2], #4
 976              	.LVL91:
 582:Drivers/STM32F1xx_HAL_Driver/Src/stm32f1xx_hal_sram.c ****       psramaddress++;
 977              		.loc 1 582 7 is_stmt 1 discriminator 3 view .LVU288
 583:Drivers/STM32F1xx_HAL_Driver/Src/stm32f1xx_hal_sram.c ****     }
 978              		.loc 1 583 7 discriminator 3 view .LVU289
 579:Drivers/STM32F1xx_HAL_Driver/Src/stm32f1xx_hal_sram.c ****     {
 979              		.loc 1 579 41 discriminator 3 view .LVU290
 579:Drivers/STM32F1xx_HAL_Driver/Src/stm32f1xx_hal_sram.c ****     {
 980              		.loc 1 579 45 is_stmt 0 discriminator 3 view .LVU291
 981 002e 013B     		subs	r3, r3, #1
 982              	.LVL92:
 983              	.L58:
 579:Drivers/STM32F1xx_HAL_Driver/Src/stm32f1xx_hal_sram.c ****     {
 984              		.loc 1 579 29 is_stmt 1 discriminator 1 view .LVU292
 579:Drivers/STM32F1xx_HAL_Driver/Src/stm32f1xx_hal_sram.c ****     {
 985              		.loc 1 579 5 is_stmt 0 discriminator 1 view .LVU293
 986 0030 002B     		cmp	r3, #0
 987 0032 F8D1     		bne	.L59
 587:Drivers/STM32F1xx_HAL_Driver/Src/stm32f1xx_hal_sram.c **** 
 988              		.loc 1 587 5 is_stmt 1 view .LVU294
 587:Drivers/STM32F1xx_HAL_Driver/Src/stm32f1xx_hal_sram.c **** 
ARM GAS  /tmp/ccZFdKv2.s 			page 42


 989              		.loc 1 587 18 is_stmt 0 view .LVU295
 990 0034 80F84150 		strb	r5, [r0, #65]
 590:Drivers/STM32F1xx_HAL_Driver/Src/stm32f1xx_hal_sram.c ****   }
 991              		.loc 1 590 5 is_stmt 1 view .LVU296
 590:Drivers/STM32F1xx_HAL_Driver/Src/stm32f1xx_hal_sram.c ****   }
 992              		.loc 1 590 5 view .LVU297
 993 0038 80F84030 		strb	r3, [r0, #64]
 590:Drivers/STM32F1xx_HAL_Driver/Src/stm32f1xx_hal_sram.c ****   }
 994              		.loc 1 590 5 view .LVU298
 597:Drivers/STM32F1xx_HAL_Driver/Src/stm32f1xx_hal_sram.c **** }
 995              		.loc 1 597 3 view .LVU299
 597:Drivers/STM32F1xx_HAL_Driver/Src/stm32f1xx_hal_sram.c **** }
 996              		.loc 1 597 10 is_stmt 0 view .LVU300
 997 003c 1846     		mov	r0, r3
 998              	.LVL93:
 999              	.L57:
 598:Drivers/STM32F1xx_HAL_Driver/Src/stm32f1xx_hal_sram.c **** 
 1000              		.loc 1 598 1 view .LVU301
 1001 003e 30BC     		pop	{r4, r5}
 1002              	.LCFI20:
 1003              		.cfi_remember_state
 1004              		.cfi_restore 5
 1005              		.cfi_restore 4
 1006              		.cfi_def_cfa_offset 0
 1007              	.LVL94:
 598:Drivers/STM32F1xx_HAL_Driver/Src/stm32f1xx_hal_sram.c **** 
 1008              		.loc 1 598 1 view .LVU302
 1009 0040 7047     		bx	lr
 1010              	.LVL95:
 1011              	.L60:
 1012              	.LCFI21:
 1013              		.cfi_restore_state
 594:Drivers/STM32F1xx_HAL_Driver/Src/stm32f1xx_hal_sram.c ****   }
 1014              		.loc 1 594 12 view .LVU303
 1015 0042 0120     		movs	r0, #1
 1016              	.LVL96:
 594:Drivers/STM32F1xx_HAL_Driver/Src/stm32f1xx_hal_sram.c ****   }
 1017              		.loc 1 594 12 view .LVU304
 1018 0044 FBE7     		b	.L57
 1019              	.LVL97:
 1020              	.L61:
 573:Drivers/STM32F1xx_HAL_Driver/Src/stm32f1xx_hal_sram.c **** 
 1021              		.loc 1 573 5 view .LVU305
 1022 0046 0220     		movs	r0, #2
 1023              	.LVL98:
 573:Drivers/STM32F1xx_HAL_Driver/Src/stm32f1xx_hal_sram.c **** 
 1024              		.loc 1 573 5 view .LVU306
 1025 0048 F9E7     		b	.L57
 1026              		.cfi_endproc
 1027              	.LFE75:
 1029              		.section	.text.HAL_SRAM_Write_32b,"ax",%progbits
 1030              		.align	1
 1031              		.global	HAL_SRAM_Write_32b
 1032              		.syntax unified
 1033              		.thumb
 1034              		.thumb_func
 1035              		.fpu softvfp
ARM GAS  /tmp/ccZFdKv2.s 			page 43


 1037              	HAL_SRAM_Write_32b:
 1038              	.LVL99:
 1039              	.LFB76:
 611:Drivers/STM32F1xx_HAL_Driver/Src/stm32f1xx_hal_sram.c ****   uint32_t size;
 1040              		.loc 1 611 1 is_stmt 1 view -0
 1041              		.cfi_startproc
 1042              		@ args = 0, pretend = 0, frame = 0
 1043              		@ frame_needed = 0, uses_anonymous_args = 0
 1044              		@ link register save eliminated.
 611:Drivers/STM32F1xx_HAL_Driver/Src/stm32f1xx_hal_sram.c ****   uint32_t size;
 1045              		.loc 1 611 1 is_stmt 0 view .LVU308
 1046 0000 10B4     		push	{r4}
 1047              	.LCFI22:
 1048              		.cfi_def_cfa_offset 4
 1049              		.cfi_offset 4, -4
 612:Drivers/STM32F1xx_HAL_Driver/Src/stm32f1xx_hal_sram.c ****   __IO uint32_t *psramaddress = pAddress;
 1050              		.loc 1 612 3 is_stmt 1 view .LVU309
 613:Drivers/STM32F1xx_HAL_Driver/Src/stm32f1xx_hal_sram.c ****   uint32_t *psrcbuff = pSrcBuffer;
 1051              		.loc 1 613 3 view .LVU310
 1052              	.LVL100:
 614:Drivers/STM32F1xx_HAL_Driver/Src/stm32f1xx_hal_sram.c **** 
 1053              		.loc 1 614 3 view .LVU311
 617:Drivers/STM32F1xx_HAL_Driver/Src/stm32f1xx_hal_sram.c ****   {
 1054              		.loc 1 617 3 view .LVU312
 617:Drivers/STM32F1xx_HAL_Driver/Src/stm32f1xx_hal_sram.c ****   {
 1055              		.loc 1 617 12 is_stmt 0 view .LVU313
 1056 0002 90F84140 		ldrb	r4, [r0, #65]	@ zero_extendqisi2
 1057 0006 E4B2     		uxtb	r4, r4
 617:Drivers/STM32F1xx_HAL_Driver/Src/stm32f1xx_hal_sram.c ****   {
 1058              		.loc 1 617 6 view .LVU314
 1059 0008 012C     		cmp	r4, #1
 1060 000a 19D1     		bne	.L67
 620:Drivers/STM32F1xx_HAL_Driver/Src/stm32f1xx_hal_sram.c **** 
 1061              		.loc 1 620 5 is_stmt 1 view .LVU315
 620:Drivers/STM32F1xx_HAL_Driver/Src/stm32f1xx_hal_sram.c **** 
 1062              		.loc 1 620 5 view .LVU316
 1063 000c 90F84040 		ldrb	r4, [r0, #64]	@ zero_extendqisi2
 1064 0010 012C     		cmp	r4, #1
 1065 0012 18D0     		beq	.L68
 620:Drivers/STM32F1xx_HAL_Driver/Src/stm32f1xx_hal_sram.c **** 
 1066              		.loc 1 620 5 discriminator 2 view .LVU317
 1067 0014 0124     		movs	r4, #1
 1068 0016 80F84040 		strb	r4, [r0, #64]
 620:Drivers/STM32F1xx_HAL_Driver/Src/stm32f1xx_hal_sram.c **** 
 1069              		.loc 1 620 5 discriminator 2 view .LVU318
 623:Drivers/STM32F1xx_HAL_Driver/Src/stm32f1xx_hal_sram.c **** 
 1070              		.loc 1 623 5 discriminator 2 view .LVU319
 623:Drivers/STM32F1xx_HAL_Driver/Src/stm32f1xx_hal_sram.c **** 
 1071              		.loc 1 623 18 is_stmt 0 discriminator 2 view .LVU320
 1072 001a 0224     		movs	r4, #2
 1073 001c 80F84140 		strb	r4, [r0, #65]
 626:Drivers/STM32F1xx_HAL_Driver/Src/stm32f1xx_hal_sram.c ****     {
 1074              		.loc 1 626 5 is_stmt 1 discriminator 2 view .LVU321
 1075              	.LVL101:
 626:Drivers/STM32F1xx_HAL_Driver/Src/stm32f1xx_hal_sram.c ****     {
 1076              		.loc 1 626 5 is_stmt 0 discriminator 2 view .LVU322
 1077 0020 04E0     		b	.L65
ARM GAS  /tmp/ccZFdKv2.s 			page 44


 1078              	.LVL102:
 1079              	.L66:
 628:Drivers/STM32F1xx_HAL_Driver/Src/stm32f1xx_hal_sram.c ****       psrcbuff++;
 1080              		.loc 1 628 7 is_stmt 1 discriminator 3 view .LVU323
 628:Drivers/STM32F1xx_HAL_Driver/Src/stm32f1xx_hal_sram.c ****       psrcbuff++;
 1081              		.loc 1 628 23 is_stmt 0 discriminator 3 view .LVU324
 1082 0022 52F8044B 		ldr	r4, [r2], #4
 1083              	.LVL103:
 628:Drivers/STM32F1xx_HAL_Driver/Src/stm32f1xx_hal_sram.c ****       psrcbuff++;
 1084              		.loc 1 628 21 discriminator 3 view .LVU325
 1085 0026 41F8044B 		str	r4, [r1], #4
 1086              	.LVL104:
 629:Drivers/STM32F1xx_HAL_Driver/Src/stm32f1xx_hal_sram.c ****       psramaddress++;
 1087              		.loc 1 629 7 is_stmt 1 discriminator 3 view .LVU326
 630:Drivers/STM32F1xx_HAL_Driver/Src/stm32f1xx_hal_sram.c ****     }
 1088              		.loc 1 630 7 discriminator 3 view .LVU327
 626:Drivers/STM32F1xx_HAL_Driver/Src/stm32f1xx_hal_sram.c ****     {
 1089              		.loc 1 626 41 discriminator 3 view .LVU328
 626:Drivers/STM32F1xx_HAL_Driver/Src/stm32f1xx_hal_sram.c ****     {
 1090              		.loc 1 626 45 is_stmt 0 discriminator 3 view .LVU329
 1091 002a 013B     		subs	r3, r3, #1
 1092              	.LVL105:
 1093              	.L65:
 626:Drivers/STM32F1xx_HAL_Driver/Src/stm32f1xx_hal_sram.c ****     {
 1094              		.loc 1 626 29 is_stmt 1 discriminator 1 view .LVU330
 626:Drivers/STM32F1xx_HAL_Driver/Src/stm32f1xx_hal_sram.c ****     {
 1095              		.loc 1 626 5 is_stmt 0 discriminator 1 view .LVU331
 1096 002c 002B     		cmp	r3, #0
 1097 002e F8D1     		bne	.L66
 634:Drivers/STM32F1xx_HAL_Driver/Src/stm32f1xx_hal_sram.c **** 
 1098              		.loc 1 634 5 is_stmt 1 view .LVU332
 634:Drivers/STM32F1xx_HAL_Driver/Src/stm32f1xx_hal_sram.c **** 
 1099              		.loc 1 634 18 is_stmt 0 view .LVU333
 1100 0030 0123     		movs	r3, #1
 1101              	.LVL106:
 634:Drivers/STM32F1xx_HAL_Driver/Src/stm32f1xx_hal_sram.c **** 
 1102              		.loc 1 634 18 view .LVU334
 1103 0032 80F84130 		strb	r3, [r0, #65]
 637:Drivers/STM32F1xx_HAL_Driver/Src/stm32f1xx_hal_sram.c ****   }
 1104              		.loc 1 637 5 is_stmt 1 view .LVU335
 637:Drivers/STM32F1xx_HAL_Driver/Src/stm32f1xx_hal_sram.c ****   }
 1105              		.loc 1 637 5 view .LVU336
 1106 0036 0023     		movs	r3, #0
 1107 0038 80F84030 		strb	r3, [r0, #64]
 637:Drivers/STM32F1xx_HAL_Driver/Src/stm32f1xx_hal_sram.c ****   }
 1108              		.loc 1 637 5 view .LVU337
 644:Drivers/STM32F1xx_HAL_Driver/Src/stm32f1xx_hal_sram.c **** }
 1109              		.loc 1 644 3 view .LVU338
 644:Drivers/STM32F1xx_HAL_Driver/Src/stm32f1xx_hal_sram.c **** }
 1110              		.loc 1 644 10 is_stmt 0 view .LVU339
 1111 003c 1846     		mov	r0, r3
 1112              	.LVL107:
 644:Drivers/STM32F1xx_HAL_Driver/Src/stm32f1xx_hal_sram.c **** }
 1113              		.loc 1 644 10 view .LVU340
 1114 003e 00E0     		b	.L64
 1115              	.LVL108:
 1116              	.L67:
ARM GAS  /tmp/ccZFdKv2.s 			page 45


 641:Drivers/STM32F1xx_HAL_Driver/Src/stm32f1xx_hal_sram.c ****   }
 1117              		.loc 1 641 12 view .LVU341
 1118 0040 0120     		movs	r0, #1
 1119              	.LVL109:
 1120              	.L64:
 645:Drivers/STM32F1xx_HAL_Driver/Src/stm32f1xx_hal_sram.c **** 
 1121              		.loc 1 645 1 view .LVU342
 1122 0042 10BC     		pop	{r4}
 1123              	.LCFI23:
 1124              		.cfi_remember_state
 1125              		.cfi_restore 4
 1126              		.cfi_def_cfa_offset 0
 1127 0044 7047     		bx	lr
 1128              	.LVL110:
 1129              	.L68:
 1130              	.LCFI24:
 1131              		.cfi_restore_state
 620:Drivers/STM32F1xx_HAL_Driver/Src/stm32f1xx_hal_sram.c **** 
 1132              		.loc 1 620 5 view .LVU343
 1133 0046 0220     		movs	r0, #2
 1134              	.LVL111:
 620:Drivers/STM32F1xx_HAL_Driver/Src/stm32f1xx_hal_sram.c **** 
 1135              		.loc 1 620 5 view .LVU344
 1136 0048 FBE7     		b	.L64
 1137              		.cfi_endproc
 1138              	.LFE76:
 1140              		.section	.text.HAL_SRAM_Read_DMA,"ax",%progbits
 1141              		.align	1
 1142              		.global	HAL_SRAM_Read_DMA
 1143              		.syntax unified
 1144              		.thumb
 1145              		.thumb_func
 1146              		.fpu softvfp
 1148              	HAL_SRAM_Read_DMA:
 1149              	.LVL112:
 1150              	.LFB77:
 658:Drivers/STM32F1xx_HAL_Driver/Src/stm32f1xx_hal_sram.c ****   HAL_StatusTypeDef status;
 1151              		.loc 1 658 1 is_stmt 1 view -0
 1152              		.cfi_startproc
 1153              		@ args = 0, pretend = 0, frame = 0
 1154              		@ frame_needed = 0, uses_anonymous_args = 0
 658:Drivers/STM32F1xx_HAL_Driver/Src/stm32f1xx_hal_sram.c ****   HAL_StatusTypeDef status;
 1155              		.loc 1 658 1 is_stmt 0 view .LVU346
 1156 0000 38B5     		push	{r3, r4, r5, lr}
 1157              	.LCFI25:
 1158              		.cfi_def_cfa_offset 16
 1159              		.cfi_offset 3, -16
 1160              		.cfi_offset 4, -12
 1161              		.cfi_offset 5, -8
 1162              		.cfi_offset 14, -4
 1163 0002 0446     		mov	r4, r0
 659:Drivers/STM32F1xx_HAL_Driver/Src/stm32f1xx_hal_sram.c ****   HAL_SRAM_StateTypeDef state = hsram->State;
 1164              		.loc 1 659 3 is_stmt 1 view .LVU347
 660:Drivers/STM32F1xx_HAL_Driver/Src/stm32f1xx_hal_sram.c **** 
 1165              		.loc 1 660 3 view .LVU348
 660:Drivers/STM32F1xx_HAL_Driver/Src/stm32f1xx_hal_sram.c **** 
 1166              		.loc 1 660 25 is_stmt 0 view .LVU349
ARM GAS  /tmp/ccZFdKv2.s 			page 46


 1167 0004 90F84100 		ldrb	r0, [r0, #65]	@ zero_extendqisi2
 1168              	.LVL113:
 660:Drivers/STM32F1xx_HAL_Driver/Src/stm32f1xx_hal_sram.c **** 
 1169              		.loc 1 660 25 view .LVU350
 1170 0008 C0B2     		uxtb	r0, r0
 1171              	.LVL114:
 663:Drivers/STM32F1xx_HAL_Driver/Src/stm32f1xx_hal_sram.c ****   {
 1172              		.loc 1 663 3 is_stmt 1 view .LVU351
 663:Drivers/STM32F1xx_HAL_Driver/Src/stm32f1xx_hal_sram.c ****   {
 1173              		.loc 1 663 6 is_stmt 0 view .LVU352
 1174 000a 0128     		cmp	r0, #1
 1175 000c 03D0     		beq	.L71
 663:Drivers/STM32F1xx_HAL_Driver/Src/stm32f1xx_hal_sram.c ****   {
 1176              		.loc 1 663 39 discriminator 1 view .LVU353
 1177 000e 0428     		cmp	r0, #4
 1178 0010 01D0     		beq	.L71
 690:Drivers/STM32F1xx_HAL_Driver/Src/stm32f1xx_hal_sram.c ****   }
 1179              		.loc 1 690 12 view .LVU354
 1180 0012 0120     		movs	r0, #1
 1181              	.LVL115:
 690:Drivers/STM32F1xx_HAL_Driver/Src/stm32f1xx_hal_sram.c ****   }
 1182              		.loc 1 690 12 view .LVU355
 1183 0014 17E0     		b	.L72
 1184              	.LVL116:
 1185              	.L71:
 666:Drivers/STM32F1xx_HAL_Driver/Src/stm32f1xx_hal_sram.c **** 
 1186              		.loc 1 666 5 is_stmt 1 view .LVU356
 666:Drivers/STM32F1xx_HAL_Driver/Src/stm32f1xx_hal_sram.c **** 
 1187              		.loc 1 666 5 view .LVU357
 1188 0016 94F84050 		ldrb	r5, [r4, #64]	@ zero_extendqisi2
 1189 001a 012D     		cmp	r5, #1
 1190 001c 18D0     		beq	.L76
 666:Drivers/STM32F1xx_HAL_Driver/Src/stm32f1xx_hal_sram.c **** 
 1191              		.loc 1 666 5 discriminator 2 view .LVU358
 1192 001e 0125     		movs	r5, #1
 1193 0020 84F84050 		strb	r5, [r4, #64]
 666:Drivers/STM32F1xx_HAL_Driver/Src/stm32f1xx_hal_sram.c **** 
 1194              		.loc 1 666 5 discriminator 2 view .LVU359
 669:Drivers/STM32F1xx_HAL_Driver/Src/stm32f1xx_hal_sram.c **** 
 1195              		.loc 1 669 5 discriminator 2 view .LVU360
 669:Drivers/STM32F1xx_HAL_Driver/Src/stm32f1xx_hal_sram.c **** 
 1196              		.loc 1 669 18 is_stmt 0 discriminator 2 view .LVU361
 1197 0024 0225     		movs	r5, #2
 1198 0026 84F84150 		strb	r5, [r4, #65]
 672:Drivers/STM32F1xx_HAL_Driver/Src/stm32f1xx_hal_sram.c ****     {
 1199              		.loc 1 672 5 is_stmt 1 discriminator 2 view .LVU362
 672:Drivers/STM32F1xx_HAL_Driver/Src/stm32f1xx_hal_sram.c ****     {
 1200              		.loc 1 672 8 is_stmt 0 discriminator 2 view .LVU363
 1201 002a 0128     		cmp	r0, #1
 1202 002c 0CD0     		beq	.L78
 678:Drivers/STM32F1xx_HAL_Driver/Src/stm32f1xx_hal_sram.c ****     }
 1203              		.loc 1 678 7 is_stmt 1 view .LVU364
 678:Drivers/STM32F1xx_HAL_Driver/Src/stm32f1xx_hal_sram.c ****     }
 1204              		.loc 1 678 12 is_stmt 0 view .LVU365
 1205 002e 606C     		ldr	r0, [r4, #68]
 1206              	.LVL117:
 678:Drivers/STM32F1xx_HAL_Driver/Src/stm32f1xx_hal_sram.c ****     }
ARM GAS  /tmp/ccZFdKv2.s 			page 47


 1207              		.loc 1 678 37 view .LVU366
 1208 0030 084D     		ldr	r5, .L79
 1209 0032 8562     		str	r5, [r0, #40]
 1210              	.L74:
 680:Drivers/STM32F1xx_HAL_Driver/Src/stm32f1xx_hal_sram.c **** 
 1211              		.loc 1 680 5 is_stmt 1 view .LVU367
 680:Drivers/STM32F1xx_HAL_Driver/Src/stm32f1xx_hal_sram.c **** 
 1212              		.loc 1 680 10 is_stmt 0 view .LVU368
 1213 0034 606C     		ldr	r0, [r4, #68]
 680:Drivers/STM32F1xx_HAL_Driver/Src/stm32f1xx_hal_sram.c **** 
 1214              		.loc 1 680 36 view .LVU369
 1215 0036 084D     		ldr	r5, .L79+4
 1216 0038 0563     		str	r5, [r0, #48]
 683:Drivers/STM32F1xx_HAL_Driver/Src/stm32f1xx_hal_sram.c **** 
 1217              		.loc 1 683 5 is_stmt 1 view .LVU370
 683:Drivers/STM32F1xx_HAL_Driver/Src/stm32f1xx_hal_sram.c **** 
 1218              		.loc 1 683 14 is_stmt 0 view .LVU371
 1219 003a 606C     		ldr	r0, [r4, #68]
 1220 003c FFF7FEFF 		bl	HAL_DMA_Start_IT
 1221              	.LVL118:
 686:Drivers/STM32F1xx_HAL_Driver/Src/stm32f1xx_hal_sram.c ****   }
 1222              		.loc 1 686 5 is_stmt 1 view .LVU372
 686:Drivers/STM32F1xx_HAL_Driver/Src/stm32f1xx_hal_sram.c ****   }
 1223              		.loc 1 686 5 view .LVU373
 1224 0040 0023     		movs	r3, #0
 1225 0042 84F84030 		strb	r3, [r4, #64]
 686:Drivers/STM32F1xx_HAL_Driver/Src/stm32f1xx_hal_sram.c ****   }
 1226              		.loc 1 686 5 view .LVU374
 1227              	.LVL119:
 1228              	.L72:
 694:Drivers/STM32F1xx_HAL_Driver/Src/stm32f1xx_hal_sram.c **** 
 1229              		.loc 1 694 1 is_stmt 0 view .LVU375
 1230 0046 38BD     		pop	{r3, r4, r5, pc}
 1231              	.LVL120:
 1232              	.L78:
 674:Drivers/STM32F1xx_HAL_Driver/Src/stm32f1xx_hal_sram.c ****     }
 1233              		.loc 1 674 7 is_stmt 1 view .LVU376
 674:Drivers/STM32F1xx_HAL_Driver/Src/stm32f1xx_hal_sram.c ****     }
 1234              		.loc 1 674 12 is_stmt 0 view .LVU377
 1235 0048 606C     		ldr	r0, [r4, #68]
 1236              	.LVL121:
 674:Drivers/STM32F1xx_HAL_Driver/Src/stm32f1xx_hal_sram.c ****     }
 1237              		.loc 1 674 37 view .LVU378
 1238 004a 044D     		ldr	r5, .L79+8
 1239 004c 8562     		str	r5, [r0, #40]
 1240 004e F1E7     		b	.L74
 1241              	.LVL122:
 1242              	.L76:
 666:Drivers/STM32F1xx_HAL_Driver/Src/stm32f1xx_hal_sram.c **** 
 1243              		.loc 1 666 5 view .LVU379
 1244 0050 0220     		movs	r0, #2
 1245              	.LVL123:
 666:Drivers/STM32F1xx_HAL_Driver/Src/stm32f1xx_hal_sram.c **** 
 1246              		.loc 1 666 5 view .LVU380
 1247 0052 F8E7     		b	.L72
 1248              	.L80:
 1249              		.align	2
ARM GAS  /tmp/ccZFdKv2.s 			page 48


 1250              	.L79:
 1251 0054 00000000 		.word	SRAM_DMACpltProt
 1252 0058 00000000 		.word	SRAM_DMAError
 1253 005c 00000000 		.word	SRAM_DMACplt
 1254              		.cfi_endproc
 1255              	.LFE77:
 1257              		.section	.text.HAL_SRAM_Write_DMA,"ax",%progbits
 1258              		.align	1
 1259              		.global	HAL_SRAM_Write_DMA
 1260              		.syntax unified
 1261              		.thumb
 1262              		.thumb_func
 1263              		.fpu softvfp
 1265              	HAL_SRAM_Write_DMA:
 1266              	.LVL124:
 1267              	.LFB78:
 707:Drivers/STM32F1xx_HAL_Driver/Src/stm32f1xx_hal_sram.c ****   HAL_StatusTypeDef status;
 1268              		.loc 1 707 1 is_stmt 1 view -0
 1269              		.cfi_startproc
 1270              		@ args = 0, pretend = 0, frame = 0
 1271              		@ frame_needed = 0, uses_anonymous_args = 0
 707:Drivers/STM32F1xx_HAL_Driver/Src/stm32f1xx_hal_sram.c ****   HAL_StatusTypeDef status;
 1272              		.loc 1 707 1 is_stmt 0 view .LVU382
 1273 0000 38B5     		push	{r3, r4, r5, lr}
 1274              	.LCFI26:
 1275              		.cfi_def_cfa_offset 16
 1276              		.cfi_offset 3, -16
 1277              		.cfi_offset 4, -12
 1278              		.cfi_offset 5, -8
 1279              		.cfi_offset 14, -4
 1280 0002 0446     		mov	r4, r0
 708:Drivers/STM32F1xx_HAL_Driver/Src/stm32f1xx_hal_sram.c **** 
 1281              		.loc 1 708 3 is_stmt 1 view .LVU383
 711:Drivers/STM32F1xx_HAL_Driver/Src/stm32f1xx_hal_sram.c ****   {
 1282              		.loc 1 711 3 view .LVU384
 711:Drivers/STM32F1xx_HAL_Driver/Src/stm32f1xx_hal_sram.c ****   {
 1283              		.loc 1 711 12 is_stmt 0 view .LVU385
 1284 0004 90F84100 		ldrb	r0, [r0, #65]	@ zero_extendqisi2
 1285              	.LVL125:
 711:Drivers/STM32F1xx_HAL_Driver/Src/stm32f1xx_hal_sram.c ****   {
 1286              		.loc 1 711 12 view .LVU386
 1287 0008 C0B2     		uxtb	r0, r0
 711:Drivers/STM32F1xx_HAL_Driver/Src/stm32f1xx_hal_sram.c ****   {
 1288              		.loc 1 711 6 view .LVU387
 1289 000a 0128     		cmp	r0, #1
 1290 000c 01D0     		beq	.L86
 731:Drivers/STM32F1xx_HAL_Driver/Src/stm32f1xx_hal_sram.c ****   }
 1291              		.loc 1 731 12 view .LVU388
 1292 000e 0120     		movs	r0, #1
 1293              	.LVL126:
 1294              	.L82:
 735:Drivers/STM32F1xx_HAL_Driver/Src/stm32f1xx_hal_sram.c **** 
 1295              		.loc 1 735 1 view .LVU389
 1296 0010 38BD     		pop	{r3, r4, r5, pc}
 1297              	.LVL127:
 1298              	.L86:
 735:Drivers/STM32F1xx_HAL_Driver/Src/stm32f1xx_hal_sram.c **** 
ARM GAS  /tmp/ccZFdKv2.s 			page 49


 1299              		.loc 1 735 1 view .LVU390
 1300 0012 0D46     		mov	r5, r1
 1301 0014 1146     		mov	r1, r2
 1302              	.LVL128:
 714:Drivers/STM32F1xx_HAL_Driver/Src/stm32f1xx_hal_sram.c **** 
 1303              		.loc 1 714 5 is_stmt 1 view .LVU391
 714:Drivers/STM32F1xx_HAL_Driver/Src/stm32f1xx_hal_sram.c **** 
 1304              		.loc 1 714 5 view .LVU392
 1305 0016 94F84020 		ldrb	r2, [r4, #64]	@ zero_extendqisi2
 1306              	.LVL129:
 714:Drivers/STM32F1xx_HAL_Driver/Src/stm32f1xx_hal_sram.c **** 
 1307              		.loc 1 714 5 is_stmt 0 view .LVU393
 1308 001a 012A     		cmp	r2, #1
 1309 001c 13D0     		beq	.L84
 714:Drivers/STM32F1xx_HAL_Driver/Src/stm32f1xx_hal_sram.c **** 
 1310              		.loc 1 714 5 is_stmt 1 discriminator 2 view .LVU394
 1311 001e 0122     		movs	r2, #1
 1312 0020 84F84020 		strb	r2, [r4, #64]
 714:Drivers/STM32F1xx_HAL_Driver/Src/stm32f1xx_hal_sram.c **** 
 1313              		.loc 1 714 5 discriminator 2 view .LVU395
 717:Drivers/STM32F1xx_HAL_Driver/Src/stm32f1xx_hal_sram.c **** 
 1314              		.loc 1 717 5 discriminator 2 view .LVU396
 717:Drivers/STM32F1xx_HAL_Driver/Src/stm32f1xx_hal_sram.c **** 
 1315              		.loc 1 717 18 is_stmt 0 discriminator 2 view .LVU397
 1316 0024 0222     		movs	r2, #2
 1317 0026 84F84120 		strb	r2, [r4, #65]
 720:Drivers/STM32F1xx_HAL_Driver/Src/stm32f1xx_hal_sram.c ****     hsram->hdma->XferErrorCallback = SRAM_DMAError;
 1318              		.loc 1 720 5 is_stmt 1 discriminator 2 view .LVU398
 720:Drivers/STM32F1xx_HAL_Driver/Src/stm32f1xx_hal_sram.c ****     hsram->hdma->XferErrorCallback = SRAM_DMAError;
 1319              		.loc 1 720 10 is_stmt 0 discriminator 2 view .LVU399
 1320 002a 626C     		ldr	r2, [r4, #68]
 720:Drivers/STM32F1xx_HAL_Driver/Src/stm32f1xx_hal_sram.c ****     hsram->hdma->XferErrorCallback = SRAM_DMAError;
 1321              		.loc 1 720 35 discriminator 2 view .LVU400
 1322 002c 0748     		ldr	r0, .L87
 1323 002e 9062     		str	r0, [r2, #40]
 721:Drivers/STM32F1xx_HAL_Driver/Src/stm32f1xx_hal_sram.c **** 
 1324              		.loc 1 721 5 is_stmt 1 discriminator 2 view .LVU401
 721:Drivers/STM32F1xx_HAL_Driver/Src/stm32f1xx_hal_sram.c **** 
 1325              		.loc 1 721 10 is_stmt 0 discriminator 2 view .LVU402
 1326 0030 626C     		ldr	r2, [r4, #68]
 721:Drivers/STM32F1xx_HAL_Driver/Src/stm32f1xx_hal_sram.c **** 
 1327              		.loc 1 721 36 discriminator 2 view .LVU403
 1328 0032 0748     		ldr	r0, .L87+4
 1329 0034 1063     		str	r0, [r2, #48]
 724:Drivers/STM32F1xx_HAL_Driver/Src/stm32f1xx_hal_sram.c **** 
 1330              		.loc 1 724 5 is_stmt 1 discriminator 2 view .LVU404
 724:Drivers/STM32F1xx_HAL_Driver/Src/stm32f1xx_hal_sram.c **** 
 1331              		.loc 1 724 14 is_stmt 0 discriminator 2 view .LVU405
 1332 0036 2A46     		mov	r2, r5
 1333 0038 606C     		ldr	r0, [r4, #68]
 1334 003a FFF7FEFF 		bl	HAL_DMA_Start_IT
 1335              	.LVL130:
 727:Drivers/STM32F1xx_HAL_Driver/Src/stm32f1xx_hal_sram.c ****   }
 1336              		.loc 1 727 5 is_stmt 1 discriminator 2 view .LVU406
 727:Drivers/STM32F1xx_HAL_Driver/Src/stm32f1xx_hal_sram.c ****   }
 1337              		.loc 1 727 5 discriminator 2 view .LVU407
 1338 003e 0023     		movs	r3, #0
ARM GAS  /tmp/ccZFdKv2.s 			page 50


 1339 0040 84F84030 		strb	r3, [r4, #64]
 727:Drivers/STM32F1xx_HAL_Driver/Src/stm32f1xx_hal_sram.c ****   }
 1340              		.loc 1 727 5 discriminator 2 view .LVU408
 1341 0044 E4E7     		b	.L82
 1342              	.LVL131:
 1343              	.L84:
 714:Drivers/STM32F1xx_HAL_Driver/Src/stm32f1xx_hal_sram.c **** 
 1344              		.loc 1 714 5 is_stmt 0 view .LVU409
 1345 0046 0220     		movs	r0, #2
 1346 0048 E2E7     		b	.L82
 1347              	.L88:
 1348 004a 00BF     		.align	2
 1349              	.L87:
 1350 004c 00000000 		.word	SRAM_DMACplt
 1351 0050 00000000 		.word	SRAM_DMAError
 1352              		.cfi_endproc
 1353              	.LFE78:
 1355              		.section	.text.HAL_SRAM_WriteOperation_Enable,"ax",%progbits
 1356              		.align	1
 1357              		.global	HAL_SRAM_WriteOperation_Enable
 1358              		.syntax unified
 1359              		.thumb
 1360              		.thumb_func
 1361              		.fpu softvfp
 1363              	HAL_SRAM_WriteOperation_Enable:
 1364              	.LVL132:
 1365              	.LFB79:
 941:Drivers/STM32F1xx_HAL_Driver/Src/stm32f1xx_hal_sram.c ****   /* Check the SRAM controller state */
 1366              		.loc 1 941 1 is_stmt 1 view -0
 1367              		.cfi_startproc
 1368              		@ args = 0, pretend = 0, frame = 0
 1369              		@ frame_needed = 0, uses_anonymous_args = 0
 941:Drivers/STM32F1xx_HAL_Driver/Src/stm32f1xx_hal_sram.c ****   /* Check the SRAM controller state */
 1370              		.loc 1 941 1 is_stmt 0 view .LVU411
 1371 0000 38B5     		push	{r3, r4, r5, lr}
 1372              	.LCFI27:
 1373              		.cfi_def_cfa_offset 16
 1374              		.cfi_offset 3, -16
 1375              		.cfi_offset 4, -12
 1376              		.cfi_offset 5, -8
 1377              		.cfi_offset 14, -4
 943:Drivers/STM32F1xx_HAL_Driver/Src/stm32f1xx_hal_sram.c ****   {
 1378              		.loc 1 943 3 is_stmt 1 view .LVU412
 943:Drivers/STM32F1xx_HAL_Driver/Src/stm32f1xx_hal_sram.c ****   {
 1379              		.loc 1 943 12 is_stmt 0 view .LVU413
 1380 0002 90F84130 		ldrb	r3, [r0, #65]	@ zero_extendqisi2
 1381 0006 DBB2     		uxtb	r3, r3
 943:Drivers/STM32F1xx_HAL_Driver/Src/stm32f1xx_hal_sram.c ****   {
 1382              		.loc 1 943 6 view .LVU414
 1383 0008 042B     		cmp	r3, #4
 1384 000a 14D1     		bne	.L91
 1385 000c 0446     		mov	r4, r0
 946:Drivers/STM32F1xx_HAL_Driver/Src/stm32f1xx_hal_sram.c **** 
 1386              		.loc 1 946 5 is_stmt 1 view .LVU415
 946:Drivers/STM32F1xx_HAL_Driver/Src/stm32f1xx_hal_sram.c **** 
 1387              		.loc 1 946 5 view .LVU416
 1388 000e 90F84030 		ldrb	r3, [r0, #64]	@ zero_extendqisi2
ARM GAS  /tmp/ccZFdKv2.s 			page 51


 1389 0012 012B     		cmp	r3, #1
 1390 0014 11D0     		beq	.L92
 946:Drivers/STM32F1xx_HAL_Driver/Src/stm32f1xx_hal_sram.c **** 
 1391              		.loc 1 946 5 discriminator 2 view .LVU417
 1392 0016 0125     		movs	r5, #1
 1393 0018 80F84050 		strb	r5, [r0, #64]
 946:Drivers/STM32F1xx_HAL_Driver/Src/stm32f1xx_hal_sram.c **** 
 1394              		.loc 1 946 5 discriminator 2 view .LVU418
 949:Drivers/STM32F1xx_HAL_Driver/Src/stm32f1xx_hal_sram.c **** 
 1395              		.loc 1 949 5 discriminator 2 view .LVU419
 949:Drivers/STM32F1xx_HAL_Driver/Src/stm32f1xx_hal_sram.c **** 
 1396              		.loc 1 949 18 is_stmt 0 discriminator 2 view .LVU420
 1397 001c 0223     		movs	r3, #2
 1398 001e 80F84130 		strb	r3, [r0, #65]
 952:Drivers/STM32F1xx_HAL_Driver/Src/stm32f1xx_hal_sram.c **** 
 1399              		.loc 1 952 5 is_stmt 1 discriminator 2 view .LVU421
 952:Drivers/STM32F1xx_HAL_Driver/Src/stm32f1xx_hal_sram.c **** 
 1400              		.loc 1 952 11 is_stmt 0 discriminator 2 view .LVU422
 1401 0022 8168     		ldr	r1, [r0, #8]
 1402 0024 0068     		ldr	r0, [r0]
 1403              	.LVL133:
 952:Drivers/STM32F1xx_HAL_Driver/Src/stm32f1xx_hal_sram.c **** 
 1404              		.loc 1 952 11 discriminator 2 view .LVU423
 1405 0026 FFF7FEFF 		bl	FSMC_NORSRAM_WriteOperation_Enable
 1406              	.LVL134:
 955:Drivers/STM32F1xx_HAL_Driver/Src/stm32f1xx_hal_sram.c **** 
 1407              		.loc 1 955 5 is_stmt 1 discriminator 2 view .LVU424
 955:Drivers/STM32F1xx_HAL_Driver/Src/stm32f1xx_hal_sram.c **** 
 1408              		.loc 1 955 18 is_stmt 0 discriminator 2 view .LVU425
 1409 002a 84F84150 		strb	r5, [r4, #65]
 958:Drivers/STM32F1xx_HAL_Driver/Src/stm32f1xx_hal_sram.c ****   }
 1410              		.loc 1 958 5 is_stmt 1 discriminator 2 view .LVU426
 958:Drivers/STM32F1xx_HAL_Driver/Src/stm32f1xx_hal_sram.c ****   }
 1411              		.loc 1 958 5 discriminator 2 view .LVU427
 1412 002e 0020     		movs	r0, #0
 1413 0030 84F84000 		strb	r0, [r4, #64]
 958:Drivers/STM32F1xx_HAL_Driver/Src/stm32f1xx_hal_sram.c ****   }
 1414              		.loc 1 958 5 discriminator 2 view .LVU428
 965:Drivers/STM32F1xx_HAL_Driver/Src/stm32f1xx_hal_sram.c **** }
 1415              		.loc 1 965 3 discriminator 2 view .LVU429
 965:Drivers/STM32F1xx_HAL_Driver/Src/stm32f1xx_hal_sram.c **** }
 1416              		.loc 1 965 10 is_stmt 0 discriminator 2 view .LVU430
 1417 0034 00E0     		b	.L90
 1418              	.LVL135:
 1419              	.L91:
 962:Drivers/STM32F1xx_HAL_Driver/Src/stm32f1xx_hal_sram.c ****   }
 1420              		.loc 1 962 12 view .LVU431
 1421 0036 0120     		movs	r0, #1
 1422              	.LVL136:
 1423              	.L90:
 966:Drivers/STM32F1xx_HAL_Driver/Src/stm32f1xx_hal_sram.c **** 
 1424              		.loc 1 966 1 view .LVU432
 1425 0038 38BD     		pop	{r3, r4, r5, pc}
 1426              	.LVL137:
 1427              	.L92:
 946:Drivers/STM32F1xx_HAL_Driver/Src/stm32f1xx_hal_sram.c **** 
 1428              		.loc 1 946 5 view .LVU433
ARM GAS  /tmp/ccZFdKv2.s 			page 52


 1429 003a 0220     		movs	r0, #2
 1430              	.LVL138:
 946:Drivers/STM32F1xx_HAL_Driver/Src/stm32f1xx_hal_sram.c **** 
 1431              		.loc 1 946 5 view .LVU434
 1432 003c FCE7     		b	.L90
 1433              		.cfi_endproc
 1434              	.LFE79:
 1436              		.section	.text.HAL_SRAM_WriteOperation_Disable,"ax",%progbits
 1437              		.align	1
 1438              		.global	HAL_SRAM_WriteOperation_Disable
 1439              		.syntax unified
 1440              		.thumb
 1441              		.thumb_func
 1442              		.fpu softvfp
 1444              	HAL_SRAM_WriteOperation_Disable:
 1445              	.LVL139:
 1446              	.LFB80:
 975:Drivers/STM32F1xx_HAL_Driver/Src/stm32f1xx_hal_sram.c ****   /* Check the SRAM controller state */
 1447              		.loc 1 975 1 is_stmt 1 view -0
 1448              		.cfi_startproc
 1449              		@ args = 0, pretend = 0, frame = 0
 1450              		@ frame_needed = 0, uses_anonymous_args = 0
 977:Drivers/STM32F1xx_HAL_Driver/Src/stm32f1xx_hal_sram.c ****   {
 1451              		.loc 1 977 3 view .LVU436
 977:Drivers/STM32F1xx_HAL_Driver/Src/stm32f1xx_hal_sram.c ****   {
 1452              		.loc 1 977 12 is_stmt 0 view .LVU437
 1453 0000 90F84130 		ldrb	r3, [r0, #65]	@ zero_extendqisi2
 1454 0004 DBB2     		uxtb	r3, r3
 977:Drivers/STM32F1xx_HAL_Driver/Src/stm32f1xx_hal_sram.c ****   {
 1455              		.loc 1 977 6 view .LVU438
 1456 0006 012B     		cmp	r3, #1
 1457 0008 16D1     		bne	.L96
 975:Drivers/STM32F1xx_HAL_Driver/Src/stm32f1xx_hal_sram.c ****   /* Check the SRAM controller state */
 1458              		.loc 1 975 1 view .LVU439
 1459 000a 10B5     		push	{r4, lr}
 1460              	.LCFI28:
 1461              		.cfi_def_cfa_offset 8
 1462              		.cfi_offset 4, -8
 1463              		.cfi_offset 14, -4
 1464 000c 0446     		mov	r4, r0
 980:Drivers/STM32F1xx_HAL_Driver/Src/stm32f1xx_hal_sram.c **** 
 1465              		.loc 1 980 5 is_stmt 1 view .LVU440
 980:Drivers/STM32F1xx_HAL_Driver/Src/stm32f1xx_hal_sram.c **** 
 1466              		.loc 1 980 5 view .LVU441
 1467 000e 90F84030 		ldrb	r3, [r0, #64]	@ zero_extendqisi2
 1468 0012 012B     		cmp	r3, #1
 1469 0014 12D0     		beq	.L97
 980:Drivers/STM32F1xx_HAL_Driver/Src/stm32f1xx_hal_sram.c **** 
 1470              		.loc 1 980 5 discriminator 2 view .LVU442
 1471 0016 0123     		movs	r3, #1
 1472 0018 80F84030 		strb	r3, [r0, #64]
 980:Drivers/STM32F1xx_HAL_Driver/Src/stm32f1xx_hal_sram.c **** 
 1473              		.loc 1 980 5 discriminator 2 view .LVU443
 983:Drivers/STM32F1xx_HAL_Driver/Src/stm32f1xx_hal_sram.c **** 
 1474              		.loc 1 983 5 discriminator 2 view .LVU444
 983:Drivers/STM32F1xx_HAL_Driver/Src/stm32f1xx_hal_sram.c **** 
 1475              		.loc 1 983 18 is_stmt 0 discriminator 2 view .LVU445
ARM GAS  /tmp/ccZFdKv2.s 			page 53


 1476 001c 0223     		movs	r3, #2
 1477 001e 80F84130 		strb	r3, [r0, #65]
 986:Drivers/STM32F1xx_HAL_Driver/Src/stm32f1xx_hal_sram.c **** 
 1478              		.loc 1 986 5 is_stmt 1 discriminator 2 view .LVU446
 986:Drivers/STM32F1xx_HAL_Driver/Src/stm32f1xx_hal_sram.c **** 
 1479              		.loc 1 986 11 is_stmt 0 discriminator 2 view .LVU447
 1480 0022 8168     		ldr	r1, [r0, #8]
 1481 0024 0068     		ldr	r0, [r0]
 1482              	.LVL140:
 986:Drivers/STM32F1xx_HAL_Driver/Src/stm32f1xx_hal_sram.c **** 
 1483              		.loc 1 986 11 discriminator 2 view .LVU448
 1484 0026 FFF7FEFF 		bl	FSMC_NORSRAM_WriteOperation_Disable
 1485              	.LVL141:
 989:Drivers/STM32F1xx_HAL_Driver/Src/stm32f1xx_hal_sram.c **** 
 1486              		.loc 1 989 5 is_stmt 1 discriminator 2 view .LVU449
 989:Drivers/STM32F1xx_HAL_Driver/Src/stm32f1xx_hal_sram.c **** 
 1487              		.loc 1 989 18 is_stmt 0 discriminator 2 view .LVU450
 1488 002a 0423     		movs	r3, #4
 1489 002c 84F84130 		strb	r3, [r4, #65]
 992:Drivers/STM32F1xx_HAL_Driver/Src/stm32f1xx_hal_sram.c ****   }
 1490              		.loc 1 992 5 is_stmt 1 discriminator 2 view .LVU451
 992:Drivers/STM32F1xx_HAL_Driver/Src/stm32f1xx_hal_sram.c ****   }
 1491              		.loc 1 992 5 discriminator 2 view .LVU452
 1492 0030 0020     		movs	r0, #0
 1493 0032 84F84000 		strb	r0, [r4, #64]
 992:Drivers/STM32F1xx_HAL_Driver/Src/stm32f1xx_hal_sram.c ****   }
 1494              		.loc 1 992 5 discriminator 2 view .LVU453
 999:Drivers/STM32F1xx_HAL_Driver/Src/stm32f1xx_hal_sram.c **** }
 1495              		.loc 1 999 3 discriminator 2 view .LVU454
 1496              	.L95:
1000:Drivers/STM32F1xx_HAL_Driver/Src/stm32f1xx_hal_sram.c **** 
 1497              		.loc 1 1000 1 is_stmt 0 view .LVU455
 1498 0036 10BD     		pop	{r4, pc}
 1499              	.LVL142:
 1500              	.L96:
 1501              	.LCFI29:
 1502              		.cfi_def_cfa_offset 0
 1503              		.cfi_restore 4
 1504              		.cfi_restore 14
 996:Drivers/STM32F1xx_HAL_Driver/Src/stm32f1xx_hal_sram.c ****   }
 1505              		.loc 1 996 12 view .LVU456
 1506 0038 0120     		movs	r0, #1
 1507              	.LVL143:
1000:Drivers/STM32F1xx_HAL_Driver/Src/stm32f1xx_hal_sram.c **** 
 1508              		.loc 1 1000 1 view .LVU457
 1509 003a 7047     		bx	lr
 1510              	.LVL144:
 1511              	.L97:
 1512              	.LCFI30:
 1513              		.cfi_def_cfa_offset 8
 1514              		.cfi_offset 4, -8
 1515              		.cfi_offset 14, -4
 980:Drivers/STM32F1xx_HAL_Driver/Src/stm32f1xx_hal_sram.c **** 
 1516              		.loc 1 980 5 view .LVU458
 1517 003c 0220     		movs	r0, #2
 1518              	.LVL145:
 980:Drivers/STM32F1xx_HAL_Driver/Src/stm32f1xx_hal_sram.c **** 
ARM GAS  /tmp/ccZFdKv2.s 			page 54


 1519              		.loc 1 980 5 view .LVU459
 1520 003e FAE7     		b	.L95
 1521              		.cfi_endproc
 1522              	.LFE80:
 1524              		.section	.text.HAL_SRAM_GetState,"ax",%progbits
 1525              		.align	1
 1526              		.global	HAL_SRAM_GetState
 1527              		.syntax unified
 1528              		.thumb
 1529              		.thumb_func
 1530              		.fpu softvfp
 1532              	HAL_SRAM_GetState:
 1533              	.LVL146:
 1534              	.LFB81:
1028:Drivers/STM32F1xx_HAL_Driver/Src/stm32f1xx_hal_sram.c ****   return hsram->State;
 1535              		.loc 1 1028 1 is_stmt 1 view -0
 1536              		.cfi_startproc
 1537              		@ args = 0, pretend = 0, frame = 0
 1538              		@ frame_needed = 0, uses_anonymous_args = 0
 1539              		@ link register save eliminated.
1029:Drivers/STM32F1xx_HAL_Driver/Src/stm32f1xx_hal_sram.c **** }
 1540              		.loc 1 1029 3 view .LVU461
1029:Drivers/STM32F1xx_HAL_Driver/Src/stm32f1xx_hal_sram.c **** }
 1541              		.loc 1 1029 15 is_stmt 0 view .LVU462
 1542 0000 90F84100 		ldrb	r0, [r0, #65]	@ zero_extendqisi2
 1543              	.LVL147:
1030:Drivers/STM32F1xx_HAL_Driver/Src/stm32f1xx_hal_sram.c **** 
 1544              		.loc 1 1030 1 view .LVU463
 1545 0004 7047     		bx	lr
 1546              		.cfi_endproc
 1547              	.LFE81:
 1549              		.text
 1550              	.Letext0:
 1551              		.file 2 "/usr/local/arm-none-eabi/include/machine/_default_types.h"
 1552              		.file 3 "/usr/local/arm-none-eabi/include/sys/_stdint.h"
 1553              		.file 4 "Drivers/CMSIS/Include/core_cm3.h"
 1554              		.file 5 "Drivers/CMSIS/Device/ST/STM32F1xx/Include/system_stm32f1xx.h"
 1555              		.file 6 "Drivers/CMSIS/Device/ST/STM32F1xx/Include/stm32f103xe.h"
 1556              		.file 7 "Drivers/STM32F1xx_HAL_Driver/Inc/stm32f1xx_hal_def.h"
 1557              		.file 8 "Drivers/STM32F1xx_HAL_Driver/Inc/stm32f1xx_hal_dma.h"
 1558              		.file 9 "Drivers/STM32F1xx_HAL_Driver/Inc/stm32f1xx_ll_fsmc.h"
 1559              		.file 10 "Drivers/STM32F1xx_HAL_Driver/Inc/stm32f1xx_hal_sram.h"
 1560              		.file 11 "Drivers/STM32F1xx_HAL_Driver/Inc/stm32f1xx_hal.h"
ARM GAS  /tmp/ccZFdKv2.s 			page 55

