ARM GAS  /tmp/ccBpuOwB.s 			page 1


   1              		.cpu cortex-m3
   2              		.eabi_attribute 20, 1
   3              		.eabi_attribute 21, 1
   4              		.eabi_attribute 23, 3
   5              		.eabi_attribute 24, 1
   6              		.eabi_attribute 25, 1
   7              		.eabi_attribute 26, 1
   8              		.eabi_attribute 30, 1
   9              		.eabi_attribute 34, 1
  10              		.eabi_attribute 18, 4
  11              		.file	"usart.c"
  12              		.text
  13              	.Ltext0:
  14              		.cfi_sections	.debug_frame
  15              		.section	.text.MX_USART1_UART_Init,"ax",%progbits
  16              		.align	1
  17              		.global	MX_USART1_UART_Init
  18              		.arch armv7-m
  19              		.syntax unified
  20              		.thumb
  21              		.thumb_func
  22              		.fpu softvfp
  24              	MX_USART1_UART_Init:
  25              	.LFB645:
  26              		.file 1 "Core/Src/usart.c"
   1:Core/Src/usart.c **** /**
   2:Core/Src/usart.c ****   ******************************************************************************
   3:Core/Src/usart.c ****   * @file    usart.c
   4:Core/Src/usart.c ****   * @brief   This file provides code for the configuration
   5:Core/Src/usart.c ****   *          of the USART instances.
   6:Core/Src/usart.c ****   ******************************************************************************
   7:Core/Src/usart.c ****   * @attention
   8:Core/Src/usart.c ****   *
   9:Core/Src/usart.c ****   * <h2><center>&copy; Copyright (c) 2021 STMicroelectronics.
  10:Core/Src/usart.c ****   * All rights reserved.</center></h2>
  11:Core/Src/usart.c ****   *
  12:Core/Src/usart.c ****   * This software component is licensed by ST under Ultimate Liberty license
  13:Core/Src/usart.c ****   * SLA0044, the "License"; You may not use this file except in compliance with
  14:Core/Src/usart.c ****   * the License. You may obtain a copy of the License at:
  15:Core/Src/usart.c ****   *                             www.st.com/SLA0044
  16:Core/Src/usart.c ****   *
  17:Core/Src/usart.c ****   ******************************************************************************
  18:Core/Src/usart.c ****   */
  19:Core/Src/usart.c **** 
  20:Core/Src/usart.c **** /* Includes ------------------------------------------------------------------*/
  21:Core/Src/usart.c **** #include "usart.h"
  22:Core/Src/usart.c **** 
  23:Core/Src/usart.c **** /* USER CODE BEGIN 0 */
  24:Core/Src/usart.c **** 
  25:Core/Src/usart.c **** /* USER CODE END 0 */
  26:Core/Src/usart.c **** 
  27:Core/Src/usart.c **** /* USART1 init function */
  28:Core/Src/usart.c **** 
  29:Core/Src/usart.c **** void MX_USART1_UART_Init(void)
  30:Core/Src/usart.c **** {
  27              		.loc 1 30 1 view -0
  28              		.cfi_startproc
ARM GAS  /tmp/ccBpuOwB.s 			page 2


  29              		@ args = 0, pretend = 0, frame = 56
  30              		@ frame_needed = 0, uses_anonymous_args = 0
  31 0000 30B5     		push	{r4, r5, lr}
  32              	.LCFI0:
  33              		.cfi_def_cfa_offset 12
  34              		.cfi_offset 4, -12
  35              		.cfi_offset 5, -8
  36              		.cfi_offset 14, -4
  37 0002 8FB0     		sub	sp, sp, #60
  38              	.LCFI1:
  39              		.cfi_def_cfa_offset 72
  31:Core/Src/usart.c **** 
  32:Core/Src/usart.c ****   /* USER CODE BEGIN USART1_Init 0 */
  33:Core/Src/usart.c **** 
  34:Core/Src/usart.c ****   /* USER CODE END USART1_Init 0 */
  35:Core/Src/usart.c **** 
  36:Core/Src/usart.c ****   LL_USART_InitTypeDef USART_InitStruct = {0};
  40              		.loc 1 36 3 view .LVU1
  41              		.loc 1 36 24 is_stmt 0 view .LVU2
  42 0004 0024     		movs	r4, #0
  43 0006 0794     		str	r4, [sp, #28]
  44 0008 0894     		str	r4, [sp, #32]
  45 000a 0994     		str	r4, [sp, #36]
  46 000c 0A94     		str	r4, [sp, #40]
  47 000e 0B94     		str	r4, [sp, #44]
  48 0010 0C94     		str	r4, [sp, #48]
  49 0012 0D94     		str	r4, [sp, #52]
  37:Core/Src/usart.c **** 
  38:Core/Src/usart.c ****   LL_GPIO_InitTypeDef GPIO_InitStruct = {0};
  50              		.loc 1 38 3 is_stmt 1 view .LVU3
  51              		.loc 1 38 23 is_stmt 0 view .LVU4
  52 0014 0694     		str	r4, [sp, #24]
  39:Core/Src/usart.c **** 
  40:Core/Src/usart.c ****   /* Peripheral clock enable */
  41:Core/Src/usart.c ****   LL_APB2_GRP1_EnableClock(LL_APB2_GRP1_PERIPH_USART1);
  53              		.loc 1 41 3 is_stmt 1 view .LVU5
  54              	.LVL0:
  55              	.LBB10:
  56              	.LBI10:
  57              		.file 2 "Drivers/STM32F1xx_HAL_Driver/Inc/stm32f1xx_ll_bus.h"
   1:Drivers/STM32F1xx_HAL_Driver/Inc/stm32f1xx_ll_bus.h **** /**
   2:Drivers/STM32F1xx_HAL_Driver/Inc/stm32f1xx_ll_bus.h ****   ******************************************************************************
   3:Drivers/STM32F1xx_HAL_Driver/Inc/stm32f1xx_ll_bus.h ****   * @file    stm32f1xx_ll_bus.h
   4:Drivers/STM32F1xx_HAL_Driver/Inc/stm32f1xx_ll_bus.h ****   * @author  MCD Application Team
   5:Drivers/STM32F1xx_HAL_Driver/Inc/stm32f1xx_ll_bus.h ****   * @brief   Header file of BUS LL module.
   6:Drivers/STM32F1xx_HAL_Driver/Inc/stm32f1xx_ll_bus.h **** 
   7:Drivers/STM32F1xx_HAL_Driver/Inc/stm32f1xx_ll_bus.h ****   @verbatim
   8:Drivers/STM32F1xx_HAL_Driver/Inc/stm32f1xx_ll_bus.h ****                       ##### RCC Limitations #####
   9:Drivers/STM32F1xx_HAL_Driver/Inc/stm32f1xx_ll_bus.h ****   ==============================================================================
  10:Drivers/STM32F1xx_HAL_Driver/Inc/stm32f1xx_ll_bus.h ****     [..]
  11:Drivers/STM32F1xx_HAL_Driver/Inc/stm32f1xx_ll_bus.h ****       A delay between an RCC peripheral clock enable and the effective peripheral
  12:Drivers/STM32F1xx_HAL_Driver/Inc/stm32f1xx_ll_bus.h ****       enabling should be taken into account in order to manage the peripheral read/write
  13:Drivers/STM32F1xx_HAL_Driver/Inc/stm32f1xx_ll_bus.h ****       from/to registers.
  14:Drivers/STM32F1xx_HAL_Driver/Inc/stm32f1xx_ll_bus.h ****       (+) This delay depends on the peripheral mapping.
  15:Drivers/STM32F1xx_HAL_Driver/Inc/stm32f1xx_ll_bus.h ****         (++) AHB & APB peripherals, 1 dummy read is necessary
  16:Drivers/STM32F1xx_HAL_Driver/Inc/stm32f1xx_ll_bus.h **** 
  17:Drivers/STM32F1xx_HAL_Driver/Inc/stm32f1xx_ll_bus.h ****     [..]
ARM GAS  /tmp/ccBpuOwB.s 			page 3


  18:Drivers/STM32F1xx_HAL_Driver/Inc/stm32f1xx_ll_bus.h ****       Workarounds:
  19:Drivers/STM32F1xx_HAL_Driver/Inc/stm32f1xx_ll_bus.h ****       (#) For AHB & APB peripherals, a dummy read to the peripheral register has been
  20:Drivers/STM32F1xx_HAL_Driver/Inc/stm32f1xx_ll_bus.h ****           inserted in each LL_{BUS}_GRP{x}_EnableClock() function.
  21:Drivers/STM32F1xx_HAL_Driver/Inc/stm32f1xx_ll_bus.h **** 
  22:Drivers/STM32F1xx_HAL_Driver/Inc/stm32f1xx_ll_bus.h ****   @endverbatim
  23:Drivers/STM32F1xx_HAL_Driver/Inc/stm32f1xx_ll_bus.h ****   ******************************************************************************
  24:Drivers/STM32F1xx_HAL_Driver/Inc/stm32f1xx_ll_bus.h ****   * @attention
  25:Drivers/STM32F1xx_HAL_Driver/Inc/stm32f1xx_ll_bus.h ****   *
  26:Drivers/STM32F1xx_HAL_Driver/Inc/stm32f1xx_ll_bus.h ****   * <h2><center>&copy; Copyright (c) 2016 STMicroelectronics.
  27:Drivers/STM32F1xx_HAL_Driver/Inc/stm32f1xx_ll_bus.h ****   * All rights reserved.</center></h2>
  28:Drivers/STM32F1xx_HAL_Driver/Inc/stm32f1xx_ll_bus.h ****   *
  29:Drivers/STM32F1xx_HAL_Driver/Inc/stm32f1xx_ll_bus.h ****   * This software component is licensed by ST under BSD 3-Clause license,
  30:Drivers/STM32F1xx_HAL_Driver/Inc/stm32f1xx_ll_bus.h ****   * the "License"; You may not use this file except in compliance with the
  31:Drivers/STM32F1xx_HAL_Driver/Inc/stm32f1xx_ll_bus.h ****   * License. You may obtain a copy of the License at:
  32:Drivers/STM32F1xx_HAL_Driver/Inc/stm32f1xx_ll_bus.h ****   *                        opensource.org/licenses/BSD-3-Clause
  33:Drivers/STM32F1xx_HAL_Driver/Inc/stm32f1xx_ll_bus.h ****   *
  34:Drivers/STM32F1xx_HAL_Driver/Inc/stm32f1xx_ll_bus.h ****   ******************************************************************************
  35:Drivers/STM32F1xx_HAL_Driver/Inc/stm32f1xx_ll_bus.h ****   */
  36:Drivers/STM32F1xx_HAL_Driver/Inc/stm32f1xx_ll_bus.h **** 
  37:Drivers/STM32F1xx_HAL_Driver/Inc/stm32f1xx_ll_bus.h **** /* Define to prevent recursive inclusion -------------------------------------*/
  38:Drivers/STM32F1xx_HAL_Driver/Inc/stm32f1xx_ll_bus.h **** #ifndef __STM32F1xx_LL_BUS_H
  39:Drivers/STM32F1xx_HAL_Driver/Inc/stm32f1xx_ll_bus.h **** #define __STM32F1xx_LL_BUS_H
  40:Drivers/STM32F1xx_HAL_Driver/Inc/stm32f1xx_ll_bus.h **** 
  41:Drivers/STM32F1xx_HAL_Driver/Inc/stm32f1xx_ll_bus.h **** #ifdef __cplusplus
  42:Drivers/STM32F1xx_HAL_Driver/Inc/stm32f1xx_ll_bus.h **** extern "C" {
  43:Drivers/STM32F1xx_HAL_Driver/Inc/stm32f1xx_ll_bus.h **** #endif
  44:Drivers/STM32F1xx_HAL_Driver/Inc/stm32f1xx_ll_bus.h **** 
  45:Drivers/STM32F1xx_HAL_Driver/Inc/stm32f1xx_ll_bus.h **** /* Includes ------------------------------------------------------------------*/
  46:Drivers/STM32F1xx_HAL_Driver/Inc/stm32f1xx_ll_bus.h **** #include "stm32f1xx.h"
  47:Drivers/STM32F1xx_HAL_Driver/Inc/stm32f1xx_ll_bus.h **** 
  48:Drivers/STM32F1xx_HAL_Driver/Inc/stm32f1xx_ll_bus.h **** /** @addtogroup STM32F1xx_LL_Driver
  49:Drivers/STM32F1xx_HAL_Driver/Inc/stm32f1xx_ll_bus.h ****   * @{
  50:Drivers/STM32F1xx_HAL_Driver/Inc/stm32f1xx_ll_bus.h ****   */
  51:Drivers/STM32F1xx_HAL_Driver/Inc/stm32f1xx_ll_bus.h **** 
  52:Drivers/STM32F1xx_HAL_Driver/Inc/stm32f1xx_ll_bus.h **** #if defined(RCC)
  53:Drivers/STM32F1xx_HAL_Driver/Inc/stm32f1xx_ll_bus.h **** 
  54:Drivers/STM32F1xx_HAL_Driver/Inc/stm32f1xx_ll_bus.h **** /** @defgroup BUS_LL BUS
  55:Drivers/STM32F1xx_HAL_Driver/Inc/stm32f1xx_ll_bus.h ****   * @{
  56:Drivers/STM32F1xx_HAL_Driver/Inc/stm32f1xx_ll_bus.h ****   */
  57:Drivers/STM32F1xx_HAL_Driver/Inc/stm32f1xx_ll_bus.h **** 
  58:Drivers/STM32F1xx_HAL_Driver/Inc/stm32f1xx_ll_bus.h **** /* Private types -------------------------------------------------------------*/
  59:Drivers/STM32F1xx_HAL_Driver/Inc/stm32f1xx_ll_bus.h **** /* Private variables ---------------------------------------------------------*/
  60:Drivers/STM32F1xx_HAL_Driver/Inc/stm32f1xx_ll_bus.h **** 
  61:Drivers/STM32F1xx_HAL_Driver/Inc/stm32f1xx_ll_bus.h **** /* Private constants ---------------------------------------------------------*/
  62:Drivers/STM32F1xx_HAL_Driver/Inc/stm32f1xx_ll_bus.h **** #if defined(RCC_AHBRSTR_OTGFSRST) || defined(RCC_AHBRSTR_ETHMACRST)
  63:Drivers/STM32F1xx_HAL_Driver/Inc/stm32f1xx_ll_bus.h **** #define RCC_AHBRSTR_SUPPORT
  64:Drivers/STM32F1xx_HAL_Driver/Inc/stm32f1xx_ll_bus.h **** #endif /* RCC_AHBRSTR_OTGFSRST || RCC_AHBRSTR_ETHMACRST */
  65:Drivers/STM32F1xx_HAL_Driver/Inc/stm32f1xx_ll_bus.h **** 
  66:Drivers/STM32F1xx_HAL_Driver/Inc/stm32f1xx_ll_bus.h **** /* Private macros ------------------------------------------------------------*/
  67:Drivers/STM32F1xx_HAL_Driver/Inc/stm32f1xx_ll_bus.h **** 
  68:Drivers/STM32F1xx_HAL_Driver/Inc/stm32f1xx_ll_bus.h **** /* Exported types ------------------------------------------------------------*/
  69:Drivers/STM32F1xx_HAL_Driver/Inc/stm32f1xx_ll_bus.h **** /* Exported constants --------------------------------------------------------*/
  70:Drivers/STM32F1xx_HAL_Driver/Inc/stm32f1xx_ll_bus.h **** /** @defgroup BUS_LL_Exported_Constants BUS Exported Constants
  71:Drivers/STM32F1xx_HAL_Driver/Inc/stm32f1xx_ll_bus.h ****   * @{
  72:Drivers/STM32F1xx_HAL_Driver/Inc/stm32f1xx_ll_bus.h ****   */
  73:Drivers/STM32F1xx_HAL_Driver/Inc/stm32f1xx_ll_bus.h **** 
  74:Drivers/STM32F1xx_HAL_Driver/Inc/stm32f1xx_ll_bus.h **** /** @defgroup BUS_LL_EC_AHB1_GRP1_PERIPH  AHB1 GRP1 PERIPH
ARM GAS  /tmp/ccBpuOwB.s 			page 4


  75:Drivers/STM32F1xx_HAL_Driver/Inc/stm32f1xx_ll_bus.h ****   * @{
  76:Drivers/STM32F1xx_HAL_Driver/Inc/stm32f1xx_ll_bus.h ****   */
  77:Drivers/STM32F1xx_HAL_Driver/Inc/stm32f1xx_ll_bus.h **** #define LL_AHB1_GRP1_PERIPH_ALL            (uint32_t)0xFFFFFFFFU
  78:Drivers/STM32F1xx_HAL_Driver/Inc/stm32f1xx_ll_bus.h **** #define LL_AHB1_GRP1_PERIPH_CRC            RCC_AHBENR_CRCEN
  79:Drivers/STM32F1xx_HAL_Driver/Inc/stm32f1xx_ll_bus.h **** #define LL_AHB1_GRP1_PERIPH_DMA1           RCC_AHBENR_DMA1EN
  80:Drivers/STM32F1xx_HAL_Driver/Inc/stm32f1xx_ll_bus.h **** #if defined(DMA2)
  81:Drivers/STM32F1xx_HAL_Driver/Inc/stm32f1xx_ll_bus.h **** #define LL_AHB1_GRP1_PERIPH_DMA2           RCC_AHBENR_DMA2EN
  82:Drivers/STM32F1xx_HAL_Driver/Inc/stm32f1xx_ll_bus.h **** #endif /*DMA2*/
  83:Drivers/STM32F1xx_HAL_Driver/Inc/stm32f1xx_ll_bus.h **** #if defined(ETH)
  84:Drivers/STM32F1xx_HAL_Driver/Inc/stm32f1xx_ll_bus.h **** #define LL_AHB1_GRP1_PERIPH_ETHMAC         RCC_AHBENR_ETHMACEN
  85:Drivers/STM32F1xx_HAL_Driver/Inc/stm32f1xx_ll_bus.h **** #define LL_AHB1_GRP1_PERIPH_ETHMACRX       RCC_AHBENR_ETHMACRXEN
  86:Drivers/STM32F1xx_HAL_Driver/Inc/stm32f1xx_ll_bus.h **** #define LL_AHB1_GRP1_PERIPH_ETHMACTX       RCC_AHBENR_ETHMACTXEN
  87:Drivers/STM32F1xx_HAL_Driver/Inc/stm32f1xx_ll_bus.h **** #endif /*ETH*/
  88:Drivers/STM32F1xx_HAL_Driver/Inc/stm32f1xx_ll_bus.h **** #define LL_AHB1_GRP1_PERIPH_FLASH          RCC_AHBENR_FLITFEN
  89:Drivers/STM32F1xx_HAL_Driver/Inc/stm32f1xx_ll_bus.h **** #if defined(FSMC_Bank1)
  90:Drivers/STM32F1xx_HAL_Driver/Inc/stm32f1xx_ll_bus.h **** #define LL_AHB1_GRP1_PERIPH_FSMC           RCC_AHBENR_FSMCEN
  91:Drivers/STM32F1xx_HAL_Driver/Inc/stm32f1xx_ll_bus.h **** #endif /*FSMC_Bank1*/
  92:Drivers/STM32F1xx_HAL_Driver/Inc/stm32f1xx_ll_bus.h **** #if defined(USB_OTG_FS)
  93:Drivers/STM32F1xx_HAL_Driver/Inc/stm32f1xx_ll_bus.h **** #define LL_AHB1_GRP1_PERIPH_OTGFS          RCC_AHBENR_OTGFSEN
  94:Drivers/STM32F1xx_HAL_Driver/Inc/stm32f1xx_ll_bus.h **** #endif /*USB_OTG_FS*/
  95:Drivers/STM32F1xx_HAL_Driver/Inc/stm32f1xx_ll_bus.h **** #if defined(SDIO)
  96:Drivers/STM32F1xx_HAL_Driver/Inc/stm32f1xx_ll_bus.h **** #define LL_AHB1_GRP1_PERIPH_SDIO           RCC_AHBENR_SDIOEN
  97:Drivers/STM32F1xx_HAL_Driver/Inc/stm32f1xx_ll_bus.h **** #endif /*SDIO*/
  98:Drivers/STM32F1xx_HAL_Driver/Inc/stm32f1xx_ll_bus.h **** #define LL_AHB1_GRP1_PERIPH_SRAM           RCC_AHBENR_SRAMEN
  99:Drivers/STM32F1xx_HAL_Driver/Inc/stm32f1xx_ll_bus.h **** /**
 100:Drivers/STM32F1xx_HAL_Driver/Inc/stm32f1xx_ll_bus.h ****   * @}
 101:Drivers/STM32F1xx_HAL_Driver/Inc/stm32f1xx_ll_bus.h ****   */
 102:Drivers/STM32F1xx_HAL_Driver/Inc/stm32f1xx_ll_bus.h **** 
 103:Drivers/STM32F1xx_HAL_Driver/Inc/stm32f1xx_ll_bus.h **** /** @defgroup BUS_LL_EC_APB1_GRP1_PERIPH  APB1 GRP1 PERIPH
 104:Drivers/STM32F1xx_HAL_Driver/Inc/stm32f1xx_ll_bus.h ****   * @{
 105:Drivers/STM32F1xx_HAL_Driver/Inc/stm32f1xx_ll_bus.h ****   */
 106:Drivers/STM32F1xx_HAL_Driver/Inc/stm32f1xx_ll_bus.h **** #define LL_APB1_GRP1_PERIPH_ALL            (uint32_t)0xFFFFFFFFU
 107:Drivers/STM32F1xx_HAL_Driver/Inc/stm32f1xx_ll_bus.h **** #define LL_APB1_GRP1_PERIPH_BKP            RCC_APB1ENR_BKPEN
 108:Drivers/STM32F1xx_HAL_Driver/Inc/stm32f1xx_ll_bus.h **** #if defined(CAN1)
 109:Drivers/STM32F1xx_HAL_Driver/Inc/stm32f1xx_ll_bus.h **** #define LL_APB1_GRP1_PERIPH_CAN1           RCC_APB1ENR_CAN1EN
 110:Drivers/STM32F1xx_HAL_Driver/Inc/stm32f1xx_ll_bus.h **** #endif /*CAN1*/
 111:Drivers/STM32F1xx_HAL_Driver/Inc/stm32f1xx_ll_bus.h **** #if defined(CAN2)
 112:Drivers/STM32F1xx_HAL_Driver/Inc/stm32f1xx_ll_bus.h **** #define LL_APB1_GRP1_PERIPH_CAN2           RCC_APB1ENR_CAN2EN
 113:Drivers/STM32F1xx_HAL_Driver/Inc/stm32f1xx_ll_bus.h **** #endif /*CAN2*/
 114:Drivers/STM32F1xx_HAL_Driver/Inc/stm32f1xx_ll_bus.h **** #if defined(CEC)
 115:Drivers/STM32F1xx_HAL_Driver/Inc/stm32f1xx_ll_bus.h **** #define LL_APB1_GRP1_PERIPH_CEC            RCC_APB1ENR_CECEN
 116:Drivers/STM32F1xx_HAL_Driver/Inc/stm32f1xx_ll_bus.h **** #endif /*CEC*/
 117:Drivers/STM32F1xx_HAL_Driver/Inc/stm32f1xx_ll_bus.h **** #if defined(DAC)
 118:Drivers/STM32F1xx_HAL_Driver/Inc/stm32f1xx_ll_bus.h **** #define LL_APB1_GRP1_PERIPH_DAC1           RCC_APB1ENR_DACEN
 119:Drivers/STM32F1xx_HAL_Driver/Inc/stm32f1xx_ll_bus.h **** #endif /*DAC*/
 120:Drivers/STM32F1xx_HAL_Driver/Inc/stm32f1xx_ll_bus.h **** #define LL_APB1_GRP1_PERIPH_I2C1           RCC_APB1ENR_I2C1EN
 121:Drivers/STM32F1xx_HAL_Driver/Inc/stm32f1xx_ll_bus.h **** #if defined(I2C2)
 122:Drivers/STM32F1xx_HAL_Driver/Inc/stm32f1xx_ll_bus.h **** #define LL_APB1_GRP1_PERIPH_I2C2           RCC_APB1ENR_I2C2EN
 123:Drivers/STM32F1xx_HAL_Driver/Inc/stm32f1xx_ll_bus.h **** #endif /*I2C2*/
 124:Drivers/STM32F1xx_HAL_Driver/Inc/stm32f1xx_ll_bus.h **** #define LL_APB1_GRP1_PERIPH_PWR            RCC_APB1ENR_PWREN
 125:Drivers/STM32F1xx_HAL_Driver/Inc/stm32f1xx_ll_bus.h **** #if defined(SPI2)
 126:Drivers/STM32F1xx_HAL_Driver/Inc/stm32f1xx_ll_bus.h **** #define LL_APB1_GRP1_PERIPH_SPI2           RCC_APB1ENR_SPI2EN
 127:Drivers/STM32F1xx_HAL_Driver/Inc/stm32f1xx_ll_bus.h **** #endif /*SPI2*/
 128:Drivers/STM32F1xx_HAL_Driver/Inc/stm32f1xx_ll_bus.h **** #if defined(SPI3)
 129:Drivers/STM32F1xx_HAL_Driver/Inc/stm32f1xx_ll_bus.h **** #define LL_APB1_GRP1_PERIPH_SPI3           RCC_APB1ENR_SPI3EN
 130:Drivers/STM32F1xx_HAL_Driver/Inc/stm32f1xx_ll_bus.h **** #endif /*SPI3*/
 131:Drivers/STM32F1xx_HAL_Driver/Inc/stm32f1xx_ll_bus.h **** #if defined(TIM12)
ARM GAS  /tmp/ccBpuOwB.s 			page 5


 132:Drivers/STM32F1xx_HAL_Driver/Inc/stm32f1xx_ll_bus.h **** #define LL_APB1_GRP1_PERIPH_TIM12          RCC_APB1ENR_TIM12EN
 133:Drivers/STM32F1xx_HAL_Driver/Inc/stm32f1xx_ll_bus.h **** #endif /*TIM12*/
 134:Drivers/STM32F1xx_HAL_Driver/Inc/stm32f1xx_ll_bus.h **** #if defined(TIM13)
 135:Drivers/STM32F1xx_HAL_Driver/Inc/stm32f1xx_ll_bus.h **** #define LL_APB1_GRP1_PERIPH_TIM13          RCC_APB1ENR_TIM13EN
 136:Drivers/STM32F1xx_HAL_Driver/Inc/stm32f1xx_ll_bus.h **** #endif /*TIM13*/
 137:Drivers/STM32F1xx_HAL_Driver/Inc/stm32f1xx_ll_bus.h **** #if defined(TIM14)
 138:Drivers/STM32F1xx_HAL_Driver/Inc/stm32f1xx_ll_bus.h **** #define LL_APB1_GRP1_PERIPH_TIM14          RCC_APB1ENR_TIM14EN
 139:Drivers/STM32F1xx_HAL_Driver/Inc/stm32f1xx_ll_bus.h **** #endif /*TIM14*/
 140:Drivers/STM32F1xx_HAL_Driver/Inc/stm32f1xx_ll_bus.h **** #define LL_APB1_GRP1_PERIPH_TIM2           RCC_APB1ENR_TIM2EN
 141:Drivers/STM32F1xx_HAL_Driver/Inc/stm32f1xx_ll_bus.h **** #define LL_APB1_GRP1_PERIPH_TIM3           RCC_APB1ENR_TIM3EN
 142:Drivers/STM32F1xx_HAL_Driver/Inc/stm32f1xx_ll_bus.h **** #if defined(TIM4)
 143:Drivers/STM32F1xx_HAL_Driver/Inc/stm32f1xx_ll_bus.h **** #define LL_APB1_GRP1_PERIPH_TIM4           RCC_APB1ENR_TIM4EN
 144:Drivers/STM32F1xx_HAL_Driver/Inc/stm32f1xx_ll_bus.h **** #endif /*TIM4*/
 145:Drivers/STM32F1xx_HAL_Driver/Inc/stm32f1xx_ll_bus.h **** #if defined(TIM5)
 146:Drivers/STM32F1xx_HAL_Driver/Inc/stm32f1xx_ll_bus.h **** #define LL_APB1_GRP1_PERIPH_TIM5           RCC_APB1ENR_TIM5EN
 147:Drivers/STM32F1xx_HAL_Driver/Inc/stm32f1xx_ll_bus.h **** #endif /*TIM5*/
 148:Drivers/STM32F1xx_HAL_Driver/Inc/stm32f1xx_ll_bus.h **** #if defined(TIM6)
 149:Drivers/STM32F1xx_HAL_Driver/Inc/stm32f1xx_ll_bus.h **** #define LL_APB1_GRP1_PERIPH_TIM6           RCC_APB1ENR_TIM6EN
 150:Drivers/STM32F1xx_HAL_Driver/Inc/stm32f1xx_ll_bus.h **** #endif /*TIM6*/
 151:Drivers/STM32F1xx_HAL_Driver/Inc/stm32f1xx_ll_bus.h **** #if defined(TIM7)
 152:Drivers/STM32F1xx_HAL_Driver/Inc/stm32f1xx_ll_bus.h **** #define LL_APB1_GRP1_PERIPH_TIM7           RCC_APB1ENR_TIM7EN
 153:Drivers/STM32F1xx_HAL_Driver/Inc/stm32f1xx_ll_bus.h **** #endif /*TIM7*/
 154:Drivers/STM32F1xx_HAL_Driver/Inc/stm32f1xx_ll_bus.h **** #if defined(UART4)
 155:Drivers/STM32F1xx_HAL_Driver/Inc/stm32f1xx_ll_bus.h **** #define LL_APB1_GRP1_PERIPH_UART4          RCC_APB1ENR_UART4EN
 156:Drivers/STM32F1xx_HAL_Driver/Inc/stm32f1xx_ll_bus.h **** #endif /*UART4*/
 157:Drivers/STM32F1xx_HAL_Driver/Inc/stm32f1xx_ll_bus.h **** #if defined(UART5)
 158:Drivers/STM32F1xx_HAL_Driver/Inc/stm32f1xx_ll_bus.h **** #define LL_APB1_GRP1_PERIPH_UART5          RCC_APB1ENR_UART5EN
 159:Drivers/STM32F1xx_HAL_Driver/Inc/stm32f1xx_ll_bus.h **** #endif /*UART5*/
 160:Drivers/STM32F1xx_HAL_Driver/Inc/stm32f1xx_ll_bus.h **** #define LL_APB1_GRP1_PERIPH_USART2         RCC_APB1ENR_USART2EN
 161:Drivers/STM32F1xx_HAL_Driver/Inc/stm32f1xx_ll_bus.h **** #if defined(USART3)
 162:Drivers/STM32F1xx_HAL_Driver/Inc/stm32f1xx_ll_bus.h **** #define LL_APB1_GRP1_PERIPH_USART3         RCC_APB1ENR_USART3EN
 163:Drivers/STM32F1xx_HAL_Driver/Inc/stm32f1xx_ll_bus.h **** #endif /*USART3*/
 164:Drivers/STM32F1xx_HAL_Driver/Inc/stm32f1xx_ll_bus.h **** #if defined(USB)
 165:Drivers/STM32F1xx_HAL_Driver/Inc/stm32f1xx_ll_bus.h **** #define LL_APB1_GRP1_PERIPH_USB            RCC_APB1ENR_USBEN
 166:Drivers/STM32F1xx_HAL_Driver/Inc/stm32f1xx_ll_bus.h **** #endif /*USB*/
 167:Drivers/STM32F1xx_HAL_Driver/Inc/stm32f1xx_ll_bus.h **** #define LL_APB1_GRP1_PERIPH_WWDG           RCC_APB1ENR_WWDGEN
 168:Drivers/STM32F1xx_HAL_Driver/Inc/stm32f1xx_ll_bus.h **** /**
 169:Drivers/STM32F1xx_HAL_Driver/Inc/stm32f1xx_ll_bus.h ****   * @}
 170:Drivers/STM32F1xx_HAL_Driver/Inc/stm32f1xx_ll_bus.h ****   */
 171:Drivers/STM32F1xx_HAL_Driver/Inc/stm32f1xx_ll_bus.h **** 
 172:Drivers/STM32F1xx_HAL_Driver/Inc/stm32f1xx_ll_bus.h **** /** @defgroup BUS_LL_EC_APB2_GRP1_PERIPH  APB2 GRP1 PERIPH
 173:Drivers/STM32F1xx_HAL_Driver/Inc/stm32f1xx_ll_bus.h ****   * @{
 174:Drivers/STM32F1xx_HAL_Driver/Inc/stm32f1xx_ll_bus.h ****   */
 175:Drivers/STM32F1xx_HAL_Driver/Inc/stm32f1xx_ll_bus.h **** #define LL_APB2_GRP1_PERIPH_ALL            (uint32_t)0xFFFFFFFFU
 176:Drivers/STM32F1xx_HAL_Driver/Inc/stm32f1xx_ll_bus.h **** #define LL_APB2_GRP1_PERIPH_ADC1           RCC_APB2ENR_ADC1EN
 177:Drivers/STM32F1xx_HAL_Driver/Inc/stm32f1xx_ll_bus.h **** #if defined(ADC2)
 178:Drivers/STM32F1xx_HAL_Driver/Inc/stm32f1xx_ll_bus.h **** #define LL_APB2_GRP1_PERIPH_ADC2           RCC_APB2ENR_ADC2EN
 179:Drivers/STM32F1xx_HAL_Driver/Inc/stm32f1xx_ll_bus.h **** #endif /*ADC2*/
 180:Drivers/STM32F1xx_HAL_Driver/Inc/stm32f1xx_ll_bus.h **** #if defined(ADC3)
 181:Drivers/STM32F1xx_HAL_Driver/Inc/stm32f1xx_ll_bus.h **** #define LL_APB2_GRP1_PERIPH_ADC3           RCC_APB2ENR_ADC3EN
 182:Drivers/STM32F1xx_HAL_Driver/Inc/stm32f1xx_ll_bus.h **** #endif /*ADC3*/
 183:Drivers/STM32F1xx_HAL_Driver/Inc/stm32f1xx_ll_bus.h **** #define LL_APB2_GRP1_PERIPH_AFIO           RCC_APB2ENR_AFIOEN
 184:Drivers/STM32F1xx_HAL_Driver/Inc/stm32f1xx_ll_bus.h **** #define LL_APB2_GRP1_PERIPH_GPIOA          RCC_APB2ENR_IOPAEN
 185:Drivers/STM32F1xx_HAL_Driver/Inc/stm32f1xx_ll_bus.h **** #define LL_APB2_GRP1_PERIPH_GPIOB          RCC_APB2ENR_IOPBEN
 186:Drivers/STM32F1xx_HAL_Driver/Inc/stm32f1xx_ll_bus.h **** #define LL_APB2_GRP1_PERIPH_GPIOC          RCC_APB2ENR_IOPCEN
 187:Drivers/STM32F1xx_HAL_Driver/Inc/stm32f1xx_ll_bus.h **** #define LL_APB2_GRP1_PERIPH_GPIOD          RCC_APB2ENR_IOPDEN
 188:Drivers/STM32F1xx_HAL_Driver/Inc/stm32f1xx_ll_bus.h **** #if defined(GPIOE)
ARM GAS  /tmp/ccBpuOwB.s 			page 6


 189:Drivers/STM32F1xx_HAL_Driver/Inc/stm32f1xx_ll_bus.h **** #define LL_APB2_GRP1_PERIPH_GPIOE          RCC_APB2ENR_IOPEEN
 190:Drivers/STM32F1xx_HAL_Driver/Inc/stm32f1xx_ll_bus.h **** #endif /*GPIOE*/
 191:Drivers/STM32F1xx_HAL_Driver/Inc/stm32f1xx_ll_bus.h **** #if defined(GPIOF)
 192:Drivers/STM32F1xx_HAL_Driver/Inc/stm32f1xx_ll_bus.h **** #define LL_APB2_GRP1_PERIPH_GPIOF          RCC_APB2ENR_IOPFEN
 193:Drivers/STM32F1xx_HAL_Driver/Inc/stm32f1xx_ll_bus.h **** #endif /*GPIOF*/
 194:Drivers/STM32F1xx_HAL_Driver/Inc/stm32f1xx_ll_bus.h **** #if defined(GPIOG)
 195:Drivers/STM32F1xx_HAL_Driver/Inc/stm32f1xx_ll_bus.h **** #define LL_APB2_GRP1_PERIPH_GPIOG          RCC_APB2ENR_IOPGEN
 196:Drivers/STM32F1xx_HAL_Driver/Inc/stm32f1xx_ll_bus.h **** #endif /*GPIOG*/
 197:Drivers/STM32F1xx_HAL_Driver/Inc/stm32f1xx_ll_bus.h **** #define LL_APB2_GRP1_PERIPH_SPI1           RCC_APB2ENR_SPI1EN
 198:Drivers/STM32F1xx_HAL_Driver/Inc/stm32f1xx_ll_bus.h **** #if defined(TIM10)
 199:Drivers/STM32F1xx_HAL_Driver/Inc/stm32f1xx_ll_bus.h **** #define LL_APB2_GRP1_PERIPH_TIM10          RCC_APB2ENR_TIM10EN
 200:Drivers/STM32F1xx_HAL_Driver/Inc/stm32f1xx_ll_bus.h **** #endif /*TIM10*/
 201:Drivers/STM32F1xx_HAL_Driver/Inc/stm32f1xx_ll_bus.h **** #if defined(TIM11)
 202:Drivers/STM32F1xx_HAL_Driver/Inc/stm32f1xx_ll_bus.h **** #define LL_APB2_GRP1_PERIPH_TIM11          RCC_APB2ENR_TIM11EN
 203:Drivers/STM32F1xx_HAL_Driver/Inc/stm32f1xx_ll_bus.h **** #endif /*TIM11*/
 204:Drivers/STM32F1xx_HAL_Driver/Inc/stm32f1xx_ll_bus.h **** #if defined(TIM15)
 205:Drivers/STM32F1xx_HAL_Driver/Inc/stm32f1xx_ll_bus.h **** #define LL_APB2_GRP1_PERIPH_TIM15          RCC_APB2ENR_TIM15EN
 206:Drivers/STM32F1xx_HAL_Driver/Inc/stm32f1xx_ll_bus.h **** #endif /*TIM15*/
 207:Drivers/STM32F1xx_HAL_Driver/Inc/stm32f1xx_ll_bus.h **** #if defined(TIM16)
 208:Drivers/STM32F1xx_HAL_Driver/Inc/stm32f1xx_ll_bus.h **** #define LL_APB2_GRP1_PERIPH_TIM16          RCC_APB2ENR_TIM16EN
 209:Drivers/STM32F1xx_HAL_Driver/Inc/stm32f1xx_ll_bus.h **** #endif /*TIM16*/
 210:Drivers/STM32F1xx_HAL_Driver/Inc/stm32f1xx_ll_bus.h **** #if defined(TIM17)
 211:Drivers/STM32F1xx_HAL_Driver/Inc/stm32f1xx_ll_bus.h **** #define LL_APB2_GRP1_PERIPH_TIM17          RCC_APB2ENR_TIM17EN
 212:Drivers/STM32F1xx_HAL_Driver/Inc/stm32f1xx_ll_bus.h **** #endif /*TIM17*/
 213:Drivers/STM32F1xx_HAL_Driver/Inc/stm32f1xx_ll_bus.h **** #define LL_APB2_GRP1_PERIPH_TIM1           RCC_APB2ENR_TIM1EN
 214:Drivers/STM32F1xx_HAL_Driver/Inc/stm32f1xx_ll_bus.h **** #if defined(TIM8)
 215:Drivers/STM32F1xx_HAL_Driver/Inc/stm32f1xx_ll_bus.h **** #define LL_APB2_GRP1_PERIPH_TIM8           RCC_APB2ENR_TIM8EN
 216:Drivers/STM32F1xx_HAL_Driver/Inc/stm32f1xx_ll_bus.h **** #endif /*TIM8*/
 217:Drivers/STM32F1xx_HAL_Driver/Inc/stm32f1xx_ll_bus.h **** #if defined(TIM9)
 218:Drivers/STM32F1xx_HAL_Driver/Inc/stm32f1xx_ll_bus.h **** #define LL_APB2_GRP1_PERIPH_TIM9           RCC_APB2ENR_TIM9EN
 219:Drivers/STM32F1xx_HAL_Driver/Inc/stm32f1xx_ll_bus.h **** #endif /*TIM9*/
 220:Drivers/STM32F1xx_HAL_Driver/Inc/stm32f1xx_ll_bus.h **** #define LL_APB2_GRP1_PERIPH_USART1         RCC_APB2ENR_USART1EN
 221:Drivers/STM32F1xx_HAL_Driver/Inc/stm32f1xx_ll_bus.h **** /**
 222:Drivers/STM32F1xx_HAL_Driver/Inc/stm32f1xx_ll_bus.h ****   * @}
 223:Drivers/STM32F1xx_HAL_Driver/Inc/stm32f1xx_ll_bus.h ****   */
 224:Drivers/STM32F1xx_HAL_Driver/Inc/stm32f1xx_ll_bus.h **** 
 225:Drivers/STM32F1xx_HAL_Driver/Inc/stm32f1xx_ll_bus.h **** /**
 226:Drivers/STM32F1xx_HAL_Driver/Inc/stm32f1xx_ll_bus.h ****   * @}
 227:Drivers/STM32F1xx_HAL_Driver/Inc/stm32f1xx_ll_bus.h ****   */
 228:Drivers/STM32F1xx_HAL_Driver/Inc/stm32f1xx_ll_bus.h **** 
 229:Drivers/STM32F1xx_HAL_Driver/Inc/stm32f1xx_ll_bus.h **** /* Exported macro ------------------------------------------------------------*/
 230:Drivers/STM32F1xx_HAL_Driver/Inc/stm32f1xx_ll_bus.h **** 
 231:Drivers/STM32F1xx_HAL_Driver/Inc/stm32f1xx_ll_bus.h **** /* Exported functions --------------------------------------------------------*/
 232:Drivers/STM32F1xx_HAL_Driver/Inc/stm32f1xx_ll_bus.h **** /** @defgroup BUS_LL_Exported_Functions BUS Exported Functions
 233:Drivers/STM32F1xx_HAL_Driver/Inc/stm32f1xx_ll_bus.h ****   * @{
 234:Drivers/STM32F1xx_HAL_Driver/Inc/stm32f1xx_ll_bus.h ****   */
 235:Drivers/STM32F1xx_HAL_Driver/Inc/stm32f1xx_ll_bus.h **** 
 236:Drivers/STM32F1xx_HAL_Driver/Inc/stm32f1xx_ll_bus.h **** /** @defgroup BUS_LL_EF_AHB1 AHB1
 237:Drivers/STM32F1xx_HAL_Driver/Inc/stm32f1xx_ll_bus.h ****   * @{
 238:Drivers/STM32F1xx_HAL_Driver/Inc/stm32f1xx_ll_bus.h ****   */
 239:Drivers/STM32F1xx_HAL_Driver/Inc/stm32f1xx_ll_bus.h **** 
 240:Drivers/STM32F1xx_HAL_Driver/Inc/stm32f1xx_ll_bus.h **** /**
 241:Drivers/STM32F1xx_HAL_Driver/Inc/stm32f1xx_ll_bus.h ****   * @brief  Enable AHB1 peripherals clock.
 242:Drivers/STM32F1xx_HAL_Driver/Inc/stm32f1xx_ll_bus.h ****   * @rmtoll AHBENR       CRCEN         LL_AHB1_GRP1_EnableClock\n
 243:Drivers/STM32F1xx_HAL_Driver/Inc/stm32f1xx_ll_bus.h ****   *         AHBENR       DMA1EN        LL_AHB1_GRP1_EnableClock\n
 244:Drivers/STM32F1xx_HAL_Driver/Inc/stm32f1xx_ll_bus.h ****   *         AHBENR       DMA2EN        LL_AHB1_GRP1_EnableClock\n
 245:Drivers/STM32F1xx_HAL_Driver/Inc/stm32f1xx_ll_bus.h ****   *         AHBENR       ETHMACEN      LL_AHB1_GRP1_EnableClock\n
ARM GAS  /tmp/ccBpuOwB.s 			page 7


 246:Drivers/STM32F1xx_HAL_Driver/Inc/stm32f1xx_ll_bus.h ****   *         AHBENR       ETHMACRXEN    LL_AHB1_GRP1_EnableClock\n
 247:Drivers/STM32F1xx_HAL_Driver/Inc/stm32f1xx_ll_bus.h ****   *         AHBENR       ETHMACTXEN    LL_AHB1_GRP1_EnableClock\n
 248:Drivers/STM32F1xx_HAL_Driver/Inc/stm32f1xx_ll_bus.h ****   *         AHBENR       FLITFEN       LL_AHB1_GRP1_EnableClock\n
 249:Drivers/STM32F1xx_HAL_Driver/Inc/stm32f1xx_ll_bus.h ****   *         AHBENR       FSMCEN        LL_AHB1_GRP1_EnableClock\n
 250:Drivers/STM32F1xx_HAL_Driver/Inc/stm32f1xx_ll_bus.h ****   *         AHBENR       OTGFSEN       LL_AHB1_GRP1_EnableClock\n
 251:Drivers/STM32F1xx_HAL_Driver/Inc/stm32f1xx_ll_bus.h ****   *         AHBENR       SDIOEN        LL_AHB1_GRP1_EnableClock\n
 252:Drivers/STM32F1xx_HAL_Driver/Inc/stm32f1xx_ll_bus.h ****   *         AHBENR       SRAMEN        LL_AHB1_GRP1_EnableClock
 253:Drivers/STM32F1xx_HAL_Driver/Inc/stm32f1xx_ll_bus.h ****   * @param  Periphs This parameter can be a combination of the following values:
 254:Drivers/STM32F1xx_HAL_Driver/Inc/stm32f1xx_ll_bus.h ****   *         @arg @ref LL_AHB1_GRP1_PERIPH_CRC
 255:Drivers/STM32F1xx_HAL_Driver/Inc/stm32f1xx_ll_bus.h ****   *         @arg @ref LL_AHB1_GRP1_PERIPH_DMA1
 256:Drivers/STM32F1xx_HAL_Driver/Inc/stm32f1xx_ll_bus.h ****   *         @arg @ref LL_AHB1_GRP1_PERIPH_DMA2 (*)
 257:Drivers/STM32F1xx_HAL_Driver/Inc/stm32f1xx_ll_bus.h ****   *         @arg @ref LL_AHB1_GRP1_PERIPH_ETHMAC (*)
 258:Drivers/STM32F1xx_HAL_Driver/Inc/stm32f1xx_ll_bus.h ****   *         @arg @ref LL_AHB1_GRP1_PERIPH_ETHMACRX (*)
 259:Drivers/STM32F1xx_HAL_Driver/Inc/stm32f1xx_ll_bus.h ****   *         @arg @ref LL_AHB1_GRP1_PERIPH_ETHMACTX (*)
 260:Drivers/STM32F1xx_HAL_Driver/Inc/stm32f1xx_ll_bus.h ****   *         @arg @ref LL_AHB1_GRP1_PERIPH_FLASH
 261:Drivers/STM32F1xx_HAL_Driver/Inc/stm32f1xx_ll_bus.h ****   *         @arg @ref LL_AHB1_GRP1_PERIPH_FSMC (*)
 262:Drivers/STM32F1xx_HAL_Driver/Inc/stm32f1xx_ll_bus.h ****   *         @arg @ref LL_AHB1_GRP1_PERIPH_OTGFS (*)
 263:Drivers/STM32F1xx_HAL_Driver/Inc/stm32f1xx_ll_bus.h ****   *         @arg @ref LL_AHB1_GRP1_PERIPH_SDIO (*)
 264:Drivers/STM32F1xx_HAL_Driver/Inc/stm32f1xx_ll_bus.h ****   *         @arg @ref LL_AHB1_GRP1_PERIPH_SRAM
 265:Drivers/STM32F1xx_HAL_Driver/Inc/stm32f1xx_ll_bus.h ****   *
 266:Drivers/STM32F1xx_HAL_Driver/Inc/stm32f1xx_ll_bus.h ****   *         (*) value not defined in all devices.
 267:Drivers/STM32F1xx_HAL_Driver/Inc/stm32f1xx_ll_bus.h ****   * @retval None
 268:Drivers/STM32F1xx_HAL_Driver/Inc/stm32f1xx_ll_bus.h **** */
 269:Drivers/STM32F1xx_HAL_Driver/Inc/stm32f1xx_ll_bus.h **** __STATIC_INLINE void LL_AHB1_GRP1_EnableClock(uint32_t Periphs)
 270:Drivers/STM32F1xx_HAL_Driver/Inc/stm32f1xx_ll_bus.h **** {
 271:Drivers/STM32F1xx_HAL_Driver/Inc/stm32f1xx_ll_bus.h ****   __IO uint32_t tmpreg;
 272:Drivers/STM32F1xx_HAL_Driver/Inc/stm32f1xx_ll_bus.h ****   SET_BIT(RCC->AHBENR, Periphs);
 273:Drivers/STM32F1xx_HAL_Driver/Inc/stm32f1xx_ll_bus.h ****   /* Delay after an RCC peripheral clock enabling */
 274:Drivers/STM32F1xx_HAL_Driver/Inc/stm32f1xx_ll_bus.h ****   tmpreg = READ_BIT(RCC->AHBENR, Periphs);
 275:Drivers/STM32F1xx_HAL_Driver/Inc/stm32f1xx_ll_bus.h ****   (void)tmpreg;
 276:Drivers/STM32F1xx_HAL_Driver/Inc/stm32f1xx_ll_bus.h **** }
 277:Drivers/STM32F1xx_HAL_Driver/Inc/stm32f1xx_ll_bus.h **** 
 278:Drivers/STM32F1xx_HAL_Driver/Inc/stm32f1xx_ll_bus.h **** /**
 279:Drivers/STM32F1xx_HAL_Driver/Inc/stm32f1xx_ll_bus.h ****   * @brief  Check if AHB1 peripheral clock is enabled or not
 280:Drivers/STM32F1xx_HAL_Driver/Inc/stm32f1xx_ll_bus.h ****   * @rmtoll AHBENR       CRCEN         LL_AHB1_GRP1_IsEnabledClock\n
 281:Drivers/STM32F1xx_HAL_Driver/Inc/stm32f1xx_ll_bus.h ****   *         AHBENR       DMA1EN        LL_AHB1_GRP1_IsEnabledClock\n
 282:Drivers/STM32F1xx_HAL_Driver/Inc/stm32f1xx_ll_bus.h ****   *         AHBENR       DMA2EN        LL_AHB1_GRP1_IsEnabledClock\n
 283:Drivers/STM32F1xx_HAL_Driver/Inc/stm32f1xx_ll_bus.h ****   *         AHBENR       ETHMACEN      LL_AHB1_GRP1_IsEnabledClock\n
 284:Drivers/STM32F1xx_HAL_Driver/Inc/stm32f1xx_ll_bus.h ****   *         AHBENR       ETHMACRXEN    LL_AHB1_GRP1_IsEnabledClock\n
 285:Drivers/STM32F1xx_HAL_Driver/Inc/stm32f1xx_ll_bus.h ****   *         AHBENR       ETHMACTXEN    LL_AHB1_GRP1_IsEnabledClock\n
 286:Drivers/STM32F1xx_HAL_Driver/Inc/stm32f1xx_ll_bus.h ****   *         AHBENR       FLITFEN       LL_AHB1_GRP1_IsEnabledClock\n
 287:Drivers/STM32F1xx_HAL_Driver/Inc/stm32f1xx_ll_bus.h ****   *         AHBENR       FSMCEN        LL_AHB1_GRP1_IsEnabledClock\n
 288:Drivers/STM32F1xx_HAL_Driver/Inc/stm32f1xx_ll_bus.h ****   *         AHBENR       OTGFSEN       LL_AHB1_GRP1_IsEnabledClock\n
 289:Drivers/STM32F1xx_HAL_Driver/Inc/stm32f1xx_ll_bus.h ****   *         AHBENR       SDIOEN        LL_AHB1_GRP1_IsEnabledClock\n
 290:Drivers/STM32F1xx_HAL_Driver/Inc/stm32f1xx_ll_bus.h ****   *         AHBENR       SRAMEN        LL_AHB1_GRP1_IsEnabledClock
 291:Drivers/STM32F1xx_HAL_Driver/Inc/stm32f1xx_ll_bus.h ****   * @param  Periphs This parameter can be a combination of the following values:
 292:Drivers/STM32F1xx_HAL_Driver/Inc/stm32f1xx_ll_bus.h ****   *         @arg @ref LL_AHB1_GRP1_PERIPH_CRC
 293:Drivers/STM32F1xx_HAL_Driver/Inc/stm32f1xx_ll_bus.h ****   *         @arg @ref LL_AHB1_GRP1_PERIPH_DMA1
 294:Drivers/STM32F1xx_HAL_Driver/Inc/stm32f1xx_ll_bus.h ****   *         @arg @ref LL_AHB1_GRP1_PERIPH_DMA2 (*)
 295:Drivers/STM32F1xx_HAL_Driver/Inc/stm32f1xx_ll_bus.h ****   *         @arg @ref LL_AHB1_GRP1_PERIPH_ETHMAC (*)
 296:Drivers/STM32F1xx_HAL_Driver/Inc/stm32f1xx_ll_bus.h ****   *         @arg @ref LL_AHB1_GRP1_PERIPH_ETHMACRX (*)
 297:Drivers/STM32F1xx_HAL_Driver/Inc/stm32f1xx_ll_bus.h ****   *         @arg @ref LL_AHB1_GRP1_PERIPH_ETHMACTX (*)
 298:Drivers/STM32F1xx_HAL_Driver/Inc/stm32f1xx_ll_bus.h ****   *         @arg @ref LL_AHB1_GRP1_PERIPH_FLASH
 299:Drivers/STM32F1xx_HAL_Driver/Inc/stm32f1xx_ll_bus.h ****   *         @arg @ref LL_AHB1_GRP1_PERIPH_FSMC (*)
 300:Drivers/STM32F1xx_HAL_Driver/Inc/stm32f1xx_ll_bus.h ****   *         @arg @ref LL_AHB1_GRP1_PERIPH_OTGFS (*)
 301:Drivers/STM32F1xx_HAL_Driver/Inc/stm32f1xx_ll_bus.h ****   *         @arg @ref LL_AHB1_GRP1_PERIPH_SDIO (*)
 302:Drivers/STM32F1xx_HAL_Driver/Inc/stm32f1xx_ll_bus.h ****   *         @arg @ref LL_AHB1_GRP1_PERIPH_SRAM
ARM GAS  /tmp/ccBpuOwB.s 			page 8


 303:Drivers/STM32F1xx_HAL_Driver/Inc/stm32f1xx_ll_bus.h ****   *
 304:Drivers/STM32F1xx_HAL_Driver/Inc/stm32f1xx_ll_bus.h ****   *         (*) value not defined in all devices.
 305:Drivers/STM32F1xx_HAL_Driver/Inc/stm32f1xx_ll_bus.h ****   * @retval State of Periphs (1 or 0).
 306:Drivers/STM32F1xx_HAL_Driver/Inc/stm32f1xx_ll_bus.h **** */
 307:Drivers/STM32F1xx_HAL_Driver/Inc/stm32f1xx_ll_bus.h **** __STATIC_INLINE uint32_t LL_AHB1_GRP1_IsEnabledClock(uint32_t Periphs)
 308:Drivers/STM32F1xx_HAL_Driver/Inc/stm32f1xx_ll_bus.h **** {
 309:Drivers/STM32F1xx_HAL_Driver/Inc/stm32f1xx_ll_bus.h ****   return (READ_BIT(RCC->AHBENR, Periphs) == Periphs);
 310:Drivers/STM32F1xx_HAL_Driver/Inc/stm32f1xx_ll_bus.h **** }
 311:Drivers/STM32F1xx_HAL_Driver/Inc/stm32f1xx_ll_bus.h **** 
 312:Drivers/STM32F1xx_HAL_Driver/Inc/stm32f1xx_ll_bus.h **** /**
 313:Drivers/STM32F1xx_HAL_Driver/Inc/stm32f1xx_ll_bus.h ****   * @brief  Disable AHB1 peripherals clock.
 314:Drivers/STM32F1xx_HAL_Driver/Inc/stm32f1xx_ll_bus.h ****   * @rmtoll AHBENR       CRCEN         LL_AHB1_GRP1_DisableClock\n
 315:Drivers/STM32F1xx_HAL_Driver/Inc/stm32f1xx_ll_bus.h ****   *         AHBENR       DMA1EN        LL_AHB1_GRP1_DisableClock\n
 316:Drivers/STM32F1xx_HAL_Driver/Inc/stm32f1xx_ll_bus.h ****   *         AHBENR       DMA2EN        LL_AHB1_GRP1_DisableClock\n
 317:Drivers/STM32F1xx_HAL_Driver/Inc/stm32f1xx_ll_bus.h ****   *         AHBENR       ETHMACEN      LL_AHB1_GRP1_DisableClock\n
 318:Drivers/STM32F1xx_HAL_Driver/Inc/stm32f1xx_ll_bus.h ****   *         AHBENR       ETHMACRXEN    LL_AHB1_GRP1_DisableClock\n
 319:Drivers/STM32F1xx_HAL_Driver/Inc/stm32f1xx_ll_bus.h ****   *         AHBENR       ETHMACTXEN    LL_AHB1_GRP1_DisableClock\n
 320:Drivers/STM32F1xx_HAL_Driver/Inc/stm32f1xx_ll_bus.h ****   *         AHBENR       FLITFEN       LL_AHB1_GRP1_DisableClock\n
 321:Drivers/STM32F1xx_HAL_Driver/Inc/stm32f1xx_ll_bus.h ****   *         AHBENR       FSMCEN        LL_AHB1_GRP1_DisableClock\n
 322:Drivers/STM32F1xx_HAL_Driver/Inc/stm32f1xx_ll_bus.h ****   *         AHBENR       OTGFSEN       LL_AHB1_GRP1_DisableClock\n
 323:Drivers/STM32F1xx_HAL_Driver/Inc/stm32f1xx_ll_bus.h ****   *         AHBENR       SDIOEN        LL_AHB1_GRP1_DisableClock\n
 324:Drivers/STM32F1xx_HAL_Driver/Inc/stm32f1xx_ll_bus.h ****   *         AHBENR       SRAMEN        LL_AHB1_GRP1_DisableClock
 325:Drivers/STM32F1xx_HAL_Driver/Inc/stm32f1xx_ll_bus.h ****   * @param  Periphs This parameter can be a combination of the following values:
 326:Drivers/STM32F1xx_HAL_Driver/Inc/stm32f1xx_ll_bus.h ****   *         @arg @ref LL_AHB1_GRP1_PERIPH_CRC
 327:Drivers/STM32F1xx_HAL_Driver/Inc/stm32f1xx_ll_bus.h ****   *         @arg @ref LL_AHB1_GRP1_PERIPH_DMA1
 328:Drivers/STM32F1xx_HAL_Driver/Inc/stm32f1xx_ll_bus.h ****   *         @arg @ref LL_AHB1_GRP1_PERIPH_DMA2 (*)
 329:Drivers/STM32F1xx_HAL_Driver/Inc/stm32f1xx_ll_bus.h ****   *         @arg @ref LL_AHB1_GRP1_PERIPH_ETHMAC (*)
 330:Drivers/STM32F1xx_HAL_Driver/Inc/stm32f1xx_ll_bus.h ****   *         @arg @ref LL_AHB1_GRP1_PERIPH_ETHMACRX (*)
 331:Drivers/STM32F1xx_HAL_Driver/Inc/stm32f1xx_ll_bus.h ****   *         @arg @ref LL_AHB1_GRP1_PERIPH_ETHMACTX (*)
 332:Drivers/STM32F1xx_HAL_Driver/Inc/stm32f1xx_ll_bus.h ****   *         @arg @ref LL_AHB1_GRP1_PERIPH_FLASH
 333:Drivers/STM32F1xx_HAL_Driver/Inc/stm32f1xx_ll_bus.h ****   *         @arg @ref LL_AHB1_GRP1_PERIPH_FSMC (*)
 334:Drivers/STM32F1xx_HAL_Driver/Inc/stm32f1xx_ll_bus.h ****   *         @arg @ref LL_AHB1_GRP1_PERIPH_OTGFS (*)
 335:Drivers/STM32F1xx_HAL_Driver/Inc/stm32f1xx_ll_bus.h ****   *         @arg @ref LL_AHB1_GRP1_PERIPH_SDIO (*)
 336:Drivers/STM32F1xx_HAL_Driver/Inc/stm32f1xx_ll_bus.h ****   *         @arg @ref LL_AHB1_GRP1_PERIPH_SRAM
 337:Drivers/STM32F1xx_HAL_Driver/Inc/stm32f1xx_ll_bus.h ****   *
 338:Drivers/STM32F1xx_HAL_Driver/Inc/stm32f1xx_ll_bus.h ****   *         (*) value not defined in all devices.
 339:Drivers/STM32F1xx_HAL_Driver/Inc/stm32f1xx_ll_bus.h ****   * @retval None
 340:Drivers/STM32F1xx_HAL_Driver/Inc/stm32f1xx_ll_bus.h **** */
 341:Drivers/STM32F1xx_HAL_Driver/Inc/stm32f1xx_ll_bus.h **** __STATIC_INLINE void LL_AHB1_GRP1_DisableClock(uint32_t Periphs)
 342:Drivers/STM32F1xx_HAL_Driver/Inc/stm32f1xx_ll_bus.h **** {
 343:Drivers/STM32F1xx_HAL_Driver/Inc/stm32f1xx_ll_bus.h ****   CLEAR_BIT(RCC->AHBENR, Periphs);
 344:Drivers/STM32F1xx_HAL_Driver/Inc/stm32f1xx_ll_bus.h **** }
 345:Drivers/STM32F1xx_HAL_Driver/Inc/stm32f1xx_ll_bus.h **** 
 346:Drivers/STM32F1xx_HAL_Driver/Inc/stm32f1xx_ll_bus.h **** #if defined(RCC_AHBRSTR_SUPPORT)
 347:Drivers/STM32F1xx_HAL_Driver/Inc/stm32f1xx_ll_bus.h **** /**
 348:Drivers/STM32F1xx_HAL_Driver/Inc/stm32f1xx_ll_bus.h ****   * @brief  Force AHB1 peripherals reset.
 349:Drivers/STM32F1xx_HAL_Driver/Inc/stm32f1xx_ll_bus.h ****   * @rmtoll AHBRSTR      ETHMACRST     LL_AHB1_GRP1_ForceReset\n
 350:Drivers/STM32F1xx_HAL_Driver/Inc/stm32f1xx_ll_bus.h ****   *         AHBRSTR      OTGFSRST      LL_AHB1_GRP1_ForceReset
 351:Drivers/STM32F1xx_HAL_Driver/Inc/stm32f1xx_ll_bus.h ****   * @param  Periphs This parameter can be a combination of the following values:
 352:Drivers/STM32F1xx_HAL_Driver/Inc/stm32f1xx_ll_bus.h ****   *         @arg @ref LL_AHB1_GRP1_PERIPH_ALL
 353:Drivers/STM32F1xx_HAL_Driver/Inc/stm32f1xx_ll_bus.h ****   *         @arg @ref LL_AHB1_GRP1_PERIPH_ETHMAC (*)
 354:Drivers/STM32F1xx_HAL_Driver/Inc/stm32f1xx_ll_bus.h ****   *         @arg @ref LL_AHB1_GRP1_PERIPH_OTGFS (*)
 355:Drivers/STM32F1xx_HAL_Driver/Inc/stm32f1xx_ll_bus.h ****   *
 356:Drivers/STM32F1xx_HAL_Driver/Inc/stm32f1xx_ll_bus.h ****   *         (*) value not defined in all devices.
 357:Drivers/STM32F1xx_HAL_Driver/Inc/stm32f1xx_ll_bus.h ****   * @retval None
 358:Drivers/STM32F1xx_HAL_Driver/Inc/stm32f1xx_ll_bus.h **** */
 359:Drivers/STM32F1xx_HAL_Driver/Inc/stm32f1xx_ll_bus.h **** __STATIC_INLINE void LL_AHB1_GRP1_ForceReset(uint32_t Periphs)
ARM GAS  /tmp/ccBpuOwB.s 			page 9


 360:Drivers/STM32F1xx_HAL_Driver/Inc/stm32f1xx_ll_bus.h **** {
 361:Drivers/STM32F1xx_HAL_Driver/Inc/stm32f1xx_ll_bus.h ****   SET_BIT(RCC->AHBRSTR, Periphs);
 362:Drivers/STM32F1xx_HAL_Driver/Inc/stm32f1xx_ll_bus.h **** }
 363:Drivers/STM32F1xx_HAL_Driver/Inc/stm32f1xx_ll_bus.h **** 
 364:Drivers/STM32F1xx_HAL_Driver/Inc/stm32f1xx_ll_bus.h **** /**
 365:Drivers/STM32F1xx_HAL_Driver/Inc/stm32f1xx_ll_bus.h ****   * @brief  Release AHB1 peripherals reset.
 366:Drivers/STM32F1xx_HAL_Driver/Inc/stm32f1xx_ll_bus.h ****   * @rmtoll AHBRSTR      ETHMACRST     LL_AHB1_GRP1_ReleaseReset\n
 367:Drivers/STM32F1xx_HAL_Driver/Inc/stm32f1xx_ll_bus.h ****   *         AHBRSTR      OTGFSRST      LL_AHB1_GRP1_ReleaseReset
 368:Drivers/STM32F1xx_HAL_Driver/Inc/stm32f1xx_ll_bus.h ****   * @param  Periphs This parameter can be a combination of the following values:
 369:Drivers/STM32F1xx_HAL_Driver/Inc/stm32f1xx_ll_bus.h ****   *         @arg @ref LL_AHB1_GRP1_PERIPH_ALL
 370:Drivers/STM32F1xx_HAL_Driver/Inc/stm32f1xx_ll_bus.h ****   *         @arg @ref LL_AHB1_GRP1_PERIPH_ETHMAC (*)
 371:Drivers/STM32F1xx_HAL_Driver/Inc/stm32f1xx_ll_bus.h ****   *         @arg @ref LL_AHB1_GRP1_PERIPH_OTGFS (*)
 372:Drivers/STM32F1xx_HAL_Driver/Inc/stm32f1xx_ll_bus.h ****   *
 373:Drivers/STM32F1xx_HAL_Driver/Inc/stm32f1xx_ll_bus.h ****   *         (*) value not defined in all devices.
 374:Drivers/STM32F1xx_HAL_Driver/Inc/stm32f1xx_ll_bus.h ****   * @retval None
 375:Drivers/STM32F1xx_HAL_Driver/Inc/stm32f1xx_ll_bus.h **** */
 376:Drivers/STM32F1xx_HAL_Driver/Inc/stm32f1xx_ll_bus.h **** __STATIC_INLINE void LL_AHB1_GRP1_ReleaseReset(uint32_t Periphs)
 377:Drivers/STM32F1xx_HAL_Driver/Inc/stm32f1xx_ll_bus.h **** {
 378:Drivers/STM32F1xx_HAL_Driver/Inc/stm32f1xx_ll_bus.h ****   CLEAR_BIT(RCC->AHBRSTR, Periphs);
 379:Drivers/STM32F1xx_HAL_Driver/Inc/stm32f1xx_ll_bus.h **** }
 380:Drivers/STM32F1xx_HAL_Driver/Inc/stm32f1xx_ll_bus.h **** #endif /* RCC_AHBRSTR_SUPPORT */
 381:Drivers/STM32F1xx_HAL_Driver/Inc/stm32f1xx_ll_bus.h **** 
 382:Drivers/STM32F1xx_HAL_Driver/Inc/stm32f1xx_ll_bus.h **** /**
 383:Drivers/STM32F1xx_HAL_Driver/Inc/stm32f1xx_ll_bus.h ****   * @}
 384:Drivers/STM32F1xx_HAL_Driver/Inc/stm32f1xx_ll_bus.h ****   */
 385:Drivers/STM32F1xx_HAL_Driver/Inc/stm32f1xx_ll_bus.h **** 
 386:Drivers/STM32F1xx_HAL_Driver/Inc/stm32f1xx_ll_bus.h **** /** @defgroup BUS_LL_EF_APB1 APB1
 387:Drivers/STM32F1xx_HAL_Driver/Inc/stm32f1xx_ll_bus.h ****   * @{
 388:Drivers/STM32F1xx_HAL_Driver/Inc/stm32f1xx_ll_bus.h ****   */
 389:Drivers/STM32F1xx_HAL_Driver/Inc/stm32f1xx_ll_bus.h **** 
 390:Drivers/STM32F1xx_HAL_Driver/Inc/stm32f1xx_ll_bus.h **** /**
 391:Drivers/STM32F1xx_HAL_Driver/Inc/stm32f1xx_ll_bus.h ****   * @brief  Enable APB1 peripherals clock.
 392:Drivers/STM32F1xx_HAL_Driver/Inc/stm32f1xx_ll_bus.h ****   * @rmtoll APB1ENR      BKPEN         LL_APB1_GRP1_EnableClock\n
 393:Drivers/STM32F1xx_HAL_Driver/Inc/stm32f1xx_ll_bus.h ****   *         APB1ENR      CAN1EN        LL_APB1_GRP1_EnableClock\n
 394:Drivers/STM32F1xx_HAL_Driver/Inc/stm32f1xx_ll_bus.h ****   *         APB1ENR      CAN2EN        LL_APB1_GRP1_EnableClock\n
 395:Drivers/STM32F1xx_HAL_Driver/Inc/stm32f1xx_ll_bus.h ****   *         APB1ENR      CECEN         LL_APB1_GRP1_EnableClock\n
 396:Drivers/STM32F1xx_HAL_Driver/Inc/stm32f1xx_ll_bus.h ****   *         APB1ENR      DACEN         LL_APB1_GRP1_EnableClock\n
 397:Drivers/STM32F1xx_HAL_Driver/Inc/stm32f1xx_ll_bus.h ****   *         APB1ENR      I2C1EN        LL_APB1_GRP1_EnableClock\n
 398:Drivers/STM32F1xx_HAL_Driver/Inc/stm32f1xx_ll_bus.h ****   *         APB1ENR      I2C2EN        LL_APB1_GRP1_EnableClock\n
 399:Drivers/STM32F1xx_HAL_Driver/Inc/stm32f1xx_ll_bus.h ****   *         APB1ENR      PWREN         LL_APB1_GRP1_EnableClock\n
 400:Drivers/STM32F1xx_HAL_Driver/Inc/stm32f1xx_ll_bus.h ****   *         APB1ENR      SPI2EN        LL_APB1_GRP1_EnableClock\n
 401:Drivers/STM32F1xx_HAL_Driver/Inc/stm32f1xx_ll_bus.h ****   *         APB1ENR      SPI3EN        LL_APB1_GRP1_EnableClock\n
 402:Drivers/STM32F1xx_HAL_Driver/Inc/stm32f1xx_ll_bus.h ****   *         APB1ENR      TIM12EN       LL_APB1_GRP1_EnableClock\n
 403:Drivers/STM32F1xx_HAL_Driver/Inc/stm32f1xx_ll_bus.h ****   *         APB1ENR      TIM13EN       LL_APB1_GRP1_EnableClock\n
 404:Drivers/STM32F1xx_HAL_Driver/Inc/stm32f1xx_ll_bus.h ****   *         APB1ENR      TIM14EN       LL_APB1_GRP1_EnableClock\n
 405:Drivers/STM32F1xx_HAL_Driver/Inc/stm32f1xx_ll_bus.h ****   *         APB1ENR      TIM2EN        LL_APB1_GRP1_EnableClock\n
 406:Drivers/STM32F1xx_HAL_Driver/Inc/stm32f1xx_ll_bus.h ****   *         APB1ENR      TIM3EN        LL_APB1_GRP1_EnableClock\n
 407:Drivers/STM32F1xx_HAL_Driver/Inc/stm32f1xx_ll_bus.h ****   *         APB1ENR      TIM4EN        LL_APB1_GRP1_EnableClock\n
 408:Drivers/STM32F1xx_HAL_Driver/Inc/stm32f1xx_ll_bus.h ****   *         APB1ENR      TIM5EN        LL_APB1_GRP1_EnableClock\n
 409:Drivers/STM32F1xx_HAL_Driver/Inc/stm32f1xx_ll_bus.h ****   *         APB1ENR      TIM6EN        LL_APB1_GRP1_EnableClock\n
 410:Drivers/STM32F1xx_HAL_Driver/Inc/stm32f1xx_ll_bus.h ****   *         APB1ENR      TIM7EN        LL_APB1_GRP1_EnableClock\n
 411:Drivers/STM32F1xx_HAL_Driver/Inc/stm32f1xx_ll_bus.h ****   *         APB1ENR      UART4EN       LL_APB1_GRP1_EnableClock\n
 412:Drivers/STM32F1xx_HAL_Driver/Inc/stm32f1xx_ll_bus.h ****   *         APB1ENR      UART5EN       LL_APB1_GRP1_EnableClock\n
 413:Drivers/STM32F1xx_HAL_Driver/Inc/stm32f1xx_ll_bus.h ****   *         APB1ENR      USART2EN      LL_APB1_GRP1_EnableClock\n
 414:Drivers/STM32F1xx_HAL_Driver/Inc/stm32f1xx_ll_bus.h ****   *         APB1ENR      USART3EN      LL_APB1_GRP1_EnableClock\n
 415:Drivers/STM32F1xx_HAL_Driver/Inc/stm32f1xx_ll_bus.h ****   *         APB1ENR      USBEN         LL_APB1_GRP1_EnableClock\n
 416:Drivers/STM32F1xx_HAL_Driver/Inc/stm32f1xx_ll_bus.h ****   *         APB1ENR      WWDGEN        LL_APB1_GRP1_EnableClock
ARM GAS  /tmp/ccBpuOwB.s 			page 10


 417:Drivers/STM32F1xx_HAL_Driver/Inc/stm32f1xx_ll_bus.h ****   * @param  Periphs This parameter can be a combination of the following values:
 418:Drivers/STM32F1xx_HAL_Driver/Inc/stm32f1xx_ll_bus.h ****   *         @arg @ref LL_APB1_GRP1_PERIPH_BKP
 419:Drivers/STM32F1xx_HAL_Driver/Inc/stm32f1xx_ll_bus.h ****   *         @arg @ref LL_APB1_GRP1_PERIPH_CAN1 (*)
 420:Drivers/STM32F1xx_HAL_Driver/Inc/stm32f1xx_ll_bus.h ****   *         @arg @ref LL_APB1_GRP1_PERIPH_CAN2 (*)
 421:Drivers/STM32F1xx_HAL_Driver/Inc/stm32f1xx_ll_bus.h ****   *         @arg @ref LL_APB1_GRP1_PERIPH_CEC (*)
 422:Drivers/STM32F1xx_HAL_Driver/Inc/stm32f1xx_ll_bus.h ****   *         @arg @ref LL_APB1_GRP1_PERIPH_DAC1 (*)
 423:Drivers/STM32F1xx_HAL_Driver/Inc/stm32f1xx_ll_bus.h ****   *         @arg @ref LL_APB1_GRP1_PERIPH_I2C1
 424:Drivers/STM32F1xx_HAL_Driver/Inc/stm32f1xx_ll_bus.h ****   *         @arg @ref LL_APB1_GRP1_PERIPH_I2C2 (*)
 425:Drivers/STM32F1xx_HAL_Driver/Inc/stm32f1xx_ll_bus.h ****   *         @arg @ref LL_APB1_GRP1_PERIPH_PWR
 426:Drivers/STM32F1xx_HAL_Driver/Inc/stm32f1xx_ll_bus.h ****   *         @arg @ref LL_APB1_GRP1_PERIPH_SPI2 (*)
 427:Drivers/STM32F1xx_HAL_Driver/Inc/stm32f1xx_ll_bus.h ****   *         @arg @ref LL_APB1_GRP1_PERIPH_SPI3 (*)
 428:Drivers/STM32F1xx_HAL_Driver/Inc/stm32f1xx_ll_bus.h ****   *         @arg @ref LL_APB1_GRP1_PERIPH_TIM12 (*)
 429:Drivers/STM32F1xx_HAL_Driver/Inc/stm32f1xx_ll_bus.h ****   *         @arg @ref LL_APB1_GRP1_PERIPH_TIM13 (*)
 430:Drivers/STM32F1xx_HAL_Driver/Inc/stm32f1xx_ll_bus.h ****   *         @arg @ref LL_APB1_GRP1_PERIPH_TIM14 (*)
 431:Drivers/STM32F1xx_HAL_Driver/Inc/stm32f1xx_ll_bus.h ****   *         @arg @ref LL_APB1_GRP1_PERIPH_TIM2
 432:Drivers/STM32F1xx_HAL_Driver/Inc/stm32f1xx_ll_bus.h ****   *         @arg @ref LL_APB1_GRP1_PERIPH_TIM3
 433:Drivers/STM32F1xx_HAL_Driver/Inc/stm32f1xx_ll_bus.h ****   *         @arg @ref LL_APB1_GRP1_PERIPH_TIM4 (*)
 434:Drivers/STM32F1xx_HAL_Driver/Inc/stm32f1xx_ll_bus.h ****   *         @arg @ref LL_APB1_GRP1_PERIPH_TIM5 (*)
 435:Drivers/STM32F1xx_HAL_Driver/Inc/stm32f1xx_ll_bus.h ****   *         @arg @ref LL_APB1_GRP1_PERIPH_TIM6 (*)
 436:Drivers/STM32F1xx_HAL_Driver/Inc/stm32f1xx_ll_bus.h ****   *         @arg @ref LL_APB1_GRP1_PERIPH_TIM7 (*)
 437:Drivers/STM32F1xx_HAL_Driver/Inc/stm32f1xx_ll_bus.h ****   *         @arg @ref LL_APB1_GRP1_PERIPH_UART4 (*)
 438:Drivers/STM32F1xx_HAL_Driver/Inc/stm32f1xx_ll_bus.h ****   *         @arg @ref LL_APB1_GRP1_PERIPH_UART5 (*)
 439:Drivers/STM32F1xx_HAL_Driver/Inc/stm32f1xx_ll_bus.h ****   *         @arg @ref LL_APB1_GRP1_PERIPH_USART2
 440:Drivers/STM32F1xx_HAL_Driver/Inc/stm32f1xx_ll_bus.h ****   *         @arg @ref LL_APB1_GRP1_PERIPH_USART3 (*)
 441:Drivers/STM32F1xx_HAL_Driver/Inc/stm32f1xx_ll_bus.h ****   *         @arg @ref LL_APB1_GRP1_PERIPH_USB (*)
 442:Drivers/STM32F1xx_HAL_Driver/Inc/stm32f1xx_ll_bus.h ****   *         @arg @ref LL_APB1_GRP1_PERIPH_WWDG
 443:Drivers/STM32F1xx_HAL_Driver/Inc/stm32f1xx_ll_bus.h ****   *
 444:Drivers/STM32F1xx_HAL_Driver/Inc/stm32f1xx_ll_bus.h ****   *         (*) value not defined in all devices.
 445:Drivers/STM32F1xx_HAL_Driver/Inc/stm32f1xx_ll_bus.h ****   * @retval None
 446:Drivers/STM32F1xx_HAL_Driver/Inc/stm32f1xx_ll_bus.h **** */
 447:Drivers/STM32F1xx_HAL_Driver/Inc/stm32f1xx_ll_bus.h **** __STATIC_INLINE void LL_APB1_GRP1_EnableClock(uint32_t Periphs)
 448:Drivers/STM32F1xx_HAL_Driver/Inc/stm32f1xx_ll_bus.h **** {
 449:Drivers/STM32F1xx_HAL_Driver/Inc/stm32f1xx_ll_bus.h ****   __IO uint32_t tmpreg;
 450:Drivers/STM32F1xx_HAL_Driver/Inc/stm32f1xx_ll_bus.h ****   SET_BIT(RCC->APB1ENR, Periphs);
 451:Drivers/STM32F1xx_HAL_Driver/Inc/stm32f1xx_ll_bus.h ****   /* Delay after an RCC peripheral clock enabling */
 452:Drivers/STM32F1xx_HAL_Driver/Inc/stm32f1xx_ll_bus.h ****   tmpreg = READ_BIT(RCC->APB1ENR, Periphs);
 453:Drivers/STM32F1xx_HAL_Driver/Inc/stm32f1xx_ll_bus.h ****   (void)tmpreg;
 454:Drivers/STM32F1xx_HAL_Driver/Inc/stm32f1xx_ll_bus.h **** }
 455:Drivers/STM32F1xx_HAL_Driver/Inc/stm32f1xx_ll_bus.h **** 
 456:Drivers/STM32F1xx_HAL_Driver/Inc/stm32f1xx_ll_bus.h **** /**
 457:Drivers/STM32F1xx_HAL_Driver/Inc/stm32f1xx_ll_bus.h ****   * @brief  Check if APB1 peripheral clock is enabled or not
 458:Drivers/STM32F1xx_HAL_Driver/Inc/stm32f1xx_ll_bus.h ****   * @rmtoll APB1ENR      BKPEN         LL_APB1_GRP1_IsEnabledClock\n
 459:Drivers/STM32F1xx_HAL_Driver/Inc/stm32f1xx_ll_bus.h ****   *         APB1ENR      CAN1EN        LL_APB1_GRP1_IsEnabledClock\n
 460:Drivers/STM32F1xx_HAL_Driver/Inc/stm32f1xx_ll_bus.h ****   *         APB1ENR      CAN2EN        LL_APB1_GRP1_IsEnabledClock\n
 461:Drivers/STM32F1xx_HAL_Driver/Inc/stm32f1xx_ll_bus.h ****   *         APB1ENR      CECEN         LL_APB1_GRP1_IsEnabledClock\n
 462:Drivers/STM32F1xx_HAL_Driver/Inc/stm32f1xx_ll_bus.h ****   *         APB1ENR      DACEN         LL_APB1_GRP1_IsEnabledClock\n
 463:Drivers/STM32F1xx_HAL_Driver/Inc/stm32f1xx_ll_bus.h ****   *         APB1ENR      I2C1EN        LL_APB1_GRP1_IsEnabledClock\n
 464:Drivers/STM32F1xx_HAL_Driver/Inc/stm32f1xx_ll_bus.h ****   *         APB1ENR      I2C2EN        LL_APB1_GRP1_IsEnabledClock\n
 465:Drivers/STM32F1xx_HAL_Driver/Inc/stm32f1xx_ll_bus.h ****   *         APB1ENR      PWREN         LL_APB1_GRP1_IsEnabledClock\n
 466:Drivers/STM32F1xx_HAL_Driver/Inc/stm32f1xx_ll_bus.h ****   *         APB1ENR      SPI2EN        LL_APB1_GRP1_IsEnabledClock\n
 467:Drivers/STM32F1xx_HAL_Driver/Inc/stm32f1xx_ll_bus.h ****   *         APB1ENR      SPI3EN        LL_APB1_GRP1_IsEnabledClock\n
 468:Drivers/STM32F1xx_HAL_Driver/Inc/stm32f1xx_ll_bus.h ****   *         APB1ENR      TIM12EN       LL_APB1_GRP1_IsEnabledClock\n
 469:Drivers/STM32F1xx_HAL_Driver/Inc/stm32f1xx_ll_bus.h ****   *         APB1ENR      TIM13EN       LL_APB1_GRP1_IsEnabledClock\n
 470:Drivers/STM32F1xx_HAL_Driver/Inc/stm32f1xx_ll_bus.h ****   *         APB1ENR      TIM14EN       LL_APB1_GRP1_IsEnabledClock\n
 471:Drivers/STM32F1xx_HAL_Driver/Inc/stm32f1xx_ll_bus.h ****   *         APB1ENR      TIM2EN        LL_APB1_GRP1_IsEnabledClock\n
 472:Drivers/STM32F1xx_HAL_Driver/Inc/stm32f1xx_ll_bus.h ****   *         APB1ENR      TIM3EN        LL_APB1_GRP1_IsEnabledClock\n
 473:Drivers/STM32F1xx_HAL_Driver/Inc/stm32f1xx_ll_bus.h ****   *         APB1ENR      TIM4EN        LL_APB1_GRP1_IsEnabledClock\n
ARM GAS  /tmp/ccBpuOwB.s 			page 11


 474:Drivers/STM32F1xx_HAL_Driver/Inc/stm32f1xx_ll_bus.h ****   *         APB1ENR      TIM5EN        LL_APB1_GRP1_IsEnabledClock\n
 475:Drivers/STM32F1xx_HAL_Driver/Inc/stm32f1xx_ll_bus.h ****   *         APB1ENR      TIM6EN        LL_APB1_GRP1_IsEnabledClock\n
 476:Drivers/STM32F1xx_HAL_Driver/Inc/stm32f1xx_ll_bus.h ****   *         APB1ENR      TIM7EN        LL_APB1_GRP1_IsEnabledClock\n
 477:Drivers/STM32F1xx_HAL_Driver/Inc/stm32f1xx_ll_bus.h ****   *         APB1ENR      UART4EN       LL_APB1_GRP1_IsEnabledClock\n
 478:Drivers/STM32F1xx_HAL_Driver/Inc/stm32f1xx_ll_bus.h ****   *         APB1ENR      UART5EN       LL_APB1_GRP1_IsEnabledClock\n
 479:Drivers/STM32F1xx_HAL_Driver/Inc/stm32f1xx_ll_bus.h ****   *         APB1ENR      USART2EN      LL_APB1_GRP1_IsEnabledClock\n
 480:Drivers/STM32F1xx_HAL_Driver/Inc/stm32f1xx_ll_bus.h ****   *         APB1ENR      USART3EN      LL_APB1_GRP1_IsEnabledClock\n
 481:Drivers/STM32F1xx_HAL_Driver/Inc/stm32f1xx_ll_bus.h ****   *         APB1ENR      USBEN         LL_APB1_GRP1_IsEnabledClock\n
 482:Drivers/STM32F1xx_HAL_Driver/Inc/stm32f1xx_ll_bus.h ****   *         APB1ENR      WWDGEN        LL_APB1_GRP1_IsEnabledClock
 483:Drivers/STM32F1xx_HAL_Driver/Inc/stm32f1xx_ll_bus.h ****   * @param  Periphs This parameter can be a combination of the following values:
 484:Drivers/STM32F1xx_HAL_Driver/Inc/stm32f1xx_ll_bus.h ****   *         @arg @ref LL_APB1_GRP1_PERIPH_BKP
 485:Drivers/STM32F1xx_HAL_Driver/Inc/stm32f1xx_ll_bus.h ****   *         @arg @ref LL_APB1_GRP1_PERIPH_CAN1 (*)
 486:Drivers/STM32F1xx_HAL_Driver/Inc/stm32f1xx_ll_bus.h ****   *         @arg @ref LL_APB1_GRP1_PERIPH_CAN2 (*)
 487:Drivers/STM32F1xx_HAL_Driver/Inc/stm32f1xx_ll_bus.h ****   *         @arg @ref LL_APB1_GRP1_PERIPH_CEC (*)
 488:Drivers/STM32F1xx_HAL_Driver/Inc/stm32f1xx_ll_bus.h ****   *         @arg @ref LL_APB1_GRP1_PERIPH_DAC1 (*)
 489:Drivers/STM32F1xx_HAL_Driver/Inc/stm32f1xx_ll_bus.h ****   *         @arg @ref LL_APB1_GRP1_PERIPH_I2C1
 490:Drivers/STM32F1xx_HAL_Driver/Inc/stm32f1xx_ll_bus.h ****   *         @arg @ref LL_APB1_GRP1_PERIPH_I2C2 (*)
 491:Drivers/STM32F1xx_HAL_Driver/Inc/stm32f1xx_ll_bus.h ****   *         @arg @ref LL_APB1_GRP1_PERIPH_PWR
 492:Drivers/STM32F1xx_HAL_Driver/Inc/stm32f1xx_ll_bus.h ****   *         @arg @ref LL_APB1_GRP1_PERIPH_SPI2 (*)
 493:Drivers/STM32F1xx_HAL_Driver/Inc/stm32f1xx_ll_bus.h ****   *         @arg @ref LL_APB1_GRP1_PERIPH_SPI3 (*)
 494:Drivers/STM32F1xx_HAL_Driver/Inc/stm32f1xx_ll_bus.h ****   *         @arg @ref LL_APB1_GRP1_PERIPH_TIM12 (*)
 495:Drivers/STM32F1xx_HAL_Driver/Inc/stm32f1xx_ll_bus.h ****   *         @arg @ref LL_APB1_GRP1_PERIPH_TIM13 (*)
 496:Drivers/STM32F1xx_HAL_Driver/Inc/stm32f1xx_ll_bus.h ****   *         @arg @ref LL_APB1_GRP1_PERIPH_TIM14 (*)
 497:Drivers/STM32F1xx_HAL_Driver/Inc/stm32f1xx_ll_bus.h ****   *         @arg @ref LL_APB1_GRP1_PERIPH_TIM2
 498:Drivers/STM32F1xx_HAL_Driver/Inc/stm32f1xx_ll_bus.h ****   *         @arg @ref LL_APB1_GRP1_PERIPH_TIM3
 499:Drivers/STM32F1xx_HAL_Driver/Inc/stm32f1xx_ll_bus.h ****   *         @arg @ref LL_APB1_GRP1_PERIPH_TIM4 (*)
 500:Drivers/STM32F1xx_HAL_Driver/Inc/stm32f1xx_ll_bus.h ****   *         @arg @ref LL_APB1_GRP1_PERIPH_TIM5 (*)
 501:Drivers/STM32F1xx_HAL_Driver/Inc/stm32f1xx_ll_bus.h ****   *         @arg @ref LL_APB1_GRP1_PERIPH_TIM6 (*)
 502:Drivers/STM32F1xx_HAL_Driver/Inc/stm32f1xx_ll_bus.h ****   *         @arg @ref LL_APB1_GRP1_PERIPH_TIM7 (*)
 503:Drivers/STM32F1xx_HAL_Driver/Inc/stm32f1xx_ll_bus.h ****   *         @arg @ref LL_APB1_GRP1_PERIPH_UART4 (*)
 504:Drivers/STM32F1xx_HAL_Driver/Inc/stm32f1xx_ll_bus.h ****   *         @arg @ref LL_APB1_GRP1_PERIPH_UART5 (*)
 505:Drivers/STM32F1xx_HAL_Driver/Inc/stm32f1xx_ll_bus.h ****   *         @arg @ref LL_APB1_GRP1_PERIPH_USART2
 506:Drivers/STM32F1xx_HAL_Driver/Inc/stm32f1xx_ll_bus.h ****   *         @arg @ref LL_APB1_GRP1_PERIPH_USART3 (*)
 507:Drivers/STM32F1xx_HAL_Driver/Inc/stm32f1xx_ll_bus.h ****   *         @arg @ref LL_APB1_GRP1_PERIPH_USB (*)
 508:Drivers/STM32F1xx_HAL_Driver/Inc/stm32f1xx_ll_bus.h ****   *         @arg @ref LL_APB1_GRP1_PERIPH_WWDG
 509:Drivers/STM32F1xx_HAL_Driver/Inc/stm32f1xx_ll_bus.h ****   *
 510:Drivers/STM32F1xx_HAL_Driver/Inc/stm32f1xx_ll_bus.h ****   *         (*) value not defined in all devices.
 511:Drivers/STM32F1xx_HAL_Driver/Inc/stm32f1xx_ll_bus.h ****   * @retval State of Periphs (1 or 0).
 512:Drivers/STM32F1xx_HAL_Driver/Inc/stm32f1xx_ll_bus.h **** */
 513:Drivers/STM32F1xx_HAL_Driver/Inc/stm32f1xx_ll_bus.h **** __STATIC_INLINE uint32_t LL_APB1_GRP1_IsEnabledClock(uint32_t Periphs)
 514:Drivers/STM32F1xx_HAL_Driver/Inc/stm32f1xx_ll_bus.h **** {
 515:Drivers/STM32F1xx_HAL_Driver/Inc/stm32f1xx_ll_bus.h ****   return (READ_BIT(RCC->APB1ENR, Periphs) == Periphs);
 516:Drivers/STM32F1xx_HAL_Driver/Inc/stm32f1xx_ll_bus.h **** }
 517:Drivers/STM32F1xx_HAL_Driver/Inc/stm32f1xx_ll_bus.h **** 
 518:Drivers/STM32F1xx_HAL_Driver/Inc/stm32f1xx_ll_bus.h **** /**
 519:Drivers/STM32F1xx_HAL_Driver/Inc/stm32f1xx_ll_bus.h ****   * @brief  Disable APB1 peripherals clock.
 520:Drivers/STM32F1xx_HAL_Driver/Inc/stm32f1xx_ll_bus.h ****   * @rmtoll APB1ENR      BKPEN         LL_APB1_GRP1_DisableClock\n
 521:Drivers/STM32F1xx_HAL_Driver/Inc/stm32f1xx_ll_bus.h ****   *         APB1ENR      CAN1EN        LL_APB1_GRP1_DisableClock\n
 522:Drivers/STM32F1xx_HAL_Driver/Inc/stm32f1xx_ll_bus.h ****   *         APB1ENR      CAN2EN        LL_APB1_GRP1_DisableClock\n
 523:Drivers/STM32F1xx_HAL_Driver/Inc/stm32f1xx_ll_bus.h ****   *         APB1ENR      CECEN         LL_APB1_GRP1_DisableClock\n
 524:Drivers/STM32F1xx_HAL_Driver/Inc/stm32f1xx_ll_bus.h ****   *         APB1ENR      DACEN         LL_APB1_GRP1_DisableClock\n
 525:Drivers/STM32F1xx_HAL_Driver/Inc/stm32f1xx_ll_bus.h ****   *         APB1ENR      I2C1EN        LL_APB1_GRP1_DisableClock\n
 526:Drivers/STM32F1xx_HAL_Driver/Inc/stm32f1xx_ll_bus.h ****   *         APB1ENR      I2C2EN        LL_APB1_GRP1_DisableClock\n
 527:Drivers/STM32F1xx_HAL_Driver/Inc/stm32f1xx_ll_bus.h ****   *         APB1ENR      PWREN         LL_APB1_GRP1_DisableClock\n
 528:Drivers/STM32F1xx_HAL_Driver/Inc/stm32f1xx_ll_bus.h ****   *         APB1ENR      SPI2EN        LL_APB1_GRP1_DisableClock\n
 529:Drivers/STM32F1xx_HAL_Driver/Inc/stm32f1xx_ll_bus.h ****   *         APB1ENR      SPI3EN        LL_APB1_GRP1_DisableClock\n
 530:Drivers/STM32F1xx_HAL_Driver/Inc/stm32f1xx_ll_bus.h ****   *         APB1ENR      TIM12EN       LL_APB1_GRP1_DisableClock\n
ARM GAS  /tmp/ccBpuOwB.s 			page 12


 531:Drivers/STM32F1xx_HAL_Driver/Inc/stm32f1xx_ll_bus.h ****   *         APB1ENR      TIM13EN       LL_APB1_GRP1_DisableClock\n
 532:Drivers/STM32F1xx_HAL_Driver/Inc/stm32f1xx_ll_bus.h ****   *         APB1ENR      TIM14EN       LL_APB1_GRP1_DisableClock\n
 533:Drivers/STM32F1xx_HAL_Driver/Inc/stm32f1xx_ll_bus.h ****   *         APB1ENR      TIM2EN        LL_APB1_GRP1_DisableClock\n
 534:Drivers/STM32F1xx_HAL_Driver/Inc/stm32f1xx_ll_bus.h ****   *         APB1ENR      TIM3EN        LL_APB1_GRP1_DisableClock\n
 535:Drivers/STM32F1xx_HAL_Driver/Inc/stm32f1xx_ll_bus.h ****   *         APB1ENR      TIM4EN        LL_APB1_GRP1_DisableClock\n
 536:Drivers/STM32F1xx_HAL_Driver/Inc/stm32f1xx_ll_bus.h ****   *         APB1ENR      TIM5EN        LL_APB1_GRP1_DisableClock\n
 537:Drivers/STM32F1xx_HAL_Driver/Inc/stm32f1xx_ll_bus.h ****   *         APB1ENR      TIM6EN        LL_APB1_GRP1_DisableClock\n
 538:Drivers/STM32F1xx_HAL_Driver/Inc/stm32f1xx_ll_bus.h ****   *         APB1ENR      TIM7EN        LL_APB1_GRP1_DisableClock\n
 539:Drivers/STM32F1xx_HAL_Driver/Inc/stm32f1xx_ll_bus.h ****   *         APB1ENR      UART4EN       LL_APB1_GRP1_DisableClock\n
 540:Drivers/STM32F1xx_HAL_Driver/Inc/stm32f1xx_ll_bus.h ****   *         APB1ENR      UART5EN       LL_APB1_GRP1_DisableClock\n
 541:Drivers/STM32F1xx_HAL_Driver/Inc/stm32f1xx_ll_bus.h ****   *         APB1ENR      USART2EN      LL_APB1_GRP1_DisableClock\n
 542:Drivers/STM32F1xx_HAL_Driver/Inc/stm32f1xx_ll_bus.h ****   *         APB1ENR      USART3EN      LL_APB1_GRP1_DisableClock\n
 543:Drivers/STM32F1xx_HAL_Driver/Inc/stm32f1xx_ll_bus.h ****   *         APB1ENR      USBEN         LL_APB1_GRP1_DisableClock\n
 544:Drivers/STM32F1xx_HAL_Driver/Inc/stm32f1xx_ll_bus.h ****   *         APB1ENR      WWDGEN        LL_APB1_GRP1_DisableClock
 545:Drivers/STM32F1xx_HAL_Driver/Inc/stm32f1xx_ll_bus.h ****   * @param  Periphs This parameter can be a combination of the following values:
 546:Drivers/STM32F1xx_HAL_Driver/Inc/stm32f1xx_ll_bus.h ****   *         @arg @ref LL_APB1_GRP1_PERIPH_BKP
 547:Drivers/STM32F1xx_HAL_Driver/Inc/stm32f1xx_ll_bus.h ****   *         @arg @ref LL_APB1_GRP1_PERIPH_CAN1 (*)
 548:Drivers/STM32F1xx_HAL_Driver/Inc/stm32f1xx_ll_bus.h ****   *         @arg @ref LL_APB1_GRP1_PERIPH_CAN2 (*)
 549:Drivers/STM32F1xx_HAL_Driver/Inc/stm32f1xx_ll_bus.h ****   *         @arg @ref LL_APB1_GRP1_PERIPH_CEC (*)
 550:Drivers/STM32F1xx_HAL_Driver/Inc/stm32f1xx_ll_bus.h ****   *         @arg @ref LL_APB1_GRP1_PERIPH_DAC1 (*)
 551:Drivers/STM32F1xx_HAL_Driver/Inc/stm32f1xx_ll_bus.h ****   *         @arg @ref LL_APB1_GRP1_PERIPH_I2C1
 552:Drivers/STM32F1xx_HAL_Driver/Inc/stm32f1xx_ll_bus.h ****   *         @arg @ref LL_APB1_GRP1_PERIPH_I2C2 (*)
 553:Drivers/STM32F1xx_HAL_Driver/Inc/stm32f1xx_ll_bus.h ****   *         @arg @ref LL_APB1_GRP1_PERIPH_PWR
 554:Drivers/STM32F1xx_HAL_Driver/Inc/stm32f1xx_ll_bus.h ****   *         @arg @ref LL_APB1_GRP1_PERIPH_SPI2 (*)
 555:Drivers/STM32F1xx_HAL_Driver/Inc/stm32f1xx_ll_bus.h ****   *         @arg @ref LL_APB1_GRP1_PERIPH_SPI3 (*)
 556:Drivers/STM32F1xx_HAL_Driver/Inc/stm32f1xx_ll_bus.h ****   *         @arg @ref LL_APB1_GRP1_PERIPH_TIM12 (*)
 557:Drivers/STM32F1xx_HAL_Driver/Inc/stm32f1xx_ll_bus.h ****   *         @arg @ref LL_APB1_GRP1_PERIPH_TIM13 (*)
 558:Drivers/STM32F1xx_HAL_Driver/Inc/stm32f1xx_ll_bus.h ****   *         @arg @ref LL_APB1_GRP1_PERIPH_TIM14 (*)
 559:Drivers/STM32F1xx_HAL_Driver/Inc/stm32f1xx_ll_bus.h ****   *         @arg @ref LL_APB1_GRP1_PERIPH_TIM2
 560:Drivers/STM32F1xx_HAL_Driver/Inc/stm32f1xx_ll_bus.h ****   *         @arg @ref LL_APB1_GRP1_PERIPH_TIM3
 561:Drivers/STM32F1xx_HAL_Driver/Inc/stm32f1xx_ll_bus.h ****   *         @arg @ref LL_APB1_GRP1_PERIPH_TIM4 (*)
 562:Drivers/STM32F1xx_HAL_Driver/Inc/stm32f1xx_ll_bus.h ****   *         @arg @ref LL_APB1_GRP1_PERIPH_TIM5 (*)
 563:Drivers/STM32F1xx_HAL_Driver/Inc/stm32f1xx_ll_bus.h ****   *         @arg @ref LL_APB1_GRP1_PERIPH_TIM6 (*)
 564:Drivers/STM32F1xx_HAL_Driver/Inc/stm32f1xx_ll_bus.h ****   *         @arg @ref LL_APB1_GRP1_PERIPH_TIM7 (*)
 565:Drivers/STM32F1xx_HAL_Driver/Inc/stm32f1xx_ll_bus.h ****   *         @arg @ref LL_APB1_GRP1_PERIPH_UART4 (*)
 566:Drivers/STM32F1xx_HAL_Driver/Inc/stm32f1xx_ll_bus.h ****   *         @arg @ref LL_APB1_GRP1_PERIPH_UART5 (*)
 567:Drivers/STM32F1xx_HAL_Driver/Inc/stm32f1xx_ll_bus.h ****   *         @arg @ref LL_APB1_GRP1_PERIPH_USART2
 568:Drivers/STM32F1xx_HAL_Driver/Inc/stm32f1xx_ll_bus.h ****   *         @arg @ref LL_APB1_GRP1_PERIPH_USART3 (*)
 569:Drivers/STM32F1xx_HAL_Driver/Inc/stm32f1xx_ll_bus.h ****   *         @arg @ref LL_APB1_GRP1_PERIPH_USB (*)
 570:Drivers/STM32F1xx_HAL_Driver/Inc/stm32f1xx_ll_bus.h ****   *         @arg @ref LL_APB1_GRP1_PERIPH_WWDG
 571:Drivers/STM32F1xx_HAL_Driver/Inc/stm32f1xx_ll_bus.h ****   *
 572:Drivers/STM32F1xx_HAL_Driver/Inc/stm32f1xx_ll_bus.h ****   *         (*) value not defined in all devices.
 573:Drivers/STM32F1xx_HAL_Driver/Inc/stm32f1xx_ll_bus.h ****   * @retval None
 574:Drivers/STM32F1xx_HAL_Driver/Inc/stm32f1xx_ll_bus.h **** */
 575:Drivers/STM32F1xx_HAL_Driver/Inc/stm32f1xx_ll_bus.h **** __STATIC_INLINE void LL_APB1_GRP1_DisableClock(uint32_t Periphs)
 576:Drivers/STM32F1xx_HAL_Driver/Inc/stm32f1xx_ll_bus.h **** {
 577:Drivers/STM32F1xx_HAL_Driver/Inc/stm32f1xx_ll_bus.h ****   CLEAR_BIT(RCC->APB1ENR, Periphs);
 578:Drivers/STM32F1xx_HAL_Driver/Inc/stm32f1xx_ll_bus.h **** }
 579:Drivers/STM32F1xx_HAL_Driver/Inc/stm32f1xx_ll_bus.h **** 
 580:Drivers/STM32F1xx_HAL_Driver/Inc/stm32f1xx_ll_bus.h **** /**
 581:Drivers/STM32F1xx_HAL_Driver/Inc/stm32f1xx_ll_bus.h ****   * @brief  Force APB1 peripherals reset.
 582:Drivers/STM32F1xx_HAL_Driver/Inc/stm32f1xx_ll_bus.h ****   * @rmtoll APB1RSTR     BKPRST        LL_APB1_GRP1_ForceReset\n
 583:Drivers/STM32F1xx_HAL_Driver/Inc/stm32f1xx_ll_bus.h ****   *         APB1RSTR     CAN1RST       LL_APB1_GRP1_ForceReset\n
 584:Drivers/STM32F1xx_HAL_Driver/Inc/stm32f1xx_ll_bus.h ****   *         APB1RSTR     CAN2RST       LL_APB1_GRP1_ForceReset\n
 585:Drivers/STM32F1xx_HAL_Driver/Inc/stm32f1xx_ll_bus.h ****   *         APB1RSTR     CECRST        LL_APB1_GRP1_ForceReset\n
 586:Drivers/STM32F1xx_HAL_Driver/Inc/stm32f1xx_ll_bus.h ****   *         APB1RSTR     DACRST        LL_APB1_GRP1_ForceReset\n
 587:Drivers/STM32F1xx_HAL_Driver/Inc/stm32f1xx_ll_bus.h ****   *         APB1RSTR     I2C1RST       LL_APB1_GRP1_ForceReset\n
ARM GAS  /tmp/ccBpuOwB.s 			page 13


 588:Drivers/STM32F1xx_HAL_Driver/Inc/stm32f1xx_ll_bus.h ****   *         APB1RSTR     I2C2RST       LL_APB1_GRP1_ForceReset\n
 589:Drivers/STM32F1xx_HAL_Driver/Inc/stm32f1xx_ll_bus.h ****   *         APB1RSTR     PWRRST        LL_APB1_GRP1_ForceReset\n
 590:Drivers/STM32F1xx_HAL_Driver/Inc/stm32f1xx_ll_bus.h ****   *         APB1RSTR     SPI2RST       LL_APB1_GRP1_ForceReset\n
 591:Drivers/STM32F1xx_HAL_Driver/Inc/stm32f1xx_ll_bus.h ****   *         APB1RSTR     SPI3RST       LL_APB1_GRP1_ForceReset\n
 592:Drivers/STM32F1xx_HAL_Driver/Inc/stm32f1xx_ll_bus.h ****   *         APB1RSTR     TIM12RST      LL_APB1_GRP1_ForceReset\n
 593:Drivers/STM32F1xx_HAL_Driver/Inc/stm32f1xx_ll_bus.h ****   *         APB1RSTR     TIM13RST      LL_APB1_GRP1_ForceReset\n
 594:Drivers/STM32F1xx_HAL_Driver/Inc/stm32f1xx_ll_bus.h ****   *         APB1RSTR     TIM14RST      LL_APB1_GRP1_ForceReset\n
 595:Drivers/STM32F1xx_HAL_Driver/Inc/stm32f1xx_ll_bus.h ****   *         APB1RSTR     TIM2RST       LL_APB1_GRP1_ForceReset\n
 596:Drivers/STM32F1xx_HAL_Driver/Inc/stm32f1xx_ll_bus.h ****   *         APB1RSTR     TIM3RST       LL_APB1_GRP1_ForceReset\n
 597:Drivers/STM32F1xx_HAL_Driver/Inc/stm32f1xx_ll_bus.h ****   *         APB1RSTR     TIM4RST       LL_APB1_GRP1_ForceReset\n
 598:Drivers/STM32F1xx_HAL_Driver/Inc/stm32f1xx_ll_bus.h ****   *         APB1RSTR     TIM5RST       LL_APB1_GRP1_ForceReset\n
 599:Drivers/STM32F1xx_HAL_Driver/Inc/stm32f1xx_ll_bus.h ****   *         APB1RSTR     TIM6RST       LL_APB1_GRP1_ForceReset\n
 600:Drivers/STM32F1xx_HAL_Driver/Inc/stm32f1xx_ll_bus.h ****   *         APB1RSTR     TIM7RST       LL_APB1_GRP1_ForceReset\n
 601:Drivers/STM32F1xx_HAL_Driver/Inc/stm32f1xx_ll_bus.h ****   *         APB1RSTR     UART4RST      LL_APB1_GRP1_ForceReset\n
 602:Drivers/STM32F1xx_HAL_Driver/Inc/stm32f1xx_ll_bus.h ****   *         APB1RSTR     UART5RST      LL_APB1_GRP1_ForceReset\n
 603:Drivers/STM32F1xx_HAL_Driver/Inc/stm32f1xx_ll_bus.h ****   *         APB1RSTR     USART2RST     LL_APB1_GRP1_ForceReset\n
 604:Drivers/STM32F1xx_HAL_Driver/Inc/stm32f1xx_ll_bus.h ****   *         APB1RSTR     USART3RST     LL_APB1_GRP1_ForceReset\n
 605:Drivers/STM32F1xx_HAL_Driver/Inc/stm32f1xx_ll_bus.h ****   *         APB1RSTR     USBRST        LL_APB1_GRP1_ForceReset\n
 606:Drivers/STM32F1xx_HAL_Driver/Inc/stm32f1xx_ll_bus.h ****   *         APB1RSTR     WWDGRST       LL_APB1_GRP1_ForceReset
 607:Drivers/STM32F1xx_HAL_Driver/Inc/stm32f1xx_ll_bus.h ****   * @param  Periphs This parameter can be a combination of the following values:
 608:Drivers/STM32F1xx_HAL_Driver/Inc/stm32f1xx_ll_bus.h ****   *         @arg @ref LL_APB1_GRP1_PERIPH_ALL
 609:Drivers/STM32F1xx_HAL_Driver/Inc/stm32f1xx_ll_bus.h ****   *         @arg @ref LL_APB1_GRP1_PERIPH_BKP
 610:Drivers/STM32F1xx_HAL_Driver/Inc/stm32f1xx_ll_bus.h ****   *         @arg @ref LL_APB1_GRP1_PERIPH_CAN1 (*)
 611:Drivers/STM32F1xx_HAL_Driver/Inc/stm32f1xx_ll_bus.h ****   *         @arg @ref LL_APB1_GRP1_PERIPH_CAN2 (*)
 612:Drivers/STM32F1xx_HAL_Driver/Inc/stm32f1xx_ll_bus.h ****   *         @arg @ref LL_APB1_GRP1_PERIPH_CEC (*)
 613:Drivers/STM32F1xx_HAL_Driver/Inc/stm32f1xx_ll_bus.h ****   *         @arg @ref LL_APB1_GRP1_PERIPH_DAC1 (*)
 614:Drivers/STM32F1xx_HAL_Driver/Inc/stm32f1xx_ll_bus.h ****   *         @arg @ref LL_APB1_GRP1_PERIPH_I2C1
 615:Drivers/STM32F1xx_HAL_Driver/Inc/stm32f1xx_ll_bus.h ****   *         @arg @ref LL_APB1_GRP1_PERIPH_I2C2 (*)
 616:Drivers/STM32F1xx_HAL_Driver/Inc/stm32f1xx_ll_bus.h ****   *         @arg @ref LL_APB1_GRP1_PERIPH_PWR
 617:Drivers/STM32F1xx_HAL_Driver/Inc/stm32f1xx_ll_bus.h ****   *         @arg @ref LL_APB1_GRP1_PERIPH_SPI2 (*)
 618:Drivers/STM32F1xx_HAL_Driver/Inc/stm32f1xx_ll_bus.h ****   *         @arg @ref LL_APB1_GRP1_PERIPH_SPI3 (*)
 619:Drivers/STM32F1xx_HAL_Driver/Inc/stm32f1xx_ll_bus.h ****   *         @arg @ref LL_APB1_GRP1_PERIPH_TIM12 (*)
 620:Drivers/STM32F1xx_HAL_Driver/Inc/stm32f1xx_ll_bus.h ****   *         @arg @ref LL_APB1_GRP1_PERIPH_TIM13 (*)
 621:Drivers/STM32F1xx_HAL_Driver/Inc/stm32f1xx_ll_bus.h ****   *         @arg @ref LL_APB1_GRP1_PERIPH_TIM14 (*)
 622:Drivers/STM32F1xx_HAL_Driver/Inc/stm32f1xx_ll_bus.h ****   *         @arg @ref LL_APB1_GRP1_PERIPH_TIM2
 623:Drivers/STM32F1xx_HAL_Driver/Inc/stm32f1xx_ll_bus.h ****   *         @arg @ref LL_APB1_GRP1_PERIPH_TIM3
 624:Drivers/STM32F1xx_HAL_Driver/Inc/stm32f1xx_ll_bus.h ****   *         @arg @ref LL_APB1_GRP1_PERIPH_TIM4 (*)
 625:Drivers/STM32F1xx_HAL_Driver/Inc/stm32f1xx_ll_bus.h ****   *         @arg @ref LL_APB1_GRP1_PERIPH_TIM5 (*)
 626:Drivers/STM32F1xx_HAL_Driver/Inc/stm32f1xx_ll_bus.h ****   *         @arg @ref LL_APB1_GRP1_PERIPH_TIM6 (*)
 627:Drivers/STM32F1xx_HAL_Driver/Inc/stm32f1xx_ll_bus.h ****   *         @arg @ref LL_APB1_GRP1_PERIPH_TIM7 (*)
 628:Drivers/STM32F1xx_HAL_Driver/Inc/stm32f1xx_ll_bus.h ****   *         @arg @ref LL_APB1_GRP1_PERIPH_UART4 (*)
 629:Drivers/STM32F1xx_HAL_Driver/Inc/stm32f1xx_ll_bus.h ****   *         @arg @ref LL_APB1_GRP1_PERIPH_UART5 (*)
 630:Drivers/STM32F1xx_HAL_Driver/Inc/stm32f1xx_ll_bus.h ****   *         @arg @ref LL_APB1_GRP1_PERIPH_USART2
 631:Drivers/STM32F1xx_HAL_Driver/Inc/stm32f1xx_ll_bus.h ****   *         @arg @ref LL_APB1_GRP1_PERIPH_USART3 (*)
 632:Drivers/STM32F1xx_HAL_Driver/Inc/stm32f1xx_ll_bus.h ****   *         @arg @ref LL_APB1_GRP1_PERIPH_USB (*)
 633:Drivers/STM32F1xx_HAL_Driver/Inc/stm32f1xx_ll_bus.h ****   *         @arg @ref LL_APB1_GRP1_PERIPH_WWDG
 634:Drivers/STM32F1xx_HAL_Driver/Inc/stm32f1xx_ll_bus.h ****   *
 635:Drivers/STM32F1xx_HAL_Driver/Inc/stm32f1xx_ll_bus.h ****   *         (*) value not defined in all devices.
 636:Drivers/STM32F1xx_HAL_Driver/Inc/stm32f1xx_ll_bus.h ****   * @retval None
 637:Drivers/STM32F1xx_HAL_Driver/Inc/stm32f1xx_ll_bus.h **** */
 638:Drivers/STM32F1xx_HAL_Driver/Inc/stm32f1xx_ll_bus.h **** __STATIC_INLINE void LL_APB1_GRP1_ForceReset(uint32_t Periphs)
 639:Drivers/STM32F1xx_HAL_Driver/Inc/stm32f1xx_ll_bus.h **** {
 640:Drivers/STM32F1xx_HAL_Driver/Inc/stm32f1xx_ll_bus.h ****   SET_BIT(RCC->APB1RSTR, Periphs);
 641:Drivers/STM32F1xx_HAL_Driver/Inc/stm32f1xx_ll_bus.h **** }
 642:Drivers/STM32F1xx_HAL_Driver/Inc/stm32f1xx_ll_bus.h **** 
 643:Drivers/STM32F1xx_HAL_Driver/Inc/stm32f1xx_ll_bus.h **** /**
 644:Drivers/STM32F1xx_HAL_Driver/Inc/stm32f1xx_ll_bus.h ****   * @brief  Release APB1 peripherals reset.
ARM GAS  /tmp/ccBpuOwB.s 			page 14


 645:Drivers/STM32F1xx_HAL_Driver/Inc/stm32f1xx_ll_bus.h ****   * @rmtoll APB1RSTR     BKPRST        LL_APB1_GRP1_ReleaseReset\n
 646:Drivers/STM32F1xx_HAL_Driver/Inc/stm32f1xx_ll_bus.h ****   *         APB1RSTR     CAN1RST       LL_APB1_GRP1_ReleaseReset\n
 647:Drivers/STM32F1xx_HAL_Driver/Inc/stm32f1xx_ll_bus.h ****   *         APB1RSTR     CAN2RST       LL_APB1_GRP1_ReleaseReset\n
 648:Drivers/STM32F1xx_HAL_Driver/Inc/stm32f1xx_ll_bus.h ****   *         APB1RSTR     CECRST        LL_APB1_GRP1_ReleaseReset\n
 649:Drivers/STM32F1xx_HAL_Driver/Inc/stm32f1xx_ll_bus.h ****   *         APB1RSTR     DACRST        LL_APB1_GRP1_ReleaseReset\n
 650:Drivers/STM32F1xx_HAL_Driver/Inc/stm32f1xx_ll_bus.h ****   *         APB1RSTR     I2C1RST       LL_APB1_GRP1_ReleaseReset\n
 651:Drivers/STM32F1xx_HAL_Driver/Inc/stm32f1xx_ll_bus.h ****   *         APB1RSTR     I2C2RST       LL_APB1_GRP1_ReleaseReset\n
 652:Drivers/STM32F1xx_HAL_Driver/Inc/stm32f1xx_ll_bus.h ****   *         APB1RSTR     PWRRST        LL_APB1_GRP1_ReleaseReset\n
 653:Drivers/STM32F1xx_HAL_Driver/Inc/stm32f1xx_ll_bus.h ****   *         APB1RSTR     SPI2RST       LL_APB1_GRP1_ReleaseReset\n
 654:Drivers/STM32F1xx_HAL_Driver/Inc/stm32f1xx_ll_bus.h ****   *         APB1RSTR     SPI3RST       LL_APB1_GRP1_ReleaseReset\n
 655:Drivers/STM32F1xx_HAL_Driver/Inc/stm32f1xx_ll_bus.h ****   *         APB1RSTR     TIM12RST      LL_APB1_GRP1_ReleaseReset\n
 656:Drivers/STM32F1xx_HAL_Driver/Inc/stm32f1xx_ll_bus.h ****   *         APB1RSTR     TIM13RST      LL_APB1_GRP1_ReleaseReset\n
 657:Drivers/STM32F1xx_HAL_Driver/Inc/stm32f1xx_ll_bus.h ****   *         APB1RSTR     TIM14RST      LL_APB1_GRP1_ReleaseReset\n
 658:Drivers/STM32F1xx_HAL_Driver/Inc/stm32f1xx_ll_bus.h ****   *         APB1RSTR     TIM2RST       LL_APB1_GRP1_ReleaseReset\n
 659:Drivers/STM32F1xx_HAL_Driver/Inc/stm32f1xx_ll_bus.h ****   *         APB1RSTR     TIM3RST       LL_APB1_GRP1_ReleaseReset\n
 660:Drivers/STM32F1xx_HAL_Driver/Inc/stm32f1xx_ll_bus.h ****   *         APB1RSTR     TIM4RST       LL_APB1_GRP1_ReleaseReset\n
 661:Drivers/STM32F1xx_HAL_Driver/Inc/stm32f1xx_ll_bus.h ****   *         APB1RSTR     TIM5RST       LL_APB1_GRP1_ReleaseReset\n
 662:Drivers/STM32F1xx_HAL_Driver/Inc/stm32f1xx_ll_bus.h ****   *         APB1RSTR     TIM6RST       LL_APB1_GRP1_ReleaseReset\n
 663:Drivers/STM32F1xx_HAL_Driver/Inc/stm32f1xx_ll_bus.h ****   *         APB1RSTR     TIM7RST       LL_APB1_GRP1_ReleaseReset\n
 664:Drivers/STM32F1xx_HAL_Driver/Inc/stm32f1xx_ll_bus.h ****   *         APB1RSTR     UART4RST      LL_APB1_GRP1_ReleaseReset\n
 665:Drivers/STM32F1xx_HAL_Driver/Inc/stm32f1xx_ll_bus.h ****   *         APB1RSTR     UART5RST      LL_APB1_GRP1_ReleaseReset\n
 666:Drivers/STM32F1xx_HAL_Driver/Inc/stm32f1xx_ll_bus.h ****   *         APB1RSTR     USART2RST     LL_APB1_GRP1_ReleaseReset\n
 667:Drivers/STM32F1xx_HAL_Driver/Inc/stm32f1xx_ll_bus.h ****   *         APB1RSTR     USART3RST     LL_APB1_GRP1_ReleaseReset\n
 668:Drivers/STM32F1xx_HAL_Driver/Inc/stm32f1xx_ll_bus.h ****   *         APB1RSTR     USBRST        LL_APB1_GRP1_ReleaseReset\n
 669:Drivers/STM32F1xx_HAL_Driver/Inc/stm32f1xx_ll_bus.h ****   *         APB1RSTR     WWDGRST       LL_APB1_GRP1_ReleaseReset
 670:Drivers/STM32F1xx_HAL_Driver/Inc/stm32f1xx_ll_bus.h ****   * @param  Periphs This parameter can be a combination of the following values:
 671:Drivers/STM32F1xx_HAL_Driver/Inc/stm32f1xx_ll_bus.h ****   *         @arg @ref LL_APB1_GRP1_PERIPH_ALL
 672:Drivers/STM32F1xx_HAL_Driver/Inc/stm32f1xx_ll_bus.h ****   *         @arg @ref LL_APB1_GRP1_PERIPH_BKP
 673:Drivers/STM32F1xx_HAL_Driver/Inc/stm32f1xx_ll_bus.h ****   *         @arg @ref LL_APB1_GRP1_PERIPH_CAN1 (*)
 674:Drivers/STM32F1xx_HAL_Driver/Inc/stm32f1xx_ll_bus.h ****   *         @arg @ref LL_APB1_GRP1_PERIPH_CAN2 (*)
 675:Drivers/STM32F1xx_HAL_Driver/Inc/stm32f1xx_ll_bus.h ****   *         @arg @ref LL_APB1_GRP1_PERIPH_CEC (*)
 676:Drivers/STM32F1xx_HAL_Driver/Inc/stm32f1xx_ll_bus.h ****   *         @arg @ref LL_APB1_GRP1_PERIPH_DAC1 (*)
 677:Drivers/STM32F1xx_HAL_Driver/Inc/stm32f1xx_ll_bus.h ****   *         @arg @ref LL_APB1_GRP1_PERIPH_I2C1
 678:Drivers/STM32F1xx_HAL_Driver/Inc/stm32f1xx_ll_bus.h ****   *         @arg @ref LL_APB1_GRP1_PERIPH_I2C2 (*)
 679:Drivers/STM32F1xx_HAL_Driver/Inc/stm32f1xx_ll_bus.h ****   *         @arg @ref LL_APB1_GRP1_PERIPH_PWR
 680:Drivers/STM32F1xx_HAL_Driver/Inc/stm32f1xx_ll_bus.h ****   *         @arg @ref LL_APB1_GRP1_PERIPH_SPI2 (*)
 681:Drivers/STM32F1xx_HAL_Driver/Inc/stm32f1xx_ll_bus.h ****   *         @arg @ref LL_APB1_GRP1_PERIPH_SPI3 (*)
 682:Drivers/STM32F1xx_HAL_Driver/Inc/stm32f1xx_ll_bus.h ****   *         @arg @ref LL_APB1_GRP1_PERIPH_TIM12 (*)
 683:Drivers/STM32F1xx_HAL_Driver/Inc/stm32f1xx_ll_bus.h ****   *         @arg @ref LL_APB1_GRP1_PERIPH_TIM13 (*)
 684:Drivers/STM32F1xx_HAL_Driver/Inc/stm32f1xx_ll_bus.h ****   *         @arg @ref LL_APB1_GRP1_PERIPH_TIM14 (*)
 685:Drivers/STM32F1xx_HAL_Driver/Inc/stm32f1xx_ll_bus.h ****   *         @arg @ref LL_APB1_GRP1_PERIPH_TIM2
 686:Drivers/STM32F1xx_HAL_Driver/Inc/stm32f1xx_ll_bus.h ****   *         @arg @ref LL_APB1_GRP1_PERIPH_TIM3
 687:Drivers/STM32F1xx_HAL_Driver/Inc/stm32f1xx_ll_bus.h ****   *         @arg @ref LL_APB1_GRP1_PERIPH_TIM4 (*)
 688:Drivers/STM32F1xx_HAL_Driver/Inc/stm32f1xx_ll_bus.h ****   *         @arg @ref LL_APB1_GRP1_PERIPH_TIM5 (*)
 689:Drivers/STM32F1xx_HAL_Driver/Inc/stm32f1xx_ll_bus.h ****   *         @arg @ref LL_APB1_GRP1_PERIPH_TIM6 (*)
 690:Drivers/STM32F1xx_HAL_Driver/Inc/stm32f1xx_ll_bus.h ****   *         @arg @ref LL_APB1_GRP1_PERIPH_TIM7 (*)
 691:Drivers/STM32F1xx_HAL_Driver/Inc/stm32f1xx_ll_bus.h ****   *         @arg @ref LL_APB1_GRP1_PERIPH_UART4 (*)
 692:Drivers/STM32F1xx_HAL_Driver/Inc/stm32f1xx_ll_bus.h ****   *         @arg @ref LL_APB1_GRP1_PERIPH_UART5 (*)
 693:Drivers/STM32F1xx_HAL_Driver/Inc/stm32f1xx_ll_bus.h ****   *         @arg @ref LL_APB1_GRP1_PERIPH_USART2
 694:Drivers/STM32F1xx_HAL_Driver/Inc/stm32f1xx_ll_bus.h ****   *         @arg @ref LL_APB1_GRP1_PERIPH_USART3 (*)
 695:Drivers/STM32F1xx_HAL_Driver/Inc/stm32f1xx_ll_bus.h ****   *         @arg @ref LL_APB1_GRP1_PERIPH_USB (*)
 696:Drivers/STM32F1xx_HAL_Driver/Inc/stm32f1xx_ll_bus.h ****   *         @arg @ref LL_APB1_GRP1_PERIPH_WWDG
 697:Drivers/STM32F1xx_HAL_Driver/Inc/stm32f1xx_ll_bus.h ****   *
 698:Drivers/STM32F1xx_HAL_Driver/Inc/stm32f1xx_ll_bus.h ****   *         (*) value not defined in all devices.
 699:Drivers/STM32F1xx_HAL_Driver/Inc/stm32f1xx_ll_bus.h ****   * @retval None
 700:Drivers/STM32F1xx_HAL_Driver/Inc/stm32f1xx_ll_bus.h **** */
 701:Drivers/STM32F1xx_HAL_Driver/Inc/stm32f1xx_ll_bus.h **** __STATIC_INLINE void LL_APB1_GRP1_ReleaseReset(uint32_t Periphs)
ARM GAS  /tmp/ccBpuOwB.s 			page 15


 702:Drivers/STM32F1xx_HAL_Driver/Inc/stm32f1xx_ll_bus.h **** {
 703:Drivers/STM32F1xx_HAL_Driver/Inc/stm32f1xx_ll_bus.h ****   CLEAR_BIT(RCC->APB1RSTR, Periphs);
 704:Drivers/STM32F1xx_HAL_Driver/Inc/stm32f1xx_ll_bus.h **** }
 705:Drivers/STM32F1xx_HAL_Driver/Inc/stm32f1xx_ll_bus.h **** 
 706:Drivers/STM32F1xx_HAL_Driver/Inc/stm32f1xx_ll_bus.h **** /**
 707:Drivers/STM32F1xx_HAL_Driver/Inc/stm32f1xx_ll_bus.h ****   * @}
 708:Drivers/STM32F1xx_HAL_Driver/Inc/stm32f1xx_ll_bus.h ****   */
 709:Drivers/STM32F1xx_HAL_Driver/Inc/stm32f1xx_ll_bus.h **** 
 710:Drivers/STM32F1xx_HAL_Driver/Inc/stm32f1xx_ll_bus.h **** /** @defgroup BUS_LL_EF_APB2 APB2
 711:Drivers/STM32F1xx_HAL_Driver/Inc/stm32f1xx_ll_bus.h ****   * @{
 712:Drivers/STM32F1xx_HAL_Driver/Inc/stm32f1xx_ll_bus.h ****   */
 713:Drivers/STM32F1xx_HAL_Driver/Inc/stm32f1xx_ll_bus.h **** 
 714:Drivers/STM32F1xx_HAL_Driver/Inc/stm32f1xx_ll_bus.h **** /**
 715:Drivers/STM32F1xx_HAL_Driver/Inc/stm32f1xx_ll_bus.h ****   * @brief  Enable APB2 peripherals clock.
 716:Drivers/STM32F1xx_HAL_Driver/Inc/stm32f1xx_ll_bus.h ****   * @rmtoll APB2ENR      ADC1EN        LL_APB2_GRP1_EnableClock\n
 717:Drivers/STM32F1xx_HAL_Driver/Inc/stm32f1xx_ll_bus.h ****   *         APB2ENR      ADC2EN        LL_APB2_GRP1_EnableClock\n
 718:Drivers/STM32F1xx_HAL_Driver/Inc/stm32f1xx_ll_bus.h ****   *         APB2ENR      ADC3EN        LL_APB2_GRP1_EnableClock\n
 719:Drivers/STM32F1xx_HAL_Driver/Inc/stm32f1xx_ll_bus.h ****   *         APB2ENR      AFIOEN        LL_APB2_GRP1_EnableClock\n
 720:Drivers/STM32F1xx_HAL_Driver/Inc/stm32f1xx_ll_bus.h ****   *         APB2ENR      IOPAEN        LL_APB2_GRP1_EnableClock\n
 721:Drivers/STM32F1xx_HAL_Driver/Inc/stm32f1xx_ll_bus.h ****   *         APB2ENR      IOPBEN        LL_APB2_GRP1_EnableClock\n
 722:Drivers/STM32F1xx_HAL_Driver/Inc/stm32f1xx_ll_bus.h ****   *         APB2ENR      IOPCEN        LL_APB2_GRP1_EnableClock\n
 723:Drivers/STM32F1xx_HAL_Driver/Inc/stm32f1xx_ll_bus.h ****   *         APB2ENR      IOPDEN        LL_APB2_GRP1_EnableClock\n
 724:Drivers/STM32F1xx_HAL_Driver/Inc/stm32f1xx_ll_bus.h ****   *         APB2ENR      IOPEEN        LL_APB2_GRP1_EnableClock\n
 725:Drivers/STM32F1xx_HAL_Driver/Inc/stm32f1xx_ll_bus.h ****   *         APB2ENR      IOPFEN        LL_APB2_GRP1_EnableClock\n
 726:Drivers/STM32F1xx_HAL_Driver/Inc/stm32f1xx_ll_bus.h ****   *         APB2ENR      IOPGEN        LL_APB2_GRP1_EnableClock\n
 727:Drivers/STM32F1xx_HAL_Driver/Inc/stm32f1xx_ll_bus.h ****   *         APB2ENR      SPI1EN        LL_APB2_GRP1_EnableClock\n
 728:Drivers/STM32F1xx_HAL_Driver/Inc/stm32f1xx_ll_bus.h ****   *         APB2ENR      TIM10EN       LL_APB2_GRP1_EnableClock\n
 729:Drivers/STM32F1xx_HAL_Driver/Inc/stm32f1xx_ll_bus.h ****   *         APB2ENR      TIM11EN       LL_APB2_GRP1_EnableClock\n
 730:Drivers/STM32F1xx_HAL_Driver/Inc/stm32f1xx_ll_bus.h ****   *         APB2ENR      TIM15EN       LL_APB2_GRP1_EnableClock\n
 731:Drivers/STM32F1xx_HAL_Driver/Inc/stm32f1xx_ll_bus.h ****   *         APB2ENR      TIM16EN       LL_APB2_GRP1_EnableClock\n
 732:Drivers/STM32F1xx_HAL_Driver/Inc/stm32f1xx_ll_bus.h ****   *         APB2ENR      TIM17EN       LL_APB2_GRP1_EnableClock\n
 733:Drivers/STM32F1xx_HAL_Driver/Inc/stm32f1xx_ll_bus.h ****   *         APB2ENR      TIM1EN        LL_APB2_GRP1_EnableClock\n
 734:Drivers/STM32F1xx_HAL_Driver/Inc/stm32f1xx_ll_bus.h ****   *         APB2ENR      TIM8EN        LL_APB2_GRP1_EnableClock\n
 735:Drivers/STM32F1xx_HAL_Driver/Inc/stm32f1xx_ll_bus.h ****   *         APB2ENR      TIM9EN        LL_APB2_GRP1_EnableClock\n
 736:Drivers/STM32F1xx_HAL_Driver/Inc/stm32f1xx_ll_bus.h ****   *         APB2ENR      USART1EN      LL_APB2_GRP1_EnableClock
 737:Drivers/STM32F1xx_HAL_Driver/Inc/stm32f1xx_ll_bus.h ****   * @param  Periphs This parameter can be a combination of the following values:
 738:Drivers/STM32F1xx_HAL_Driver/Inc/stm32f1xx_ll_bus.h ****   *         @arg @ref LL_APB2_GRP1_PERIPH_ADC1
 739:Drivers/STM32F1xx_HAL_Driver/Inc/stm32f1xx_ll_bus.h ****   *         @arg @ref LL_APB2_GRP1_PERIPH_ADC2 (*)
 740:Drivers/STM32F1xx_HAL_Driver/Inc/stm32f1xx_ll_bus.h ****   *         @arg @ref LL_APB2_GRP1_PERIPH_ADC3 (*)
 741:Drivers/STM32F1xx_HAL_Driver/Inc/stm32f1xx_ll_bus.h ****   *         @arg @ref LL_APB2_GRP1_PERIPH_AFIO
 742:Drivers/STM32F1xx_HAL_Driver/Inc/stm32f1xx_ll_bus.h ****   *         @arg @ref LL_APB2_GRP1_PERIPH_GPIOA
 743:Drivers/STM32F1xx_HAL_Driver/Inc/stm32f1xx_ll_bus.h ****   *         @arg @ref LL_APB2_GRP1_PERIPH_GPIOB
 744:Drivers/STM32F1xx_HAL_Driver/Inc/stm32f1xx_ll_bus.h ****   *         @arg @ref LL_APB2_GRP1_PERIPH_GPIOC
 745:Drivers/STM32F1xx_HAL_Driver/Inc/stm32f1xx_ll_bus.h ****   *         @arg @ref LL_APB2_GRP1_PERIPH_GPIOD
 746:Drivers/STM32F1xx_HAL_Driver/Inc/stm32f1xx_ll_bus.h ****   *         @arg @ref LL_APB2_GRP1_PERIPH_GPIOE (*)
 747:Drivers/STM32F1xx_HAL_Driver/Inc/stm32f1xx_ll_bus.h ****   *         @arg @ref LL_APB2_GRP1_PERIPH_GPIOF (*)
 748:Drivers/STM32F1xx_HAL_Driver/Inc/stm32f1xx_ll_bus.h ****   *         @arg @ref LL_APB2_GRP1_PERIPH_GPIOG (*)
 749:Drivers/STM32F1xx_HAL_Driver/Inc/stm32f1xx_ll_bus.h ****   *         @arg @ref LL_APB2_GRP1_PERIPH_SPI1
 750:Drivers/STM32F1xx_HAL_Driver/Inc/stm32f1xx_ll_bus.h ****   *         @arg @ref LL_APB2_GRP1_PERIPH_TIM10 (*)
 751:Drivers/STM32F1xx_HAL_Driver/Inc/stm32f1xx_ll_bus.h ****   *         @arg @ref LL_APB2_GRP1_PERIPH_TIM11 (*)
 752:Drivers/STM32F1xx_HAL_Driver/Inc/stm32f1xx_ll_bus.h ****   *         @arg @ref LL_APB2_GRP1_PERIPH_TIM15 (*)
 753:Drivers/STM32F1xx_HAL_Driver/Inc/stm32f1xx_ll_bus.h ****   *         @arg @ref LL_APB2_GRP1_PERIPH_TIM16 (*)
 754:Drivers/STM32F1xx_HAL_Driver/Inc/stm32f1xx_ll_bus.h ****   *         @arg @ref LL_APB2_GRP1_PERIPH_TIM17 (*)
 755:Drivers/STM32F1xx_HAL_Driver/Inc/stm32f1xx_ll_bus.h ****   *         @arg @ref LL_APB2_GRP1_PERIPH_TIM1
 756:Drivers/STM32F1xx_HAL_Driver/Inc/stm32f1xx_ll_bus.h ****   *         @arg @ref LL_APB2_GRP1_PERIPH_TIM8 (*)
 757:Drivers/STM32F1xx_HAL_Driver/Inc/stm32f1xx_ll_bus.h ****   *         @arg @ref LL_APB2_GRP1_PERIPH_TIM9 (*)
 758:Drivers/STM32F1xx_HAL_Driver/Inc/stm32f1xx_ll_bus.h ****   *         @arg @ref LL_APB2_GRP1_PERIPH_USART1
ARM GAS  /tmp/ccBpuOwB.s 			page 16


 759:Drivers/STM32F1xx_HAL_Driver/Inc/stm32f1xx_ll_bus.h ****   *
 760:Drivers/STM32F1xx_HAL_Driver/Inc/stm32f1xx_ll_bus.h ****   *         (*) value not defined in all devices.
 761:Drivers/STM32F1xx_HAL_Driver/Inc/stm32f1xx_ll_bus.h ****   * @retval None
 762:Drivers/STM32F1xx_HAL_Driver/Inc/stm32f1xx_ll_bus.h **** */
 763:Drivers/STM32F1xx_HAL_Driver/Inc/stm32f1xx_ll_bus.h **** __STATIC_INLINE void LL_APB2_GRP1_EnableClock(uint32_t Periphs)
  58              		.loc 2 763 22 view .LVU6
  59              	.LBB11:
 764:Drivers/STM32F1xx_HAL_Driver/Inc/stm32f1xx_ll_bus.h **** {
 765:Drivers/STM32F1xx_HAL_Driver/Inc/stm32f1xx_ll_bus.h ****   __IO uint32_t tmpreg;
  60              		.loc 2 765 3 view .LVU7
 766:Drivers/STM32F1xx_HAL_Driver/Inc/stm32f1xx_ll_bus.h ****   SET_BIT(RCC->APB2ENR, Periphs);
  61              		.loc 2 766 3 view .LVU8
  62 0016 224B     		ldr	r3, .L3
  63 0018 9A69     		ldr	r2, [r3, #24]
  64 001a 42F48042 		orr	r2, r2, #16384
  65 001e 9A61     		str	r2, [r3, #24]
 767:Drivers/STM32F1xx_HAL_Driver/Inc/stm32f1xx_ll_bus.h ****   /* Delay after an RCC peripheral clock enabling */
 768:Drivers/STM32F1xx_HAL_Driver/Inc/stm32f1xx_ll_bus.h ****   tmpreg = READ_BIT(RCC->APB2ENR, Periphs);
  66              		.loc 2 768 3 view .LVU9
  67              		.loc 2 768 12 is_stmt 0 view .LVU10
  68 0020 9A69     		ldr	r2, [r3, #24]
  69 0022 02F48042 		and	r2, r2, #16384
  70              		.loc 2 768 10 view .LVU11
  71 0026 0192     		str	r2, [sp, #4]
 769:Drivers/STM32F1xx_HAL_Driver/Inc/stm32f1xx_ll_bus.h ****   (void)tmpreg;
  72              		.loc 2 769 3 is_stmt 1 view .LVU12
  73 0028 019A     		ldr	r2, [sp, #4]
  74              	.LVL1:
  75              		.loc 2 769 3 is_stmt 0 view .LVU13
  76              	.LBE11:
  77              	.LBE10:
  42:Core/Src/usart.c **** 
  43:Core/Src/usart.c ****   LL_APB2_GRP1_EnableClock(LL_APB2_GRP1_PERIPH_GPIOA);
  78              		.loc 1 43 3 is_stmt 1 view .LVU14
  79              	.LBB12:
  80              	.LBI12:
 763:Drivers/STM32F1xx_HAL_Driver/Inc/stm32f1xx_ll_bus.h **** {
  81              		.loc 2 763 22 view .LVU15
  82              	.LBB13:
 765:Drivers/STM32F1xx_HAL_Driver/Inc/stm32f1xx_ll_bus.h ****   SET_BIT(RCC->APB2ENR, Periphs);
  83              		.loc 2 765 3 view .LVU16
 766:Drivers/STM32F1xx_HAL_Driver/Inc/stm32f1xx_ll_bus.h ****   /* Delay after an RCC peripheral clock enabling */
  84              		.loc 2 766 3 view .LVU17
  85 002a 9A69     		ldr	r2, [r3, #24]
  86 002c 42F00402 		orr	r2, r2, #4
  87 0030 9A61     		str	r2, [r3, #24]
 768:Drivers/STM32F1xx_HAL_Driver/Inc/stm32f1xx_ll_bus.h ****   (void)tmpreg;
  88              		.loc 2 768 3 view .LVU18
 768:Drivers/STM32F1xx_HAL_Driver/Inc/stm32f1xx_ll_bus.h ****   (void)tmpreg;
  89              		.loc 2 768 12 is_stmt 0 view .LVU19
  90 0032 9B69     		ldr	r3, [r3, #24]
  91 0034 03F00403 		and	r3, r3, #4
 768:Drivers/STM32F1xx_HAL_Driver/Inc/stm32f1xx_ll_bus.h ****   (void)tmpreg;
  92              		.loc 2 768 10 view .LVU20
  93 0038 0093     		str	r3, [sp]
  94              		.loc 2 769 3 is_stmt 1 view .LVU21
  95 003a 009B     		ldr	r3, [sp]
ARM GAS  /tmp/ccBpuOwB.s 			page 17


  96              	.LVL2:
  97              		.loc 2 769 3 is_stmt 0 view .LVU22
  98              	.LBE13:
  99              	.LBE12:
  44:Core/Src/usart.c ****   /**USART1 GPIO Configuration
  45:Core/Src/usart.c ****   PA9   ------> USART1_TX
  46:Core/Src/usart.c ****   PA10   ------> USART1_RX
  47:Core/Src/usart.c ****   */
  48:Core/Src/usart.c ****   GPIO_InitStruct.Pin = LL_GPIO_PIN_9;
 100              		.loc 1 48 3 is_stmt 1 view .LVU23
 101              		.loc 1 48 23 is_stmt 0 view .LVU24
 102 003c 194B     		ldr	r3, .L3+4
 103 003e 0293     		str	r3, [sp, #8]
  49:Core/Src/usart.c ****   GPIO_InitStruct.Mode = LL_GPIO_MODE_ALTERNATE;
 104              		.loc 1 49 3 is_stmt 1 view .LVU25
 105              		.loc 1 49 24 is_stmt 0 view .LVU26
 106 0040 0923     		movs	r3, #9
 107 0042 0393     		str	r3, [sp, #12]
  50:Core/Src/usart.c ****   GPIO_InitStruct.Speed = LL_GPIO_SPEED_FREQ_HIGH;
 108              		.loc 1 50 3 is_stmt 1 view .LVU27
 109              		.loc 1 50 25 is_stmt 0 view .LVU28
 110 0044 0323     		movs	r3, #3
 111 0046 0493     		str	r3, [sp, #16]
  51:Core/Src/usart.c ****   GPIO_InitStruct.OutputType = LL_GPIO_OUTPUT_PUSHPULL;
 112              		.loc 1 51 3 is_stmt 1 view .LVU29
 113              		.loc 1 51 30 is_stmt 0 view .LVU30
 114 0048 0594     		str	r4, [sp, #20]
  52:Core/Src/usart.c ****   LL_GPIO_Init(GPIOA, &GPIO_InitStruct);
 115              		.loc 1 52 3 is_stmt 1 view .LVU31
 116 004a 174D     		ldr	r5, .L3+8
 117 004c 02A9     		add	r1, sp, #8
 118 004e 2846     		mov	r0, r5
 119 0050 FFF7FEFF 		bl	LL_GPIO_Init
 120              	.LVL3:
  53:Core/Src/usart.c **** 
  54:Core/Src/usart.c ****   GPIO_InitStruct.Pin = LL_GPIO_PIN_10;
 121              		.loc 1 54 3 view .LVU32
 122              		.loc 1 54 23 is_stmt 0 view .LVU33
 123 0054 154B     		ldr	r3, .L3+12
 124 0056 0293     		str	r3, [sp, #8]
  55:Core/Src/usart.c ****   GPIO_InitStruct.Mode = LL_GPIO_MODE_FLOATING;
 125              		.loc 1 55 3 is_stmt 1 view .LVU34
 126              		.loc 1 55 24 is_stmt 0 view .LVU35
 127 0058 0423     		movs	r3, #4
 128 005a 0393     		str	r3, [sp, #12]
  56:Core/Src/usart.c ****   LL_GPIO_Init(GPIOA, &GPIO_InitStruct);
 129              		.loc 1 56 3 is_stmt 1 view .LVU36
 130 005c 02A9     		add	r1, sp, #8
 131 005e 2846     		mov	r0, r5
 132 0060 FFF7FEFF 		bl	LL_GPIO_Init
 133              	.LVL4:
  57:Core/Src/usart.c **** 
  58:Core/Src/usart.c ****   /* USER CODE BEGIN USART1_Init 1 */
  59:Core/Src/usart.c **** 
  60:Core/Src/usart.c ****   /* USER CODE END USART1_Init 1 */
  61:Core/Src/usart.c ****   USART_InitStruct.BaudRate = 115200;
 134              		.loc 1 61 3 view .LVU37
ARM GAS  /tmp/ccBpuOwB.s 			page 18


 135              		.loc 1 61 29 is_stmt 0 view .LVU38
 136 0064 4FF4E133 		mov	r3, #115200
 137 0068 0793     		str	r3, [sp, #28]
  62:Core/Src/usart.c ****   USART_InitStruct.DataWidth = LL_USART_DATAWIDTH_8B;
 138              		.loc 1 62 3 is_stmt 1 view .LVU39
 139              		.loc 1 62 30 is_stmt 0 view .LVU40
 140 006a 0894     		str	r4, [sp, #32]
  63:Core/Src/usart.c ****   USART_InitStruct.StopBits = LL_USART_STOPBITS_1;
 141              		.loc 1 63 3 is_stmt 1 view .LVU41
 142              		.loc 1 63 29 is_stmt 0 view .LVU42
 143 006c 0994     		str	r4, [sp, #36]
  64:Core/Src/usart.c ****   USART_InitStruct.Parity = LL_USART_PARITY_NONE;
 144              		.loc 1 64 3 is_stmt 1 view .LVU43
 145              		.loc 1 64 27 is_stmt 0 view .LVU44
 146 006e 0A94     		str	r4, [sp, #40]
  65:Core/Src/usart.c ****   USART_InitStruct.TransferDirection = LL_USART_DIRECTION_TX_RX;
 147              		.loc 1 65 3 is_stmt 1 view .LVU45
 148              		.loc 1 65 38 is_stmt 0 view .LVU46
 149 0070 0C23     		movs	r3, #12
 150 0072 0B93     		str	r3, [sp, #44]
  66:Core/Src/usart.c ****   USART_InitStruct.HardwareFlowControl = LL_USART_HWCONTROL_NONE;
 151              		.loc 1 66 3 is_stmt 1 view .LVU47
 152              		.loc 1 66 40 is_stmt 0 view .LVU48
 153 0074 0C94     		str	r4, [sp, #48]
  67:Core/Src/usart.c ****   USART_InitStruct.OverSampling = LL_USART_OVERSAMPLING_16;
 154              		.loc 1 67 3 is_stmt 1 view .LVU49
 155              		.loc 1 67 33 is_stmt 0 view .LVU50
 156 0076 0D94     		str	r4, [sp, #52]
  68:Core/Src/usart.c ****   LL_USART_Init(USART1, &USART_InitStruct);
 157              		.loc 1 68 3 is_stmt 1 view .LVU51
 158 0078 0D4C     		ldr	r4, .L3+16
 159 007a 07A9     		add	r1, sp, #28
 160 007c 2046     		mov	r0, r4
 161 007e FFF7FEFF 		bl	LL_USART_Init
 162              	.LVL5:
  69:Core/Src/usart.c ****   LL_USART_ConfigAsyncMode(USART1);
 163              		.loc 1 69 3 view .LVU52
 164              	.LBB14:
 165              	.LBI14:
 166              		.file 3 "Drivers/STM32F1xx_HAL_Driver/Inc/stm32f1xx_ll_usart.h"
   1:Drivers/STM32F1xx_HAL_Driver/Inc/stm32f1xx_ll_usart.h **** /**
   2:Drivers/STM32F1xx_HAL_Driver/Inc/stm32f1xx_ll_usart.h ****   ******************************************************************************
   3:Drivers/STM32F1xx_HAL_Driver/Inc/stm32f1xx_ll_usart.h ****   * @file    stm32f1xx_ll_usart.h
   4:Drivers/STM32F1xx_HAL_Driver/Inc/stm32f1xx_ll_usart.h ****   * @author  MCD Application Team
   5:Drivers/STM32F1xx_HAL_Driver/Inc/stm32f1xx_ll_usart.h ****   * @brief   Header file of USART LL module.
   6:Drivers/STM32F1xx_HAL_Driver/Inc/stm32f1xx_ll_usart.h ****   ******************************************************************************
   7:Drivers/STM32F1xx_HAL_Driver/Inc/stm32f1xx_ll_usart.h ****   * @attention
   8:Drivers/STM32F1xx_HAL_Driver/Inc/stm32f1xx_ll_usart.h ****   *
   9:Drivers/STM32F1xx_HAL_Driver/Inc/stm32f1xx_ll_usart.h ****   * <h2><center>&copy; Copyright (c) 2016 STMicroelectronics.
  10:Drivers/STM32F1xx_HAL_Driver/Inc/stm32f1xx_ll_usart.h ****   * All rights reserved.</center></h2>
  11:Drivers/STM32F1xx_HAL_Driver/Inc/stm32f1xx_ll_usart.h ****   *
  12:Drivers/STM32F1xx_HAL_Driver/Inc/stm32f1xx_ll_usart.h ****   * This software component is licensed by ST under BSD 3-Clause license,
  13:Drivers/STM32F1xx_HAL_Driver/Inc/stm32f1xx_ll_usart.h ****   * the "License"; You may not use this file except in compliance with the
  14:Drivers/STM32F1xx_HAL_Driver/Inc/stm32f1xx_ll_usart.h ****   * License. You may obtain a copy of the License at:
  15:Drivers/STM32F1xx_HAL_Driver/Inc/stm32f1xx_ll_usart.h ****   *                        opensource.org/licenses/BSD-3-Clause
  16:Drivers/STM32F1xx_HAL_Driver/Inc/stm32f1xx_ll_usart.h ****   *
  17:Drivers/STM32F1xx_HAL_Driver/Inc/stm32f1xx_ll_usart.h ****   ******************************************************************************
ARM GAS  /tmp/ccBpuOwB.s 			page 19


  18:Drivers/STM32F1xx_HAL_Driver/Inc/stm32f1xx_ll_usart.h ****   */
  19:Drivers/STM32F1xx_HAL_Driver/Inc/stm32f1xx_ll_usart.h **** 
  20:Drivers/STM32F1xx_HAL_Driver/Inc/stm32f1xx_ll_usart.h **** /* Define to prevent recursive inclusion -------------------------------------*/
  21:Drivers/STM32F1xx_HAL_Driver/Inc/stm32f1xx_ll_usart.h **** #ifndef __STM32F1xx_LL_USART_H
  22:Drivers/STM32F1xx_HAL_Driver/Inc/stm32f1xx_ll_usart.h **** #define __STM32F1xx_LL_USART_H
  23:Drivers/STM32F1xx_HAL_Driver/Inc/stm32f1xx_ll_usart.h **** 
  24:Drivers/STM32F1xx_HAL_Driver/Inc/stm32f1xx_ll_usart.h **** #ifdef __cplusplus
  25:Drivers/STM32F1xx_HAL_Driver/Inc/stm32f1xx_ll_usart.h **** extern "C" {
  26:Drivers/STM32F1xx_HAL_Driver/Inc/stm32f1xx_ll_usart.h **** #endif
  27:Drivers/STM32F1xx_HAL_Driver/Inc/stm32f1xx_ll_usart.h **** 
  28:Drivers/STM32F1xx_HAL_Driver/Inc/stm32f1xx_ll_usart.h **** /* Includes ------------------------------------------------------------------*/
  29:Drivers/STM32F1xx_HAL_Driver/Inc/stm32f1xx_ll_usart.h **** #include "stm32f1xx.h"
  30:Drivers/STM32F1xx_HAL_Driver/Inc/stm32f1xx_ll_usart.h **** 
  31:Drivers/STM32F1xx_HAL_Driver/Inc/stm32f1xx_ll_usart.h **** /** @addtogroup STM32F1xx_LL_Driver
  32:Drivers/STM32F1xx_HAL_Driver/Inc/stm32f1xx_ll_usart.h ****   * @{
  33:Drivers/STM32F1xx_HAL_Driver/Inc/stm32f1xx_ll_usart.h ****   */
  34:Drivers/STM32F1xx_HAL_Driver/Inc/stm32f1xx_ll_usart.h **** 
  35:Drivers/STM32F1xx_HAL_Driver/Inc/stm32f1xx_ll_usart.h **** #if defined (USART1) || defined (USART2) || defined (USART3) || defined (UART4) || defined (UART5)
  36:Drivers/STM32F1xx_HAL_Driver/Inc/stm32f1xx_ll_usart.h **** 
  37:Drivers/STM32F1xx_HAL_Driver/Inc/stm32f1xx_ll_usart.h **** /** @defgroup USART_LL USART
  38:Drivers/STM32F1xx_HAL_Driver/Inc/stm32f1xx_ll_usart.h ****   * @{
  39:Drivers/STM32F1xx_HAL_Driver/Inc/stm32f1xx_ll_usart.h ****   */
  40:Drivers/STM32F1xx_HAL_Driver/Inc/stm32f1xx_ll_usart.h **** 
  41:Drivers/STM32F1xx_HAL_Driver/Inc/stm32f1xx_ll_usart.h **** /* Private types -------------------------------------------------------------*/
  42:Drivers/STM32F1xx_HAL_Driver/Inc/stm32f1xx_ll_usart.h **** /* Private variables ---------------------------------------------------------*/
  43:Drivers/STM32F1xx_HAL_Driver/Inc/stm32f1xx_ll_usart.h **** 
  44:Drivers/STM32F1xx_HAL_Driver/Inc/stm32f1xx_ll_usart.h **** /* Private constants ---------------------------------------------------------*/
  45:Drivers/STM32F1xx_HAL_Driver/Inc/stm32f1xx_ll_usart.h **** /** @defgroup USART_LL_Private_Constants USART Private Constants
  46:Drivers/STM32F1xx_HAL_Driver/Inc/stm32f1xx_ll_usart.h ****   * @{
  47:Drivers/STM32F1xx_HAL_Driver/Inc/stm32f1xx_ll_usart.h ****   */
  48:Drivers/STM32F1xx_HAL_Driver/Inc/stm32f1xx_ll_usart.h **** 
  49:Drivers/STM32F1xx_HAL_Driver/Inc/stm32f1xx_ll_usart.h **** /* Defines used for the bit position in the register and perform offsets*/
  50:Drivers/STM32F1xx_HAL_Driver/Inc/stm32f1xx_ll_usart.h **** #define USART_POSITION_GTPR_GT                  USART_GTPR_GT_Pos
  51:Drivers/STM32F1xx_HAL_Driver/Inc/stm32f1xx_ll_usart.h **** /**
  52:Drivers/STM32F1xx_HAL_Driver/Inc/stm32f1xx_ll_usart.h ****   * @}
  53:Drivers/STM32F1xx_HAL_Driver/Inc/stm32f1xx_ll_usart.h ****   */
  54:Drivers/STM32F1xx_HAL_Driver/Inc/stm32f1xx_ll_usart.h **** 
  55:Drivers/STM32F1xx_HAL_Driver/Inc/stm32f1xx_ll_usart.h **** /* Private macros ------------------------------------------------------------*/
  56:Drivers/STM32F1xx_HAL_Driver/Inc/stm32f1xx_ll_usart.h **** #if defined(USE_FULL_LL_DRIVER)
  57:Drivers/STM32F1xx_HAL_Driver/Inc/stm32f1xx_ll_usart.h **** /** @defgroup USART_LL_Private_Macros USART Private Macros
  58:Drivers/STM32F1xx_HAL_Driver/Inc/stm32f1xx_ll_usart.h ****   * @{
  59:Drivers/STM32F1xx_HAL_Driver/Inc/stm32f1xx_ll_usart.h ****   */
  60:Drivers/STM32F1xx_HAL_Driver/Inc/stm32f1xx_ll_usart.h **** /**
  61:Drivers/STM32F1xx_HAL_Driver/Inc/stm32f1xx_ll_usart.h ****   * @}
  62:Drivers/STM32F1xx_HAL_Driver/Inc/stm32f1xx_ll_usart.h ****   */
  63:Drivers/STM32F1xx_HAL_Driver/Inc/stm32f1xx_ll_usart.h **** #endif /*USE_FULL_LL_DRIVER*/
  64:Drivers/STM32F1xx_HAL_Driver/Inc/stm32f1xx_ll_usart.h **** 
  65:Drivers/STM32F1xx_HAL_Driver/Inc/stm32f1xx_ll_usart.h **** /* Exported types ------------------------------------------------------------*/
  66:Drivers/STM32F1xx_HAL_Driver/Inc/stm32f1xx_ll_usart.h **** #if defined(USE_FULL_LL_DRIVER)
  67:Drivers/STM32F1xx_HAL_Driver/Inc/stm32f1xx_ll_usart.h **** /** @defgroup USART_LL_ES_INIT USART Exported Init structures
  68:Drivers/STM32F1xx_HAL_Driver/Inc/stm32f1xx_ll_usart.h ****   * @{
  69:Drivers/STM32F1xx_HAL_Driver/Inc/stm32f1xx_ll_usart.h ****   */
  70:Drivers/STM32F1xx_HAL_Driver/Inc/stm32f1xx_ll_usart.h **** 
  71:Drivers/STM32F1xx_HAL_Driver/Inc/stm32f1xx_ll_usart.h **** /**
  72:Drivers/STM32F1xx_HAL_Driver/Inc/stm32f1xx_ll_usart.h ****   * @brief LL USART Init Structure definition
  73:Drivers/STM32F1xx_HAL_Driver/Inc/stm32f1xx_ll_usart.h ****   */
  74:Drivers/STM32F1xx_HAL_Driver/Inc/stm32f1xx_ll_usart.h **** typedef struct
ARM GAS  /tmp/ccBpuOwB.s 			page 20


  75:Drivers/STM32F1xx_HAL_Driver/Inc/stm32f1xx_ll_usart.h **** {
  76:Drivers/STM32F1xx_HAL_Driver/Inc/stm32f1xx_ll_usart.h ****   uint32_t BaudRate;                  /*!< This field defines expected Usart communication baud rat
  77:Drivers/STM32F1xx_HAL_Driver/Inc/stm32f1xx_ll_usart.h **** 
  78:Drivers/STM32F1xx_HAL_Driver/Inc/stm32f1xx_ll_usart.h ****                                            This feature can be modified afterwards using unitary fu
  79:Drivers/STM32F1xx_HAL_Driver/Inc/stm32f1xx_ll_usart.h **** 
  80:Drivers/STM32F1xx_HAL_Driver/Inc/stm32f1xx_ll_usart.h ****   uint32_t DataWidth;                 /*!< Specifies the number of data bits transmitted or receive
  81:Drivers/STM32F1xx_HAL_Driver/Inc/stm32f1xx_ll_usart.h ****                                            This parameter can be a value of @ref USART_LL_EC_DATAWI
  82:Drivers/STM32F1xx_HAL_Driver/Inc/stm32f1xx_ll_usart.h **** 
  83:Drivers/STM32F1xx_HAL_Driver/Inc/stm32f1xx_ll_usart.h ****                                            This feature can be modified afterwards using unitary fu
  84:Drivers/STM32F1xx_HAL_Driver/Inc/stm32f1xx_ll_usart.h **** 
  85:Drivers/STM32F1xx_HAL_Driver/Inc/stm32f1xx_ll_usart.h ****   uint32_t StopBits;                  /*!< Specifies the number of stop bits transmitted.
  86:Drivers/STM32F1xx_HAL_Driver/Inc/stm32f1xx_ll_usart.h ****                                            This parameter can be a value of @ref USART_LL_EC_STOPBI
  87:Drivers/STM32F1xx_HAL_Driver/Inc/stm32f1xx_ll_usart.h **** 
  88:Drivers/STM32F1xx_HAL_Driver/Inc/stm32f1xx_ll_usart.h ****                                            This feature can be modified afterwards using unitary fu
  89:Drivers/STM32F1xx_HAL_Driver/Inc/stm32f1xx_ll_usart.h **** 
  90:Drivers/STM32F1xx_HAL_Driver/Inc/stm32f1xx_ll_usart.h ****   uint32_t Parity;                    /*!< Specifies the parity mode.
  91:Drivers/STM32F1xx_HAL_Driver/Inc/stm32f1xx_ll_usart.h ****                                            This parameter can be a value of @ref USART_LL_EC_PARITY
  92:Drivers/STM32F1xx_HAL_Driver/Inc/stm32f1xx_ll_usart.h **** 
  93:Drivers/STM32F1xx_HAL_Driver/Inc/stm32f1xx_ll_usart.h ****                                            This feature can be modified afterwards using unitary fu
  94:Drivers/STM32F1xx_HAL_Driver/Inc/stm32f1xx_ll_usart.h **** 
  95:Drivers/STM32F1xx_HAL_Driver/Inc/stm32f1xx_ll_usart.h ****   uint32_t TransferDirection;         /*!< Specifies whether the Receive and/or Transmit mode is en
  96:Drivers/STM32F1xx_HAL_Driver/Inc/stm32f1xx_ll_usart.h ****                                            This parameter can be a value of @ref USART_LL_EC_DIRECT
  97:Drivers/STM32F1xx_HAL_Driver/Inc/stm32f1xx_ll_usart.h **** 
  98:Drivers/STM32F1xx_HAL_Driver/Inc/stm32f1xx_ll_usart.h ****                                            This feature can be modified afterwards using unitary fu
  99:Drivers/STM32F1xx_HAL_Driver/Inc/stm32f1xx_ll_usart.h **** 
 100:Drivers/STM32F1xx_HAL_Driver/Inc/stm32f1xx_ll_usart.h ****   uint32_t HardwareFlowControl;       /*!< Specifies whether the hardware flow control mode is enab
 101:Drivers/STM32F1xx_HAL_Driver/Inc/stm32f1xx_ll_usart.h ****                                            This parameter can be a value of @ref USART_LL_EC_HWCONT
 102:Drivers/STM32F1xx_HAL_Driver/Inc/stm32f1xx_ll_usart.h **** 
 103:Drivers/STM32F1xx_HAL_Driver/Inc/stm32f1xx_ll_usart.h ****                                            This feature can be modified afterwards using unitary fu
 104:Drivers/STM32F1xx_HAL_Driver/Inc/stm32f1xx_ll_usart.h **** 
 105:Drivers/STM32F1xx_HAL_Driver/Inc/stm32f1xx_ll_usart.h ****   uint32_t OverSampling;              /*!< Specifies whether USART oversampling mode is 16 or 8.
 106:Drivers/STM32F1xx_HAL_Driver/Inc/stm32f1xx_ll_usart.h ****                                            This parameter can be a value of @ref USART_LL_EC_OVERSA
 107:Drivers/STM32F1xx_HAL_Driver/Inc/stm32f1xx_ll_usart.h **** 
 108:Drivers/STM32F1xx_HAL_Driver/Inc/stm32f1xx_ll_usart.h ****                                            This feature can be modified afterwards using unitary fu
 109:Drivers/STM32F1xx_HAL_Driver/Inc/stm32f1xx_ll_usart.h **** 
 110:Drivers/STM32F1xx_HAL_Driver/Inc/stm32f1xx_ll_usart.h **** } LL_USART_InitTypeDef;
 111:Drivers/STM32F1xx_HAL_Driver/Inc/stm32f1xx_ll_usart.h **** 
 112:Drivers/STM32F1xx_HAL_Driver/Inc/stm32f1xx_ll_usart.h **** /**
 113:Drivers/STM32F1xx_HAL_Driver/Inc/stm32f1xx_ll_usart.h ****   * @brief LL USART Clock Init Structure definition
 114:Drivers/STM32F1xx_HAL_Driver/Inc/stm32f1xx_ll_usart.h ****   */
 115:Drivers/STM32F1xx_HAL_Driver/Inc/stm32f1xx_ll_usart.h **** typedef struct
 116:Drivers/STM32F1xx_HAL_Driver/Inc/stm32f1xx_ll_usart.h **** {
 117:Drivers/STM32F1xx_HAL_Driver/Inc/stm32f1xx_ll_usart.h ****   uint32_t ClockOutput;               /*!< Specifies whether the USART clock is enabled or disabled
 118:Drivers/STM32F1xx_HAL_Driver/Inc/stm32f1xx_ll_usart.h ****                                            This parameter can be a value of @ref USART_LL_EC_CLOCK.
 119:Drivers/STM32F1xx_HAL_Driver/Inc/stm32f1xx_ll_usart.h **** 
 120:Drivers/STM32F1xx_HAL_Driver/Inc/stm32f1xx_ll_usart.h ****                                            USART HW configuration can be modified afterwards using 
 121:Drivers/STM32F1xx_HAL_Driver/Inc/stm32f1xx_ll_usart.h ****                                            @ref LL_USART_EnableSCLKOutput() or @ref LL_USART_Disabl
 122:Drivers/STM32F1xx_HAL_Driver/Inc/stm32f1xx_ll_usart.h ****                                            For more details, refer to description of this function.
 123:Drivers/STM32F1xx_HAL_Driver/Inc/stm32f1xx_ll_usart.h **** 
 124:Drivers/STM32F1xx_HAL_Driver/Inc/stm32f1xx_ll_usart.h ****   uint32_t ClockPolarity;             /*!< Specifies the steady state of the serial clock.
 125:Drivers/STM32F1xx_HAL_Driver/Inc/stm32f1xx_ll_usart.h ****                                            This parameter can be a value of @ref USART_LL_EC_POLARI
 126:Drivers/STM32F1xx_HAL_Driver/Inc/stm32f1xx_ll_usart.h **** 
 127:Drivers/STM32F1xx_HAL_Driver/Inc/stm32f1xx_ll_usart.h ****                                            USART HW configuration can be modified afterwards using 
 128:Drivers/STM32F1xx_HAL_Driver/Inc/stm32f1xx_ll_usart.h ****                                            For more details, refer to description of this function.
 129:Drivers/STM32F1xx_HAL_Driver/Inc/stm32f1xx_ll_usart.h **** 
 130:Drivers/STM32F1xx_HAL_Driver/Inc/stm32f1xx_ll_usart.h ****   uint32_t ClockPhase;                /*!< Specifies the clock transition on which the bit capture 
 131:Drivers/STM32F1xx_HAL_Driver/Inc/stm32f1xx_ll_usart.h ****                                            This parameter can be a value of @ref USART_LL_EC_PHASE.
ARM GAS  /tmp/ccBpuOwB.s 			page 21


 132:Drivers/STM32F1xx_HAL_Driver/Inc/stm32f1xx_ll_usart.h **** 
 133:Drivers/STM32F1xx_HAL_Driver/Inc/stm32f1xx_ll_usart.h ****                                            USART HW configuration can be modified afterwards using 
 134:Drivers/STM32F1xx_HAL_Driver/Inc/stm32f1xx_ll_usart.h ****                                            For more details, refer to description of this function.
 135:Drivers/STM32F1xx_HAL_Driver/Inc/stm32f1xx_ll_usart.h **** 
 136:Drivers/STM32F1xx_HAL_Driver/Inc/stm32f1xx_ll_usart.h ****   uint32_t LastBitClockPulse;         /*!< Specifies whether the clock pulse corresponding to the l
 137:Drivers/STM32F1xx_HAL_Driver/Inc/stm32f1xx_ll_usart.h ****                                            data bit (MSB) has to be output on the SCLK pin in synch
 138:Drivers/STM32F1xx_HAL_Driver/Inc/stm32f1xx_ll_usart.h ****                                            This parameter can be a value of @ref USART_LL_EC_LASTCL
 139:Drivers/STM32F1xx_HAL_Driver/Inc/stm32f1xx_ll_usart.h **** 
 140:Drivers/STM32F1xx_HAL_Driver/Inc/stm32f1xx_ll_usart.h ****                                            USART HW configuration can be modified afterwards using 
 141:Drivers/STM32F1xx_HAL_Driver/Inc/stm32f1xx_ll_usart.h ****                                            For more details, refer to description of this function.
 142:Drivers/STM32F1xx_HAL_Driver/Inc/stm32f1xx_ll_usart.h **** 
 143:Drivers/STM32F1xx_HAL_Driver/Inc/stm32f1xx_ll_usart.h **** } LL_USART_ClockInitTypeDef;
 144:Drivers/STM32F1xx_HAL_Driver/Inc/stm32f1xx_ll_usart.h **** 
 145:Drivers/STM32F1xx_HAL_Driver/Inc/stm32f1xx_ll_usart.h **** /**
 146:Drivers/STM32F1xx_HAL_Driver/Inc/stm32f1xx_ll_usart.h ****   * @}
 147:Drivers/STM32F1xx_HAL_Driver/Inc/stm32f1xx_ll_usart.h ****   */
 148:Drivers/STM32F1xx_HAL_Driver/Inc/stm32f1xx_ll_usart.h **** #endif /* USE_FULL_LL_DRIVER */
 149:Drivers/STM32F1xx_HAL_Driver/Inc/stm32f1xx_ll_usart.h **** 
 150:Drivers/STM32F1xx_HAL_Driver/Inc/stm32f1xx_ll_usart.h **** /* Exported constants --------------------------------------------------------*/
 151:Drivers/STM32F1xx_HAL_Driver/Inc/stm32f1xx_ll_usart.h **** /** @defgroup USART_LL_Exported_Constants USART Exported Constants
 152:Drivers/STM32F1xx_HAL_Driver/Inc/stm32f1xx_ll_usart.h ****   * @{
 153:Drivers/STM32F1xx_HAL_Driver/Inc/stm32f1xx_ll_usart.h ****   */
 154:Drivers/STM32F1xx_HAL_Driver/Inc/stm32f1xx_ll_usart.h **** 
 155:Drivers/STM32F1xx_HAL_Driver/Inc/stm32f1xx_ll_usart.h **** /** @defgroup USART_LL_EC_GET_FLAG Get Flags Defines
 156:Drivers/STM32F1xx_HAL_Driver/Inc/stm32f1xx_ll_usart.h ****   * @brief    Flags defines which can be used with LL_USART_ReadReg function
 157:Drivers/STM32F1xx_HAL_Driver/Inc/stm32f1xx_ll_usart.h ****   * @{
 158:Drivers/STM32F1xx_HAL_Driver/Inc/stm32f1xx_ll_usart.h ****   */
 159:Drivers/STM32F1xx_HAL_Driver/Inc/stm32f1xx_ll_usart.h **** #define LL_USART_SR_PE                          USART_SR_PE                   /*!< Parity error fla
 160:Drivers/STM32F1xx_HAL_Driver/Inc/stm32f1xx_ll_usart.h **** #define LL_USART_SR_FE                          USART_SR_FE                   /*!< Framing error fl
 161:Drivers/STM32F1xx_HAL_Driver/Inc/stm32f1xx_ll_usart.h **** #define LL_USART_SR_NE                          USART_SR_NE                   /*!< Noise detected f
 162:Drivers/STM32F1xx_HAL_Driver/Inc/stm32f1xx_ll_usart.h **** #define LL_USART_SR_ORE                         USART_SR_ORE                  /*!< Overrun error fl
 163:Drivers/STM32F1xx_HAL_Driver/Inc/stm32f1xx_ll_usart.h **** #define LL_USART_SR_IDLE                        USART_SR_IDLE                 /*!< Idle line detect
 164:Drivers/STM32F1xx_HAL_Driver/Inc/stm32f1xx_ll_usart.h **** #define LL_USART_SR_RXNE                        USART_SR_RXNE                 /*!< Read data regist
 165:Drivers/STM32F1xx_HAL_Driver/Inc/stm32f1xx_ll_usart.h **** #define LL_USART_SR_TC                          USART_SR_TC                   /*!< Transmission com
 166:Drivers/STM32F1xx_HAL_Driver/Inc/stm32f1xx_ll_usart.h **** #define LL_USART_SR_TXE                         USART_SR_TXE                  /*!< Transmit data re
 167:Drivers/STM32F1xx_HAL_Driver/Inc/stm32f1xx_ll_usart.h **** #define LL_USART_SR_LBD                         USART_SR_LBD                  /*!< LIN break detect
 168:Drivers/STM32F1xx_HAL_Driver/Inc/stm32f1xx_ll_usart.h **** #define LL_USART_SR_CTS                         USART_SR_CTS                  /*!< CTS flag */
 169:Drivers/STM32F1xx_HAL_Driver/Inc/stm32f1xx_ll_usart.h **** /**
 170:Drivers/STM32F1xx_HAL_Driver/Inc/stm32f1xx_ll_usart.h ****   * @}
 171:Drivers/STM32F1xx_HAL_Driver/Inc/stm32f1xx_ll_usart.h ****   */
 172:Drivers/STM32F1xx_HAL_Driver/Inc/stm32f1xx_ll_usart.h **** 
 173:Drivers/STM32F1xx_HAL_Driver/Inc/stm32f1xx_ll_usart.h **** /** @defgroup USART_LL_EC_IT IT Defines
 174:Drivers/STM32F1xx_HAL_Driver/Inc/stm32f1xx_ll_usart.h ****   * @brief    IT defines which can be used with LL_USART_ReadReg and  LL_USART_WriteReg functions
 175:Drivers/STM32F1xx_HAL_Driver/Inc/stm32f1xx_ll_usart.h ****   * @{
 176:Drivers/STM32F1xx_HAL_Driver/Inc/stm32f1xx_ll_usart.h ****   */
 177:Drivers/STM32F1xx_HAL_Driver/Inc/stm32f1xx_ll_usart.h **** #define LL_USART_CR1_IDLEIE                     USART_CR1_IDLEIE              /*!< IDLE interrupt e
 178:Drivers/STM32F1xx_HAL_Driver/Inc/stm32f1xx_ll_usart.h **** #define LL_USART_CR1_RXNEIE                     USART_CR1_RXNEIE              /*!< Read data regist
 179:Drivers/STM32F1xx_HAL_Driver/Inc/stm32f1xx_ll_usart.h **** #define LL_USART_CR1_TCIE                       USART_CR1_TCIE                /*!< Transmission com
 180:Drivers/STM32F1xx_HAL_Driver/Inc/stm32f1xx_ll_usart.h **** #define LL_USART_CR1_TXEIE                      USART_CR1_TXEIE               /*!< Transmit data re
 181:Drivers/STM32F1xx_HAL_Driver/Inc/stm32f1xx_ll_usart.h **** #define LL_USART_CR1_PEIE                       USART_CR1_PEIE                /*!< Parity error */
 182:Drivers/STM32F1xx_HAL_Driver/Inc/stm32f1xx_ll_usart.h **** #define LL_USART_CR2_LBDIE                      USART_CR2_LBDIE               /*!< LIN break detect
 183:Drivers/STM32F1xx_HAL_Driver/Inc/stm32f1xx_ll_usart.h **** #define LL_USART_CR3_EIE                        USART_CR3_EIE                 /*!< Error interrupt 
 184:Drivers/STM32F1xx_HAL_Driver/Inc/stm32f1xx_ll_usart.h **** #define LL_USART_CR3_CTSIE                      USART_CR3_CTSIE               /*!< CTS interrupt en
 185:Drivers/STM32F1xx_HAL_Driver/Inc/stm32f1xx_ll_usart.h **** /**
 186:Drivers/STM32F1xx_HAL_Driver/Inc/stm32f1xx_ll_usart.h ****   * @}
 187:Drivers/STM32F1xx_HAL_Driver/Inc/stm32f1xx_ll_usart.h ****   */
 188:Drivers/STM32F1xx_HAL_Driver/Inc/stm32f1xx_ll_usart.h **** 
ARM GAS  /tmp/ccBpuOwB.s 			page 22


 189:Drivers/STM32F1xx_HAL_Driver/Inc/stm32f1xx_ll_usart.h **** /** @defgroup USART_LL_EC_DIRECTION Communication Direction
 190:Drivers/STM32F1xx_HAL_Driver/Inc/stm32f1xx_ll_usart.h ****   * @{
 191:Drivers/STM32F1xx_HAL_Driver/Inc/stm32f1xx_ll_usart.h ****   */
 192:Drivers/STM32F1xx_HAL_Driver/Inc/stm32f1xx_ll_usart.h **** #define LL_USART_DIRECTION_NONE                 0x00000000U                        /*!< Transmitter
 193:Drivers/STM32F1xx_HAL_Driver/Inc/stm32f1xx_ll_usart.h **** #define LL_USART_DIRECTION_RX                   USART_CR1_RE                       /*!< Transmitter
 194:Drivers/STM32F1xx_HAL_Driver/Inc/stm32f1xx_ll_usart.h **** #define LL_USART_DIRECTION_TX                   USART_CR1_TE                       /*!< Transmitter
 195:Drivers/STM32F1xx_HAL_Driver/Inc/stm32f1xx_ll_usart.h **** #define LL_USART_DIRECTION_TX_RX                (USART_CR1_TE |USART_CR1_RE)       /*!< Transmitter
 196:Drivers/STM32F1xx_HAL_Driver/Inc/stm32f1xx_ll_usart.h **** /**
 197:Drivers/STM32F1xx_HAL_Driver/Inc/stm32f1xx_ll_usart.h ****   * @}
 198:Drivers/STM32F1xx_HAL_Driver/Inc/stm32f1xx_ll_usart.h ****   */
 199:Drivers/STM32F1xx_HAL_Driver/Inc/stm32f1xx_ll_usart.h **** 
 200:Drivers/STM32F1xx_HAL_Driver/Inc/stm32f1xx_ll_usart.h **** /** @defgroup USART_LL_EC_PARITY Parity Control
 201:Drivers/STM32F1xx_HAL_Driver/Inc/stm32f1xx_ll_usart.h ****   * @{
 202:Drivers/STM32F1xx_HAL_Driver/Inc/stm32f1xx_ll_usart.h ****   */
 203:Drivers/STM32F1xx_HAL_Driver/Inc/stm32f1xx_ll_usart.h **** #define LL_USART_PARITY_NONE                    0x00000000U                          /*!< Parity co
 204:Drivers/STM32F1xx_HAL_Driver/Inc/stm32f1xx_ll_usart.h **** #define LL_USART_PARITY_EVEN                    USART_CR1_PCE                        /*!< Parity co
 205:Drivers/STM32F1xx_HAL_Driver/Inc/stm32f1xx_ll_usart.h **** #define LL_USART_PARITY_ODD                     (USART_CR1_PCE | USART_CR1_PS)       /*!< Parity co
 206:Drivers/STM32F1xx_HAL_Driver/Inc/stm32f1xx_ll_usart.h **** /**
 207:Drivers/STM32F1xx_HAL_Driver/Inc/stm32f1xx_ll_usart.h ****   * @}
 208:Drivers/STM32F1xx_HAL_Driver/Inc/stm32f1xx_ll_usart.h ****   */
 209:Drivers/STM32F1xx_HAL_Driver/Inc/stm32f1xx_ll_usart.h **** 
 210:Drivers/STM32F1xx_HAL_Driver/Inc/stm32f1xx_ll_usart.h **** /** @defgroup USART_LL_EC_WAKEUP Wakeup
 211:Drivers/STM32F1xx_HAL_Driver/Inc/stm32f1xx_ll_usart.h ****   * @{
 212:Drivers/STM32F1xx_HAL_Driver/Inc/stm32f1xx_ll_usart.h ****   */
 213:Drivers/STM32F1xx_HAL_Driver/Inc/stm32f1xx_ll_usart.h **** #define LL_USART_WAKEUP_IDLELINE                0x00000000U           /*!<  USART wake up from Mute
 214:Drivers/STM32F1xx_HAL_Driver/Inc/stm32f1xx_ll_usart.h **** #define LL_USART_WAKEUP_ADDRESSMARK             USART_CR1_WAKE        /*!<  USART wake up from Mute
 215:Drivers/STM32F1xx_HAL_Driver/Inc/stm32f1xx_ll_usart.h **** /**
 216:Drivers/STM32F1xx_HAL_Driver/Inc/stm32f1xx_ll_usart.h ****   * @}
 217:Drivers/STM32F1xx_HAL_Driver/Inc/stm32f1xx_ll_usart.h ****   */
 218:Drivers/STM32F1xx_HAL_Driver/Inc/stm32f1xx_ll_usart.h **** 
 219:Drivers/STM32F1xx_HAL_Driver/Inc/stm32f1xx_ll_usart.h **** /** @defgroup USART_LL_EC_DATAWIDTH Datawidth
 220:Drivers/STM32F1xx_HAL_Driver/Inc/stm32f1xx_ll_usart.h ****   * @{
 221:Drivers/STM32F1xx_HAL_Driver/Inc/stm32f1xx_ll_usart.h ****   */
 222:Drivers/STM32F1xx_HAL_Driver/Inc/stm32f1xx_ll_usart.h **** #define LL_USART_DATAWIDTH_8B                   0x00000000U             /*!< 8 bits word length : S
 223:Drivers/STM32F1xx_HAL_Driver/Inc/stm32f1xx_ll_usart.h **** #define LL_USART_DATAWIDTH_9B                   USART_CR1_M             /*!< 9 bits word length : S
 224:Drivers/STM32F1xx_HAL_Driver/Inc/stm32f1xx_ll_usart.h **** /**
 225:Drivers/STM32F1xx_HAL_Driver/Inc/stm32f1xx_ll_usart.h ****   * @}
 226:Drivers/STM32F1xx_HAL_Driver/Inc/stm32f1xx_ll_usart.h ****   */
 227:Drivers/STM32F1xx_HAL_Driver/Inc/stm32f1xx_ll_usart.h **** 
 228:Drivers/STM32F1xx_HAL_Driver/Inc/stm32f1xx_ll_usart.h **** /** @defgroup USART_LL_EC_OVERSAMPLING Oversampling
 229:Drivers/STM32F1xx_HAL_Driver/Inc/stm32f1xx_ll_usart.h ****   * @{
 230:Drivers/STM32F1xx_HAL_Driver/Inc/stm32f1xx_ll_usart.h ****   */
 231:Drivers/STM32F1xx_HAL_Driver/Inc/stm32f1xx_ll_usart.h **** #define LL_USART_OVERSAMPLING_16                0x00000000U            /*!< Oversampling by 16 */
 232:Drivers/STM32F1xx_HAL_Driver/Inc/stm32f1xx_ll_usart.h **** #if  defined(USART_CR1_OVER8)
 233:Drivers/STM32F1xx_HAL_Driver/Inc/stm32f1xx_ll_usart.h **** #define LL_USART_OVERSAMPLING_8                 USART_CR1_OVER8        /*!< Oversampling by 8 */
 234:Drivers/STM32F1xx_HAL_Driver/Inc/stm32f1xx_ll_usart.h **** #endif /* USART_OverSampling_Feature */
 235:Drivers/STM32F1xx_HAL_Driver/Inc/stm32f1xx_ll_usart.h **** /**
 236:Drivers/STM32F1xx_HAL_Driver/Inc/stm32f1xx_ll_usart.h ****   * @}
 237:Drivers/STM32F1xx_HAL_Driver/Inc/stm32f1xx_ll_usart.h ****   */
 238:Drivers/STM32F1xx_HAL_Driver/Inc/stm32f1xx_ll_usart.h **** 
 239:Drivers/STM32F1xx_HAL_Driver/Inc/stm32f1xx_ll_usart.h **** #if defined(USE_FULL_LL_DRIVER)
 240:Drivers/STM32F1xx_HAL_Driver/Inc/stm32f1xx_ll_usart.h **** /** @defgroup USART_LL_EC_CLOCK Clock Signal
 241:Drivers/STM32F1xx_HAL_Driver/Inc/stm32f1xx_ll_usart.h ****   * @{
 242:Drivers/STM32F1xx_HAL_Driver/Inc/stm32f1xx_ll_usart.h ****   */
 243:Drivers/STM32F1xx_HAL_Driver/Inc/stm32f1xx_ll_usart.h **** 
 244:Drivers/STM32F1xx_HAL_Driver/Inc/stm32f1xx_ll_usart.h **** #define LL_USART_CLOCK_DISABLE                  0x00000000U            /*!< Clock signal not provid
 245:Drivers/STM32F1xx_HAL_Driver/Inc/stm32f1xx_ll_usart.h **** #define LL_USART_CLOCK_ENABLE                   USART_CR2_CLKEN        /*!< Clock signal provided *
ARM GAS  /tmp/ccBpuOwB.s 			page 23


 246:Drivers/STM32F1xx_HAL_Driver/Inc/stm32f1xx_ll_usart.h **** /**
 247:Drivers/STM32F1xx_HAL_Driver/Inc/stm32f1xx_ll_usart.h ****   * @}
 248:Drivers/STM32F1xx_HAL_Driver/Inc/stm32f1xx_ll_usart.h ****   */
 249:Drivers/STM32F1xx_HAL_Driver/Inc/stm32f1xx_ll_usart.h **** #endif /*USE_FULL_LL_DRIVER*/
 250:Drivers/STM32F1xx_HAL_Driver/Inc/stm32f1xx_ll_usart.h **** 
 251:Drivers/STM32F1xx_HAL_Driver/Inc/stm32f1xx_ll_usart.h **** /** @defgroup USART_LL_EC_LASTCLKPULSE Last Clock Pulse
 252:Drivers/STM32F1xx_HAL_Driver/Inc/stm32f1xx_ll_usart.h ****   * @{
 253:Drivers/STM32F1xx_HAL_Driver/Inc/stm32f1xx_ll_usart.h ****   */
 254:Drivers/STM32F1xx_HAL_Driver/Inc/stm32f1xx_ll_usart.h **** #define LL_USART_LASTCLKPULSE_NO_OUTPUT         0x00000000U           /*!< The clock pulse of the l
 255:Drivers/STM32F1xx_HAL_Driver/Inc/stm32f1xx_ll_usart.h **** #define LL_USART_LASTCLKPULSE_OUTPUT            USART_CR2_LBCL        /*!< The clock pulse of the l
 256:Drivers/STM32F1xx_HAL_Driver/Inc/stm32f1xx_ll_usart.h **** /**
 257:Drivers/STM32F1xx_HAL_Driver/Inc/stm32f1xx_ll_usart.h ****   * @}
 258:Drivers/STM32F1xx_HAL_Driver/Inc/stm32f1xx_ll_usart.h ****   */
 259:Drivers/STM32F1xx_HAL_Driver/Inc/stm32f1xx_ll_usart.h **** 
 260:Drivers/STM32F1xx_HAL_Driver/Inc/stm32f1xx_ll_usart.h **** /** @defgroup USART_LL_EC_PHASE Clock Phase
 261:Drivers/STM32F1xx_HAL_Driver/Inc/stm32f1xx_ll_usart.h ****   * @{
 262:Drivers/STM32F1xx_HAL_Driver/Inc/stm32f1xx_ll_usart.h ****   */
 263:Drivers/STM32F1xx_HAL_Driver/Inc/stm32f1xx_ll_usart.h **** #define LL_USART_PHASE_1EDGE                    0x00000000U           /*!< The first clock transiti
 264:Drivers/STM32F1xx_HAL_Driver/Inc/stm32f1xx_ll_usart.h **** #define LL_USART_PHASE_2EDGE                    USART_CR2_CPHA        /*!< The second clock transit
 265:Drivers/STM32F1xx_HAL_Driver/Inc/stm32f1xx_ll_usart.h **** /**
 266:Drivers/STM32F1xx_HAL_Driver/Inc/stm32f1xx_ll_usart.h ****   * @}
 267:Drivers/STM32F1xx_HAL_Driver/Inc/stm32f1xx_ll_usart.h ****   */
 268:Drivers/STM32F1xx_HAL_Driver/Inc/stm32f1xx_ll_usart.h **** 
 269:Drivers/STM32F1xx_HAL_Driver/Inc/stm32f1xx_ll_usart.h **** /** @defgroup USART_LL_EC_POLARITY Clock Polarity
 270:Drivers/STM32F1xx_HAL_Driver/Inc/stm32f1xx_ll_usart.h ****   * @{
 271:Drivers/STM32F1xx_HAL_Driver/Inc/stm32f1xx_ll_usart.h ****   */
 272:Drivers/STM32F1xx_HAL_Driver/Inc/stm32f1xx_ll_usart.h **** #define LL_USART_POLARITY_LOW                   0x00000000U           /*!< Steady low value on SCLK
 273:Drivers/STM32F1xx_HAL_Driver/Inc/stm32f1xx_ll_usart.h **** #define LL_USART_POLARITY_HIGH                  USART_CR2_CPOL        /*!< Steady high value on SCL
 274:Drivers/STM32F1xx_HAL_Driver/Inc/stm32f1xx_ll_usart.h **** /**
 275:Drivers/STM32F1xx_HAL_Driver/Inc/stm32f1xx_ll_usart.h ****   * @}
 276:Drivers/STM32F1xx_HAL_Driver/Inc/stm32f1xx_ll_usart.h ****   */
 277:Drivers/STM32F1xx_HAL_Driver/Inc/stm32f1xx_ll_usart.h **** 
 278:Drivers/STM32F1xx_HAL_Driver/Inc/stm32f1xx_ll_usart.h **** /** @defgroup USART_LL_EC_STOPBITS Stop Bits
 279:Drivers/STM32F1xx_HAL_Driver/Inc/stm32f1xx_ll_usart.h ****   * @{
 280:Drivers/STM32F1xx_HAL_Driver/Inc/stm32f1xx_ll_usart.h ****   */
 281:Drivers/STM32F1xx_HAL_Driver/Inc/stm32f1xx_ll_usart.h **** #define LL_USART_STOPBITS_0_5                   USART_CR2_STOP_0                           /*!< 0.5
 282:Drivers/STM32F1xx_HAL_Driver/Inc/stm32f1xx_ll_usart.h **** #define LL_USART_STOPBITS_1                     0x00000000U                                /*!< 1 s
 283:Drivers/STM32F1xx_HAL_Driver/Inc/stm32f1xx_ll_usart.h **** #define LL_USART_STOPBITS_1_5                   (USART_CR2_STOP_0 | USART_CR2_STOP_1)      /*!< 1.5
 284:Drivers/STM32F1xx_HAL_Driver/Inc/stm32f1xx_ll_usart.h **** #define LL_USART_STOPBITS_2                     USART_CR2_STOP_1                           /*!< 2 s
 285:Drivers/STM32F1xx_HAL_Driver/Inc/stm32f1xx_ll_usart.h **** /**
 286:Drivers/STM32F1xx_HAL_Driver/Inc/stm32f1xx_ll_usart.h ****   * @}
 287:Drivers/STM32F1xx_HAL_Driver/Inc/stm32f1xx_ll_usart.h ****   */
 288:Drivers/STM32F1xx_HAL_Driver/Inc/stm32f1xx_ll_usart.h **** 
 289:Drivers/STM32F1xx_HAL_Driver/Inc/stm32f1xx_ll_usart.h **** /** @defgroup USART_LL_EC_HWCONTROL Hardware Control
 290:Drivers/STM32F1xx_HAL_Driver/Inc/stm32f1xx_ll_usart.h ****   * @{
 291:Drivers/STM32F1xx_HAL_Driver/Inc/stm32f1xx_ll_usart.h ****   */
 292:Drivers/STM32F1xx_HAL_Driver/Inc/stm32f1xx_ll_usart.h **** #define LL_USART_HWCONTROL_NONE                 0x00000000U                          /*!< CTS and R
 293:Drivers/STM32F1xx_HAL_Driver/Inc/stm32f1xx_ll_usart.h **** #define LL_USART_HWCONTROL_RTS                  USART_CR3_RTSE                       /*!< RTS outpu
 294:Drivers/STM32F1xx_HAL_Driver/Inc/stm32f1xx_ll_usart.h **** #define LL_USART_HWCONTROL_CTS                  USART_CR3_CTSE                       /*!< CTS mode 
 295:Drivers/STM32F1xx_HAL_Driver/Inc/stm32f1xx_ll_usart.h **** #define LL_USART_HWCONTROL_RTS_CTS              (USART_CR3_RTSE | USART_CR3_CTSE)    /*!< CTS and R
 296:Drivers/STM32F1xx_HAL_Driver/Inc/stm32f1xx_ll_usart.h **** /**
 297:Drivers/STM32F1xx_HAL_Driver/Inc/stm32f1xx_ll_usart.h ****   * @}
 298:Drivers/STM32F1xx_HAL_Driver/Inc/stm32f1xx_ll_usart.h ****   */
 299:Drivers/STM32F1xx_HAL_Driver/Inc/stm32f1xx_ll_usart.h **** 
 300:Drivers/STM32F1xx_HAL_Driver/Inc/stm32f1xx_ll_usart.h **** /** @defgroup USART_LL_EC_IRDA_POWER IrDA Power
 301:Drivers/STM32F1xx_HAL_Driver/Inc/stm32f1xx_ll_usart.h ****   * @{
 302:Drivers/STM32F1xx_HAL_Driver/Inc/stm32f1xx_ll_usart.h ****   */
ARM GAS  /tmp/ccBpuOwB.s 			page 24


 303:Drivers/STM32F1xx_HAL_Driver/Inc/stm32f1xx_ll_usart.h **** #define LL_USART_IRDA_POWER_NORMAL              0x00000000U           /*!< IrDA normal power mode *
 304:Drivers/STM32F1xx_HAL_Driver/Inc/stm32f1xx_ll_usart.h **** #define LL_USART_IRDA_POWER_LOW                 USART_CR3_IRLP        /*!< IrDA low power mode */
 305:Drivers/STM32F1xx_HAL_Driver/Inc/stm32f1xx_ll_usart.h **** /**
 306:Drivers/STM32F1xx_HAL_Driver/Inc/stm32f1xx_ll_usart.h ****   * @}
 307:Drivers/STM32F1xx_HAL_Driver/Inc/stm32f1xx_ll_usart.h ****   */
 308:Drivers/STM32F1xx_HAL_Driver/Inc/stm32f1xx_ll_usart.h **** 
 309:Drivers/STM32F1xx_HAL_Driver/Inc/stm32f1xx_ll_usart.h **** /** @defgroup USART_LL_EC_LINBREAK_DETECT LIN Break Detection Length
 310:Drivers/STM32F1xx_HAL_Driver/Inc/stm32f1xx_ll_usart.h ****   * @{
 311:Drivers/STM32F1xx_HAL_Driver/Inc/stm32f1xx_ll_usart.h ****   */
 312:Drivers/STM32F1xx_HAL_Driver/Inc/stm32f1xx_ll_usart.h **** #define LL_USART_LINBREAK_DETECT_10B            0x00000000U           /*!< 10-bit break detection m
 313:Drivers/STM32F1xx_HAL_Driver/Inc/stm32f1xx_ll_usart.h **** #define LL_USART_LINBREAK_DETECT_11B            USART_CR2_LBDL        /*!< 11-bit break detection m
 314:Drivers/STM32F1xx_HAL_Driver/Inc/stm32f1xx_ll_usart.h **** /**
 315:Drivers/STM32F1xx_HAL_Driver/Inc/stm32f1xx_ll_usart.h ****   * @}
 316:Drivers/STM32F1xx_HAL_Driver/Inc/stm32f1xx_ll_usart.h ****   */
 317:Drivers/STM32F1xx_HAL_Driver/Inc/stm32f1xx_ll_usart.h **** 
 318:Drivers/STM32F1xx_HAL_Driver/Inc/stm32f1xx_ll_usart.h **** /**
 319:Drivers/STM32F1xx_HAL_Driver/Inc/stm32f1xx_ll_usart.h ****   * @}
 320:Drivers/STM32F1xx_HAL_Driver/Inc/stm32f1xx_ll_usart.h ****   */
 321:Drivers/STM32F1xx_HAL_Driver/Inc/stm32f1xx_ll_usart.h **** 
 322:Drivers/STM32F1xx_HAL_Driver/Inc/stm32f1xx_ll_usart.h **** /* Exported macro ------------------------------------------------------------*/
 323:Drivers/STM32F1xx_HAL_Driver/Inc/stm32f1xx_ll_usart.h **** /** @defgroup USART_LL_Exported_Macros USART Exported Macros
 324:Drivers/STM32F1xx_HAL_Driver/Inc/stm32f1xx_ll_usart.h ****   * @{
 325:Drivers/STM32F1xx_HAL_Driver/Inc/stm32f1xx_ll_usart.h ****   */
 326:Drivers/STM32F1xx_HAL_Driver/Inc/stm32f1xx_ll_usart.h **** 
 327:Drivers/STM32F1xx_HAL_Driver/Inc/stm32f1xx_ll_usart.h **** /** @defgroup USART_LL_EM_WRITE_READ Common Write and read registers Macros
 328:Drivers/STM32F1xx_HAL_Driver/Inc/stm32f1xx_ll_usart.h ****   * @{
 329:Drivers/STM32F1xx_HAL_Driver/Inc/stm32f1xx_ll_usart.h ****   */
 330:Drivers/STM32F1xx_HAL_Driver/Inc/stm32f1xx_ll_usart.h **** 
 331:Drivers/STM32F1xx_HAL_Driver/Inc/stm32f1xx_ll_usart.h **** /**
 332:Drivers/STM32F1xx_HAL_Driver/Inc/stm32f1xx_ll_usart.h ****   * @brief  Write a value in USART register
 333:Drivers/STM32F1xx_HAL_Driver/Inc/stm32f1xx_ll_usart.h ****   * @param  __INSTANCE__ USART Instance
 334:Drivers/STM32F1xx_HAL_Driver/Inc/stm32f1xx_ll_usart.h ****   * @param  __REG__ Register to be written
 335:Drivers/STM32F1xx_HAL_Driver/Inc/stm32f1xx_ll_usart.h ****   * @param  __VALUE__ Value to be written in the register
 336:Drivers/STM32F1xx_HAL_Driver/Inc/stm32f1xx_ll_usart.h ****   * @retval None
 337:Drivers/STM32F1xx_HAL_Driver/Inc/stm32f1xx_ll_usart.h ****   */
 338:Drivers/STM32F1xx_HAL_Driver/Inc/stm32f1xx_ll_usart.h **** #define LL_USART_WriteReg(__INSTANCE__, __REG__, __VALUE__) WRITE_REG(__INSTANCE__->__REG__, (__VAL
 339:Drivers/STM32F1xx_HAL_Driver/Inc/stm32f1xx_ll_usart.h **** 
 340:Drivers/STM32F1xx_HAL_Driver/Inc/stm32f1xx_ll_usart.h **** /**
 341:Drivers/STM32F1xx_HAL_Driver/Inc/stm32f1xx_ll_usart.h ****   * @brief  Read a value in USART register
 342:Drivers/STM32F1xx_HAL_Driver/Inc/stm32f1xx_ll_usart.h ****   * @param  __INSTANCE__ USART Instance
 343:Drivers/STM32F1xx_HAL_Driver/Inc/stm32f1xx_ll_usart.h ****   * @param  __REG__ Register to be read
 344:Drivers/STM32F1xx_HAL_Driver/Inc/stm32f1xx_ll_usart.h ****   * @retval Register value
 345:Drivers/STM32F1xx_HAL_Driver/Inc/stm32f1xx_ll_usart.h ****   */
 346:Drivers/STM32F1xx_HAL_Driver/Inc/stm32f1xx_ll_usart.h **** #define LL_USART_ReadReg(__INSTANCE__, __REG__) READ_REG(__INSTANCE__->__REG__)
 347:Drivers/STM32F1xx_HAL_Driver/Inc/stm32f1xx_ll_usart.h **** /**
 348:Drivers/STM32F1xx_HAL_Driver/Inc/stm32f1xx_ll_usart.h ****   * @}
 349:Drivers/STM32F1xx_HAL_Driver/Inc/stm32f1xx_ll_usart.h ****   */
 350:Drivers/STM32F1xx_HAL_Driver/Inc/stm32f1xx_ll_usart.h **** 
 351:Drivers/STM32F1xx_HAL_Driver/Inc/stm32f1xx_ll_usart.h **** /** @defgroup USART_LL_EM_Exported_Macros_Helper Exported_Macros_Helper
 352:Drivers/STM32F1xx_HAL_Driver/Inc/stm32f1xx_ll_usart.h ****   * @{
 353:Drivers/STM32F1xx_HAL_Driver/Inc/stm32f1xx_ll_usart.h ****   */
 354:Drivers/STM32F1xx_HAL_Driver/Inc/stm32f1xx_ll_usart.h **** 
 355:Drivers/STM32F1xx_HAL_Driver/Inc/stm32f1xx_ll_usart.h **** /**
 356:Drivers/STM32F1xx_HAL_Driver/Inc/stm32f1xx_ll_usart.h ****   * @brief  Compute USARTDIV value according to Peripheral Clock and
 357:Drivers/STM32F1xx_HAL_Driver/Inc/stm32f1xx_ll_usart.h ****   *         expected Baud Rate in 8 bits sampling mode (32 bits value of USARTDIV is returned)
 358:Drivers/STM32F1xx_HAL_Driver/Inc/stm32f1xx_ll_usart.h ****   * @param  __PERIPHCLK__ Peripheral Clock frequency used for USART instance
 359:Drivers/STM32F1xx_HAL_Driver/Inc/stm32f1xx_ll_usart.h ****   * @param  __BAUDRATE__ Baud rate value to achieve
ARM GAS  /tmp/ccBpuOwB.s 			page 25


 360:Drivers/STM32F1xx_HAL_Driver/Inc/stm32f1xx_ll_usart.h ****   * @retval USARTDIV value to be used for BRR register filling in OverSampling_8 case
 361:Drivers/STM32F1xx_HAL_Driver/Inc/stm32f1xx_ll_usart.h ****   */
 362:Drivers/STM32F1xx_HAL_Driver/Inc/stm32f1xx_ll_usart.h **** #define __LL_USART_DIV_SAMPLING8_100(__PERIPHCLK__, __BAUDRATE__)      (((__PERIPHCLK__)*25)/(2*(__
 363:Drivers/STM32F1xx_HAL_Driver/Inc/stm32f1xx_ll_usart.h **** #define __LL_USART_DIVMANT_SAMPLING8(__PERIPHCLK__, __BAUDRATE__)      (__LL_USART_DIV_SAMPLING8_10
 364:Drivers/STM32F1xx_HAL_Driver/Inc/stm32f1xx_ll_usart.h **** #define __LL_USART_DIVFRAQ_SAMPLING8(__PERIPHCLK__, __BAUDRATE__)      (((__LL_USART_DIV_SAMPLING8_
 365:Drivers/STM32F1xx_HAL_Driver/Inc/stm32f1xx_ll_usart.h **** /* UART BRR = mantissa + overflow + fraction
 366:Drivers/STM32F1xx_HAL_Driver/Inc/stm32f1xx_ll_usart.h ****             = (UART DIVMANT << 4) + ((UART DIVFRAQ & 0xF8) << 1) + (UART DIVFRAQ & 0x07) */
 367:Drivers/STM32F1xx_HAL_Driver/Inc/stm32f1xx_ll_usart.h **** #define __LL_USART_DIV_SAMPLING8(__PERIPHCLK__, __BAUDRATE__)             (((__LL_USART_DIVMANT_SAM
 368:Drivers/STM32F1xx_HAL_Driver/Inc/stm32f1xx_ll_usart.h ****                                                                            ((__LL_USART_DIVFRAQ_SAM
 369:Drivers/STM32F1xx_HAL_Driver/Inc/stm32f1xx_ll_usart.h ****                                                                            (__LL_USART_DIVFRAQ_SAMP
 370:Drivers/STM32F1xx_HAL_Driver/Inc/stm32f1xx_ll_usart.h **** 
 371:Drivers/STM32F1xx_HAL_Driver/Inc/stm32f1xx_ll_usart.h **** /**
 372:Drivers/STM32F1xx_HAL_Driver/Inc/stm32f1xx_ll_usart.h ****   * @brief  Compute USARTDIV value according to Peripheral Clock and
 373:Drivers/STM32F1xx_HAL_Driver/Inc/stm32f1xx_ll_usart.h ****   *         expected Baud Rate in 16 bits sampling mode (32 bits value of USARTDIV is returned)
 374:Drivers/STM32F1xx_HAL_Driver/Inc/stm32f1xx_ll_usart.h ****   * @param  __PERIPHCLK__ Peripheral Clock frequency used for USART instance
 375:Drivers/STM32F1xx_HAL_Driver/Inc/stm32f1xx_ll_usart.h ****   * @param  __BAUDRATE__ Baud rate value to achieve
 376:Drivers/STM32F1xx_HAL_Driver/Inc/stm32f1xx_ll_usart.h ****   * @retval USARTDIV value to be used for BRR register filling in OverSampling_16 case
 377:Drivers/STM32F1xx_HAL_Driver/Inc/stm32f1xx_ll_usart.h ****   */
 378:Drivers/STM32F1xx_HAL_Driver/Inc/stm32f1xx_ll_usart.h **** #define __LL_USART_DIV_SAMPLING16_100(__PERIPHCLK__, __BAUDRATE__)     (((__PERIPHCLK__)*25)/(4*(__
 379:Drivers/STM32F1xx_HAL_Driver/Inc/stm32f1xx_ll_usart.h **** #define __LL_USART_DIVMANT_SAMPLING16(__PERIPHCLK__, __BAUDRATE__)     (__LL_USART_DIV_SAMPLING16_1
 380:Drivers/STM32F1xx_HAL_Driver/Inc/stm32f1xx_ll_usart.h **** #define __LL_USART_DIVFRAQ_SAMPLING16(__PERIPHCLK__, __BAUDRATE__)     ((((__LL_USART_DIV_SAMPLING1
 381:Drivers/STM32F1xx_HAL_Driver/Inc/stm32f1xx_ll_usart.h **** /* USART BRR = mantissa + overflow + fraction
 382:Drivers/STM32F1xx_HAL_Driver/Inc/stm32f1xx_ll_usart.h ****             = (USART DIVMANT << 4) + (USART DIVFRAQ & 0xF0) + (USART DIVFRAQ & 0x0F) */
 383:Drivers/STM32F1xx_HAL_Driver/Inc/stm32f1xx_ll_usart.h **** #define __LL_USART_DIV_SAMPLING16(__PERIPHCLK__, __BAUDRATE__)            (((__LL_USART_DIVMANT_SAM
 384:Drivers/STM32F1xx_HAL_Driver/Inc/stm32f1xx_ll_usart.h ****                                                                            (__LL_USART_DIVFRAQ_SAMP
 385:Drivers/STM32F1xx_HAL_Driver/Inc/stm32f1xx_ll_usart.h ****                                                                            (__LL_USART_DIVFRAQ_SAMP
 386:Drivers/STM32F1xx_HAL_Driver/Inc/stm32f1xx_ll_usart.h **** 
 387:Drivers/STM32F1xx_HAL_Driver/Inc/stm32f1xx_ll_usart.h **** /**
 388:Drivers/STM32F1xx_HAL_Driver/Inc/stm32f1xx_ll_usart.h ****   * @}
 389:Drivers/STM32F1xx_HAL_Driver/Inc/stm32f1xx_ll_usart.h ****   */
 390:Drivers/STM32F1xx_HAL_Driver/Inc/stm32f1xx_ll_usart.h **** 
 391:Drivers/STM32F1xx_HAL_Driver/Inc/stm32f1xx_ll_usart.h **** /**
 392:Drivers/STM32F1xx_HAL_Driver/Inc/stm32f1xx_ll_usart.h ****   * @}
 393:Drivers/STM32F1xx_HAL_Driver/Inc/stm32f1xx_ll_usart.h ****   */
 394:Drivers/STM32F1xx_HAL_Driver/Inc/stm32f1xx_ll_usart.h **** 
 395:Drivers/STM32F1xx_HAL_Driver/Inc/stm32f1xx_ll_usart.h **** /* Exported functions --------------------------------------------------------*/
 396:Drivers/STM32F1xx_HAL_Driver/Inc/stm32f1xx_ll_usart.h **** 
 397:Drivers/STM32F1xx_HAL_Driver/Inc/stm32f1xx_ll_usart.h **** /** @defgroup USART_LL_Exported_Functions USART Exported Functions
 398:Drivers/STM32F1xx_HAL_Driver/Inc/stm32f1xx_ll_usart.h ****   * @{
 399:Drivers/STM32F1xx_HAL_Driver/Inc/stm32f1xx_ll_usart.h ****   */
 400:Drivers/STM32F1xx_HAL_Driver/Inc/stm32f1xx_ll_usart.h **** 
 401:Drivers/STM32F1xx_HAL_Driver/Inc/stm32f1xx_ll_usart.h **** /** @defgroup USART_LL_EF_Configuration Configuration functions
 402:Drivers/STM32F1xx_HAL_Driver/Inc/stm32f1xx_ll_usart.h ****   * @{
 403:Drivers/STM32F1xx_HAL_Driver/Inc/stm32f1xx_ll_usart.h ****   */
 404:Drivers/STM32F1xx_HAL_Driver/Inc/stm32f1xx_ll_usart.h **** 
 405:Drivers/STM32F1xx_HAL_Driver/Inc/stm32f1xx_ll_usart.h **** /**
 406:Drivers/STM32F1xx_HAL_Driver/Inc/stm32f1xx_ll_usart.h ****   * @brief  USART Enable
 407:Drivers/STM32F1xx_HAL_Driver/Inc/stm32f1xx_ll_usart.h ****   * @rmtoll CR1          UE            LL_USART_Enable
 408:Drivers/STM32F1xx_HAL_Driver/Inc/stm32f1xx_ll_usart.h ****   * @param  USARTx USART Instance
 409:Drivers/STM32F1xx_HAL_Driver/Inc/stm32f1xx_ll_usart.h ****   * @retval None
 410:Drivers/STM32F1xx_HAL_Driver/Inc/stm32f1xx_ll_usart.h ****   */
 411:Drivers/STM32F1xx_HAL_Driver/Inc/stm32f1xx_ll_usart.h **** __STATIC_INLINE void LL_USART_Enable(USART_TypeDef *USARTx)
 412:Drivers/STM32F1xx_HAL_Driver/Inc/stm32f1xx_ll_usart.h **** {
 413:Drivers/STM32F1xx_HAL_Driver/Inc/stm32f1xx_ll_usart.h ****   SET_BIT(USARTx->CR1, USART_CR1_UE);
 414:Drivers/STM32F1xx_HAL_Driver/Inc/stm32f1xx_ll_usart.h **** }
 415:Drivers/STM32F1xx_HAL_Driver/Inc/stm32f1xx_ll_usart.h **** 
 416:Drivers/STM32F1xx_HAL_Driver/Inc/stm32f1xx_ll_usart.h **** /**
ARM GAS  /tmp/ccBpuOwB.s 			page 26


 417:Drivers/STM32F1xx_HAL_Driver/Inc/stm32f1xx_ll_usart.h ****   * @brief  USART Disable (all USART prescalers and outputs are disabled)
 418:Drivers/STM32F1xx_HAL_Driver/Inc/stm32f1xx_ll_usart.h ****   * @note   When USART is disabled, USART prescalers and outputs are stopped immediately,
 419:Drivers/STM32F1xx_HAL_Driver/Inc/stm32f1xx_ll_usart.h ****   *         and current operations are discarded. The configuration of the USART is kept, but all t
 420:Drivers/STM32F1xx_HAL_Driver/Inc/stm32f1xx_ll_usart.h ****   *         flags, in the USARTx_SR are set to their default values.
 421:Drivers/STM32F1xx_HAL_Driver/Inc/stm32f1xx_ll_usart.h ****   * @rmtoll CR1          UE            LL_USART_Disable
 422:Drivers/STM32F1xx_HAL_Driver/Inc/stm32f1xx_ll_usart.h ****   * @param  USARTx USART Instance
 423:Drivers/STM32F1xx_HAL_Driver/Inc/stm32f1xx_ll_usart.h ****   * @retval None
 424:Drivers/STM32F1xx_HAL_Driver/Inc/stm32f1xx_ll_usart.h ****   */
 425:Drivers/STM32F1xx_HAL_Driver/Inc/stm32f1xx_ll_usart.h **** __STATIC_INLINE void LL_USART_Disable(USART_TypeDef *USARTx)
 426:Drivers/STM32F1xx_HAL_Driver/Inc/stm32f1xx_ll_usart.h **** {
 427:Drivers/STM32F1xx_HAL_Driver/Inc/stm32f1xx_ll_usart.h ****   CLEAR_BIT(USARTx->CR1, USART_CR1_UE);
 428:Drivers/STM32F1xx_HAL_Driver/Inc/stm32f1xx_ll_usart.h **** }
 429:Drivers/STM32F1xx_HAL_Driver/Inc/stm32f1xx_ll_usart.h **** 
 430:Drivers/STM32F1xx_HAL_Driver/Inc/stm32f1xx_ll_usart.h **** /**
 431:Drivers/STM32F1xx_HAL_Driver/Inc/stm32f1xx_ll_usart.h ****   * @brief  Indicate if USART is enabled
 432:Drivers/STM32F1xx_HAL_Driver/Inc/stm32f1xx_ll_usart.h ****   * @rmtoll CR1          UE            LL_USART_IsEnabled
 433:Drivers/STM32F1xx_HAL_Driver/Inc/stm32f1xx_ll_usart.h ****   * @param  USARTx USART Instance
 434:Drivers/STM32F1xx_HAL_Driver/Inc/stm32f1xx_ll_usart.h ****   * @retval State of bit (1 or 0).
 435:Drivers/STM32F1xx_HAL_Driver/Inc/stm32f1xx_ll_usart.h ****   */
 436:Drivers/STM32F1xx_HAL_Driver/Inc/stm32f1xx_ll_usart.h **** __STATIC_INLINE uint32_t LL_USART_IsEnabled(USART_TypeDef *USARTx)
 437:Drivers/STM32F1xx_HAL_Driver/Inc/stm32f1xx_ll_usart.h **** {
 438:Drivers/STM32F1xx_HAL_Driver/Inc/stm32f1xx_ll_usart.h ****   return (READ_BIT(USARTx->CR1, USART_CR1_UE) == (USART_CR1_UE));
 439:Drivers/STM32F1xx_HAL_Driver/Inc/stm32f1xx_ll_usart.h **** }
 440:Drivers/STM32F1xx_HAL_Driver/Inc/stm32f1xx_ll_usart.h **** 
 441:Drivers/STM32F1xx_HAL_Driver/Inc/stm32f1xx_ll_usart.h **** /**
 442:Drivers/STM32F1xx_HAL_Driver/Inc/stm32f1xx_ll_usart.h ****   * @brief  Receiver Enable (Receiver is enabled and begins searching for a start bit)
 443:Drivers/STM32F1xx_HAL_Driver/Inc/stm32f1xx_ll_usart.h ****   * @rmtoll CR1          RE            LL_USART_EnableDirectionRx
 444:Drivers/STM32F1xx_HAL_Driver/Inc/stm32f1xx_ll_usart.h ****   * @param  USARTx USART Instance
 445:Drivers/STM32F1xx_HAL_Driver/Inc/stm32f1xx_ll_usart.h ****   * @retval None
 446:Drivers/STM32F1xx_HAL_Driver/Inc/stm32f1xx_ll_usart.h ****   */
 447:Drivers/STM32F1xx_HAL_Driver/Inc/stm32f1xx_ll_usart.h **** __STATIC_INLINE void LL_USART_EnableDirectionRx(USART_TypeDef *USARTx)
 448:Drivers/STM32F1xx_HAL_Driver/Inc/stm32f1xx_ll_usart.h **** {
 449:Drivers/STM32F1xx_HAL_Driver/Inc/stm32f1xx_ll_usart.h ****   SET_BIT(USARTx->CR1, USART_CR1_RE);
 450:Drivers/STM32F1xx_HAL_Driver/Inc/stm32f1xx_ll_usart.h **** }
 451:Drivers/STM32F1xx_HAL_Driver/Inc/stm32f1xx_ll_usart.h **** 
 452:Drivers/STM32F1xx_HAL_Driver/Inc/stm32f1xx_ll_usart.h **** /**
 453:Drivers/STM32F1xx_HAL_Driver/Inc/stm32f1xx_ll_usart.h ****   * @brief  Receiver Disable
 454:Drivers/STM32F1xx_HAL_Driver/Inc/stm32f1xx_ll_usart.h ****   * @rmtoll CR1          RE            LL_USART_DisableDirectionRx
 455:Drivers/STM32F1xx_HAL_Driver/Inc/stm32f1xx_ll_usart.h ****   * @param  USARTx USART Instance
 456:Drivers/STM32F1xx_HAL_Driver/Inc/stm32f1xx_ll_usart.h ****   * @retval None
 457:Drivers/STM32F1xx_HAL_Driver/Inc/stm32f1xx_ll_usart.h ****   */
 458:Drivers/STM32F1xx_HAL_Driver/Inc/stm32f1xx_ll_usart.h **** __STATIC_INLINE void LL_USART_DisableDirectionRx(USART_TypeDef *USARTx)
 459:Drivers/STM32F1xx_HAL_Driver/Inc/stm32f1xx_ll_usart.h **** {
 460:Drivers/STM32F1xx_HAL_Driver/Inc/stm32f1xx_ll_usart.h ****   CLEAR_BIT(USARTx->CR1, USART_CR1_RE);
 461:Drivers/STM32F1xx_HAL_Driver/Inc/stm32f1xx_ll_usart.h **** }
 462:Drivers/STM32F1xx_HAL_Driver/Inc/stm32f1xx_ll_usart.h **** 
 463:Drivers/STM32F1xx_HAL_Driver/Inc/stm32f1xx_ll_usart.h **** /**
 464:Drivers/STM32F1xx_HAL_Driver/Inc/stm32f1xx_ll_usart.h ****   * @brief  Transmitter Enable
 465:Drivers/STM32F1xx_HAL_Driver/Inc/stm32f1xx_ll_usart.h ****   * @rmtoll CR1          TE            LL_USART_EnableDirectionTx
 466:Drivers/STM32F1xx_HAL_Driver/Inc/stm32f1xx_ll_usart.h ****   * @param  USARTx USART Instance
 467:Drivers/STM32F1xx_HAL_Driver/Inc/stm32f1xx_ll_usart.h ****   * @retval None
 468:Drivers/STM32F1xx_HAL_Driver/Inc/stm32f1xx_ll_usart.h ****   */
 469:Drivers/STM32F1xx_HAL_Driver/Inc/stm32f1xx_ll_usart.h **** __STATIC_INLINE void LL_USART_EnableDirectionTx(USART_TypeDef *USARTx)
 470:Drivers/STM32F1xx_HAL_Driver/Inc/stm32f1xx_ll_usart.h **** {
 471:Drivers/STM32F1xx_HAL_Driver/Inc/stm32f1xx_ll_usart.h ****   SET_BIT(USARTx->CR1, USART_CR1_TE);
 472:Drivers/STM32F1xx_HAL_Driver/Inc/stm32f1xx_ll_usart.h **** }
 473:Drivers/STM32F1xx_HAL_Driver/Inc/stm32f1xx_ll_usart.h **** 
ARM GAS  /tmp/ccBpuOwB.s 			page 27


 474:Drivers/STM32F1xx_HAL_Driver/Inc/stm32f1xx_ll_usart.h **** /**
 475:Drivers/STM32F1xx_HAL_Driver/Inc/stm32f1xx_ll_usart.h ****   * @brief  Transmitter Disable
 476:Drivers/STM32F1xx_HAL_Driver/Inc/stm32f1xx_ll_usart.h ****   * @rmtoll CR1          TE            LL_USART_DisableDirectionTx
 477:Drivers/STM32F1xx_HAL_Driver/Inc/stm32f1xx_ll_usart.h ****   * @param  USARTx USART Instance
 478:Drivers/STM32F1xx_HAL_Driver/Inc/stm32f1xx_ll_usart.h ****   * @retval None
 479:Drivers/STM32F1xx_HAL_Driver/Inc/stm32f1xx_ll_usart.h ****   */
 480:Drivers/STM32F1xx_HAL_Driver/Inc/stm32f1xx_ll_usart.h **** __STATIC_INLINE void LL_USART_DisableDirectionTx(USART_TypeDef *USARTx)
 481:Drivers/STM32F1xx_HAL_Driver/Inc/stm32f1xx_ll_usart.h **** {
 482:Drivers/STM32F1xx_HAL_Driver/Inc/stm32f1xx_ll_usart.h ****   CLEAR_BIT(USARTx->CR1, USART_CR1_TE);
 483:Drivers/STM32F1xx_HAL_Driver/Inc/stm32f1xx_ll_usart.h **** }
 484:Drivers/STM32F1xx_HAL_Driver/Inc/stm32f1xx_ll_usart.h **** 
 485:Drivers/STM32F1xx_HAL_Driver/Inc/stm32f1xx_ll_usart.h **** /**
 486:Drivers/STM32F1xx_HAL_Driver/Inc/stm32f1xx_ll_usart.h ****   * @brief  Configure simultaneously enabled/disabled states
 487:Drivers/STM32F1xx_HAL_Driver/Inc/stm32f1xx_ll_usart.h ****   *         of Transmitter and Receiver
 488:Drivers/STM32F1xx_HAL_Driver/Inc/stm32f1xx_ll_usart.h ****   * @rmtoll CR1          RE            LL_USART_SetTransferDirection\n
 489:Drivers/STM32F1xx_HAL_Driver/Inc/stm32f1xx_ll_usart.h ****   *         CR1          TE            LL_USART_SetTransferDirection
 490:Drivers/STM32F1xx_HAL_Driver/Inc/stm32f1xx_ll_usart.h ****   * @param  USARTx USART Instance
 491:Drivers/STM32F1xx_HAL_Driver/Inc/stm32f1xx_ll_usart.h ****   * @param  TransferDirection This parameter can be one of the following values:
 492:Drivers/STM32F1xx_HAL_Driver/Inc/stm32f1xx_ll_usart.h ****   *         @arg @ref LL_USART_DIRECTION_NONE
 493:Drivers/STM32F1xx_HAL_Driver/Inc/stm32f1xx_ll_usart.h ****   *         @arg @ref LL_USART_DIRECTION_RX
 494:Drivers/STM32F1xx_HAL_Driver/Inc/stm32f1xx_ll_usart.h ****   *         @arg @ref LL_USART_DIRECTION_TX
 495:Drivers/STM32F1xx_HAL_Driver/Inc/stm32f1xx_ll_usart.h ****   *         @arg @ref LL_USART_DIRECTION_TX_RX
 496:Drivers/STM32F1xx_HAL_Driver/Inc/stm32f1xx_ll_usart.h ****   * @retval None
 497:Drivers/STM32F1xx_HAL_Driver/Inc/stm32f1xx_ll_usart.h ****   */
 498:Drivers/STM32F1xx_HAL_Driver/Inc/stm32f1xx_ll_usart.h **** __STATIC_INLINE void LL_USART_SetTransferDirection(USART_TypeDef *USARTx, uint32_t TransferDirectio
 499:Drivers/STM32F1xx_HAL_Driver/Inc/stm32f1xx_ll_usart.h **** {
 500:Drivers/STM32F1xx_HAL_Driver/Inc/stm32f1xx_ll_usart.h ****   MODIFY_REG(USARTx->CR1, USART_CR1_RE | USART_CR1_TE, TransferDirection);
 501:Drivers/STM32F1xx_HAL_Driver/Inc/stm32f1xx_ll_usart.h **** }
 502:Drivers/STM32F1xx_HAL_Driver/Inc/stm32f1xx_ll_usart.h **** 
 503:Drivers/STM32F1xx_HAL_Driver/Inc/stm32f1xx_ll_usart.h **** /**
 504:Drivers/STM32F1xx_HAL_Driver/Inc/stm32f1xx_ll_usart.h ****   * @brief  Return enabled/disabled states of Transmitter and Receiver
 505:Drivers/STM32F1xx_HAL_Driver/Inc/stm32f1xx_ll_usart.h ****   * @rmtoll CR1          RE            LL_USART_GetTransferDirection\n
 506:Drivers/STM32F1xx_HAL_Driver/Inc/stm32f1xx_ll_usart.h ****   *         CR1          TE            LL_USART_GetTransferDirection
 507:Drivers/STM32F1xx_HAL_Driver/Inc/stm32f1xx_ll_usart.h ****   * @param  USARTx USART Instance
 508:Drivers/STM32F1xx_HAL_Driver/Inc/stm32f1xx_ll_usart.h ****   * @retval Returned value can be one of the following values:
 509:Drivers/STM32F1xx_HAL_Driver/Inc/stm32f1xx_ll_usart.h ****   *         @arg @ref LL_USART_DIRECTION_NONE
 510:Drivers/STM32F1xx_HAL_Driver/Inc/stm32f1xx_ll_usart.h ****   *         @arg @ref LL_USART_DIRECTION_RX
 511:Drivers/STM32F1xx_HAL_Driver/Inc/stm32f1xx_ll_usart.h ****   *         @arg @ref LL_USART_DIRECTION_TX
 512:Drivers/STM32F1xx_HAL_Driver/Inc/stm32f1xx_ll_usart.h ****   *         @arg @ref LL_USART_DIRECTION_TX_RX
 513:Drivers/STM32F1xx_HAL_Driver/Inc/stm32f1xx_ll_usart.h ****   */
 514:Drivers/STM32F1xx_HAL_Driver/Inc/stm32f1xx_ll_usart.h **** __STATIC_INLINE uint32_t LL_USART_GetTransferDirection(USART_TypeDef *USARTx)
 515:Drivers/STM32F1xx_HAL_Driver/Inc/stm32f1xx_ll_usart.h **** {
 516:Drivers/STM32F1xx_HAL_Driver/Inc/stm32f1xx_ll_usart.h ****   return (uint32_t)(READ_BIT(USARTx->CR1, USART_CR1_RE | USART_CR1_TE));
 517:Drivers/STM32F1xx_HAL_Driver/Inc/stm32f1xx_ll_usart.h **** }
 518:Drivers/STM32F1xx_HAL_Driver/Inc/stm32f1xx_ll_usart.h **** 
 519:Drivers/STM32F1xx_HAL_Driver/Inc/stm32f1xx_ll_usart.h **** /**
 520:Drivers/STM32F1xx_HAL_Driver/Inc/stm32f1xx_ll_usart.h ****   * @brief  Configure Parity (enabled/disabled and parity mode if enabled).
 521:Drivers/STM32F1xx_HAL_Driver/Inc/stm32f1xx_ll_usart.h ****   * @note   This function selects if hardware parity control (generation and detection) is enabled 
 522:Drivers/STM32F1xx_HAL_Driver/Inc/stm32f1xx_ll_usart.h ****   *         When the parity control is enabled (Odd or Even), computed parity bit is inserted at th
 523:Drivers/STM32F1xx_HAL_Driver/Inc/stm32f1xx_ll_usart.h ****   *         (9th or 8th bit depending on data width) and parity is checked on the received data.
 524:Drivers/STM32F1xx_HAL_Driver/Inc/stm32f1xx_ll_usart.h ****   * @rmtoll CR1          PS            LL_USART_SetParity\n
 525:Drivers/STM32F1xx_HAL_Driver/Inc/stm32f1xx_ll_usart.h ****   *         CR1          PCE           LL_USART_SetParity
 526:Drivers/STM32F1xx_HAL_Driver/Inc/stm32f1xx_ll_usart.h ****   * @param  USARTx USART Instance
 527:Drivers/STM32F1xx_HAL_Driver/Inc/stm32f1xx_ll_usart.h ****   * @param  Parity This parameter can be one of the following values:
 528:Drivers/STM32F1xx_HAL_Driver/Inc/stm32f1xx_ll_usart.h ****   *         @arg @ref LL_USART_PARITY_NONE
 529:Drivers/STM32F1xx_HAL_Driver/Inc/stm32f1xx_ll_usart.h ****   *         @arg @ref LL_USART_PARITY_EVEN
 530:Drivers/STM32F1xx_HAL_Driver/Inc/stm32f1xx_ll_usart.h ****   *         @arg @ref LL_USART_PARITY_ODD
ARM GAS  /tmp/ccBpuOwB.s 			page 28


 531:Drivers/STM32F1xx_HAL_Driver/Inc/stm32f1xx_ll_usart.h ****   * @retval None
 532:Drivers/STM32F1xx_HAL_Driver/Inc/stm32f1xx_ll_usart.h ****   */
 533:Drivers/STM32F1xx_HAL_Driver/Inc/stm32f1xx_ll_usart.h **** __STATIC_INLINE void LL_USART_SetParity(USART_TypeDef *USARTx, uint32_t Parity)
 534:Drivers/STM32F1xx_HAL_Driver/Inc/stm32f1xx_ll_usart.h **** {
 535:Drivers/STM32F1xx_HAL_Driver/Inc/stm32f1xx_ll_usart.h ****   MODIFY_REG(USARTx->CR1, USART_CR1_PS | USART_CR1_PCE, Parity);
 536:Drivers/STM32F1xx_HAL_Driver/Inc/stm32f1xx_ll_usart.h **** }
 537:Drivers/STM32F1xx_HAL_Driver/Inc/stm32f1xx_ll_usart.h **** 
 538:Drivers/STM32F1xx_HAL_Driver/Inc/stm32f1xx_ll_usart.h **** /**
 539:Drivers/STM32F1xx_HAL_Driver/Inc/stm32f1xx_ll_usart.h ****   * @brief  Return Parity configuration (enabled/disabled and parity mode if enabled)
 540:Drivers/STM32F1xx_HAL_Driver/Inc/stm32f1xx_ll_usart.h ****   * @rmtoll CR1          PS            LL_USART_GetParity\n
 541:Drivers/STM32F1xx_HAL_Driver/Inc/stm32f1xx_ll_usart.h ****   *         CR1          PCE           LL_USART_GetParity
 542:Drivers/STM32F1xx_HAL_Driver/Inc/stm32f1xx_ll_usart.h ****   * @param  USARTx USART Instance
 543:Drivers/STM32F1xx_HAL_Driver/Inc/stm32f1xx_ll_usart.h ****   * @retval Returned value can be one of the following values:
 544:Drivers/STM32F1xx_HAL_Driver/Inc/stm32f1xx_ll_usart.h ****   *         @arg @ref LL_USART_PARITY_NONE
 545:Drivers/STM32F1xx_HAL_Driver/Inc/stm32f1xx_ll_usart.h ****   *         @arg @ref LL_USART_PARITY_EVEN
 546:Drivers/STM32F1xx_HAL_Driver/Inc/stm32f1xx_ll_usart.h ****   *         @arg @ref LL_USART_PARITY_ODD
 547:Drivers/STM32F1xx_HAL_Driver/Inc/stm32f1xx_ll_usart.h ****   */
 548:Drivers/STM32F1xx_HAL_Driver/Inc/stm32f1xx_ll_usart.h **** __STATIC_INLINE uint32_t LL_USART_GetParity(USART_TypeDef *USARTx)
 549:Drivers/STM32F1xx_HAL_Driver/Inc/stm32f1xx_ll_usart.h **** {
 550:Drivers/STM32F1xx_HAL_Driver/Inc/stm32f1xx_ll_usart.h ****   return (uint32_t)(READ_BIT(USARTx->CR1, USART_CR1_PS | USART_CR1_PCE));
 551:Drivers/STM32F1xx_HAL_Driver/Inc/stm32f1xx_ll_usart.h **** }
 552:Drivers/STM32F1xx_HAL_Driver/Inc/stm32f1xx_ll_usart.h **** 
 553:Drivers/STM32F1xx_HAL_Driver/Inc/stm32f1xx_ll_usart.h **** /**
 554:Drivers/STM32F1xx_HAL_Driver/Inc/stm32f1xx_ll_usart.h ****   * @brief  Set Receiver Wake Up method from Mute mode.
 555:Drivers/STM32F1xx_HAL_Driver/Inc/stm32f1xx_ll_usart.h ****   * @rmtoll CR1          WAKE          LL_USART_SetWakeUpMethod
 556:Drivers/STM32F1xx_HAL_Driver/Inc/stm32f1xx_ll_usart.h ****   * @param  USARTx USART Instance
 557:Drivers/STM32F1xx_HAL_Driver/Inc/stm32f1xx_ll_usart.h ****   * @param  Method This parameter can be one of the following values:
 558:Drivers/STM32F1xx_HAL_Driver/Inc/stm32f1xx_ll_usart.h ****   *         @arg @ref LL_USART_WAKEUP_IDLELINE
 559:Drivers/STM32F1xx_HAL_Driver/Inc/stm32f1xx_ll_usart.h ****   *         @arg @ref LL_USART_WAKEUP_ADDRESSMARK
 560:Drivers/STM32F1xx_HAL_Driver/Inc/stm32f1xx_ll_usart.h ****   * @retval None
 561:Drivers/STM32F1xx_HAL_Driver/Inc/stm32f1xx_ll_usart.h ****   */
 562:Drivers/STM32F1xx_HAL_Driver/Inc/stm32f1xx_ll_usart.h **** __STATIC_INLINE void LL_USART_SetWakeUpMethod(USART_TypeDef *USARTx, uint32_t Method)
 563:Drivers/STM32F1xx_HAL_Driver/Inc/stm32f1xx_ll_usart.h **** {
 564:Drivers/STM32F1xx_HAL_Driver/Inc/stm32f1xx_ll_usart.h ****   MODIFY_REG(USARTx->CR1, USART_CR1_WAKE, Method);
 565:Drivers/STM32F1xx_HAL_Driver/Inc/stm32f1xx_ll_usart.h **** }
 566:Drivers/STM32F1xx_HAL_Driver/Inc/stm32f1xx_ll_usart.h **** 
 567:Drivers/STM32F1xx_HAL_Driver/Inc/stm32f1xx_ll_usart.h **** /**
 568:Drivers/STM32F1xx_HAL_Driver/Inc/stm32f1xx_ll_usart.h ****   * @brief  Return Receiver Wake Up method from Mute mode
 569:Drivers/STM32F1xx_HAL_Driver/Inc/stm32f1xx_ll_usart.h ****   * @rmtoll CR1          WAKE          LL_USART_GetWakeUpMethod
 570:Drivers/STM32F1xx_HAL_Driver/Inc/stm32f1xx_ll_usart.h ****   * @param  USARTx USART Instance
 571:Drivers/STM32F1xx_HAL_Driver/Inc/stm32f1xx_ll_usart.h ****   * @retval Returned value can be one of the following values:
 572:Drivers/STM32F1xx_HAL_Driver/Inc/stm32f1xx_ll_usart.h ****   *         @arg @ref LL_USART_WAKEUP_IDLELINE
 573:Drivers/STM32F1xx_HAL_Driver/Inc/stm32f1xx_ll_usart.h ****   *         @arg @ref LL_USART_WAKEUP_ADDRESSMARK
 574:Drivers/STM32F1xx_HAL_Driver/Inc/stm32f1xx_ll_usart.h ****   */
 575:Drivers/STM32F1xx_HAL_Driver/Inc/stm32f1xx_ll_usart.h **** __STATIC_INLINE uint32_t LL_USART_GetWakeUpMethod(USART_TypeDef *USARTx)
 576:Drivers/STM32F1xx_HAL_Driver/Inc/stm32f1xx_ll_usart.h **** {
 577:Drivers/STM32F1xx_HAL_Driver/Inc/stm32f1xx_ll_usart.h ****   return (uint32_t)(READ_BIT(USARTx->CR1, USART_CR1_WAKE));
 578:Drivers/STM32F1xx_HAL_Driver/Inc/stm32f1xx_ll_usart.h **** }
 579:Drivers/STM32F1xx_HAL_Driver/Inc/stm32f1xx_ll_usart.h **** 
 580:Drivers/STM32F1xx_HAL_Driver/Inc/stm32f1xx_ll_usart.h **** /**
 581:Drivers/STM32F1xx_HAL_Driver/Inc/stm32f1xx_ll_usart.h ****   * @brief  Set Word length (i.e. nb of data bits, excluding start and stop bits)
 582:Drivers/STM32F1xx_HAL_Driver/Inc/stm32f1xx_ll_usart.h ****   * @rmtoll CR1          M             LL_USART_SetDataWidth
 583:Drivers/STM32F1xx_HAL_Driver/Inc/stm32f1xx_ll_usart.h ****   * @param  USARTx USART Instance
 584:Drivers/STM32F1xx_HAL_Driver/Inc/stm32f1xx_ll_usart.h ****   * @param  DataWidth This parameter can be one of the following values:
 585:Drivers/STM32F1xx_HAL_Driver/Inc/stm32f1xx_ll_usart.h ****   *         @arg @ref LL_USART_DATAWIDTH_8B
 586:Drivers/STM32F1xx_HAL_Driver/Inc/stm32f1xx_ll_usart.h ****   *         @arg @ref LL_USART_DATAWIDTH_9B
 587:Drivers/STM32F1xx_HAL_Driver/Inc/stm32f1xx_ll_usart.h ****   * @retval None
ARM GAS  /tmp/ccBpuOwB.s 			page 29


 588:Drivers/STM32F1xx_HAL_Driver/Inc/stm32f1xx_ll_usart.h ****   */
 589:Drivers/STM32F1xx_HAL_Driver/Inc/stm32f1xx_ll_usart.h **** __STATIC_INLINE void LL_USART_SetDataWidth(USART_TypeDef *USARTx, uint32_t DataWidth)
 590:Drivers/STM32F1xx_HAL_Driver/Inc/stm32f1xx_ll_usart.h **** {
 591:Drivers/STM32F1xx_HAL_Driver/Inc/stm32f1xx_ll_usart.h ****   MODIFY_REG(USARTx->CR1, USART_CR1_M, DataWidth);
 592:Drivers/STM32F1xx_HAL_Driver/Inc/stm32f1xx_ll_usart.h **** }
 593:Drivers/STM32F1xx_HAL_Driver/Inc/stm32f1xx_ll_usart.h **** 
 594:Drivers/STM32F1xx_HAL_Driver/Inc/stm32f1xx_ll_usart.h **** /**
 595:Drivers/STM32F1xx_HAL_Driver/Inc/stm32f1xx_ll_usart.h ****   * @brief  Return Word length (i.e. nb of data bits, excluding start and stop bits)
 596:Drivers/STM32F1xx_HAL_Driver/Inc/stm32f1xx_ll_usart.h ****   * @rmtoll CR1          M             LL_USART_GetDataWidth
 597:Drivers/STM32F1xx_HAL_Driver/Inc/stm32f1xx_ll_usart.h ****   * @param  USARTx USART Instance
 598:Drivers/STM32F1xx_HAL_Driver/Inc/stm32f1xx_ll_usart.h ****   * @retval Returned value can be one of the following values:
 599:Drivers/STM32F1xx_HAL_Driver/Inc/stm32f1xx_ll_usart.h ****   *         @arg @ref LL_USART_DATAWIDTH_8B
 600:Drivers/STM32F1xx_HAL_Driver/Inc/stm32f1xx_ll_usart.h ****   *         @arg @ref LL_USART_DATAWIDTH_9B
 601:Drivers/STM32F1xx_HAL_Driver/Inc/stm32f1xx_ll_usart.h ****   */
 602:Drivers/STM32F1xx_HAL_Driver/Inc/stm32f1xx_ll_usart.h **** __STATIC_INLINE uint32_t LL_USART_GetDataWidth(USART_TypeDef *USARTx)
 603:Drivers/STM32F1xx_HAL_Driver/Inc/stm32f1xx_ll_usart.h **** {
 604:Drivers/STM32F1xx_HAL_Driver/Inc/stm32f1xx_ll_usart.h ****   return (uint32_t)(READ_BIT(USARTx->CR1, USART_CR1_M));
 605:Drivers/STM32F1xx_HAL_Driver/Inc/stm32f1xx_ll_usart.h **** }
 606:Drivers/STM32F1xx_HAL_Driver/Inc/stm32f1xx_ll_usart.h **** 
 607:Drivers/STM32F1xx_HAL_Driver/Inc/stm32f1xx_ll_usart.h **** #if defined(USART_CR1_OVER8)
 608:Drivers/STM32F1xx_HAL_Driver/Inc/stm32f1xx_ll_usart.h **** /**
 609:Drivers/STM32F1xx_HAL_Driver/Inc/stm32f1xx_ll_usart.h ****   * @brief  Set Oversampling to 8-bit or 16-bit mode
 610:Drivers/STM32F1xx_HAL_Driver/Inc/stm32f1xx_ll_usart.h ****   * @rmtoll CR1          OVER8         LL_USART_SetOverSampling
 611:Drivers/STM32F1xx_HAL_Driver/Inc/stm32f1xx_ll_usart.h ****   * @param  USARTx USART Instance
 612:Drivers/STM32F1xx_HAL_Driver/Inc/stm32f1xx_ll_usart.h ****   * @param  OverSampling This parameter can be one of the following values:
 613:Drivers/STM32F1xx_HAL_Driver/Inc/stm32f1xx_ll_usart.h ****   *         @arg @ref LL_USART_OVERSAMPLING_16
 614:Drivers/STM32F1xx_HAL_Driver/Inc/stm32f1xx_ll_usart.h ****   *         @arg @ref LL_USART_OVERSAMPLING_8
 615:Drivers/STM32F1xx_HAL_Driver/Inc/stm32f1xx_ll_usart.h ****   * @retval None
 616:Drivers/STM32F1xx_HAL_Driver/Inc/stm32f1xx_ll_usart.h ****   */
 617:Drivers/STM32F1xx_HAL_Driver/Inc/stm32f1xx_ll_usart.h **** __STATIC_INLINE void LL_USART_SetOverSampling(USART_TypeDef *USARTx, uint32_t OverSampling)
 618:Drivers/STM32F1xx_HAL_Driver/Inc/stm32f1xx_ll_usart.h **** {
 619:Drivers/STM32F1xx_HAL_Driver/Inc/stm32f1xx_ll_usart.h ****   MODIFY_REG(USARTx->CR1, USART_CR1_OVER8, OverSampling);
 620:Drivers/STM32F1xx_HAL_Driver/Inc/stm32f1xx_ll_usart.h **** }
 621:Drivers/STM32F1xx_HAL_Driver/Inc/stm32f1xx_ll_usart.h **** 
 622:Drivers/STM32F1xx_HAL_Driver/Inc/stm32f1xx_ll_usart.h **** /**
 623:Drivers/STM32F1xx_HAL_Driver/Inc/stm32f1xx_ll_usart.h ****   * @brief  Return Oversampling mode
 624:Drivers/STM32F1xx_HAL_Driver/Inc/stm32f1xx_ll_usart.h ****   * @rmtoll CR1          OVER8         LL_USART_GetOverSampling
 625:Drivers/STM32F1xx_HAL_Driver/Inc/stm32f1xx_ll_usart.h ****   * @param  USARTx USART Instance
 626:Drivers/STM32F1xx_HAL_Driver/Inc/stm32f1xx_ll_usart.h ****   * @retval Returned value can be one of the following values:
 627:Drivers/STM32F1xx_HAL_Driver/Inc/stm32f1xx_ll_usart.h ****   *         @arg @ref LL_USART_OVERSAMPLING_16
 628:Drivers/STM32F1xx_HAL_Driver/Inc/stm32f1xx_ll_usart.h ****   *         @arg @ref LL_USART_OVERSAMPLING_8
 629:Drivers/STM32F1xx_HAL_Driver/Inc/stm32f1xx_ll_usart.h ****   */
 630:Drivers/STM32F1xx_HAL_Driver/Inc/stm32f1xx_ll_usart.h **** __STATIC_INLINE uint32_t LL_USART_GetOverSampling(USART_TypeDef *USARTx)
 631:Drivers/STM32F1xx_HAL_Driver/Inc/stm32f1xx_ll_usart.h **** {
 632:Drivers/STM32F1xx_HAL_Driver/Inc/stm32f1xx_ll_usart.h ****   return (uint32_t)(READ_BIT(USARTx->CR1, USART_CR1_OVER8));
 633:Drivers/STM32F1xx_HAL_Driver/Inc/stm32f1xx_ll_usart.h **** }
 634:Drivers/STM32F1xx_HAL_Driver/Inc/stm32f1xx_ll_usart.h **** 
 635:Drivers/STM32F1xx_HAL_Driver/Inc/stm32f1xx_ll_usart.h **** #endif /* USART_OverSampling_Feature */
 636:Drivers/STM32F1xx_HAL_Driver/Inc/stm32f1xx_ll_usart.h **** /**
 637:Drivers/STM32F1xx_HAL_Driver/Inc/stm32f1xx_ll_usart.h ****   * @brief  Configure if Clock pulse of the last data bit is output to the SCLK pin or not
 638:Drivers/STM32F1xx_HAL_Driver/Inc/stm32f1xx_ll_usart.h ****   * @note   Macro @ref IS_USART_INSTANCE(USARTx) can be used to check whether or not
 639:Drivers/STM32F1xx_HAL_Driver/Inc/stm32f1xx_ll_usart.h ****   *         Synchronous mode is supported by the USARTx instance.
 640:Drivers/STM32F1xx_HAL_Driver/Inc/stm32f1xx_ll_usart.h ****   * @rmtoll CR2          LBCL          LL_USART_SetLastClkPulseOutput
 641:Drivers/STM32F1xx_HAL_Driver/Inc/stm32f1xx_ll_usart.h ****   * @param  USARTx USART Instance
 642:Drivers/STM32F1xx_HAL_Driver/Inc/stm32f1xx_ll_usart.h ****   * @param  LastBitClockPulse This parameter can be one of the following values:
 643:Drivers/STM32F1xx_HAL_Driver/Inc/stm32f1xx_ll_usart.h ****   *         @arg @ref LL_USART_LASTCLKPULSE_NO_OUTPUT
 644:Drivers/STM32F1xx_HAL_Driver/Inc/stm32f1xx_ll_usart.h ****   *         @arg @ref LL_USART_LASTCLKPULSE_OUTPUT
ARM GAS  /tmp/ccBpuOwB.s 			page 30


 645:Drivers/STM32F1xx_HAL_Driver/Inc/stm32f1xx_ll_usart.h ****   * @retval None
 646:Drivers/STM32F1xx_HAL_Driver/Inc/stm32f1xx_ll_usart.h ****   */
 647:Drivers/STM32F1xx_HAL_Driver/Inc/stm32f1xx_ll_usart.h **** __STATIC_INLINE void LL_USART_SetLastClkPulseOutput(USART_TypeDef *USARTx, uint32_t LastBitClockPul
 648:Drivers/STM32F1xx_HAL_Driver/Inc/stm32f1xx_ll_usart.h **** {
 649:Drivers/STM32F1xx_HAL_Driver/Inc/stm32f1xx_ll_usart.h ****   MODIFY_REG(USARTx->CR2, USART_CR2_LBCL, LastBitClockPulse);
 650:Drivers/STM32F1xx_HAL_Driver/Inc/stm32f1xx_ll_usart.h **** }
 651:Drivers/STM32F1xx_HAL_Driver/Inc/stm32f1xx_ll_usart.h **** 
 652:Drivers/STM32F1xx_HAL_Driver/Inc/stm32f1xx_ll_usart.h **** /**
 653:Drivers/STM32F1xx_HAL_Driver/Inc/stm32f1xx_ll_usart.h ****   * @brief  Retrieve Clock pulse of the last data bit output configuration
 654:Drivers/STM32F1xx_HAL_Driver/Inc/stm32f1xx_ll_usart.h ****   *         (Last bit Clock pulse output to the SCLK pin or not)
 655:Drivers/STM32F1xx_HAL_Driver/Inc/stm32f1xx_ll_usart.h ****   * @note   Macro @ref IS_USART_INSTANCE(USARTx) can be used to check whether or not
 656:Drivers/STM32F1xx_HAL_Driver/Inc/stm32f1xx_ll_usart.h ****   *         Synchronous mode is supported by the USARTx instance.
 657:Drivers/STM32F1xx_HAL_Driver/Inc/stm32f1xx_ll_usart.h ****   * @rmtoll CR2          LBCL          LL_USART_GetLastClkPulseOutput
 658:Drivers/STM32F1xx_HAL_Driver/Inc/stm32f1xx_ll_usart.h ****   * @param  USARTx USART Instance
 659:Drivers/STM32F1xx_HAL_Driver/Inc/stm32f1xx_ll_usart.h ****   * @retval Returned value can be one of the following values:
 660:Drivers/STM32F1xx_HAL_Driver/Inc/stm32f1xx_ll_usart.h ****   *         @arg @ref LL_USART_LASTCLKPULSE_NO_OUTPUT
 661:Drivers/STM32F1xx_HAL_Driver/Inc/stm32f1xx_ll_usart.h ****   *         @arg @ref LL_USART_LASTCLKPULSE_OUTPUT
 662:Drivers/STM32F1xx_HAL_Driver/Inc/stm32f1xx_ll_usart.h ****   */
 663:Drivers/STM32F1xx_HAL_Driver/Inc/stm32f1xx_ll_usart.h **** __STATIC_INLINE uint32_t LL_USART_GetLastClkPulseOutput(USART_TypeDef *USARTx)
 664:Drivers/STM32F1xx_HAL_Driver/Inc/stm32f1xx_ll_usart.h **** {
 665:Drivers/STM32F1xx_HAL_Driver/Inc/stm32f1xx_ll_usart.h ****   return (uint32_t)(READ_BIT(USARTx->CR2, USART_CR2_LBCL));
 666:Drivers/STM32F1xx_HAL_Driver/Inc/stm32f1xx_ll_usart.h **** }
 667:Drivers/STM32F1xx_HAL_Driver/Inc/stm32f1xx_ll_usart.h **** 
 668:Drivers/STM32F1xx_HAL_Driver/Inc/stm32f1xx_ll_usart.h **** /**
 669:Drivers/STM32F1xx_HAL_Driver/Inc/stm32f1xx_ll_usart.h ****   * @brief  Select the phase of the clock output on the SCLK pin in synchronous mode
 670:Drivers/STM32F1xx_HAL_Driver/Inc/stm32f1xx_ll_usart.h ****   * @note   Macro @ref IS_USART_INSTANCE(USARTx) can be used to check whether or not
 671:Drivers/STM32F1xx_HAL_Driver/Inc/stm32f1xx_ll_usart.h ****   *         Synchronous mode is supported by the USARTx instance.
 672:Drivers/STM32F1xx_HAL_Driver/Inc/stm32f1xx_ll_usart.h ****   * @rmtoll CR2          CPHA          LL_USART_SetClockPhase
 673:Drivers/STM32F1xx_HAL_Driver/Inc/stm32f1xx_ll_usart.h ****   * @param  USARTx USART Instance
 674:Drivers/STM32F1xx_HAL_Driver/Inc/stm32f1xx_ll_usart.h ****   * @param  ClockPhase This parameter can be one of the following values:
 675:Drivers/STM32F1xx_HAL_Driver/Inc/stm32f1xx_ll_usart.h ****   *         @arg @ref LL_USART_PHASE_1EDGE
 676:Drivers/STM32F1xx_HAL_Driver/Inc/stm32f1xx_ll_usart.h ****   *         @arg @ref LL_USART_PHASE_2EDGE
 677:Drivers/STM32F1xx_HAL_Driver/Inc/stm32f1xx_ll_usart.h ****   * @retval None
 678:Drivers/STM32F1xx_HAL_Driver/Inc/stm32f1xx_ll_usart.h ****   */
 679:Drivers/STM32F1xx_HAL_Driver/Inc/stm32f1xx_ll_usart.h **** __STATIC_INLINE void LL_USART_SetClockPhase(USART_TypeDef *USARTx, uint32_t ClockPhase)
 680:Drivers/STM32F1xx_HAL_Driver/Inc/stm32f1xx_ll_usart.h **** {
 681:Drivers/STM32F1xx_HAL_Driver/Inc/stm32f1xx_ll_usart.h ****   MODIFY_REG(USARTx->CR2, USART_CR2_CPHA, ClockPhase);
 682:Drivers/STM32F1xx_HAL_Driver/Inc/stm32f1xx_ll_usart.h **** }
 683:Drivers/STM32F1xx_HAL_Driver/Inc/stm32f1xx_ll_usart.h **** 
 684:Drivers/STM32F1xx_HAL_Driver/Inc/stm32f1xx_ll_usart.h **** /**
 685:Drivers/STM32F1xx_HAL_Driver/Inc/stm32f1xx_ll_usart.h ****   * @brief  Return phase of the clock output on the SCLK pin in synchronous mode
 686:Drivers/STM32F1xx_HAL_Driver/Inc/stm32f1xx_ll_usart.h ****   * @note   Macro @ref IS_USART_INSTANCE(USARTx) can be used to check whether or not
 687:Drivers/STM32F1xx_HAL_Driver/Inc/stm32f1xx_ll_usart.h ****   *         Synchronous mode is supported by the USARTx instance.
 688:Drivers/STM32F1xx_HAL_Driver/Inc/stm32f1xx_ll_usart.h ****   * @rmtoll CR2          CPHA          LL_USART_GetClockPhase
 689:Drivers/STM32F1xx_HAL_Driver/Inc/stm32f1xx_ll_usart.h ****   * @param  USARTx USART Instance
 690:Drivers/STM32F1xx_HAL_Driver/Inc/stm32f1xx_ll_usart.h ****   * @retval Returned value can be one of the following values:
 691:Drivers/STM32F1xx_HAL_Driver/Inc/stm32f1xx_ll_usart.h ****   *         @arg @ref LL_USART_PHASE_1EDGE
 692:Drivers/STM32F1xx_HAL_Driver/Inc/stm32f1xx_ll_usart.h ****   *         @arg @ref LL_USART_PHASE_2EDGE
 693:Drivers/STM32F1xx_HAL_Driver/Inc/stm32f1xx_ll_usart.h ****   */
 694:Drivers/STM32F1xx_HAL_Driver/Inc/stm32f1xx_ll_usart.h **** __STATIC_INLINE uint32_t LL_USART_GetClockPhase(USART_TypeDef *USARTx)
 695:Drivers/STM32F1xx_HAL_Driver/Inc/stm32f1xx_ll_usart.h **** {
 696:Drivers/STM32F1xx_HAL_Driver/Inc/stm32f1xx_ll_usart.h ****   return (uint32_t)(READ_BIT(USARTx->CR2, USART_CR2_CPHA));
 697:Drivers/STM32F1xx_HAL_Driver/Inc/stm32f1xx_ll_usart.h **** }
 698:Drivers/STM32F1xx_HAL_Driver/Inc/stm32f1xx_ll_usart.h **** 
 699:Drivers/STM32F1xx_HAL_Driver/Inc/stm32f1xx_ll_usart.h **** /**
 700:Drivers/STM32F1xx_HAL_Driver/Inc/stm32f1xx_ll_usart.h ****   * @brief  Select the polarity of the clock output on the SCLK pin in synchronous mode
 701:Drivers/STM32F1xx_HAL_Driver/Inc/stm32f1xx_ll_usart.h ****   * @note   Macro @ref IS_USART_INSTANCE(USARTx) can be used to check whether or not
ARM GAS  /tmp/ccBpuOwB.s 			page 31


 702:Drivers/STM32F1xx_HAL_Driver/Inc/stm32f1xx_ll_usart.h ****   *         Synchronous mode is supported by the USARTx instance.
 703:Drivers/STM32F1xx_HAL_Driver/Inc/stm32f1xx_ll_usart.h ****   * @rmtoll CR2          CPOL          LL_USART_SetClockPolarity
 704:Drivers/STM32F1xx_HAL_Driver/Inc/stm32f1xx_ll_usart.h ****   * @param  USARTx USART Instance
 705:Drivers/STM32F1xx_HAL_Driver/Inc/stm32f1xx_ll_usart.h ****   * @param  ClockPolarity This parameter can be one of the following values:
 706:Drivers/STM32F1xx_HAL_Driver/Inc/stm32f1xx_ll_usart.h ****   *         @arg @ref LL_USART_POLARITY_LOW
 707:Drivers/STM32F1xx_HAL_Driver/Inc/stm32f1xx_ll_usart.h ****   *         @arg @ref LL_USART_POLARITY_HIGH
 708:Drivers/STM32F1xx_HAL_Driver/Inc/stm32f1xx_ll_usart.h ****   * @retval None
 709:Drivers/STM32F1xx_HAL_Driver/Inc/stm32f1xx_ll_usart.h ****   */
 710:Drivers/STM32F1xx_HAL_Driver/Inc/stm32f1xx_ll_usart.h **** __STATIC_INLINE void LL_USART_SetClockPolarity(USART_TypeDef *USARTx, uint32_t ClockPolarity)
 711:Drivers/STM32F1xx_HAL_Driver/Inc/stm32f1xx_ll_usart.h **** {
 712:Drivers/STM32F1xx_HAL_Driver/Inc/stm32f1xx_ll_usart.h ****   MODIFY_REG(USARTx->CR2, USART_CR2_CPOL, ClockPolarity);
 713:Drivers/STM32F1xx_HAL_Driver/Inc/stm32f1xx_ll_usart.h **** }
 714:Drivers/STM32F1xx_HAL_Driver/Inc/stm32f1xx_ll_usart.h **** 
 715:Drivers/STM32F1xx_HAL_Driver/Inc/stm32f1xx_ll_usart.h **** /**
 716:Drivers/STM32F1xx_HAL_Driver/Inc/stm32f1xx_ll_usart.h ****   * @brief  Return polarity of the clock output on the SCLK pin in synchronous mode
 717:Drivers/STM32F1xx_HAL_Driver/Inc/stm32f1xx_ll_usart.h ****   * @note   Macro @ref IS_USART_INSTANCE(USARTx) can be used to check whether or not
 718:Drivers/STM32F1xx_HAL_Driver/Inc/stm32f1xx_ll_usart.h ****   *         Synchronous mode is supported by the USARTx instance.
 719:Drivers/STM32F1xx_HAL_Driver/Inc/stm32f1xx_ll_usart.h ****   * @rmtoll CR2          CPOL          LL_USART_GetClockPolarity
 720:Drivers/STM32F1xx_HAL_Driver/Inc/stm32f1xx_ll_usart.h ****   * @param  USARTx USART Instance
 721:Drivers/STM32F1xx_HAL_Driver/Inc/stm32f1xx_ll_usart.h ****   * @retval Returned value can be one of the following values:
 722:Drivers/STM32F1xx_HAL_Driver/Inc/stm32f1xx_ll_usart.h ****   *         @arg @ref LL_USART_POLARITY_LOW
 723:Drivers/STM32F1xx_HAL_Driver/Inc/stm32f1xx_ll_usart.h ****   *         @arg @ref LL_USART_POLARITY_HIGH
 724:Drivers/STM32F1xx_HAL_Driver/Inc/stm32f1xx_ll_usart.h ****   */
 725:Drivers/STM32F1xx_HAL_Driver/Inc/stm32f1xx_ll_usart.h **** __STATIC_INLINE uint32_t LL_USART_GetClockPolarity(USART_TypeDef *USARTx)
 726:Drivers/STM32F1xx_HAL_Driver/Inc/stm32f1xx_ll_usart.h **** {
 727:Drivers/STM32F1xx_HAL_Driver/Inc/stm32f1xx_ll_usart.h ****   return (uint32_t)(READ_BIT(USARTx->CR2, USART_CR2_CPOL));
 728:Drivers/STM32F1xx_HAL_Driver/Inc/stm32f1xx_ll_usart.h **** }
 729:Drivers/STM32F1xx_HAL_Driver/Inc/stm32f1xx_ll_usart.h **** 
 730:Drivers/STM32F1xx_HAL_Driver/Inc/stm32f1xx_ll_usart.h **** /**
 731:Drivers/STM32F1xx_HAL_Driver/Inc/stm32f1xx_ll_usart.h ****   * @brief  Configure Clock signal format (Phase Polarity and choice about output of last bit clock
 732:Drivers/STM32F1xx_HAL_Driver/Inc/stm32f1xx_ll_usart.h ****   * @note   Macro @ref IS_USART_INSTANCE(USARTx) can be used to check whether or not
 733:Drivers/STM32F1xx_HAL_Driver/Inc/stm32f1xx_ll_usart.h ****   *         Synchronous mode is supported by the USARTx instance.
 734:Drivers/STM32F1xx_HAL_Driver/Inc/stm32f1xx_ll_usart.h ****   * @note   Call of this function is equivalent to following function call sequence :
 735:Drivers/STM32F1xx_HAL_Driver/Inc/stm32f1xx_ll_usart.h ****   *         - Clock Phase configuration using @ref LL_USART_SetClockPhase() function
 736:Drivers/STM32F1xx_HAL_Driver/Inc/stm32f1xx_ll_usart.h ****   *         - Clock Polarity configuration using @ref LL_USART_SetClockPolarity() function
 737:Drivers/STM32F1xx_HAL_Driver/Inc/stm32f1xx_ll_usart.h ****   *         - Output of Last bit Clock pulse configuration using @ref LL_USART_SetLastClkPulseOutpu
 738:Drivers/STM32F1xx_HAL_Driver/Inc/stm32f1xx_ll_usart.h ****   * @rmtoll CR2          CPHA          LL_USART_ConfigClock\n
 739:Drivers/STM32F1xx_HAL_Driver/Inc/stm32f1xx_ll_usart.h ****   *         CR2          CPOL          LL_USART_ConfigClock\n
 740:Drivers/STM32F1xx_HAL_Driver/Inc/stm32f1xx_ll_usart.h ****   *         CR2          LBCL          LL_USART_ConfigClock
 741:Drivers/STM32F1xx_HAL_Driver/Inc/stm32f1xx_ll_usart.h ****   * @param  USARTx USART Instance
 742:Drivers/STM32F1xx_HAL_Driver/Inc/stm32f1xx_ll_usart.h ****   * @param  Phase This parameter can be one of the following values:
 743:Drivers/STM32F1xx_HAL_Driver/Inc/stm32f1xx_ll_usart.h ****   *         @arg @ref LL_USART_PHASE_1EDGE
 744:Drivers/STM32F1xx_HAL_Driver/Inc/stm32f1xx_ll_usart.h ****   *         @arg @ref LL_USART_PHASE_2EDGE
 745:Drivers/STM32F1xx_HAL_Driver/Inc/stm32f1xx_ll_usart.h ****   * @param  Polarity This parameter can be one of the following values:
 746:Drivers/STM32F1xx_HAL_Driver/Inc/stm32f1xx_ll_usart.h ****   *         @arg @ref LL_USART_POLARITY_LOW
 747:Drivers/STM32F1xx_HAL_Driver/Inc/stm32f1xx_ll_usart.h ****   *         @arg @ref LL_USART_POLARITY_HIGH
 748:Drivers/STM32F1xx_HAL_Driver/Inc/stm32f1xx_ll_usart.h ****   * @param  LBCPOutput This parameter can be one of the following values:
 749:Drivers/STM32F1xx_HAL_Driver/Inc/stm32f1xx_ll_usart.h ****   *         @arg @ref LL_USART_LASTCLKPULSE_NO_OUTPUT
 750:Drivers/STM32F1xx_HAL_Driver/Inc/stm32f1xx_ll_usart.h ****   *         @arg @ref LL_USART_LASTCLKPULSE_OUTPUT
 751:Drivers/STM32F1xx_HAL_Driver/Inc/stm32f1xx_ll_usart.h ****   * @retval None
 752:Drivers/STM32F1xx_HAL_Driver/Inc/stm32f1xx_ll_usart.h ****   */
 753:Drivers/STM32F1xx_HAL_Driver/Inc/stm32f1xx_ll_usart.h **** __STATIC_INLINE void LL_USART_ConfigClock(USART_TypeDef *USARTx, uint32_t Phase, uint32_t Polarity,
 754:Drivers/STM32F1xx_HAL_Driver/Inc/stm32f1xx_ll_usart.h **** {
 755:Drivers/STM32F1xx_HAL_Driver/Inc/stm32f1xx_ll_usart.h ****   MODIFY_REG(USARTx->CR2, USART_CR2_CPHA | USART_CR2_CPOL | USART_CR2_LBCL, Phase | Polarity | LBCP
 756:Drivers/STM32F1xx_HAL_Driver/Inc/stm32f1xx_ll_usart.h **** }
 757:Drivers/STM32F1xx_HAL_Driver/Inc/stm32f1xx_ll_usart.h **** 
 758:Drivers/STM32F1xx_HAL_Driver/Inc/stm32f1xx_ll_usart.h **** /**
ARM GAS  /tmp/ccBpuOwB.s 			page 32


 759:Drivers/STM32F1xx_HAL_Driver/Inc/stm32f1xx_ll_usart.h ****   * @brief  Enable Clock output on SCLK pin
 760:Drivers/STM32F1xx_HAL_Driver/Inc/stm32f1xx_ll_usart.h ****   * @note   Macro @ref IS_USART_INSTANCE(USARTx) can be used to check whether or not
 761:Drivers/STM32F1xx_HAL_Driver/Inc/stm32f1xx_ll_usart.h ****   *         Synchronous mode is supported by the USARTx instance.
 762:Drivers/STM32F1xx_HAL_Driver/Inc/stm32f1xx_ll_usart.h ****   * @rmtoll CR2          CLKEN         LL_USART_EnableSCLKOutput
 763:Drivers/STM32F1xx_HAL_Driver/Inc/stm32f1xx_ll_usart.h ****   * @param  USARTx USART Instance
 764:Drivers/STM32F1xx_HAL_Driver/Inc/stm32f1xx_ll_usart.h ****   * @retval None
 765:Drivers/STM32F1xx_HAL_Driver/Inc/stm32f1xx_ll_usart.h ****   */
 766:Drivers/STM32F1xx_HAL_Driver/Inc/stm32f1xx_ll_usart.h **** __STATIC_INLINE void LL_USART_EnableSCLKOutput(USART_TypeDef *USARTx)
 767:Drivers/STM32F1xx_HAL_Driver/Inc/stm32f1xx_ll_usart.h **** {
 768:Drivers/STM32F1xx_HAL_Driver/Inc/stm32f1xx_ll_usart.h ****   SET_BIT(USARTx->CR2, USART_CR2_CLKEN);
 769:Drivers/STM32F1xx_HAL_Driver/Inc/stm32f1xx_ll_usart.h **** }
 770:Drivers/STM32F1xx_HAL_Driver/Inc/stm32f1xx_ll_usart.h **** 
 771:Drivers/STM32F1xx_HAL_Driver/Inc/stm32f1xx_ll_usart.h **** /**
 772:Drivers/STM32F1xx_HAL_Driver/Inc/stm32f1xx_ll_usart.h ****   * @brief  Disable Clock output on SCLK pin
 773:Drivers/STM32F1xx_HAL_Driver/Inc/stm32f1xx_ll_usart.h ****   * @note   Macro @ref IS_USART_INSTANCE(USARTx) can be used to check whether or not
 774:Drivers/STM32F1xx_HAL_Driver/Inc/stm32f1xx_ll_usart.h ****   *         Synchronous mode is supported by the USARTx instance.
 775:Drivers/STM32F1xx_HAL_Driver/Inc/stm32f1xx_ll_usart.h ****   * @rmtoll CR2          CLKEN         LL_USART_DisableSCLKOutput
 776:Drivers/STM32F1xx_HAL_Driver/Inc/stm32f1xx_ll_usart.h ****   * @param  USARTx USART Instance
 777:Drivers/STM32F1xx_HAL_Driver/Inc/stm32f1xx_ll_usart.h ****   * @retval None
 778:Drivers/STM32F1xx_HAL_Driver/Inc/stm32f1xx_ll_usart.h ****   */
 779:Drivers/STM32F1xx_HAL_Driver/Inc/stm32f1xx_ll_usart.h **** __STATIC_INLINE void LL_USART_DisableSCLKOutput(USART_TypeDef *USARTx)
 780:Drivers/STM32F1xx_HAL_Driver/Inc/stm32f1xx_ll_usart.h **** {
 781:Drivers/STM32F1xx_HAL_Driver/Inc/stm32f1xx_ll_usart.h ****   CLEAR_BIT(USARTx->CR2, USART_CR2_CLKEN);
 782:Drivers/STM32F1xx_HAL_Driver/Inc/stm32f1xx_ll_usart.h **** }
 783:Drivers/STM32F1xx_HAL_Driver/Inc/stm32f1xx_ll_usart.h **** 
 784:Drivers/STM32F1xx_HAL_Driver/Inc/stm32f1xx_ll_usart.h **** /**
 785:Drivers/STM32F1xx_HAL_Driver/Inc/stm32f1xx_ll_usart.h ****   * @brief  Indicate if Clock output on SCLK pin is enabled
 786:Drivers/STM32F1xx_HAL_Driver/Inc/stm32f1xx_ll_usart.h ****   * @note   Macro @ref IS_USART_INSTANCE(USARTx) can be used to check whether or not
 787:Drivers/STM32F1xx_HAL_Driver/Inc/stm32f1xx_ll_usart.h ****   *         Synchronous mode is supported by the USARTx instance.
 788:Drivers/STM32F1xx_HAL_Driver/Inc/stm32f1xx_ll_usart.h ****   * @rmtoll CR2          CLKEN         LL_USART_IsEnabledSCLKOutput
 789:Drivers/STM32F1xx_HAL_Driver/Inc/stm32f1xx_ll_usart.h ****   * @param  USARTx USART Instance
 790:Drivers/STM32F1xx_HAL_Driver/Inc/stm32f1xx_ll_usart.h ****   * @retval State of bit (1 or 0).
 791:Drivers/STM32F1xx_HAL_Driver/Inc/stm32f1xx_ll_usart.h ****   */
 792:Drivers/STM32F1xx_HAL_Driver/Inc/stm32f1xx_ll_usart.h **** __STATIC_INLINE uint32_t LL_USART_IsEnabledSCLKOutput(USART_TypeDef *USARTx)
 793:Drivers/STM32F1xx_HAL_Driver/Inc/stm32f1xx_ll_usart.h **** {
 794:Drivers/STM32F1xx_HAL_Driver/Inc/stm32f1xx_ll_usart.h ****   return (READ_BIT(USARTx->CR2, USART_CR2_CLKEN) == (USART_CR2_CLKEN));
 795:Drivers/STM32F1xx_HAL_Driver/Inc/stm32f1xx_ll_usart.h **** }
 796:Drivers/STM32F1xx_HAL_Driver/Inc/stm32f1xx_ll_usart.h **** 
 797:Drivers/STM32F1xx_HAL_Driver/Inc/stm32f1xx_ll_usart.h **** /**
 798:Drivers/STM32F1xx_HAL_Driver/Inc/stm32f1xx_ll_usart.h ****   * @brief  Set the length of the stop bits
 799:Drivers/STM32F1xx_HAL_Driver/Inc/stm32f1xx_ll_usart.h ****   * @rmtoll CR2          STOP          LL_USART_SetStopBitsLength
 800:Drivers/STM32F1xx_HAL_Driver/Inc/stm32f1xx_ll_usart.h ****   * @param  USARTx USART Instance
 801:Drivers/STM32F1xx_HAL_Driver/Inc/stm32f1xx_ll_usart.h ****   * @param  StopBits This parameter can be one of the following values:
 802:Drivers/STM32F1xx_HAL_Driver/Inc/stm32f1xx_ll_usart.h ****   *         @arg @ref LL_USART_STOPBITS_0_5
 803:Drivers/STM32F1xx_HAL_Driver/Inc/stm32f1xx_ll_usart.h ****   *         @arg @ref LL_USART_STOPBITS_1
 804:Drivers/STM32F1xx_HAL_Driver/Inc/stm32f1xx_ll_usart.h ****   *         @arg @ref LL_USART_STOPBITS_1_5
 805:Drivers/STM32F1xx_HAL_Driver/Inc/stm32f1xx_ll_usart.h ****   *         @arg @ref LL_USART_STOPBITS_2
 806:Drivers/STM32F1xx_HAL_Driver/Inc/stm32f1xx_ll_usart.h ****   * @retval None
 807:Drivers/STM32F1xx_HAL_Driver/Inc/stm32f1xx_ll_usart.h ****   */
 808:Drivers/STM32F1xx_HAL_Driver/Inc/stm32f1xx_ll_usart.h **** __STATIC_INLINE void LL_USART_SetStopBitsLength(USART_TypeDef *USARTx, uint32_t StopBits)
 809:Drivers/STM32F1xx_HAL_Driver/Inc/stm32f1xx_ll_usart.h **** {
 810:Drivers/STM32F1xx_HAL_Driver/Inc/stm32f1xx_ll_usart.h ****   MODIFY_REG(USARTx->CR2, USART_CR2_STOP, StopBits);
 811:Drivers/STM32F1xx_HAL_Driver/Inc/stm32f1xx_ll_usart.h **** }
 812:Drivers/STM32F1xx_HAL_Driver/Inc/stm32f1xx_ll_usart.h **** 
 813:Drivers/STM32F1xx_HAL_Driver/Inc/stm32f1xx_ll_usart.h **** /**
 814:Drivers/STM32F1xx_HAL_Driver/Inc/stm32f1xx_ll_usart.h ****   * @brief  Retrieve the length of the stop bits
 815:Drivers/STM32F1xx_HAL_Driver/Inc/stm32f1xx_ll_usart.h ****   * @rmtoll CR2          STOP          LL_USART_GetStopBitsLength
ARM GAS  /tmp/ccBpuOwB.s 			page 33


 816:Drivers/STM32F1xx_HAL_Driver/Inc/stm32f1xx_ll_usart.h ****   * @param  USARTx USART Instance
 817:Drivers/STM32F1xx_HAL_Driver/Inc/stm32f1xx_ll_usart.h ****   * @retval Returned value can be one of the following values:
 818:Drivers/STM32F1xx_HAL_Driver/Inc/stm32f1xx_ll_usart.h ****   *         @arg @ref LL_USART_STOPBITS_0_5
 819:Drivers/STM32F1xx_HAL_Driver/Inc/stm32f1xx_ll_usart.h ****   *         @arg @ref LL_USART_STOPBITS_1
 820:Drivers/STM32F1xx_HAL_Driver/Inc/stm32f1xx_ll_usart.h ****   *         @arg @ref LL_USART_STOPBITS_1_5
 821:Drivers/STM32F1xx_HAL_Driver/Inc/stm32f1xx_ll_usart.h ****   *         @arg @ref LL_USART_STOPBITS_2
 822:Drivers/STM32F1xx_HAL_Driver/Inc/stm32f1xx_ll_usart.h ****   */
 823:Drivers/STM32F1xx_HAL_Driver/Inc/stm32f1xx_ll_usart.h **** __STATIC_INLINE uint32_t LL_USART_GetStopBitsLength(USART_TypeDef *USARTx)
 824:Drivers/STM32F1xx_HAL_Driver/Inc/stm32f1xx_ll_usart.h **** {
 825:Drivers/STM32F1xx_HAL_Driver/Inc/stm32f1xx_ll_usart.h ****   return (uint32_t)(READ_BIT(USARTx->CR2, USART_CR2_STOP));
 826:Drivers/STM32F1xx_HAL_Driver/Inc/stm32f1xx_ll_usart.h **** }
 827:Drivers/STM32F1xx_HAL_Driver/Inc/stm32f1xx_ll_usart.h **** 
 828:Drivers/STM32F1xx_HAL_Driver/Inc/stm32f1xx_ll_usart.h **** /**
 829:Drivers/STM32F1xx_HAL_Driver/Inc/stm32f1xx_ll_usart.h ****   * @brief  Configure Character frame format (Datawidth, Parity control, Stop Bits)
 830:Drivers/STM32F1xx_HAL_Driver/Inc/stm32f1xx_ll_usart.h ****   * @note   Call of this function is equivalent to following function call sequence :
 831:Drivers/STM32F1xx_HAL_Driver/Inc/stm32f1xx_ll_usart.h ****   *         - Data Width configuration using @ref LL_USART_SetDataWidth() function
 832:Drivers/STM32F1xx_HAL_Driver/Inc/stm32f1xx_ll_usart.h ****   *         - Parity Control and mode configuration using @ref LL_USART_SetParity() function
 833:Drivers/STM32F1xx_HAL_Driver/Inc/stm32f1xx_ll_usart.h ****   *         - Stop bits configuration using @ref LL_USART_SetStopBitsLength() function
 834:Drivers/STM32F1xx_HAL_Driver/Inc/stm32f1xx_ll_usart.h ****   * @rmtoll CR1          PS            LL_USART_ConfigCharacter\n
 835:Drivers/STM32F1xx_HAL_Driver/Inc/stm32f1xx_ll_usart.h ****   *         CR1          PCE           LL_USART_ConfigCharacter\n
 836:Drivers/STM32F1xx_HAL_Driver/Inc/stm32f1xx_ll_usart.h ****   *         CR1          M             LL_USART_ConfigCharacter\n
 837:Drivers/STM32F1xx_HAL_Driver/Inc/stm32f1xx_ll_usart.h ****   *         CR2          STOP          LL_USART_ConfigCharacter
 838:Drivers/STM32F1xx_HAL_Driver/Inc/stm32f1xx_ll_usart.h ****   * @param  USARTx USART Instance
 839:Drivers/STM32F1xx_HAL_Driver/Inc/stm32f1xx_ll_usart.h ****   * @param  DataWidth This parameter can be one of the following values:
 840:Drivers/STM32F1xx_HAL_Driver/Inc/stm32f1xx_ll_usart.h ****   *         @arg @ref LL_USART_DATAWIDTH_8B
 841:Drivers/STM32F1xx_HAL_Driver/Inc/stm32f1xx_ll_usart.h ****   *         @arg @ref LL_USART_DATAWIDTH_9B
 842:Drivers/STM32F1xx_HAL_Driver/Inc/stm32f1xx_ll_usart.h ****   * @param  Parity This parameter can be one of the following values:
 843:Drivers/STM32F1xx_HAL_Driver/Inc/stm32f1xx_ll_usart.h ****   *         @arg @ref LL_USART_PARITY_NONE
 844:Drivers/STM32F1xx_HAL_Driver/Inc/stm32f1xx_ll_usart.h ****   *         @arg @ref LL_USART_PARITY_EVEN
 845:Drivers/STM32F1xx_HAL_Driver/Inc/stm32f1xx_ll_usart.h ****   *         @arg @ref LL_USART_PARITY_ODD
 846:Drivers/STM32F1xx_HAL_Driver/Inc/stm32f1xx_ll_usart.h ****   * @param  StopBits This parameter can be one of the following values:
 847:Drivers/STM32F1xx_HAL_Driver/Inc/stm32f1xx_ll_usart.h ****   *         @arg @ref LL_USART_STOPBITS_0_5
 848:Drivers/STM32F1xx_HAL_Driver/Inc/stm32f1xx_ll_usart.h ****   *         @arg @ref LL_USART_STOPBITS_1
 849:Drivers/STM32F1xx_HAL_Driver/Inc/stm32f1xx_ll_usart.h ****   *         @arg @ref LL_USART_STOPBITS_1_5
 850:Drivers/STM32F1xx_HAL_Driver/Inc/stm32f1xx_ll_usart.h ****   *         @arg @ref LL_USART_STOPBITS_2
 851:Drivers/STM32F1xx_HAL_Driver/Inc/stm32f1xx_ll_usart.h ****   * @retval None
 852:Drivers/STM32F1xx_HAL_Driver/Inc/stm32f1xx_ll_usart.h ****   */
 853:Drivers/STM32F1xx_HAL_Driver/Inc/stm32f1xx_ll_usart.h **** __STATIC_INLINE void LL_USART_ConfigCharacter(USART_TypeDef *USARTx, uint32_t DataWidth, uint32_t P
 854:Drivers/STM32F1xx_HAL_Driver/Inc/stm32f1xx_ll_usart.h ****                                               uint32_t StopBits)
 855:Drivers/STM32F1xx_HAL_Driver/Inc/stm32f1xx_ll_usart.h **** {
 856:Drivers/STM32F1xx_HAL_Driver/Inc/stm32f1xx_ll_usart.h ****   MODIFY_REG(USARTx->CR1, USART_CR1_PS | USART_CR1_PCE | USART_CR1_M, Parity | DataWidth);
 857:Drivers/STM32F1xx_HAL_Driver/Inc/stm32f1xx_ll_usart.h ****   MODIFY_REG(USARTx->CR2, USART_CR2_STOP, StopBits);
 858:Drivers/STM32F1xx_HAL_Driver/Inc/stm32f1xx_ll_usart.h **** }
 859:Drivers/STM32F1xx_HAL_Driver/Inc/stm32f1xx_ll_usart.h **** 
 860:Drivers/STM32F1xx_HAL_Driver/Inc/stm32f1xx_ll_usart.h **** /**
 861:Drivers/STM32F1xx_HAL_Driver/Inc/stm32f1xx_ll_usart.h ****   * @brief  Set Address of the USART node.
 862:Drivers/STM32F1xx_HAL_Driver/Inc/stm32f1xx_ll_usart.h ****   * @note   This is used in multiprocessor communication during Mute mode or Stop mode,
 863:Drivers/STM32F1xx_HAL_Driver/Inc/stm32f1xx_ll_usart.h ****   *         for wake up with address mark detection.
 864:Drivers/STM32F1xx_HAL_Driver/Inc/stm32f1xx_ll_usart.h ****   * @rmtoll CR2          ADD           LL_USART_SetNodeAddress
 865:Drivers/STM32F1xx_HAL_Driver/Inc/stm32f1xx_ll_usart.h ****   * @param  USARTx USART Instance
 866:Drivers/STM32F1xx_HAL_Driver/Inc/stm32f1xx_ll_usart.h ****   * @param  NodeAddress 4 bit Address of the USART node.
 867:Drivers/STM32F1xx_HAL_Driver/Inc/stm32f1xx_ll_usart.h ****   * @retval None
 868:Drivers/STM32F1xx_HAL_Driver/Inc/stm32f1xx_ll_usart.h ****   */
 869:Drivers/STM32F1xx_HAL_Driver/Inc/stm32f1xx_ll_usart.h **** __STATIC_INLINE void LL_USART_SetNodeAddress(USART_TypeDef *USARTx, uint32_t NodeAddress)
 870:Drivers/STM32F1xx_HAL_Driver/Inc/stm32f1xx_ll_usart.h **** {
 871:Drivers/STM32F1xx_HAL_Driver/Inc/stm32f1xx_ll_usart.h ****   MODIFY_REG(USARTx->CR2, USART_CR2_ADD, (NodeAddress & USART_CR2_ADD));
 872:Drivers/STM32F1xx_HAL_Driver/Inc/stm32f1xx_ll_usart.h **** }
ARM GAS  /tmp/ccBpuOwB.s 			page 34


 873:Drivers/STM32F1xx_HAL_Driver/Inc/stm32f1xx_ll_usart.h **** 
 874:Drivers/STM32F1xx_HAL_Driver/Inc/stm32f1xx_ll_usart.h **** /**
 875:Drivers/STM32F1xx_HAL_Driver/Inc/stm32f1xx_ll_usart.h ****   * @brief  Return 4 bit Address of the USART node as set in ADD field of CR2.
 876:Drivers/STM32F1xx_HAL_Driver/Inc/stm32f1xx_ll_usart.h ****   * @note   only 4bits (b3-b0) of returned value are relevant (b31-b4 are not relevant)
 877:Drivers/STM32F1xx_HAL_Driver/Inc/stm32f1xx_ll_usart.h ****   * @rmtoll CR2          ADD           LL_USART_GetNodeAddress
 878:Drivers/STM32F1xx_HAL_Driver/Inc/stm32f1xx_ll_usart.h ****   * @param  USARTx USART Instance
 879:Drivers/STM32F1xx_HAL_Driver/Inc/stm32f1xx_ll_usart.h ****   * @retval Address of the USART node (Value between Min_Data=0 and Max_Data=255)
 880:Drivers/STM32F1xx_HAL_Driver/Inc/stm32f1xx_ll_usart.h ****   */
 881:Drivers/STM32F1xx_HAL_Driver/Inc/stm32f1xx_ll_usart.h **** __STATIC_INLINE uint32_t LL_USART_GetNodeAddress(USART_TypeDef *USARTx)
 882:Drivers/STM32F1xx_HAL_Driver/Inc/stm32f1xx_ll_usart.h **** {
 883:Drivers/STM32F1xx_HAL_Driver/Inc/stm32f1xx_ll_usart.h ****   return (uint32_t)(READ_BIT(USARTx->CR2, USART_CR2_ADD));
 884:Drivers/STM32F1xx_HAL_Driver/Inc/stm32f1xx_ll_usart.h **** }
 885:Drivers/STM32F1xx_HAL_Driver/Inc/stm32f1xx_ll_usart.h **** 
 886:Drivers/STM32F1xx_HAL_Driver/Inc/stm32f1xx_ll_usart.h **** /**
 887:Drivers/STM32F1xx_HAL_Driver/Inc/stm32f1xx_ll_usart.h ****   * @brief  Enable RTS HW Flow Control
 888:Drivers/STM32F1xx_HAL_Driver/Inc/stm32f1xx_ll_usart.h ****   * @note   Macro @ref IS_UART_HWFLOW_INSTANCE(USARTx) can be used to check whether or not
 889:Drivers/STM32F1xx_HAL_Driver/Inc/stm32f1xx_ll_usart.h ****   *         Hardware Flow control feature is supported by the USARTx instance.
 890:Drivers/STM32F1xx_HAL_Driver/Inc/stm32f1xx_ll_usart.h ****   * @rmtoll CR3          RTSE          LL_USART_EnableRTSHWFlowCtrl
 891:Drivers/STM32F1xx_HAL_Driver/Inc/stm32f1xx_ll_usart.h ****   * @param  USARTx USART Instance
 892:Drivers/STM32F1xx_HAL_Driver/Inc/stm32f1xx_ll_usart.h ****   * @retval None
 893:Drivers/STM32F1xx_HAL_Driver/Inc/stm32f1xx_ll_usart.h ****   */
 894:Drivers/STM32F1xx_HAL_Driver/Inc/stm32f1xx_ll_usart.h **** __STATIC_INLINE void LL_USART_EnableRTSHWFlowCtrl(USART_TypeDef *USARTx)
 895:Drivers/STM32F1xx_HAL_Driver/Inc/stm32f1xx_ll_usart.h **** {
 896:Drivers/STM32F1xx_HAL_Driver/Inc/stm32f1xx_ll_usart.h ****   SET_BIT(USARTx->CR3, USART_CR3_RTSE);
 897:Drivers/STM32F1xx_HAL_Driver/Inc/stm32f1xx_ll_usart.h **** }
 898:Drivers/STM32F1xx_HAL_Driver/Inc/stm32f1xx_ll_usart.h **** 
 899:Drivers/STM32F1xx_HAL_Driver/Inc/stm32f1xx_ll_usart.h **** /**
 900:Drivers/STM32F1xx_HAL_Driver/Inc/stm32f1xx_ll_usart.h ****   * @brief  Disable RTS HW Flow Control
 901:Drivers/STM32F1xx_HAL_Driver/Inc/stm32f1xx_ll_usart.h ****   * @note   Macro @ref IS_UART_HWFLOW_INSTANCE(USARTx) can be used to check whether or not
 902:Drivers/STM32F1xx_HAL_Driver/Inc/stm32f1xx_ll_usart.h ****   *         Hardware Flow control feature is supported by the USARTx instance.
 903:Drivers/STM32F1xx_HAL_Driver/Inc/stm32f1xx_ll_usart.h ****   * @rmtoll CR3          RTSE          LL_USART_DisableRTSHWFlowCtrl
 904:Drivers/STM32F1xx_HAL_Driver/Inc/stm32f1xx_ll_usart.h ****   * @param  USARTx USART Instance
 905:Drivers/STM32F1xx_HAL_Driver/Inc/stm32f1xx_ll_usart.h ****   * @retval None
 906:Drivers/STM32F1xx_HAL_Driver/Inc/stm32f1xx_ll_usart.h ****   */
 907:Drivers/STM32F1xx_HAL_Driver/Inc/stm32f1xx_ll_usart.h **** __STATIC_INLINE void LL_USART_DisableRTSHWFlowCtrl(USART_TypeDef *USARTx)
 908:Drivers/STM32F1xx_HAL_Driver/Inc/stm32f1xx_ll_usart.h **** {
 909:Drivers/STM32F1xx_HAL_Driver/Inc/stm32f1xx_ll_usart.h ****   CLEAR_BIT(USARTx->CR3, USART_CR3_RTSE);
 910:Drivers/STM32F1xx_HAL_Driver/Inc/stm32f1xx_ll_usart.h **** }
 911:Drivers/STM32F1xx_HAL_Driver/Inc/stm32f1xx_ll_usart.h **** 
 912:Drivers/STM32F1xx_HAL_Driver/Inc/stm32f1xx_ll_usart.h **** /**
 913:Drivers/STM32F1xx_HAL_Driver/Inc/stm32f1xx_ll_usart.h ****   * @brief  Enable CTS HW Flow Control
 914:Drivers/STM32F1xx_HAL_Driver/Inc/stm32f1xx_ll_usart.h ****   * @note   Macro @ref IS_UART_HWFLOW_INSTANCE(USARTx) can be used to check whether or not
 915:Drivers/STM32F1xx_HAL_Driver/Inc/stm32f1xx_ll_usart.h ****   *         Hardware Flow control feature is supported by the USARTx instance.
 916:Drivers/STM32F1xx_HAL_Driver/Inc/stm32f1xx_ll_usart.h ****   * @rmtoll CR3          CTSE          LL_USART_EnableCTSHWFlowCtrl
 917:Drivers/STM32F1xx_HAL_Driver/Inc/stm32f1xx_ll_usart.h ****   * @param  USARTx USART Instance
 918:Drivers/STM32F1xx_HAL_Driver/Inc/stm32f1xx_ll_usart.h ****   * @retval None
 919:Drivers/STM32F1xx_HAL_Driver/Inc/stm32f1xx_ll_usart.h ****   */
 920:Drivers/STM32F1xx_HAL_Driver/Inc/stm32f1xx_ll_usart.h **** __STATIC_INLINE void LL_USART_EnableCTSHWFlowCtrl(USART_TypeDef *USARTx)
 921:Drivers/STM32F1xx_HAL_Driver/Inc/stm32f1xx_ll_usart.h **** {
 922:Drivers/STM32F1xx_HAL_Driver/Inc/stm32f1xx_ll_usart.h ****   SET_BIT(USARTx->CR3, USART_CR3_CTSE);
 923:Drivers/STM32F1xx_HAL_Driver/Inc/stm32f1xx_ll_usart.h **** }
 924:Drivers/STM32F1xx_HAL_Driver/Inc/stm32f1xx_ll_usart.h **** 
 925:Drivers/STM32F1xx_HAL_Driver/Inc/stm32f1xx_ll_usart.h **** /**
 926:Drivers/STM32F1xx_HAL_Driver/Inc/stm32f1xx_ll_usart.h ****   * @brief  Disable CTS HW Flow Control
 927:Drivers/STM32F1xx_HAL_Driver/Inc/stm32f1xx_ll_usart.h ****   * @note   Macro @ref IS_UART_HWFLOW_INSTANCE(USARTx) can be used to check whether or not
 928:Drivers/STM32F1xx_HAL_Driver/Inc/stm32f1xx_ll_usart.h ****   *         Hardware Flow control feature is supported by the USARTx instance.
 929:Drivers/STM32F1xx_HAL_Driver/Inc/stm32f1xx_ll_usart.h ****   * @rmtoll CR3          CTSE          LL_USART_DisableCTSHWFlowCtrl
ARM GAS  /tmp/ccBpuOwB.s 			page 35


 930:Drivers/STM32F1xx_HAL_Driver/Inc/stm32f1xx_ll_usart.h ****   * @param  USARTx USART Instance
 931:Drivers/STM32F1xx_HAL_Driver/Inc/stm32f1xx_ll_usart.h ****   * @retval None
 932:Drivers/STM32F1xx_HAL_Driver/Inc/stm32f1xx_ll_usart.h ****   */
 933:Drivers/STM32F1xx_HAL_Driver/Inc/stm32f1xx_ll_usart.h **** __STATIC_INLINE void LL_USART_DisableCTSHWFlowCtrl(USART_TypeDef *USARTx)
 934:Drivers/STM32F1xx_HAL_Driver/Inc/stm32f1xx_ll_usart.h **** {
 935:Drivers/STM32F1xx_HAL_Driver/Inc/stm32f1xx_ll_usart.h ****   CLEAR_BIT(USARTx->CR3, USART_CR3_CTSE);
 936:Drivers/STM32F1xx_HAL_Driver/Inc/stm32f1xx_ll_usart.h **** }
 937:Drivers/STM32F1xx_HAL_Driver/Inc/stm32f1xx_ll_usart.h **** 
 938:Drivers/STM32F1xx_HAL_Driver/Inc/stm32f1xx_ll_usart.h **** /**
 939:Drivers/STM32F1xx_HAL_Driver/Inc/stm32f1xx_ll_usart.h ****   * @brief  Configure HW Flow Control mode (both CTS and RTS)
 940:Drivers/STM32F1xx_HAL_Driver/Inc/stm32f1xx_ll_usart.h ****   * @note   Macro @ref IS_UART_HWFLOW_INSTANCE(USARTx) can be used to check whether or not
 941:Drivers/STM32F1xx_HAL_Driver/Inc/stm32f1xx_ll_usart.h ****   *         Hardware Flow control feature is supported by the USARTx instance.
 942:Drivers/STM32F1xx_HAL_Driver/Inc/stm32f1xx_ll_usart.h ****   * @rmtoll CR3          RTSE          LL_USART_SetHWFlowCtrl\n
 943:Drivers/STM32F1xx_HAL_Driver/Inc/stm32f1xx_ll_usart.h ****   *         CR3          CTSE          LL_USART_SetHWFlowCtrl
 944:Drivers/STM32F1xx_HAL_Driver/Inc/stm32f1xx_ll_usart.h ****   * @param  USARTx USART Instance
 945:Drivers/STM32F1xx_HAL_Driver/Inc/stm32f1xx_ll_usart.h ****   * @param  HardwareFlowControl This parameter can be one of the following values:
 946:Drivers/STM32F1xx_HAL_Driver/Inc/stm32f1xx_ll_usart.h ****   *         @arg @ref LL_USART_HWCONTROL_NONE
 947:Drivers/STM32F1xx_HAL_Driver/Inc/stm32f1xx_ll_usart.h ****   *         @arg @ref LL_USART_HWCONTROL_RTS
 948:Drivers/STM32F1xx_HAL_Driver/Inc/stm32f1xx_ll_usart.h ****   *         @arg @ref LL_USART_HWCONTROL_CTS
 949:Drivers/STM32F1xx_HAL_Driver/Inc/stm32f1xx_ll_usart.h ****   *         @arg @ref LL_USART_HWCONTROL_RTS_CTS
 950:Drivers/STM32F1xx_HAL_Driver/Inc/stm32f1xx_ll_usart.h ****   * @retval None
 951:Drivers/STM32F1xx_HAL_Driver/Inc/stm32f1xx_ll_usart.h ****   */
 952:Drivers/STM32F1xx_HAL_Driver/Inc/stm32f1xx_ll_usart.h **** __STATIC_INLINE void LL_USART_SetHWFlowCtrl(USART_TypeDef *USARTx, uint32_t HardwareFlowControl)
 953:Drivers/STM32F1xx_HAL_Driver/Inc/stm32f1xx_ll_usart.h **** {
 954:Drivers/STM32F1xx_HAL_Driver/Inc/stm32f1xx_ll_usart.h ****   MODIFY_REG(USARTx->CR3, USART_CR3_RTSE | USART_CR3_CTSE, HardwareFlowControl);
 955:Drivers/STM32F1xx_HAL_Driver/Inc/stm32f1xx_ll_usart.h **** }
 956:Drivers/STM32F1xx_HAL_Driver/Inc/stm32f1xx_ll_usart.h **** 
 957:Drivers/STM32F1xx_HAL_Driver/Inc/stm32f1xx_ll_usart.h **** /**
 958:Drivers/STM32F1xx_HAL_Driver/Inc/stm32f1xx_ll_usart.h ****   * @brief  Return HW Flow Control configuration (both CTS and RTS)
 959:Drivers/STM32F1xx_HAL_Driver/Inc/stm32f1xx_ll_usart.h ****   * @note   Macro @ref IS_UART_HWFLOW_INSTANCE(USARTx) can be used to check whether or not
 960:Drivers/STM32F1xx_HAL_Driver/Inc/stm32f1xx_ll_usart.h ****   *         Hardware Flow control feature is supported by the USARTx instance.
 961:Drivers/STM32F1xx_HAL_Driver/Inc/stm32f1xx_ll_usart.h ****   * @rmtoll CR3          RTSE          LL_USART_GetHWFlowCtrl\n
 962:Drivers/STM32F1xx_HAL_Driver/Inc/stm32f1xx_ll_usart.h ****   *         CR3          CTSE          LL_USART_GetHWFlowCtrl
 963:Drivers/STM32F1xx_HAL_Driver/Inc/stm32f1xx_ll_usart.h ****   * @param  USARTx USART Instance
 964:Drivers/STM32F1xx_HAL_Driver/Inc/stm32f1xx_ll_usart.h ****   * @retval Returned value can be one of the following values:
 965:Drivers/STM32F1xx_HAL_Driver/Inc/stm32f1xx_ll_usart.h ****   *         @arg @ref LL_USART_HWCONTROL_NONE
 966:Drivers/STM32F1xx_HAL_Driver/Inc/stm32f1xx_ll_usart.h ****   *         @arg @ref LL_USART_HWCONTROL_RTS
 967:Drivers/STM32F1xx_HAL_Driver/Inc/stm32f1xx_ll_usart.h ****   *         @arg @ref LL_USART_HWCONTROL_CTS
 968:Drivers/STM32F1xx_HAL_Driver/Inc/stm32f1xx_ll_usart.h ****   *         @arg @ref LL_USART_HWCONTROL_RTS_CTS
 969:Drivers/STM32F1xx_HAL_Driver/Inc/stm32f1xx_ll_usart.h ****   */
 970:Drivers/STM32F1xx_HAL_Driver/Inc/stm32f1xx_ll_usart.h **** __STATIC_INLINE uint32_t LL_USART_GetHWFlowCtrl(USART_TypeDef *USARTx)
 971:Drivers/STM32F1xx_HAL_Driver/Inc/stm32f1xx_ll_usart.h **** {
 972:Drivers/STM32F1xx_HAL_Driver/Inc/stm32f1xx_ll_usart.h ****   return (uint32_t)(READ_BIT(USARTx->CR3, USART_CR3_RTSE | USART_CR3_CTSE));
 973:Drivers/STM32F1xx_HAL_Driver/Inc/stm32f1xx_ll_usart.h **** }
 974:Drivers/STM32F1xx_HAL_Driver/Inc/stm32f1xx_ll_usart.h **** 
 975:Drivers/STM32F1xx_HAL_Driver/Inc/stm32f1xx_ll_usart.h **** #if defined(USART_CR3_ONEBIT)
 976:Drivers/STM32F1xx_HAL_Driver/Inc/stm32f1xx_ll_usart.h **** /**
 977:Drivers/STM32F1xx_HAL_Driver/Inc/stm32f1xx_ll_usart.h ****   * @brief  Enable One bit sampling method
 978:Drivers/STM32F1xx_HAL_Driver/Inc/stm32f1xx_ll_usart.h ****   * @rmtoll CR3          ONEBIT        LL_USART_EnableOneBitSamp
 979:Drivers/STM32F1xx_HAL_Driver/Inc/stm32f1xx_ll_usart.h ****   * @param  USARTx USART Instance
 980:Drivers/STM32F1xx_HAL_Driver/Inc/stm32f1xx_ll_usart.h ****   * @retval None
 981:Drivers/STM32F1xx_HAL_Driver/Inc/stm32f1xx_ll_usart.h ****   */
 982:Drivers/STM32F1xx_HAL_Driver/Inc/stm32f1xx_ll_usart.h **** __STATIC_INLINE void LL_USART_EnableOneBitSamp(USART_TypeDef *USARTx)
 983:Drivers/STM32F1xx_HAL_Driver/Inc/stm32f1xx_ll_usart.h **** {
 984:Drivers/STM32F1xx_HAL_Driver/Inc/stm32f1xx_ll_usart.h ****   SET_BIT(USARTx->CR3, USART_CR3_ONEBIT);
 985:Drivers/STM32F1xx_HAL_Driver/Inc/stm32f1xx_ll_usart.h **** }
 986:Drivers/STM32F1xx_HAL_Driver/Inc/stm32f1xx_ll_usart.h **** 
ARM GAS  /tmp/ccBpuOwB.s 			page 36


 987:Drivers/STM32F1xx_HAL_Driver/Inc/stm32f1xx_ll_usart.h **** /**
 988:Drivers/STM32F1xx_HAL_Driver/Inc/stm32f1xx_ll_usart.h ****   * @brief  Disable One bit sampling method
 989:Drivers/STM32F1xx_HAL_Driver/Inc/stm32f1xx_ll_usart.h ****   * @rmtoll CR3          ONEBIT        LL_USART_DisableOneBitSamp
 990:Drivers/STM32F1xx_HAL_Driver/Inc/stm32f1xx_ll_usart.h ****   * @param  USARTx USART Instance
 991:Drivers/STM32F1xx_HAL_Driver/Inc/stm32f1xx_ll_usart.h ****   * @retval None
 992:Drivers/STM32F1xx_HAL_Driver/Inc/stm32f1xx_ll_usart.h ****   */
 993:Drivers/STM32F1xx_HAL_Driver/Inc/stm32f1xx_ll_usart.h **** __STATIC_INLINE void LL_USART_DisableOneBitSamp(USART_TypeDef *USARTx)
 994:Drivers/STM32F1xx_HAL_Driver/Inc/stm32f1xx_ll_usart.h **** {
 995:Drivers/STM32F1xx_HAL_Driver/Inc/stm32f1xx_ll_usart.h ****   CLEAR_BIT(USARTx->CR3, USART_CR3_ONEBIT);
 996:Drivers/STM32F1xx_HAL_Driver/Inc/stm32f1xx_ll_usart.h **** }
 997:Drivers/STM32F1xx_HAL_Driver/Inc/stm32f1xx_ll_usart.h **** 
 998:Drivers/STM32F1xx_HAL_Driver/Inc/stm32f1xx_ll_usart.h **** /**
 999:Drivers/STM32F1xx_HAL_Driver/Inc/stm32f1xx_ll_usart.h ****   * @brief  Indicate if One bit sampling method is enabled
1000:Drivers/STM32F1xx_HAL_Driver/Inc/stm32f1xx_ll_usart.h ****   * @rmtoll CR3          ONEBIT        LL_USART_IsEnabledOneBitSamp
1001:Drivers/STM32F1xx_HAL_Driver/Inc/stm32f1xx_ll_usart.h ****   * @param  USARTx USART Instance
1002:Drivers/STM32F1xx_HAL_Driver/Inc/stm32f1xx_ll_usart.h ****   * @retval State of bit (1 or 0).
1003:Drivers/STM32F1xx_HAL_Driver/Inc/stm32f1xx_ll_usart.h ****   */
1004:Drivers/STM32F1xx_HAL_Driver/Inc/stm32f1xx_ll_usart.h **** __STATIC_INLINE uint32_t LL_USART_IsEnabledOneBitSamp(USART_TypeDef *USARTx)
1005:Drivers/STM32F1xx_HAL_Driver/Inc/stm32f1xx_ll_usart.h **** {
1006:Drivers/STM32F1xx_HAL_Driver/Inc/stm32f1xx_ll_usart.h ****   return (READ_BIT(USARTx->CR3, USART_CR3_ONEBIT) == (USART_CR3_ONEBIT));
1007:Drivers/STM32F1xx_HAL_Driver/Inc/stm32f1xx_ll_usart.h **** }
1008:Drivers/STM32F1xx_HAL_Driver/Inc/stm32f1xx_ll_usart.h **** #endif /* USART_OneBitSampling_Feature */
1009:Drivers/STM32F1xx_HAL_Driver/Inc/stm32f1xx_ll_usart.h **** 
1010:Drivers/STM32F1xx_HAL_Driver/Inc/stm32f1xx_ll_usart.h **** #if defined(USART_CR1_OVER8)
1011:Drivers/STM32F1xx_HAL_Driver/Inc/stm32f1xx_ll_usart.h **** /**
1012:Drivers/STM32F1xx_HAL_Driver/Inc/stm32f1xx_ll_usart.h ****   * @brief  Configure USART BRR register for achieving expected Baud Rate value.
1013:Drivers/STM32F1xx_HAL_Driver/Inc/stm32f1xx_ll_usart.h ****   * @note   Compute and set USARTDIV value in BRR Register (full BRR content)
1014:Drivers/STM32F1xx_HAL_Driver/Inc/stm32f1xx_ll_usart.h ****   *         according to used Peripheral Clock, Oversampling mode, and expected Baud Rate values
1015:Drivers/STM32F1xx_HAL_Driver/Inc/stm32f1xx_ll_usart.h ****   * @note   Peripheral clock and Baud rate values provided as function parameters should be valid
1016:Drivers/STM32F1xx_HAL_Driver/Inc/stm32f1xx_ll_usart.h ****   *         (Baud rate value != 0)
1017:Drivers/STM32F1xx_HAL_Driver/Inc/stm32f1xx_ll_usart.h ****   * @rmtoll BRR          BRR           LL_USART_SetBaudRate
1018:Drivers/STM32F1xx_HAL_Driver/Inc/stm32f1xx_ll_usart.h ****   * @param  USARTx USART Instance
1019:Drivers/STM32F1xx_HAL_Driver/Inc/stm32f1xx_ll_usart.h ****   * @param  PeriphClk Peripheral Clock
1020:Drivers/STM32F1xx_HAL_Driver/Inc/stm32f1xx_ll_usart.h ****   * @param  OverSampling This parameter can be one of the following values:
1021:Drivers/STM32F1xx_HAL_Driver/Inc/stm32f1xx_ll_usart.h ****   *         @arg @ref LL_USART_OVERSAMPLING_16
1022:Drivers/STM32F1xx_HAL_Driver/Inc/stm32f1xx_ll_usart.h ****   *         @arg @ref LL_USART_OVERSAMPLING_8
1023:Drivers/STM32F1xx_HAL_Driver/Inc/stm32f1xx_ll_usart.h ****   * @param  BaudRate Baud Rate
1024:Drivers/STM32F1xx_HAL_Driver/Inc/stm32f1xx_ll_usart.h ****   * @retval None
1025:Drivers/STM32F1xx_HAL_Driver/Inc/stm32f1xx_ll_usart.h ****   */
1026:Drivers/STM32F1xx_HAL_Driver/Inc/stm32f1xx_ll_usart.h **** __STATIC_INLINE void LL_USART_SetBaudRate(USART_TypeDef *USARTx, uint32_t PeriphClk, uint32_t OverS
1027:Drivers/STM32F1xx_HAL_Driver/Inc/stm32f1xx_ll_usart.h ****                                           uint32_t BaudRate)
1028:Drivers/STM32F1xx_HAL_Driver/Inc/stm32f1xx_ll_usart.h **** {
1029:Drivers/STM32F1xx_HAL_Driver/Inc/stm32f1xx_ll_usart.h ****   if (OverSampling == LL_USART_OVERSAMPLING_8)
1030:Drivers/STM32F1xx_HAL_Driver/Inc/stm32f1xx_ll_usart.h ****   {
1031:Drivers/STM32F1xx_HAL_Driver/Inc/stm32f1xx_ll_usart.h ****     USARTx->BRR = (uint16_t)(__LL_USART_DIV_SAMPLING8(PeriphClk, BaudRate));
1032:Drivers/STM32F1xx_HAL_Driver/Inc/stm32f1xx_ll_usart.h ****   }
1033:Drivers/STM32F1xx_HAL_Driver/Inc/stm32f1xx_ll_usart.h ****   else
1034:Drivers/STM32F1xx_HAL_Driver/Inc/stm32f1xx_ll_usart.h ****   {
1035:Drivers/STM32F1xx_HAL_Driver/Inc/stm32f1xx_ll_usart.h ****     USARTx->BRR = (uint16_t)(__LL_USART_DIV_SAMPLING16(PeriphClk, BaudRate));
1036:Drivers/STM32F1xx_HAL_Driver/Inc/stm32f1xx_ll_usart.h ****   }
1037:Drivers/STM32F1xx_HAL_Driver/Inc/stm32f1xx_ll_usart.h **** }
1038:Drivers/STM32F1xx_HAL_Driver/Inc/stm32f1xx_ll_usart.h **** 
1039:Drivers/STM32F1xx_HAL_Driver/Inc/stm32f1xx_ll_usart.h **** /**
1040:Drivers/STM32F1xx_HAL_Driver/Inc/stm32f1xx_ll_usart.h ****   * @brief  Return current Baud Rate value, according to USARTDIV present in BRR register
1041:Drivers/STM32F1xx_HAL_Driver/Inc/stm32f1xx_ll_usart.h ****   *         (full BRR content), and to used Peripheral Clock and Oversampling mode values
1042:Drivers/STM32F1xx_HAL_Driver/Inc/stm32f1xx_ll_usart.h ****   * @note   In case of non-initialized or invalid value stored in BRR register, value 0 will be ret
1043:Drivers/STM32F1xx_HAL_Driver/Inc/stm32f1xx_ll_usart.h ****   * @rmtoll BRR          BRR           LL_USART_GetBaudRate
ARM GAS  /tmp/ccBpuOwB.s 			page 37


1044:Drivers/STM32F1xx_HAL_Driver/Inc/stm32f1xx_ll_usart.h ****   * @param  USARTx USART Instance
1045:Drivers/STM32F1xx_HAL_Driver/Inc/stm32f1xx_ll_usart.h ****   * @param  PeriphClk Peripheral Clock
1046:Drivers/STM32F1xx_HAL_Driver/Inc/stm32f1xx_ll_usart.h ****   * @param  OverSampling This parameter can be one of the following values:
1047:Drivers/STM32F1xx_HAL_Driver/Inc/stm32f1xx_ll_usart.h ****   *         @arg @ref LL_USART_OVERSAMPLING_16
1048:Drivers/STM32F1xx_HAL_Driver/Inc/stm32f1xx_ll_usart.h ****   *         @arg @ref LL_USART_OVERSAMPLING_8
1049:Drivers/STM32F1xx_HAL_Driver/Inc/stm32f1xx_ll_usart.h ****   * @retval Baud Rate
1050:Drivers/STM32F1xx_HAL_Driver/Inc/stm32f1xx_ll_usart.h ****   */
1051:Drivers/STM32F1xx_HAL_Driver/Inc/stm32f1xx_ll_usart.h **** __STATIC_INLINE uint32_t LL_USART_GetBaudRate(USART_TypeDef *USARTx, uint32_t PeriphClk, uint32_t O
1052:Drivers/STM32F1xx_HAL_Driver/Inc/stm32f1xx_ll_usart.h **** {
1053:Drivers/STM32F1xx_HAL_Driver/Inc/stm32f1xx_ll_usart.h ****   uint32_t usartdiv = 0x0U;
1054:Drivers/STM32F1xx_HAL_Driver/Inc/stm32f1xx_ll_usart.h ****   uint32_t brrresult = 0x0U;
1055:Drivers/STM32F1xx_HAL_Driver/Inc/stm32f1xx_ll_usart.h **** 
1056:Drivers/STM32F1xx_HAL_Driver/Inc/stm32f1xx_ll_usart.h ****   usartdiv = USARTx->BRR;
1057:Drivers/STM32F1xx_HAL_Driver/Inc/stm32f1xx_ll_usart.h **** 
1058:Drivers/STM32F1xx_HAL_Driver/Inc/stm32f1xx_ll_usart.h ****   if (OverSampling == LL_USART_OVERSAMPLING_8)
1059:Drivers/STM32F1xx_HAL_Driver/Inc/stm32f1xx_ll_usart.h ****   {
1060:Drivers/STM32F1xx_HAL_Driver/Inc/stm32f1xx_ll_usart.h ****     if ((usartdiv & 0xFFF7U) != 0U)
1061:Drivers/STM32F1xx_HAL_Driver/Inc/stm32f1xx_ll_usart.h ****     {
1062:Drivers/STM32F1xx_HAL_Driver/Inc/stm32f1xx_ll_usart.h ****       usartdiv = (uint16_t)((usartdiv & 0xFFF0U) | ((usartdiv & 0x0007U) << 1U)) ;
1063:Drivers/STM32F1xx_HAL_Driver/Inc/stm32f1xx_ll_usart.h ****       brrresult = (PeriphClk * 2U) / usartdiv;
1064:Drivers/STM32F1xx_HAL_Driver/Inc/stm32f1xx_ll_usart.h ****     }
1065:Drivers/STM32F1xx_HAL_Driver/Inc/stm32f1xx_ll_usart.h ****   }
1066:Drivers/STM32F1xx_HAL_Driver/Inc/stm32f1xx_ll_usart.h ****   else
1067:Drivers/STM32F1xx_HAL_Driver/Inc/stm32f1xx_ll_usart.h ****   {
1068:Drivers/STM32F1xx_HAL_Driver/Inc/stm32f1xx_ll_usart.h ****     if ((usartdiv & 0xFFFFU) != 0U)
1069:Drivers/STM32F1xx_HAL_Driver/Inc/stm32f1xx_ll_usart.h ****     {
1070:Drivers/STM32F1xx_HAL_Driver/Inc/stm32f1xx_ll_usart.h ****       brrresult = PeriphClk / usartdiv;
1071:Drivers/STM32F1xx_HAL_Driver/Inc/stm32f1xx_ll_usart.h ****     }
1072:Drivers/STM32F1xx_HAL_Driver/Inc/stm32f1xx_ll_usart.h ****   }
1073:Drivers/STM32F1xx_HAL_Driver/Inc/stm32f1xx_ll_usart.h ****   return (brrresult);
1074:Drivers/STM32F1xx_HAL_Driver/Inc/stm32f1xx_ll_usart.h **** }
1075:Drivers/STM32F1xx_HAL_Driver/Inc/stm32f1xx_ll_usart.h **** #else
1076:Drivers/STM32F1xx_HAL_Driver/Inc/stm32f1xx_ll_usart.h **** /**
1077:Drivers/STM32F1xx_HAL_Driver/Inc/stm32f1xx_ll_usart.h ****   * @brief  Configure USART BRR register for achieving expected Baud Rate value.
1078:Drivers/STM32F1xx_HAL_Driver/Inc/stm32f1xx_ll_usart.h ****   * @note   Compute and set USARTDIV value in BRR Register (full BRR content)
1079:Drivers/STM32F1xx_HAL_Driver/Inc/stm32f1xx_ll_usart.h ****   *         according to used Peripheral Clock, Oversampling mode, and expected Baud Rate values
1080:Drivers/STM32F1xx_HAL_Driver/Inc/stm32f1xx_ll_usart.h ****   * @note   Peripheral clock and Baud rate values provided as function parameters should be valid
1081:Drivers/STM32F1xx_HAL_Driver/Inc/stm32f1xx_ll_usart.h ****   *         (Baud rate value != 0)
1082:Drivers/STM32F1xx_HAL_Driver/Inc/stm32f1xx_ll_usart.h ****   * @rmtoll BRR          BRR           LL_USART_SetBaudRate
1083:Drivers/STM32F1xx_HAL_Driver/Inc/stm32f1xx_ll_usart.h ****   * @param  USARTx USART Instance
1084:Drivers/STM32F1xx_HAL_Driver/Inc/stm32f1xx_ll_usart.h ****   * @param  PeriphClk Peripheral Clock
1085:Drivers/STM32F1xx_HAL_Driver/Inc/stm32f1xx_ll_usart.h ****   * @param  BaudRate Baud Rate
1086:Drivers/STM32F1xx_HAL_Driver/Inc/stm32f1xx_ll_usart.h ****   * @retval None
1087:Drivers/STM32F1xx_HAL_Driver/Inc/stm32f1xx_ll_usart.h ****   */
1088:Drivers/STM32F1xx_HAL_Driver/Inc/stm32f1xx_ll_usart.h **** __STATIC_INLINE void LL_USART_SetBaudRate(USART_TypeDef *USARTx, uint32_t PeriphClk, uint32_t BaudR
1089:Drivers/STM32F1xx_HAL_Driver/Inc/stm32f1xx_ll_usart.h **** {
1090:Drivers/STM32F1xx_HAL_Driver/Inc/stm32f1xx_ll_usart.h ****   USARTx->BRR = (uint16_t)(__LL_USART_DIV_SAMPLING16(PeriphClk, BaudRate));
1091:Drivers/STM32F1xx_HAL_Driver/Inc/stm32f1xx_ll_usart.h **** }
1092:Drivers/STM32F1xx_HAL_Driver/Inc/stm32f1xx_ll_usart.h **** 
1093:Drivers/STM32F1xx_HAL_Driver/Inc/stm32f1xx_ll_usart.h **** /**
1094:Drivers/STM32F1xx_HAL_Driver/Inc/stm32f1xx_ll_usart.h ****   * @brief  Return current Baud Rate value, according to USARTDIV present in BRR register
1095:Drivers/STM32F1xx_HAL_Driver/Inc/stm32f1xx_ll_usart.h ****   *         (full BRR content), and to used Peripheral Clock and Oversampling mode values
1096:Drivers/STM32F1xx_HAL_Driver/Inc/stm32f1xx_ll_usart.h ****   * @note   In case of non-initialized or invalid value stored in BRR register, value 0 will be ret
1097:Drivers/STM32F1xx_HAL_Driver/Inc/stm32f1xx_ll_usart.h ****   * @rmtoll BRR          BRR           LL_USART_GetBaudRate
1098:Drivers/STM32F1xx_HAL_Driver/Inc/stm32f1xx_ll_usart.h ****   * @param  USARTx USART Instance
1099:Drivers/STM32F1xx_HAL_Driver/Inc/stm32f1xx_ll_usart.h ****   * @param  PeriphClk Peripheral Clock
1100:Drivers/STM32F1xx_HAL_Driver/Inc/stm32f1xx_ll_usart.h ****   * @retval Baud Rate
ARM GAS  /tmp/ccBpuOwB.s 			page 38


1101:Drivers/STM32F1xx_HAL_Driver/Inc/stm32f1xx_ll_usart.h ****   */
1102:Drivers/STM32F1xx_HAL_Driver/Inc/stm32f1xx_ll_usart.h **** __STATIC_INLINE uint32_t LL_USART_GetBaudRate(USART_TypeDef *USARTx, uint32_t PeriphClk)
1103:Drivers/STM32F1xx_HAL_Driver/Inc/stm32f1xx_ll_usart.h **** {
1104:Drivers/STM32F1xx_HAL_Driver/Inc/stm32f1xx_ll_usart.h ****   uint32_t usartdiv = 0x0U;
1105:Drivers/STM32F1xx_HAL_Driver/Inc/stm32f1xx_ll_usart.h ****   uint32_t brrresult = 0x0U;
1106:Drivers/STM32F1xx_HAL_Driver/Inc/stm32f1xx_ll_usart.h **** 
1107:Drivers/STM32F1xx_HAL_Driver/Inc/stm32f1xx_ll_usart.h ****   usartdiv = USARTx->BRR;
1108:Drivers/STM32F1xx_HAL_Driver/Inc/stm32f1xx_ll_usart.h **** 
1109:Drivers/STM32F1xx_HAL_Driver/Inc/stm32f1xx_ll_usart.h ****   if ((usartdiv & 0xFFFFU) != 0U)
1110:Drivers/STM32F1xx_HAL_Driver/Inc/stm32f1xx_ll_usart.h ****   {
1111:Drivers/STM32F1xx_HAL_Driver/Inc/stm32f1xx_ll_usart.h ****     brrresult = PeriphClk / usartdiv;
1112:Drivers/STM32F1xx_HAL_Driver/Inc/stm32f1xx_ll_usart.h ****   }
1113:Drivers/STM32F1xx_HAL_Driver/Inc/stm32f1xx_ll_usart.h ****   return (brrresult);
1114:Drivers/STM32F1xx_HAL_Driver/Inc/stm32f1xx_ll_usart.h **** }
1115:Drivers/STM32F1xx_HAL_Driver/Inc/stm32f1xx_ll_usart.h **** #endif /* USART_OverSampling_Feature */
1116:Drivers/STM32F1xx_HAL_Driver/Inc/stm32f1xx_ll_usart.h **** 
1117:Drivers/STM32F1xx_HAL_Driver/Inc/stm32f1xx_ll_usart.h **** /**
1118:Drivers/STM32F1xx_HAL_Driver/Inc/stm32f1xx_ll_usart.h ****   * @}
1119:Drivers/STM32F1xx_HAL_Driver/Inc/stm32f1xx_ll_usart.h ****   */
1120:Drivers/STM32F1xx_HAL_Driver/Inc/stm32f1xx_ll_usart.h **** 
1121:Drivers/STM32F1xx_HAL_Driver/Inc/stm32f1xx_ll_usart.h **** /** @defgroup USART_LL_EF_Configuration_IRDA Configuration functions related to Irda feature
1122:Drivers/STM32F1xx_HAL_Driver/Inc/stm32f1xx_ll_usart.h ****   * @{
1123:Drivers/STM32F1xx_HAL_Driver/Inc/stm32f1xx_ll_usart.h ****   */
1124:Drivers/STM32F1xx_HAL_Driver/Inc/stm32f1xx_ll_usart.h **** 
1125:Drivers/STM32F1xx_HAL_Driver/Inc/stm32f1xx_ll_usart.h **** /**
1126:Drivers/STM32F1xx_HAL_Driver/Inc/stm32f1xx_ll_usart.h ****   * @brief  Enable IrDA mode
1127:Drivers/STM32F1xx_HAL_Driver/Inc/stm32f1xx_ll_usart.h ****   * @note   Macro @ref IS_IRDA_INSTANCE(USARTx) can be used to check whether or not
1128:Drivers/STM32F1xx_HAL_Driver/Inc/stm32f1xx_ll_usart.h ****   *         IrDA feature is supported by the USARTx instance.
1129:Drivers/STM32F1xx_HAL_Driver/Inc/stm32f1xx_ll_usart.h ****   * @rmtoll CR3          IREN          LL_USART_EnableIrda
1130:Drivers/STM32F1xx_HAL_Driver/Inc/stm32f1xx_ll_usart.h ****   * @param  USARTx USART Instance
1131:Drivers/STM32F1xx_HAL_Driver/Inc/stm32f1xx_ll_usart.h ****   * @retval None
1132:Drivers/STM32F1xx_HAL_Driver/Inc/stm32f1xx_ll_usart.h ****   */
1133:Drivers/STM32F1xx_HAL_Driver/Inc/stm32f1xx_ll_usart.h **** __STATIC_INLINE void LL_USART_EnableIrda(USART_TypeDef *USARTx)
1134:Drivers/STM32F1xx_HAL_Driver/Inc/stm32f1xx_ll_usart.h **** {
1135:Drivers/STM32F1xx_HAL_Driver/Inc/stm32f1xx_ll_usart.h ****   SET_BIT(USARTx->CR3, USART_CR3_IREN);
1136:Drivers/STM32F1xx_HAL_Driver/Inc/stm32f1xx_ll_usart.h **** }
1137:Drivers/STM32F1xx_HAL_Driver/Inc/stm32f1xx_ll_usart.h **** 
1138:Drivers/STM32F1xx_HAL_Driver/Inc/stm32f1xx_ll_usart.h **** /**
1139:Drivers/STM32F1xx_HAL_Driver/Inc/stm32f1xx_ll_usart.h ****   * @brief  Disable IrDA mode
1140:Drivers/STM32F1xx_HAL_Driver/Inc/stm32f1xx_ll_usart.h ****   * @note   Macro @ref IS_IRDA_INSTANCE(USARTx) can be used to check whether or not
1141:Drivers/STM32F1xx_HAL_Driver/Inc/stm32f1xx_ll_usart.h ****   *         IrDA feature is supported by the USARTx instance.
1142:Drivers/STM32F1xx_HAL_Driver/Inc/stm32f1xx_ll_usart.h ****   * @rmtoll CR3          IREN          LL_USART_DisableIrda
1143:Drivers/STM32F1xx_HAL_Driver/Inc/stm32f1xx_ll_usart.h ****   * @param  USARTx USART Instance
1144:Drivers/STM32F1xx_HAL_Driver/Inc/stm32f1xx_ll_usart.h ****   * @retval None
1145:Drivers/STM32F1xx_HAL_Driver/Inc/stm32f1xx_ll_usart.h ****   */
1146:Drivers/STM32F1xx_HAL_Driver/Inc/stm32f1xx_ll_usart.h **** __STATIC_INLINE void LL_USART_DisableIrda(USART_TypeDef *USARTx)
1147:Drivers/STM32F1xx_HAL_Driver/Inc/stm32f1xx_ll_usart.h **** {
1148:Drivers/STM32F1xx_HAL_Driver/Inc/stm32f1xx_ll_usart.h ****   CLEAR_BIT(USARTx->CR3, USART_CR3_IREN);
1149:Drivers/STM32F1xx_HAL_Driver/Inc/stm32f1xx_ll_usart.h **** }
1150:Drivers/STM32F1xx_HAL_Driver/Inc/stm32f1xx_ll_usart.h **** 
1151:Drivers/STM32F1xx_HAL_Driver/Inc/stm32f1xx_ll_usart.h **** /**
1152:Drivers/STM32F1xx_HAL_Driver/Inc/stm32f1xx_ll_usart.h ****   * @brief  Indicate if IrDA mode is enabled
1153:Drivers/STM32F1xx_HAL_Driver/Inc/stm32f1xx_ll_usart.h ****   * @note   Macro @ref IS_IRDA_INSTANCE(USARTx) can be used to check whether or not
1154:Drivers/STM32F1xx_HAL_Driver/Inc/stm32f1xx_ll_usart.h ****   *         IrDA feature is supported by the USARTx instance.
1155:Drivers/STM32F1xx_HAL_Driver/Inc/stm32f1xx_ll_usart.h ****   * @rmtoll CR3          IREN          LL_USART_IsEnabledIrda
1156:Drivers/STM32F1xx_HAL_Driver/Inc/stm32f1xx_ll_usart.h ****   * @param  USARTx USART Instance
1157:Drivers/STM32F1xx_HAL_Driver/Inc/stm32f1xx_ll_usart.h ****   * @retval State of bit (1 or 0).
ARM GAS  /tmp/ccBpuOwB.s 			page 39


1158:Drivers/STM32F1xx_HAL_Driver/Inc/stm32f1xx_ll_usart.h ****   */
1159:Drivers/STM32F1xx_HAL_Driver/Inc/stm32f1xx_ll_usart.h **** __STATIC_INLINE uint32_t LL_USART_IsEnabledIrda(USART_TypeDef *USARTx)
1160:Drivers/STM32F1xx_HAL_Driver/Inc/stm32f1xx_ll_usart.h **** {
1161:Drivers/STM32F1xx_HAL_Driver/Inc/stm32f1xx_ll_usart.h ****   return (READ_BIT(USARTx->CR3, USART_CR3_IREN) == (USART_CR3_IREN));
1162:Drivers/STM32F1xx_HAL_Driver/Inc/stm32f1xx_ll_usart.h **** }
1163:Drivers/STM32F1xx_HAL_Driver/Inc/stm32f1xx_ll_usart.h **** 
1164:Drivers/STM32F1xx_HAL_Driver/Inc/stm32f1xx_ll_usart.h **** /**
1165:Drivers/STM32F1xx_HAL_Driver/Inc/stm32f1xx_ll_usart.h ****   * @brief  Configure IrDA Power Mode (Normal or Low Power)
1166:Drivers/STM32F1xx_HAL_Driver/Inc/stm32f1xx_ll_usart.h ****   * @note   Macro @ref IS_IRDA_INSTANCE(USARTx) can be used to check whether or not
1167:Drivers/STM32F1xx_HAL_Driver/Inc/stm32f1xx_ll_usart.h ****   *         IrDA feature is supported by the USARTx instance.
1168:Drivers/STM32F1xx_HAL_Driver/Inc/stm32f1xx_ll_usart.h ****   * @rmtoll CR3          IRLP          LL_USART_SetIrdaPowerMode
1169:Drivers/STM32F1xx_HAL_Driver/Inc/stm32f1xx_ll_usart.h ****   * @param  USARTx USART Instance
1170:Drivers/STM32F1xx_HAL_Driver/Inc/stm32f1xx_ll_usart.h ****   * @param  PowerMode This parameter can be one of the following values:
1171:Drivers/STM32F1xx_HAL_Driver/Inc/stm32f1xx_ll_usart.h ****   *         @arg @ref LL_USART_IRDA_POWER_NORMAL
1172:Drivers/STM32F1xx_HAL_Driver/Inc/stm32f1xx_ll_usart.h ****   *         @arg @ref LL_USART_IRDA_POWER_LOW
1173:Drivers/STM32F1xx_HAL_Driver/Inc/stm32f1xx_ll_usart.h ****   * @retval None
1174:Drivers/STM32F1xx_HAL_Driver/Inc/stm32f1xx_ll_usart.h ****   */
1175:Drivers/STM32F1xx_HAL_Driver/Inc/stm32f1xx_ll_usart.h **** __STATIC_INLINE void LL_USART_SetIrdaPowerMode(USART_TypeDef *USARTx, uint32_t PowerMode)
1176:Drivers/STM32F1xx_HAL_Driver/Inc/stm32f1xx_ll_usart.h **** {
1177:Drivers/STM32F1xx_HAL_Driver/Inc/stm32f1xx_ll_usart.h ****   MODIFY_REG(USARTx->CR3, USART_CR3_IRLP, PowerMode);
1178:Drivers/STM32F1xx_HAL_Driver/Inc/stm32f1xx_ll_usart.h **** }
1179:Drivers/STM32F1xx_HAL_Driver/Inc/stm32f1xx_ll_usart.h **** 
1180:Drivers/STM32F1xx_HAL_Driver/Inc/stm32f1xx_ll_usart.h **** /**
1181:Drivers/STM32F1xx_HAL_Driver/Inc/stm32f1xx_ll_usart.h ****   * @brief  Retrieve IrDA Power Mode configuration (Normal or Low Power)
1182:Drivers/STM32F1xx_HAL_Driver/Inc/stm32f1xx_ll_usart.h ****   * @note   Macro @ref IS_IRDA_INSTANCE(USARTx) can be used to check whether or not
1183:Drivers/STM32F1xx_HAL_Driver/Inc/stm32f1xx_ll_usart.h ****   *         IrDA feature is supported by the USARTx instance.
1184:Drivers/STM32F1xx_HAL_Driver/Inc/stm32f1xx_ll_usart.h ****   * @rmtoll CR3          IRLP          LL_USART_GetIrdaPowerMode
1185:Drivers/STM32F1xx_HAL_Driver/Inc/stm32f1xx_ll_usart.h ****   * @param  USARTx USART Instance
1186:Drivers/STM32F1xx_HAL_Driver/Inc/stm32f1xx_ll_usart.h ****   * @retval Returned value can be one of the following values:
1187:Drivers/STM32F1xx_HAL_Driver/Inc/stm32f1xx_ll_usart.h ****   *         @arg @ref LL_USART_IRDA_POWER_NORMAL
1188:Drivers/STM32F1xx_HAL_Driver/Inc/stm32f1xx_ll_usart.h ****   *         @arg @ref LL_USART_PHASE_2EDGE
1189:Drivers/STM32F1xx_HAL_Driver/Inc/stm32f1xx_ll_usart.h ****   */
1190:Drivers/STM32F1xx_HAL_Driver/Inc/stm32f1xx_ll_usart.h **** __STATIC_INLINE uint32_t LL_USART_GetIrdaPowerMode(USART_TypeDef *USARTx)
1191:Drivers/STM32F1xx_HAL_Driver/Inc/stm32f1xx_ll_usart.h **** {
1192:Drivers/STM32F1xx_HAL_Driver/Inc/stm32f1xx_ll_usart.h ****   return (uint32_t)(READ_BIT(USARTx->CR3, USART_CR3_IRLP));
1193:Drivers/STM32F1xx_HAL_Driver/Inc/stm32f1xx_ll_usart.h **** }
1194:Drivers/STM32F1xx_HAL_Driver/Inc/stm32f1xx_ll_usart.h **** 
1195:Drivers/STM32F1xx_HAL_Driver/Inc/stm32f1xx_ll_usart.h **** /**
1196:Drivers/STM32F1xx_HAL_Driver/Inc/stm32f1xx_ll_usart.h ****   * @brief  Set Irda prescaler value, used for dividing the USART clock source
1197:Drivers/STM32F1xx_HAL_Driver/Inc/stm32f1xx_ll_usart.h ****   *         to achieve the Irda Low Power frequency (8 bits value)
1198:Drivers/STM32F1xx_HAL_Driver/Inc/stm32f1xx_ll_usart.h ****   * @note   Macro @ref IS_IRDA_INSTANCE(USARTx) can be used to check whether or not
1199:Drivers/STM32F1xx_HAL_Driver/Inc/stm32f1xx_ll_usart.h ****   *         IrDA feature is supported by the USARTx instance.
1200:Drivers/STM32F1xx_HAL_Driver/Inc/stm32f1xx_ll_usart.h ****   * @rmtoll GTPR         PSC           LL_USART_SetIrdaPrescaler
1201:Drivers/STM32F1xx_HAL_Driver/Inc/stm32f1xx_ll_usart.h ****   * @param  USARTx USART Instance
1202:Drivers/STM32F1xx_HAL_Driver/Inc/stm32f1xx_ll_usart.h ****   * @param  PrescalerValue Value between Min_Data=0x00 and Max_Data=0xFF
1203:Drivers/STM32F1xx_HAL_Driver/Inc/stm32f1xx_ll_usart.h ****   * @retval None
1204:Drivers/STM32F1xx_HAL_Driver/Inc/stm32f1xx_ll_usart.h ****   */
1205:Drivers/STM32F1xx_HAL_Driver/Inc/stm32f1xx_ll_usart.h **** __STATIC_INLINE void LL_USART_SetIrdaPrescaler(USART_TypeDef *USARTx, uint32_t PrescalerValue)
1206:Drivers/STM32F1xx_HAL_Driver/Inc/stm32f1xx_ll_usart.h **** {
1207:Drivers/STM32F1xx_HAL_Driver/Inc/stm32f1xx_ll_usart.h ****   MODIFY_REG(USARTx->GTPR, USART_GTPR_PSC, PrescalerValue);
1208:Drivers/STM32F1xx_HAL_Driver/Inc/stm32f1xx_ll_usart.h **** }
1209:Drivers/STM32F1xx_HAL_Driver/Inc/stm32f1xx_ll_usart.h **** 
1210:Drivers/STM32F1xx_HAL_Driver/Inc/stm32f1xx_ll_usart.h **** /**
1211:Drivers/STM32F1xx_HAL_Driver/Inc/stm32f1xx_ll_usart.h ****   * @brief  Return Irda prescaler value, used for dividing the USART clock source
1212:Drivers/STM32F1xx_HAL_Driver/Inc/stm32f1xx_ll_usart.h ****   *         to achieve the Irda Low Power frequency (8 bits value)
1213:Drivers/STM32F1xx_HAL_Driver/Inc/stm32f1xx_ll_usart.h ****   * @note   Macro @ref IS_IRDA_INSTANCE(USARTx) can be used to check whether or not
1214:Drivers/STM32F1xx_HAL_Driver/Inc/stm32f1xx_ll_usart.h ****   *         IrDA feature is supported by the USARTx instance.
ARM GAS  /tmp/ccBpuOwB.s 			page 40


1215:Drivers/STM32F1xx_HAL_Driver/Inc/stm32f1xx_ll_usart.h ****   * @rmtoll GTPR         PSC           LL_USART_GetIrdaPrescaler
1216:Drivers/STM32F1xx_HAL_Driver/Inc/stm32f1xx_ll_usart.h ****   * @param  USARTx USART Instance
1217:Drivers/STM32F1xx_HAL_Driver/Inc/stm32f1xx_ll_usart.h ****   * @retval Irda prescaler value (Value between Min_Data=0x00 and Max_Data=0xFF)
1218:Drivers/STM32F1xx_HAL_Driver/Inc/stm32f1xx_ll_usart.h ****   */
1219:Drivers/STM32F1xx_HAL_Driver/Inc/stm32f1xx_ll_usart.h **** __STATIC_INLINE uint32_t LL_USART_GetIrdaPrescaler(USART_TypeDef *USARTx)
1220:Drivers/STM32F1xx_HAL_Driver/Inc/stm32f1xx_ll_usart.h **** {
1221:Drivers/STM32F1xx_HAL_Driver/Inc/stm32f1xx_ll_usart.h ****   return (uint32_t)(READ_BIT(USARTx->GTPR, USART_GTPR_PSC));
1222:Drivers/STM32F1xx_HAL_Driver/Inc/stm32f1xx_ll_usart.h **** }
1223:Drivers/STM32F1xx_HAL_Driver/Inc/stm32f1xx_ll_usart.h **** 
1224:Drivers/STM32F1xx_HAL_Driver/Inc/stm32f1xx_ll_usart.h **** /**
1225:Drivers/STM32F1xx_HAL_Driver/Inc/stm32f1xx_ll_usart.h ****   * @}
1226:Drivers/STM32F1xx_HAL_Driver/Inc/stm32f1xx_ll_usart.h ****   */
1227:Drivers/STM32F1xx_HAL_Driver/Inc/stm32f1xx_ll_usart.h **** 
1228:Drivers/STM32F1xx_HAL_Driver/Inc/stm32f1xx_ll_usart.h **** /** @defgroup USART_LL_EF_Configuration_Smartcard Configuration functions related to Smartcard feat
1229:Drivers/STM32F1xx_HAL_Driver/Inc/stm32f1xx_ll_usart.h ****   * @{
1230:Drivers/STM32F1xx_HAL_Driver/Inc/stm32f1xx_ll_usart.h ****   */
1231:Drivers/STM32F1xx_HAL_Driver/Inc/stm32f1xx_ll_usart.h **** 
1232:Drivers/STM32F1xx_HAL_Driver/Inc/stm32f1xx_ll_usart.h **** /**
1233:Drivers/STM32F1xx_HAL_Driver/Inc/stm32f1xx_ll_usart.h ****   * @brief  Enable Smartcard NACK transmission
1234:Drivers/STM32F1xx_HAL_Driver/Inc/stm32f1xx_ll_usart.h ****   * @note   Macro @ref IS_SMARTCARD_INSTANCE(USARTx) can be used to check whether or not
1235:Drivers/STM32F1xx_HAL_Driver/Inc/stm32f1xx_ll_usart.h ****   *         Smartcard feature is supported by the USARTx instance.
1236:Drivers/STM32F1xx_HAL_Driver/Inc/stm32f1xx_ll_usart.h ****   * @rmtoll CR3          NACK          LL_USART_EnableSmartcardNACK
1237:Drivers/STM32F1xx_HAL_Driver/Inc/stm32f1xx_ll_usart.h ****   * @param  USARTx USART Instance
1238:Drivers/STM32F1xx_HAL_Driver/Inc/stm32f1xx_ll_usart.h ****   * @retval None
1239:Drivers/STM32F1xx_HAL_Driver/Inc/stm32f1xx_ll_usart.h ****   */
1240:Drivers/STM32F1xx_HAL_Driver/Inc/stm32f1xx_ll_usart.h **** __STATIC_INLINE void LL_USART_EnableSmartcardNACK(USART_TypeDef *USARTx)
1241:Drivers/STM32F1xx_HAL_Driver/Inc/stm32f1xx_ll_usart.h **** {
1242:Drivers/STM32F1xx_HAL_Driver/Inc/stm32f1xx_ll_usart.h ****   SET_BIT(USARTx->CR3, USART_CR3_NACK);
1243:Drivers/STM32F1xx_HAL_Driver/Inc/stm32f1xx_ll_usart.h **** }
1244:Drivers/STM32F1xx_HAL_Driver/Inc/stm32f1xx_ll_usart.h **** 
1245:Drivers/STM32F1xx_HAL_Driver/Inc/stm32f1xx_ll_usart.h **** /**
1246:Drivers/STM32F1xx_HAL_Driver/Inc/stm32f1xx_ll_usart.h ****   * @brief  Disable Smartcard NACK transmission
1247:Drivers/STM32F1xx_HAL_Driver/Inc/stm32f1xx_ll_usart.h ****   * @note   Macro @ref IS_SMARTCARD_INSTANCE(USARTx) can be used to check whether or not
1248:Drivers/STM32F1xx_HAL_Driver/Inc/stm32f1xx_ll_usart.h ****   *         Smartcard feature is supported by the USARTx instance.
1249:Drivers/STM32F1xx_HAL_Driver/Inc/stm32f1xx_ll_usart.h ****   * @rmtoll CR3          NACK          LL_USART_DisableSmartcardNACK
1250:Drivers/STM32F1xx_HAL_Driver/Inc/stm32f1xx_ll_usart.h ****   * @param  USARTx USART Instance
1251:Drivers/STM32F1xx_HAL_Driver/Inc/stm32f1xx_ll_usart.h ****   * @retval None
1252:Drivers/STM32F1xx_HAL_Driver/Inc/stm32f1xx_ll_usart.h ****   */
1253:Drivers/STM32F1xx_HAL_Driver/Inc/stm32f1xx_ll_usart.h **** __STATIC_INLINE void LL_USART_DisableSmartcardNACK(USART_TypeDef *USARTx)
1254:Drivers/STM32F1xx_HAL_Driver/Inc/stm32f1xx_ll_usart.h **** {
1255:Drivers/STM32F1xx_HAL_Driver/Inc/stm32f1xx_ll_usart.h ****   CLEAR_BIT(USARTx->CR3, USART_CR3_NACK);
1256:Drivers/STM32F1xx_HAL_Driver/Inc/stm32f1xx_ll_usart.h **** }
1257:Drivers/STM32F1xx_HAL_Driver/Inc/stm32f1xx_ll_usart.h **** 
1258:Drivers/STM32F1xx_HAL_Driver/Inc/stm32f1xx_ll_usart.h **** /**
1259:Drivers/STM32F1xx_HAL_Driver/Inc/stm32f1xx_ll_usart.h ****   * @brief  Indicate if Smartcard NACK transmission is enabled
1260:Drivers/STM32F1xx_HAL_Driver/Inc/stm32f1xx_ll_usart.h ****   * @note   Macro @ref IS_SMARTCARD_INSTANCE(USARTx) can be used to check whether or not
1261:Drivers/STM32F1xx_HAL_Driver/Inc/stm32f1xx_ll_usart.h ****   *         Smartcard feature is supported by the USARTx instance.
1262:Drivers/STM32F1xx_HAL_Driver/Inc/stm32f1xx_ll_usart.h ****   * @rmtoll CR3          NACK          LL_USART_IsEnabledSmartcardNACK
1263:Drivers/STM32F1xx_HAL_Driver/Inc/stm32f1xx_ll_usart.h ****   * @param  USARTx USART Instance
1264:Drivers/STM32F1xx_HAL_Driver/Inc/stm32f1xx_ll_usart.h ****   * @retval State of bit (1 or 0).
1265:Drivers/STM32F1xx_HAL_Driver/Inc/stm32f1xx_ll_usart.h ****   */
1266:Drivers/STM32F1xx_HAL_Driver/Inc/stm32f1xx_ll_usart.h **** __STATIC_INLINE uint32_t LL_USART_IsEnabledSmartcardNACK(USART_TypeDef *USARTx)
1267:Drivers/STM32F1xx_HAL_Driver/Inc/stm32f1xx_ll_usart.h **** {
1268:Drivers/STM32F1xx_HAL_Driver/Inc/stm32f1xx_ll_usart.h ****   return (READ_BIT(USARTx->CR3, USART_CR3_NACK) == (USART_CR3_NACK));
1269:Drivers/STM32F1xx_HAL_Driver/Inc/stm32f1xx_ll_usart.h **** }
1270:Drivers/STM32F1xx_HAL_Driver/Inc/stm32f1xx_ll_usart.h **** 
1271:Drivers/STM32F1xx_HAL_Driver/Inc/stm32f1xx_ll_usart.h **** /**
ARM GAS  /tmp/ccBpuOwB.s 			page 41


1272:Drivers/STM32F1xx_HAL_Driver/Inc/stm32f1xx_ll_usart.h ****   * @brief  Enable Smartcard mode
1273:Drivers/STM32F1xx_HAL_Driver/Inc/stm32f1xx_ll_usart.h ****   * @note   Macro @ref IS_SMARTCARD_INSTANCE(USARTx) can be used to check whether or not
1274:Drivers/STM32F1xx_HAL_Driver/Inc/stm32f1xx_ll_usart.h ****   *         Smartcard feature is supported by the USARTx instance.
1275:Drivers/STM32F1xx_HAL_Driver/Inc/stm32f1xx_ll_usart.h ****   * @rmtoll CR3          SCEN          LL_USART_EnableSmartcard
1276:Drivers/STM32F1xx_HAL_Driver/Inc/stm32f1xx_ll_usart.h ****   * @param  USARTx USART Instance
1277:Drivers/STM32F1xx_HAL_Driver/Inc/stm32f1xx_ll_usart.h ****   * @retval None
1278:Drivers/STM32F1xx_HAL_Driver/Inc/stm32f1xx_ll_usart.h ****   */
1279:Drivers/STM32F1xx_HAL_Driver/Inc/stm32f1xx_ll_usart.h **** __STATIC_INLINE void LL_USART_EnableSmartcard(USART_TypeDef *USARTx)
1280:Drivers/STM32F1xx_HAL_Driver/Inc/stm32f1xx_ll_usart.h **** {
1281:Drivers/STM32F1xx_HAL_Driver/Inc/stm32f1xx_ll_usart.h ****   SET_BIT(USARTx->CR3, USART_CR3_SCEN);
1282:Drivers/STM32F1xx_HAL_Driver/Inc/stm32f1xx_ll_usart.h **** }
1283:Drivers/STM32F1xx_HAL_Driver/Inc/stm32f1xx_ll_usart.h **** 
1284:Drivers/STM32F1xx_HAL_Driver/Inc/stm32f1xx_ll_usart.h **** /**
1285:Drivers/STM32F1xx_HAL_Driver/Inc/stm32f1xx_ll_usart.h ****   * @brief  Disable Smartcard mode
1286:Drivers/STM32F1xx_HAL_Driver/Inc/stm32f1xx_ll_usart.h ****   * @note   Macro @ref IS_SMARTCARD_INSTANCE(USARTx) can be used to check whether or not
1287:Drivers/STM32F1xx_HAL_Driver/Inc/stm32f1xx_ll_usart.h ****   *         Smartcard feature is supported by the USARTx instance.
1288:Drivers/STM32F1xx_HAL_Driver/Inc/stm32f1xx_ll_usart.h ****   * @rmtoll CR3          SCEN          LL_USART_DisableSmartcard
1289:Drivers/STM32F1xx_HAL_Driver/Inc/stm32f1xx_ll_usart.h ****   * @param  USARTx USART Instance
1290:Drivers/STM32F1xx_HAL_Driver/Inc/stm32f1xx_ll_usart.h ****   * @retval None
1291:Drivers/STM32F1xx_HAL_Driver/Inc/stm32f1xx_ll_usart.h ****   */
1292:Drivers/STM32F1xx_HAL_Driver/Inc/stm32f1xx_ll_usart.h **** __STATIC_INLINE void LL_USART_DisableSmartcard(USART_TypeDef *USARTx)
1293:Drivers/STM32F1xx_HAL_Driver/Inc/stm32f1xx_ll_usart.h **** {
1294:Drivers/STM32F1xx_HAL_Driver/Inc/stm32f1xx_ll_usart.h ****   CLEAR_BIT(USARTx->CR3, USART_CR3_SCEN);
1295:Drivers/STM32F1xx_HAL_Driver/Inc/stm32f1xx_ll_usart.h **** }
1296:Drivers/STM32F1xx_HAL_Driver/Inc/stm32f1xx_ll_usart.h **** 
1297:Drivers/STM32F1xx_HAL_Driver/Inc/stm32f1xx_ll_usart.h **** /**
1298:Drivers/STM32F1xx_HAL_Driver/Inc/stm32f1xx_ll_usart.h ****   * @brief  Indicate if Smartcard mode is enabled
1299:Drivers/STM32F1xx_HAL_Driver/Inc/stm32f1xx_ll_usart.h ****   * @note   Macro @ref IS_SMARTCARD_INSTANCE(USARTx) can be used to check whether or not
1300:Drivers/STM32F1xx_HAL_Driver/Inc/stm32f1xx_ll_usart.h ****   *         Smartcard feature is supported by the USARTx instance.
1301:Drivers/STM32F1xx_HAL_Driver/Inc/stm32f1xx_ll_usart.h ****   * @rmtoll CR3          SCEN          LL_USART_IsEnabledSmartcard
1302:Drivers/STM32F1xx_HAL_Driver/Inc/stm32f1xx_ll_usart.h ****   * @param  USARTx USART Instance
1303:Drivers/STM32F1xx_HAL_Driver/Inc/stm32f1xx_ll_usart.h ****   * @retval State of bit (1 or 0).
1304:Drivers/STM32F1xx_HAL_Driver/Inc/stm32f1xx_ll_usart.h ****   */
1305:Drivers/STM32F1xx_HAL_Driver/Inc/stm32f1xx_ll_usart.h **** __STATIC_INLINE uint32_t LL_USART_IsEnabledSmartcard(USART_TypeDef *USARTx)
1306:Drivers/STM32F1xx_HAL_Driver/Inc/stm32f1xx_ll_usart.h **** {
1307:Drivers/STM32F1xx_HAL_Driver/Inc/stm32f1xx_ll_usart.h ****   return (READ_BIT(USARTx->CR3, USART_CR3_SCEN) == (USART_CR3_SCEN));
1308:Drivers/STM32F1xx_HAL_Driver/Inc/stm32f1xx_ll_usart.h **** }
1309:Drivers/STM32F1xx_HAL_Driver/Inc/stm32f1xx_ll_usart.h **** 
1310:Drivers/STM32F1xx_HAL_Driver/Inc/stm32f1xx_ll_usart.h **** /**
1311:Drivers/STM32F1xx_HAL_Driver/Inc/stm32f1xx_ll_usart.h ****   * @brief  Set Smartcard prescaler value, used for dividing the USART clock
1312:Drivers/STM32F1xx_HAL_Driver/Inc/stm32f1xx_ll_usart.h ****   *         source to provide the SMARTCARD Clock (5 bits value)
1313:Drivers/STM32F1xx_HAL_Driver/Inc/stm32f1xx_ll_usart.h ****   * @note   Macro @ref IS_SMARTCARD_INSTANCE(USARTx) can be used to check whether or not
1314:Drivers/STM32F1xx_HAL_Driver/Inc/stm32f1xx_ll_usart.h ****   *         Smartcard feature is supported by the USARTx instance.
1315:Drivers/STM32F1xx_HAL_Driver/Inc/stm32f1xx_ll_usart.h ****   * @rmtoll GTPR         PSC           LL_USART_SetSmartcardPrescaler
1316:Drivers/STM32F1xx_HAL_Driver/Inc/stm32f1xx_ll_usart.h ****   * @param  USARTx USART Instance
1317:Drivers/STM32F1xx_HAL_Driver/Inc/stm32f1xx_ll_usart.h ****   * @param  PrescalerValue Value between Min_Data=0 and Max_Data=31
1318:Drivers/STM32F1xx_HAL_Driver/Inc/stm32f1xx_ll_usart.h ****   * @retval None
1319:Drivers/STM32F1xx_HAL_Driver/Inc/stm32f1xx_ll_usart.h ****   */
1320:Drivers/STM32F1xx_HAL_Driver/Inc/stm32f1xx_ll_usart.h **** __STATIC_INLINE void LL_USART_SetSmartcardPrescaler(USART_TypeDef *USARTx, uint32_t PrescalerValue)
1321:Drivers/STM32F1xx_HAL_Driver/Inc/stm32f1xx_ll_usart.h **** {
1322:Drivers/STM32F1xx_HAL_Driver/Inc/stm32f1xx_ll_usart.h ****   MODIFY_REG(USARTx->GTPR, USART_GTPR_PSC, PrescalerValue);
1323:Drivers/STM32F1xx_HAL_Driver/Inc/stm32f1xx_ll_usart.h **** }
1324:Drivers/STM32F1xx_HAL_Driver/Inc/stm32f1xx_ll_usart.h **** 
1325:Drivers/STM32F1xx_HAL_Driver/Inc/stm32f1xx_ll_usart.h **** /**
1326:Drivers/STM32F1xx_HAL_Driver/Inc/stm32f1xx_ll_usart.h ****   * @brief  Return Smartcard prescaler value, used for dividing the USART clock
1327:Drivers/STM32F1xx_HAL_Driver/Inc/stm32f1xx_ll_usart.h ****   *         source to provide the SMARTCARD Clock (5 bits value)
1328:Drivers/STM32F1xx_HAL_Driver/Inc/stm32f1xx_ll_usart.h ****   * @note   Macro @ref IS_SMARTCARD_INSTANCE(USARTx) can be used to check whether or not
ARM GAS  /tmp/ccBpuOwB.s 			page 42


1329:Drivers/STM32F1xx_HAL_Driver/Inc/stm32f1xx_ll_usart.h ****   *         Smartcard feature is supported by the USARTx instance.
1330:Drivers/STM32F1xx_HAL_Driver/Inc/stm32f1xx_ll_usart.h ****   * @rmtoll GTPR         PSC           LL_USART_GetSmartcardPrescaler
1331:Drivers/STM32F1xx_HAL_Driver/Inc/stm32f1xx_ll_usart.h ****   * @param  USARTx USART Instance
1332:Drivers/STM32F1xx_HAL_Driver/Inc/stm32f1xx_ll_usart.h ****   * @retval Smartcard prescaler value (Value between Min_Data=0 and Max_Data=31)
1333:Drivers/STM32F1xx_HAL_Driver/Inc/stm32f1xx_ll_usart.h ****   */
1334:Drivers/STM32F1xx_HAL_Driver/Inc/stm32f1xx_ll_usart.h **** __STATIC_INLINE uint32_t LL_USART_GetSmartcardPrescaler(USART_TypeDef *USARTx)
1335:Drivers/STM32F1xx_HAL_Driver/Inc/stm32f1xx_ll_usart.h **** {
1336:Drivers/STM32F1xx_HAL_Driver/Inc/stm32f1xx_ll_usart.h ****   return (uint32_t)(READ_BIT(USARTx->GTPR, USART_GTPR_PSC));
1337:Drivers/STM32F1xx_HAL_Driver/Inc/stm32f1xx_ll_usart.h **** }
1338:Drivers/STM32F1xx_HAL_Driver/Inc/stm32f1xx_ll_usart.h **** 
1339:Drivers/STM32F1xx_HAL_Driver/Inc/stm32f1xx_ll_usart.h **** /**
1340:Drivers/STM32F1xx_HAL_Driver/Inc/stm32f1xx_ll_usart.h ****   * @brief  Set Smartcard Guard time value, expressed in nb of baud clocks periods
1341:Drivers/STM32F1xx_HAL_Driver/Inc/stm32f1xx_ll_usart.h ****   *         (GT[7:0] bits : Guard time value)
1342:Drivers/STM32F1xx_HAL_Driver/Inc/stm32f1xx_ll_usart.h ****   * @note   Macro @ref IS_SMARTCARD_INSTANCE(USARTx) can be used to check whether or not
1343:Drivers/STM32F1xx_HAL_Driver/Inc/stm32f1xx_ll_usart.h ****   *         Smartcard feature is supported by the USARTx instance.
1344:Drivers/STM32F1xx_HAL_Driver/Inc/stm32f1xx_ll_usart.h ****   * @rmtoll GTPR         GT            LL_USART_SetSmartcardGuardTime
1345:Drivers/STM32F1xx_HAL_Driver/Inc/stm32f1xx_ll_usart.h ****   * @param  USARTx USART Instance
1346:Drivers/STM32F1xx_HAL_Driver/Inc/stm32f1xx_ll_usart.h ****   * @param  GuardTime Value between Min_Data=0x00 and Max_Data=0xFF
1347:Drivers/STM32F1xx_HAL_Driver/Inc/stm32f1xx_ll_usart.h ****   * @retval None
1348:Drivers/STM32F1xx_HAL_Driver/Inc/stm32f1xx_ll_usart.h ****   */
1349:Drivers/STM32F1xx_HAL_Driver/Inc/stm32f1xx_ll_usart.h **** __STATIC_INLINE void LL_USART_SetSmartcardGuardTime(USART_TypeDef *USARTx, uint32_t GuardTime)
1350:Drivers/STM32F1xx_HAL_Driver/Inc/stm32f1xx_ll_usart.h **** {
1351:Drivers/STM32F1xx_HAL_Driver/Inc/stm32f1xx_ll_usart.h ****   MODIFY_REG(USARTx->GTPR, USART_GTPR_GT, GuardTime << USART_POSITION_GTPR_GT);
1352:Drivers/STM32F1xx_HAL_Driver/Inc/stm32f1xx_ll_usart.h **** }
1353:Drivers/STM32F1xx_HAL_Driver/Inc/stm32f1xx_ll_usart.h **** 
1354:Drivers/STM32F1xx_HAL_Driver/Inc/stm32f1xx_ll_usart.h **** /**
1355:Drivers/STM32F1xx_HAL_Driver/Inc/stm32f1xx_ll_usart.h ****   * @brief  Return Smartcard Guard time value, expressed in nb of baud clocks periods
1356:Drivers/STM32F1xx_HAL_Driver/Inc/stm32f1xx_ll_usart.h ****   *         (GT[7:0] bits : Guard time value)
1357:Drivers/STM32F1xx_HAL_Driver/Inc/stm32f1xx_ll_usart.h ****   * @note   Macro @ref IS_SMARTCARD_INSTANCE(USARTx) can be used to check whether or not
1358:Drivers/STM32F1xx_HAL_Driver/Inc/stm32f1xx_ll_usart.h ****   *         Smartcard feature is supported by the USARTx instance.
1359:Drivers/STM32F1xx_HAL_Driver/Inc/stm32f1xx_ll_usart.h ****   * @rmtoll GTPR         GT            LL_USART_GetSmartcardGuardTime
1360:Drivers/STM32F1xx_HAL_Driver/Inc/stm32f1xx_ll_usart.h ****   * @param  USARTx USART Instance
1361:Drivers/STM32F1xx_HAL_Driver/Inc/stm32f1xx_ll_usart.h ****   * @retval Smartcard Guard time value (Value between Min_Data=0x00 and Max_Data=0xFF)
1362:Drivers/STM32F1xx_HAL_Driver/Inc/stm32f1xx_ll_usart.h ****   */
1363:Drivers/STM32F1xx_HAL_Driver/Inc/stm32f1xx_ll_usart.h **** __STATIC_INLINE uint32_t LL_USART_GetSmartcardGuardTime(USART_TypeDef *USARTx)
1364:Drivers/STM32F1xx_HAL_Driver/Inc/stm32f1xx_ll_usart.h **** {
1365:Drivers/STM32F1xx_HAL_Driver/Inc/stm32f1xx_ll_usart.h ****   return (uint32_t)(READ_BIT(USARTx->GTPR, USART_GTPR_GT) >> USART_POSITION_GTPR_GT);
1366:Drivers/STM32F1xx_HAL_Driver/Inc/stm32f1xx_ll_usart.h **** }
1367:Drivers/STM32F1xx_HAL_Driver/Inc/stm32f1xx_ll_usart.h **** 
1368:Drivers/STM32F1xx_HAL_Driver/Inc/stm32f1xx_ll_usart.h **** /**
1369:Drivers/STM32F1xx_HAL_Driver/Inc/stm32f1xx_ll_usart.h ****   * @}
1370:Drivers/STM32F1xx_HAL_Driver/Inc/stm32f1xx_ll_usart.h ****   */
1371:Drivers/STM32F1xx_HAL_Driver/Inc/stm32f1xx_ll_usart.h **** 
1372:Drivers/STM32F1xx_HAL_Driver/Inc/stm32f1xx_ll_usart.h **** /** @defgroup USART_LL_EF_Configuration_HalfDuplex Configuration functions related to Half Duplex f
1373:Drivers/STM32F1xx_HAL_Driver/Inc/stm32f1xx_ll_usart.h ****   * @{
1374:Drivers/STM32F1xx_HAL_Driver/Inc/stm32f1xx_ll_usart.h ****   */
1375:Drivers/STM32F1xx_HAL_Driver/Inc/stm32f1xx_ll_usart.h **** 
1376:Drivers/STM32F1xx_HAL_Driver/Inc/stm32f1xx_ll_usart.h **** /**
1377:Drivers/STM32F1xx_HAL_Driver/Inc/stm32f1xx_ll_usart.h ****   * @brief  Enable Single Wire Half-Duplex mode
1378:Drivers/STM32F1xx_HAL_Driver/Inc/stm32f1xx_ll_usart.h ****   * @note   Macro @ref IS_UART_HALFDUPLEX_INSTANCE(USARTx) can be used to check whether or not
1379:Drivers/STM32F1xx_HAL_Driver/Inc/stm32f1xx_ll_usart.h ****   *         Half-Duplex mode is supported by the USARTx instance.
1380:Drivers/STM32F1xx_HAL_Driver/Inc/stm32f1xx_ll_usart.h ****   * @rmtoll CR3          HDSEL         LL_USART_EnableHalfDuplex
1381:Drivers/STM32F1xx_HAL_Driver/Inc/stm32f1xx_ll_usart.h ****   * @param  USARTx USART Instance
1382:Drivers/STM32F1xx_HAL_Driver/Inc/stm32f1xx_ll_usart.h ****   * @retval None
1383:Drivers/STM32F1xx_HAL_Driver/Inc/stm32f1xx_ll_usart.h ****   */
1384:Drivers/STM32F1xx_HAL_Driver/Inc/stm32f1xx_ll_usart.h **** __STATIC_INLINE void LL_USART_EnableHalfDuplex(USART_TypeDef *USARTx)
1385:Drivers/STM32F1xx_HAL_Driver/Inc/stm32f1xx_ll_usart.h **** {
ARM GAS  /tmp/ccBpuOwB.s 			page 43


1386:Drivers/STM32F1xx_HAL_Driver/Inc/stm32f1xx_ll_usart.h ****   SET_BIT(USARTx->CR3, USART_CR3_HDSEL);
1387:Drivers/STM32F1xx_HAL_Driver/Inc/stm32f1xx_ll_usart.h **** }
1388:Drivers/STM32F1xx_HAL_Driver/Inc/stm32f1xx_ll_usart.h **** 
1389:Drivers/STM32F1xx_HAL_Driver/Inc/stm32f1xx_ll_usart.h **** /**
1390:Drivers/STM32F1xx_HAL_Driver/Inc/stm32f1xx_ll_usart.h ****   * @brief  Disable Single Wire Half-Duplex mode
1391:Drivers/STM32F1xx_HAL_Driver/Inc/stm32f1xx_ll_usart.h ****   * @note   Macro @ref IS_UART_HALFDUPLEX_INSTANCE(USARTx) can be used to check whether or not
1392:Drivers/STM32F1xx_HAL_Driver/Inc/stm32f1xx_ll_usart.h ****   *         Half-Duplex mode is supported by the USARTx instance.
1393:Drivers/STM32F1xx_HAL_Driver/Inc/stm32f1xx_ll_usart.h ****   * @rmtoll CR3          HDSEL         LL_USART_DisableHalfDuplex
1394:Drivers/STM32F1xx_HAL_Driver/Inc/stm32f1xx_ll_usart.h ****   * @param  USARTx USART Instance
1395:Drivers/STM32F1xx_HAL_Driver/Inc/stm32f1xx_ll_usart.h ****   * @retval None
1396:Drivers/STM32F1xx_HAL_Driver/Inc/stm32f1xx_ll_usart.h ****   */
1397:Drivers/STM32F1xx_HAL_Driver/Inc/stm32f1xx_ll_usart.h **** __STATIC_INLINE void LL_USART_DisableHalfDuplex(USART_TypeDef *USARTx)
1398:Drivers/STM32F1xx_HAL_Driver/Inc/stm32f1xx_ll_usart.h **** {
1399:Drivers/STM32F1xx_HAL_Driver/Inc/stm32f1xx_ll_usart.h ****   CLEAR_BIT(USARTx->CR3, USART_CR3_HDSEL);
1400:Drivers/STM32F1xx_HAL_Driver/Inc/stm32f1xx_ll_usart.h **** }
1401:Drivers/STM32F1xx_HAL_Driver/Inc/stm32f1xx_ll_usart.h **** 
1402:Drivers/STM32F1xx_HAL_Driver/Inc/stm32f1xx_ll_usart.h **** /**
1403:Drivers/STM32F1xx_HAL_Driver/Inc/stm32f1xx_ll_usart.h ****   * @brief  Indicate if Single Wire Half-Duplex mode is enabled
1404:Drivers/STM32F1xx_HAL_Driver/Inc/stm32f1xx_ll_usart.h ****   * @note   Macro @ref IS_UART_HALFDUPLEX_INSTANCE(USARTx) can be used to check whether or not
1405:Drivers/STM32F1xx_HAL_Driver/Inc/stm32f1xx_ll_usart.h ****   *         Half-Duplex mode is supported by the USARTx instance.
1406:Drivers/STM32F1xx_HAL_Driver/Inc/stm32f1xx_ll_usart.h ****   * @rmtoll CR3          HDSEL         LL_USART_IsEnabledHalfDuplex
1407:Drivers/STM32F1xx_HAL_Driver/Inc/stm32f1xx_ll_usart.h ****   * @param  USARTx USART Instance
1408:Drivers/STM32F1xx_HAL_Driver/Inc/stm32f1xx_ll_usart.h ****   * @retval State of bit (1 or 0).
1409:Drivers/STM32F1xx_HAL_Driver/Inc/stm32f1xx_ll_usart.h ****   */
1410:Drivers/STM32F1xx_HAL_Driver/Inc/stm32f1xx_ll_usart.h **** __STATIC_INLINE uint32_t LL_USART_IsEnabledHalfDuplex(USART_TypeDef *USARTx)
1411:Drivers/STM32F1xx_HAL_Driver/Inc/stm32f1xx_ll_usart.h **** {
1412:Drivers/STM32F1xx_HAL_Driver/Inc/stm32f1xx_ll_usart.h ****   return (READ_BIT(USARTx->CR3, USART_CR3_HDSEL) == (USART_CR3_HDSEL));
1413:Drivers/STM32F1xx_HAL_Driver/Inc/stm32f1xx_ll_usart.h **** }
1414:Drivers/STM32F1xx_HAL_Driver/Inc/stm32f1xx_ll_usart.h **** 
1415:Drivers/STM32F1xx_HAL_Driver/Inc/stm32f1xx_ll_usart.h **** /**
1416:Drivers/STM32F1xx_HAL_Driver/Inc/stm32f1xx_ll_usart.h ****   * @}
1417:Drivers/STM32F1xx_HAL_Driver/Inc/stm32f1xx_ll_usart.h ****   */
1418:Drivers/STM32F1xx_HAL_Driver/Inc/stm32f1xx_ll_usart.h **** 
1419:Drivers/STM32F1xx_HAL_Driver/Inc/stm32f1xx_ll_usart.h **** /** @defgroup USART_LL_EF_Configuration_LIN Configuration functions related to LIN feature
1420:Drivers/STM32F1xx_HAL_Driver/Inc/stm32f1xx_ll_usart.h ****   * @{
1421:Drivers/STM32F1xx_HAL_Driver/Inc/stm32f1xx_ll_usart.h ****   */
1422:Drivers/STM32F1xx_HAL_Driver/Inc/stm32f1xx_ll_usart.h **** 
1423:Drivers/STM32F1xx_HAL_Driver/Inc/stm32f1xx_ll_usart.h **** /**
1424:Drivers/STM32F1xx_HAL_Driver/Inc/stm32f1xx_ll_usart.h ****   * @brief  Set LIN Break Detection Length
1425:Drivers/STM32F1xx_HAL_Driver/Inc/stm32f1xx_ll_usart.h ****   * @note   Macro @ref IS_UART_LIN_INSTANCE(USARTx) can be used to check whether or not
1426:Drivers/STM32F1xx_HAL_Driver/Inc/stm32f1xx_ll_usart.h ****   *         LIN feature is supported by the USARTx instance.
1427:Drivers/STM32F1xx_HAL_Driver/Inc/stm32f1xx_ll_usart.h ****   * @rmtoll CR2          LBDL          LL_USART_SetLINBrkDetectionLen
1428:Drivers/STM32F1xx_HAL_Driver/Inc/stm32f1xx_ll_usart.h ****   * @param  USARTx USART Instance
1429:Drivers/STM32F1xx_HAL_Driver/Inc/stm32f1xx_ll_usart.h ****   * @param  LINBDLength This parameter can be one of the following values:
1430:Drivers/STM32F1xx_HAL_Driver/Inc/stm32f1xx_ll_usart.h ****   *         @arg @ref LL_USART_LINBREAK_DETECT_10B
1431:Drivers/STM32F1xx_HAL_Driver/Inc/stm32f1xx_ll_usart.h ****   *         @arg @ref LL_USART_LINBREAK_DETECT_11B
1432:Drivers/STM32F1xx_HAL_Driver/Inc/stm32f1xx_ll_usart.h ****   * @retval None
1433:Drivers/STM32F1xx_HAL_Driver/Inc/stm32f1xx_ll_usart.h ****   */
1434:Drivers/STM32F1xx_HAL_Driver/Inc/stm32f1xx_ll_usart.h **** __STATIC_INLINE void LL_USART_SetLINBrkDetectionLen(USART_TypeDef *USARTx, uint32_t LINBDLength)
1435:Drivers/STM32F1xx_HAL_Driver/Inc/stm32f1xx_ll_usart.h **** {
1436:Drivers/STM32F1xx_HAL_Driver/Inc/stm32f1xx_ll_usart.h ****   MODIFY_REG(USARTx->CR2, USART_CR2_LBDL, LINBDLength);
1437:Drivers/STM32F1xx_HAL_Driver/Inc/stm32f1xx_ll_usart.h **** }
1438:Drivers/STM32F1xx_HAL_Driver/Inc/stm32f1xx_ll_usart.h **** 
1439:Drivers/STM32F1xx_HAL_Driver/Inc/stm32f1xx_ll_usart.h **** /**
1440:Drivers/STM32F1xx_HAL_Driver/Inc/stm32f1xx_ll_usart.h ****   * @brief  Return LIN Break Detection Length
1441:Drivers/STM32F1xx_HAL_Driver/Inc/stm32f1xx_ll_usart.h ****   * @note   Macro @ref IS_UART_LIN_INSTANCE(USARTx) can be used to check whether or not
1442:Drivers/STM32F1xx_HAL_Driver/Inc/stm32f1xx_ll_usart.h ****   *         LIN feature is supported by the USARTx instance.
ARM GAS  /tmp/ccBpuOwB.s 			page 44


1443:Drivers/STM32F1xx_HAL_Driver/Inc/stm32f1xx_ll_usart.h ****   * @rmtoll CR2          LBDL          LL_USART_GetLINBrkDetectionLen
1444:Drivers/STM32F1xx_HAL_Driver/Inc/stm32f1xx_ll_usart.h ****   * @param  USARTx USART Instance
1445:Drivers/STM32F1xx_HAL_Driver/Inc/stm32f1xx_ll_usart.h ****   * @retval Returned value can be one of the following values:
1446:Drivers/STM32F1xx_HAL_Driver/Inc/stm32f1xx_ll_usart.h ****   *         @arg @ref LL_USART_LINBREAK_DETECT_10B
1447:Drivers/STM32F1xx_HAL_Driver/Inc/stm32f1xx_ll_usart.h ****   *         @arg @ref LL_USART_LINBREAK_DETECT_11B
1448:Drivers/STM32F1xx_HAL_Driver/Inc/stm32f1xx_ll_usart.h ****   */
1449:Drivers/STM32F1xx_HAL_Driver/Inc/stm32f1xx_ll_usart.h **** __STATIC_INLINE uint32_t LL_USART_GetLINBrkDetectionLen(USART_TypeDef *USARTx)
1450:Drivers/STM32F1xx_HAL_Driver/Inc/stm32f1xx_ll_usart.h **** {
1451:Drivers/STM32F1xx_HAL_Driver/Inc/stm32f1xx_ll_usart.h ****   return (uint32_t)(READ_BIT(USARTx->CR2, USART_CR2_LBDL));
1452:Drivers/STM32F1xx_HAL_Driver/Inc/stm32f1xx_ll_usart.h **** }
1453:Drivers/STM32F1xx_HAL_Driver/Inc/stm32f1xx_ll_usart.h **** 
1454:Drivers/STM32F1xx_HAL_Driver/Inc/stm32f1xx_ll_usart.h **** /**
1455:Drivers/STM32F1xx_HAL_Driver/Inc/stm32f1xx_ll_usart.h ****   * @brief  Enable LIN mode
1456:Drivers/STM32F1xx_HAL_Driver/Inc/stm32f1xx_ll_usart.h ****   * @note   Macro @ref IS_UART_LIN_INSTANCE(USARTx) can be used to check whether or not
1457:Drivers/STM32F1xx_HAL_Driver/Inc/stm32f1xx_ll_usart.h ****   *         LIN feature is supported by the USARTx instance.
1458:Drivers/STM32F1xx_HAL_Driver/Inc/stm32f1xx_ll_usart.h ****   * @rmtoll CR2          LINEN         LL_USART_EnableLIN
1459:Drivers/STM32F1xx_HAL_Driver/Inc/stm32f1xx_ll_usart.h ****   * @param  USARTx USART Instance
1460:Drivers/STM32F1xx_HAL_Driver/Inc/stm32f1xx_ll_usart.h ****   * @retval None
1461:Drivers/STM32F1xx_HAL_Driver/Inc/stm32f1xx_ll_usart.h ****   */
1462:Drivers/STM32F1xx_HAL_Driver/Inc/stm32f1xx_ll_usart.h **** __STATIC_INLINE void LL_USART_EnableLIN(USART_TypeDef *USARTx)
1463:Drivers/STM32F1xx_HAL_Driver/Inc/stm32f1xx_ll_usart.h **** {
1464:Drivers/STM32F1xx_HAL_Driver/Inc/stm32f1xx_ll_usart.h ****   SET_BIT(USARTx->CR2, USART_CR2_LINEN);
1465:Drivers/STM32F1xx_HAL_Driver/Inc/stm32f1xx_ll_usart.h **** }
1466:Drivers/STM32F1xx_HAL_Driver/Inc/stm32f1xx_ll_usart.h **** 
1467:Drivers/STM32F1xx_HAL_Driver/Inc/stm32f1xx_ll_usart.h **** /**
1468:Drivers/STM32F1xx_HAL_Driver/Inc/stm32f1xx_ll_usart.h ****   * @brief  Disable LIN mode
1469:Drivers/STM32F1xx_HAL_Driver/Inc/stm32f1xx_ll_usart.h ****   * @note   Macro @ref IS_UART_LIN_INSTANCE(USARTx) can be used to check whether or not
1470:Drivers/STM32F1xx_HAL_Driver/Inc/stm32f1xx_ll_usart.h ****   *         LIN feature is supported by the USARTx instance.
1471:Drivers/STM32F1xx_HAL_Driver/Inc/stm32f1xx_ll_usart.h ****   * @rmtoll CR2          LINEN         LL_USART_DisableLIN
1472:Drivers/STM32F1xx_HAL_Driver/Inc/stm32f1xx_ll_usart.h ****   * @param  USARTx USART Instance
1473:Drivers/STM32F1xx_HAL_Driver/Inc/stm32f1xx_ll_usart.h ****   * @retval None
1474:Drivers/STM32F1xx_HAL_Driver/Inc/stm32f1xx_ll_usart.h ****   */
1475:Drivers/STM32F1xx_HAL_Driver/Inc/stm32f1xx_ll_usart.h **** __STATIC_INLINE void LL_USART_DisableLIN(USART_TypeDef *USARTx)
1476:Drivers/STM32F1xx_HAL_Driver/Inc/stm32f1xx_ll_usart.h **** {
1477:Drivers/STM32F1xx_HAL_Driver/Inc/stm32f1xx_ll_usart.h ****   CLEAR_BIT(USARTx->CR2, USART_CR2_LINEN);
1478:Drivers/STM32F1xx_HAL_Driver/Inc/stm32f1xx_ll_usart.h **** }
1479:Drivers/STM32F1xx_HAL_Driver/Inc/stm32f1xx_ll_usart.h **** 
1480:Drivers/STM32F1xx_HAL_Driver/Inc/stm32f1xx_ll_usart.h **** /**
1481:Drivers/STM32F1xx_HAL_Driver/Inc/stm32f1xx_ll_usart.h ****   * @brief  Indicate if LIN mode is enabled
1482:Drivers/STM32F1xx_HAL_Driver/Inc/stm32f1xx_ll_usart.h ****   * @note   Macro @ref IS_UART_LIN_INSTANCE(USARTx) can be used to check whether or not
1483:Drivers/STM32F1xx_HAL_Driver/Inc/stm32f1xx_ll_usart.h ****   *         LIN feature is supported by the USARTx instance.
1484:Drivers/STM32F1xx_HAL_Driver/Inc/stm32f1xx_ll_usart.h ****   * @rmtoll CR2          LINEN         LL_USART_IsEnabledLIN
1485:Drivers/STM32F1xx_HAL_Driver/Inc/stm32f1xx_ll_usart.h ****   * @param  USARTx USART Instance
1486:Drivers/STM32F1xx_HAL_Driver/Inc/stm32f1xx_ll_usart.h ****   * @retval State of bit (1 or 0).
1487:Drivers/STM32F1xx_HAL_Driver/Inc/stm32f1xx_ll_usart.h ****   */
1488:Drivers/STM32F1xx_HAL_Driver/Inc/stm32f1xx_ll_usart.h **** __STATIC_INLINE uint32_t LL_USART_IsEnabledLIN(USART_TypeDef *USARTx)
1489:Drivers/STM32F1xx_HAL_Driver/Inc/stm32f1xx_ll_usart.h **** {
1490:Drivers/STM32F1xx_HAL_Driver/Inc/stm32f1xx_ll_usart.h ****   return (READ_BIT(USARTx->CR2, USART_CR2_LINEN) == (USART_CR2_LINEN));
1491:Drivers/STM32F1xx_HAL_Driver/Inc/stm32f1xx_ll_usart.h **** }
1492:Drivers/STM32F1xx_HAL_Driver/Inc/stm32f1xx_ll_usart.h **** 
1493:Drivers/STM32F1xx_HAL_Driver/Inc/stm32f1xx_ll_usart.h **** /**
1494:Drivers/STM32F1xx_HAL_Driver/Inc/stm32f1xx_ll_usart.h ****   * @}
1495:Drivers/STM32F1xx_HAL_Driver/Inc/stm32f1xx_ll_usart.h ****   */
1496:Drivers/STM32F1xx_HAL_Driver/Inc/stm32f1xx_ll_usart.h **** 
1497:Drivers/STM32F1xx_HAL_Driver/Inc/stm32f1xx_ll_usart.h **** /** @defgroup USART_LL_EF_AdvancedConfiguration Advanced Configurations services
1498:Drivers/STM32F1xx_HAL_Driver/Inc/stm32f1xx_ll_usart.h ****   * @{
1499:Drivers/STM32F1xx_HAL_Driver/Inc/stm32f1xx_ll_usart.h ****   */
ARM GAS  /tmp/ccBpuOwB.s 			page 45


1500:Drivers/STM32F1xx_HAL_Driver/Inc/stm32f1xx_ll_usart.h **** 
1501:Drivers/STM32F1xx_HAL_Driver/Inc/stm32f1xx_ll_usart.h **** /**
1502:Drivers/STM32F1xx_HAL_Driver/Inc/stm32f1xx_ll_usart.h ****   * @brief  Perform basic configuration of USART for enabling use in Asynchronous Mode (UART)
1503:Drivers/STM32F1xx_HAL_Driver/Inc/stm32f1xx_ll_usart.h ****   * @note   In UART mode, the following bits must be kept cleared:
1504:Drivers/STM32F1xx_HAL_Driver/Inc/stm32f1xx_ll_usart.h ****   *           - LINEN bit in the USART_CR2 register,
1505:Drivers/STM32F1xx_HAL_Driver/Inc/stm32f1xx_ll_usart.h ****   *           - CLKEN bit in the USART_CR2 register,
1506:Drivers/STM32F1xx_HAL_Driver/Inc/stm32f1xx_ll_usart.h ****   *           - SCEN bit in the USART_CR3 register,
1507:Drivers/STM32F1xx_HAL_Driver/Inc/stm32f1xx_ll_usart.h ****   *           - IREN bit in the USART_CR3 register,
1508:Drivers/STM32F1xx_HAL_Driver/Inc/stm32f1xx_ll_usart.h ****   *           - HDSEL bit in the USART_CR3 register.
1509:Drivers/STM32F1xx_HAL_Driver/Inc/stm32f1xx_ll_usart.h ****   * @note   Call of this function is equivalent to following function call sequence :
1510:Drivers/STM32F1xx_HAL_Driver/Inc/stm32f1xx_ll_usart.h ****   *         - Clear LINEN in CR2 using @ref LL_USART_DisableLIN() function
1511:Drivers/STM32F1xx_HAL_Driver/Inc/stm32f1xx_ll_usart.h ****   *         - Clear CLKEN in CR2 using @ref LL_USART_DisableSCLKOutput() function
1512:Drivers/STM32F1xx_HAL_Driver/Inc/stm32f1xx_ll_usart.h ****   *         - Clear SCEN in CR3 using @ref LL_USART_DisableSmartcard() function
1513:Drivers/STM32F1xx_HAL_Driver/Inc/stm32f1xx_ll_usart.h ****   *         - Clear IREN in CR3 using @ref LL_USART_DisableIrda() function
1514:Drivers/STM32F1xx_HAL_Driver/Inc/stm32f1xx_ll_usart.h ****   *         - Clear HDSEL in CR3 using @ref LL_USART_DisableHalfDuplex() function
